///////////////////////////////////////////////////////////////////////////////
//                                                                            /
// IAR C/C++ Compiler V8.10.1.10194/W32 for 8051        02/Jun/2021  21:46:00 /
// Copyright 2004-2011 IAR Systems AB.                                        /
//                                                                            /
//    Core               =  plain                                             /
//    Code model         =  banked                                            /
//    Data model         =  large                                             /
//    Calling convention =  xdata reentrant                                   /
//    Constant location  =  data_rom                                          /
//    Dptr setup         =  1,16                                              /
//    Source file        =  D:\毕设\CC2530-smart_home\Projects\zstack\Utiliti /
//                          es\Smart_home\Source\Smart_home_test.c            /
//    Command line       =  -f D:\毕设\CC2530-smart_home\Projects\zstack\Util /
//                          ities\Smart_home\CC2530DB\..\..\..\Tools\CC2530DB /
//                          \f8wCoord.cfg (-DCPU32MHZ -DROOT=__near_func      /
//                          -DMAC_CFG_APP_PENDING_QUEUE=TRUE                  /
//                          -DMAC_CFG_TX_DATA_MAX=5 -DMAC_CFG_TX_MAX=8        /
//                          -DMAC_CFG_RX_MAX=5 -DZDO_COORDINATOR -DRTR_NWK)   /
//                          -f D:\毕设\CC2530-smart_home\Projects\zstack\Util /
//                          ities\Smart_home\CC2530DB\..\..\..\Tools\CC2530DB /
//                          \f8wConfig.cfg (-DZIGBEEPRO -DSECURE=0            /
//                          -DZG_SECURE_DYNAMIC=0 -DREFLECTOR                 /
//                          -DDEFAULT_CHANLIST=0x02000000                     /
//                          -DZDAPP_CONFIG_PAN_ID=0x1003                      /
//                          -DNWK_START_DELAY=100 -DEXTENDED_JOINING_RANDOM_M /
//                          ASK=0x007F -DBEACON_REQUEST_DELAY=100             /
//                          -DBEACON_REQ_DELAY_MASK=0x00FF                    /
//                          -DLINK_STATUS_JITTER_MASK=0x007F                  /
//                          -DROUTE_EXPIRY_TIME=30 -DAPSC_ACK_WAIT_DURATION_P /
//                          OLLED=3000 -DNWK_INDIRECT_MSG_TIMEOUT=7           /
//                          -DMAX_RREQ_ENTRIES=8 -DAPSC_MAX_FRAME_RETRIES=3   /
//                          -DNWK_MAX_DATA_RETRIES=2                          /
//                          -DMAX_POLL_FAILURE_RETRIES=2 -DMAX_BCAST=9        /
//                          -DAPS_MAX_GROUPS=16 -DMAX_RTG_ENTRIES=40          /
//                          -DNWK_MAX_BINDING_ENTRIES=4                       /
//                          -DMAX_BINDING_CLUSTER_IDS=4                       /
//                          "-DDEFAULT_KEY={0x01, 0x03, 0x05, 0x07, 0x09,     /
//                          0x0B, 0x0D, 0x0F, 0x00, 0x02, 0x04, 0x06, 0x08,   /
//                          0x0A, 0x0C, 0x0D}" -DMAC_MAX_FRAME_SIZE=116       /
//                          -DZDNWKMGR_MIN_TRANSMISSIONS=20 "-DCONST=const    /
//                          __code" -DGENERIC=__generic                       /
//                          -DRFD_RCVC_ALWAYS_ON=FALSE -DPOLL_RATE=1000       /
//                          -DQUEUED_POLL_RATE=100 -DRESPONSE_POLL_RATE=100)  /
//                          -DREJOIN_POLL_RATE=440 D:\毕设\CC2530-smart_home\ /
//                          Projects\zstack\Utilities\Smart_home\Source\Smart /
//                          _home_test.c -D LCD_SUPPORTED -D ZDO_COORDINATOR  /
//                          -D xNV_RESTORE -D HAL_UART=TRUE -D xNV_INIT -D    /
//                          xREFLECTOR -D xHAL_UART_TEST -lC                  /
//                          D:\毕设\CC2530-smart_home\Projects\zstack\Utiliti /
//                          es\Smart_home\CC2530DB\conretest\List\ -lA        /
//                          D:\毕设\CC2530-smart_home\Projects\zstack\Utiliti /
//                          es\Smart_home\CC2530DB\conretest\List\            /
//                          --diag_suppress Pe001,Pa010 -o                    /
//                          D:\毕设\CC2530-smart_home\Projects\zstack\Utiliti /
//                          es\Smart_home\CC2530DB\conretest\Obj\ -e          /
//                          --no_code_motion --debug --core=plain             /
//                          --dptr=16,1 --data_model=large                    /
//                          --code_model=banked --calling_convention=xdata_re /
//                          entrant --place_constants=data_rom                /
//                          --nr_virtual_regs 16 -I                           /
//                          D:\毕设\CC2530-smart_home\Projects\zstack\Utiliti /
//                          es\Smart_home\CC2530DB\ -I                        /
//                          D:\毕设\CC2530-smart_home\Projects\zstack\Utiliti /
//                          es\Smart_home\CC2530DB\..\Source\ -I              /
//                          D:\毕设\CC2530-smart_home\Projects\zstack\Utiliti /
//                          es\Smart_home\CC2530DB\..\..\..\ZMain\TI2530DB\   /
//                          -I D:\毕设\CC2530-smart_home\Projects\zstack\Util /
//                          ities\Smart_home\CC2530DB\..\..\..\..\..\Componen /
//                          ts\hal\include\ -I D:\毕设\CC2530-smart_home\Proj /
//                          ects\zstack\Utilities\Smart_home\CC2530DB\..\..\. /
//                          .\..\..\Components\hal\target\CC2530MB\ -I        /
//                          D:\毕设\CC2530-smart_home\Projects\zstack\Utiliti /
//                          es\Smart_home\CC2530DB\..\..\..\..\..\Components\ /
//                          mac\include\ -I D:\毕设\CC2530-smart_home\Project /
//                          s\zstack\Utilities\Smart_home\CC2530DB\..\..\..\. /
//                          .\..\Components\mac\high_level\ -I                /
//                          D:\毕设\CC2530-smart_home\Projects\zstack\Utiliti /
//                          es\Smart_home\CC2530DB\..\..\..\..\..\Components\ /
//                          mac\low_level\srf04\ -I                           /
//                          D:\毕设\CC2530-smart_home\Projects\zstack\Utiliti /
//                          es\Smart_home\CC2530DB\..\..\..\..\..\Components\ /
//                          mac\low_level\srf04\single_chip\ -I               /
//                          D:\毕设\CC2530-smart_home\Projects\zstack\Utiliti /
//                          es\Smart_home\CC2530DB\..\..\..\..\..\Components\ /
//                          mt\ -I D:\毕设\CC2530-smart_home\Projects\zstack\ /
//                          Utilities\Smart_home\CC2530DB\..\..\..\..\..\Comp /
//                          onents\osal\include\ -I                           /
//                          D:\毕设\CC2530-smart_home\Projects\zstack\Utiliti /
//                          es\Smart_home\CC2530DB\..\..\..\..\..\Components\ /
//                          services\saddr\ -I D:\毕设\CC2530-smart_home\Proj /
//                          ects\zstack\Utilities\Smart_home\CC2530DB\..\..\. /
//                          .\..\..\Components\services\sdata\ -I             /
//                          D:\毕设\CC2530-smart_home\Projects\zstack\Utiliti /
//                          es\Smart_home\CC2530DB\..\..\..\..\..\Components\ /
//                          stack\af\ -I D:\毕设\CC2530-smart_home\Projects\z /
//                          stack\Utilities\Smart_home\CC2530DB\..\..\..\..\. /
//                          .\Components\stack\nwk\ -I                        /
//                          D:\毕设\CC2530-smart_home\Projects\zstack\Utiliti /
//                          es\Smart_home\CC2530DB\..\..\..\..\..\Components\ /
//                          stack\sapi\ -I D:\毕设\CC2530-smart_home\Projects /
//                          \zstack\Utilities\Smart_home\CC2530DB\..\..\..\.. /
//                          \..\Components\stack\sec\ -I                      /
//                          D:\毕设\CC2530-smart_home\Projects\zstack\Utiliti /
//                          es\Smart_home\CC2530DB\..\..\..\..\..\Components\ /
//                          stack\sys\ -I D:\毕设\CC2530-smart_home\Projects\ /
//                          zstack\Utilities\Smart_home\CC2530DB\..\..\..\..\ /
//                          ..\Components\stack\zdo\ -I                       /
//                          D:\毕设\CC2530-smart_home\Projects\zstack\Utiliti /
//                          es\Smart_home\CC2530DB\..\..\..\..\..\Components\ /
//                          zmac\ -I D:\毕设\CC2530-smart_home\Projects\zstac /
//                          k\Utilities\Smart_home\CC2530DB\..\..\..\..\..\Co /
//                          mponents\zmac\f8w\ -Ohz                           /
//    List file          =  D:\毕设\CC2530-smart_home\Projects\zstack\Utiliti /
//                          es\Smart_home\CC2530DB\conretest\List\Smart_home_ /
//                          test.s51                                          /
//                                                                            /
//                                                                            /
///////////////////////////////////////////////////////////////////////////////

        NAME Smart_home_test

        RTMODEL "__SystemLibrary", "CLib"
        RTMODEL "__calling_convention", "xdata_reentrant"
        RTMODEL "__code_model", "banked"
        RTMODEL "__core", "plain"
        RTMODEL "__data_model", "large"
        RTMODEL "__dptr_size", "16"
        RTMODEL "__extended_stack", "disabled"
        RTMODEL "__location_for_constants", "data"
        RTMODEL "__number_of_dptrs", "1"
        RTMODEL "__rt_version", "1"

        RSEG DOVERLAY:DATA:NOROOT(0)
        RSEG IOVERLAY:IDATA:NOROOT(0)
        RSEG ISTACK:IDATA:NOROOT(0)
        RSEG PSTACK:XDATA:NOROOT(0)
        RSEG XSTACK:XDATA:NOROOT(0)

        EXTERN ?ALLOC_XSTACK8
        EXTERN ?BANKED_ENTER_XDATA
        EXTERN ?BANKED_LEAVE_XDATA
        EXTERN ?BDISPATCH
        EXTERN ?BRET
        EXTERN ?DEALLOC_XSTACK8
        EXTERN ?PUSH_XSTACK8_X
        EXTERN ?PUSH_XSTACK8_X_TWO
        EXTERN ?PUSH_XSTACK_I_ONE
        EXTERN ?PUSH_XSTACK_I_TWO
        EXTERN ?US_SWITCH_DENSE
        EXTERN ?V0
        EXTERN ?XSP
        EXTERN ?XSTACK_DISP0_8
        EXTERN __INIT_XDATA_Z

        PUBLIC ??Device_check?relay
        FUNCTION ??Device_check?relay,0203H
        PUBLIC ??Smart_home_Device_check?relay
        FUNCTION ??Smart_home_Device_check?relay,0203H
        FUNCTION ??Smart_home_Display?relay,0203H
        PUBLIC ??Smart_home_HandleKeys?relay
        FUNCTION ??Smart_home_HandleKeys?relay,0203H
        PUBLIC ??Smart_home_Init?relay
        FUNCTION ??Smart_home_Init?relay,0203H
        PUBLIC ??Smart_home_MessageMSGCB?relay
        FUNCTION ??Smart_home_MessageMSGCB?relay,0203H
        PUBLIC ??Smart_home_Motor_cmd?relay
        FUNCTION ??Smart_home_Motor_cmd?relay,0203H
        PUBLIC ??Smart_home_ProcessEvent?relay
        FUNCTION ??Smart_home_ProcessEvent?relay,0203H
        PUBLIC ??Smart_home_ProcessZDOMsgs?relay
        FUNCTION ??Smart_home_ProcessZDOMsgs?relay,0203H
        PUBLIC ??Smart_home_SendToMotorMSG?relay
        FUNCTION ??Smart_home_SendToMotorMSG?relay,0203H
        PUBLIC ??Smart_home_SendToRelayMSG?relay
        FUNCTION ??Smart_home_SendToRelayMSG?relay,0203H
        PUBLIC ??TransmitAPP_CallBack?relay
        FUNCTION ??TransmitAPP_CallBack?relay,0203H
        PUBLIC Coordinator_Msg
        PUBLIC Device_check
        FUNCTION Device_check,0203H
        ARGFRAME XSTACK, 6, STACK
        ARGFRAME IOVERLAY, 0, STATIC
        ARGFRAME DOVERLAY, 0, STATIC
        LOCFRAME ISTACK, 2, STACK
        PUBLIC Humit
        PUBLIC RfID
        PUBLIC Smart_home_Device_check
        FUNCTION Smart_home_Device_check,021203H
        ARGFRAME XSTACK, 12, STACK
        ARGFRAME IOVERLAY, 0, STATIC
        ARGFRAME DOVERLAY, 0, STATIC
        LOCFRAME ISTACK, 2, STACK
        LOCFRAME XSTACK, 6, STACK
        FUNCTION Smart_home_Display,021203H
        ARGFRAME XSTACK, 12, STACK
        ARGFRAME IOVERLAY, 0, STATIC
        ARGFRAME DOVERLAY, 0, STATIC
        LOCFRAME XSTACK, 16, STACK
        PUBLIC Smart_home_DstAddr
        PUBLIC Smart_home_DstMotorAddr
        PUBLIC Smart_home_DstRelayAddr
        PUBLIC Smart_home_HandleKeys
        FUNCTION Smart_home_HandleKeys,021203H
        ARGFRAME XSTACK, 12, STACK
        ARGFRAME IOVERLAY, 0, STATIC
        ARGFRAME DOVERLAY, 0, STATIC
        LOCFRAME XSTACK, 9, STACK
        PUBLIC Smart_home_InClusterList
        PUBLIC Smart_home_Init
        FUNCTION Smart_home_Init,021203H
        ARGFRAME XSTACK, 0, STACK
        LOCFRAME XSTACK, 40, STACK
        PUBLIC Smart_home_MaxDataLength
        PUBLIC Smart_home_MessageMSGCB
        FUNCTION Smart_home_MessageMSGCB,0a1203H
        ARGFRAME XSTACK, 12, STACK
        ARGFRAME IOVERLAY, 0, STATIC
        ARGFRAME DOVERLAY, 0, STATIC
        LOCFRAME XSTACK, 10, STACK
        PUBLIC Smart_home_Motor_cmd
        FUNCTION Smart_home_Motor_cmd,021203H
        ARGFRAME XSTACK, 9, STACK
        ARGFRAME IOVERLAY, 0, STATIC
        ARGFRAME DOVERLAY, 0, STATIC
        LOCFRAME XSTACK, 9, STACK
        PUBLIC Smart_home_OutClusterList
        PUBLIC Smart_home_ProcessEvent
        FUNCTION Smart_home_ProcessEvent,021203H
        ARGFRAME XSTACK, 0, STACK
        LOCFRAME XSTACK, 12, STACK
        PUBLIC Smart_home_ProcessZDOMsgs
        FUNCTION Smart_home_ProcessZDOMsgs,0203H
        ARGFRAME XSTACK, 0, STACK
        PUBLIC Smart_home_SendToMotorMSG
        FUNCTION Smart_home_SendToMotorMSG,021203H
        ARGFRAME XSTACK, 9, STACK
        ARGFRAME IOVERLAY, 0, STATIC
        ARGFRAME DOVERLAY, 0, STATIC
        LOCFRAME XSTACK, 19, STACK
        PUBLIC Smart_home_SendToRelayMSG
        FUNCTION Smart_home_SendToRelayMSG,021203H
        ARGFRAME XSTACK, 9, STACK
        ARGFRAME IOVERLAY, 0, STATIC
        ARGFRAME DOVERLAY, 0, STATIC
        LOCFRAME XSTACK, 19, STACK
        PUBLIC Smart_home_SimpleDesc
        PUBLIC Smart_home_TaskID
        PUBLIC Smart_home_epDesc
        PUBLIC TempLight
        PUBLIC TransmitAPP_CallBack
        FUNCTION TransmitAPP_CallBack,0603H
        ARGFRAME XSTACK, 0, STACK
        PUBLIC gasFlame
        PUBLIC infrared
        PUBLIC motor
        PUBLIC relay
        PUBLIC soundVb
        
        CFI Names cfiNames0
        CFI StackFrame CFA_SP SP IDATA
        CFI StackFrame CFA_PSP16 PSP16 XDATA
        CFI StackFrame CFA_XSP16 XSP16 XDATA
        CFI StaticOverlayFrame CFA_IOVERLAY IOVERLAY
        CFI StaticOverlayFrame CFA_DOVERLAY DOVERLAY
        CFI Resource `PSW.CY`:1, `B.BR0`:1, `B.BR1`:1, `B.BR2`:1, `B.BR3`:1
        CFI Resource `B.BR4`:1, `B.BR5`:1, `B.BR6`:1, `B.BR7`:1, `VB.BR8`:1
        CFI Resource `VB.BR9`:1, `VB.BR10`:1, `VB.BR11`:1, `VB.BR12`:1
        CFI Resource `VB.BR13`:1, `VB.BR14`:1, `VB.BR15`:1, VB:8, B:8, A:8
        CFI Resource PSW:8, DPL0:8, DPH0:8, R0:8, R1:8, R2:8, R3:8, R4:8, R5:8
        CFI Resource R6:8, R7:8, V0:8, V1:8, V2:8, V3:8, V4:8, V5:8, V6:8, V7:8
        CFI Resource V8:8, V9:8, V10:8, V11:8, V12:8, V13:8, V14:8, V15:8, SP:8
        CFI Resource PSPH:8, PSPL:8, PSP16:16, XSPH:8, XSPL:8, XSP16:16
        CFI VirtualResource ?RET:24
        CFI Resource ?BRET_EXT:8
        CFI VirtualResource ?RET_HIGH:8, ?RET_LOW:8
        CFI ResourceParts PSP16 PSPH, PSPL
        CFI ResourceParts XSP16 XSPH, XSPL
        CFI ResourceParts ?RET ?BRET_EXT, ?RET_HIGH, ?RET_LOW
        CFI EndNames cfiNames0
        
        CFI Common cfiCommon0 Using cfiNames0
        CFI CodeAlign 1
        CFI DataAlign -1
        CFI ReturnAddress ?RET CODE
        CFI CFA_DOVERLAY Used
        CFI CFA_IOVERLAY Used
        CFI CFA_SP SP+-3
        CFI CFA_PSP16 PSP16+0
        CFI CFA_XSP16 XSP16+0
        CFI `PSW.CY` SameValue
        CFI `B.BR0` SameValue
        CFI `B.BR1` SameValue
        CFI `B.BR2` SameValue
        CFI `B.BR3` SameValue
        CFI `B.BR4` SameValue
        CFI `B.BR5` SameValue
        CFI `B.BR6` SameValue
        CFI `B.BR7` SameValue
        CFI `VB.BR8` SameValue
        CFI `VB.BR9` SameValue
        CFI `VB.BR10` SameValue
        CFI `VB.BR11` SameValue
        CFI `VB.BR12` SameValue
        CFI `VB.BR13` SameValue
        CFI `VB.BR14` SameValue
        CFI `VB.BR15` SameValue
        CFI VB SameValue
        CFI B Undefined
        CFI A Undefined
        CFI PSW SameValue
        CFI DPL0 SameValue
        CFI DPH0 SameValue
        CFI R0 Undefined
        CFI R1 Undefined
        CFI R2 Undefined
        CFI R3 Undefined
        CFI R4 Undefined
        CFI R5 Undefined
        CFI R6 SameValue
        CFI R7 SameValue
        CFI V0 SameValue
        CFI V1 SameValue
        CFI V2 SameValue
        CFI V3 SameValue
        CFI V4 SameValue
        CFI V5 SameValue
        CFI V6 SameValue
        CFI V7 SameValue
        CFI V8 SameValue
        CFI V9 SameValue
        CFI V10 SameValue
        CFI V11 SameValue
        CFI V12 SameValue
        CFI V13 SameValue
        CFI V14 SameValue
        CFI V15 SameValue
        CFI PSPH Undefined
        CFI PSPL Undefined
        CFI XSPH Undefined
        CFI XSPL Undefined
        CFI ?RET Concat
        CFI ?BRET_EXT Frame(CFA_SP, 3)
        CFI ?RET_HIGH Frame(CFA_SP, 2)
        CFI ?RET_LOW Frame(CFA_SP, 1)
        CFI EndCommon cfiCommon0
        
        
        CFI Common cfiCommon1 Using cfiNames0
        CFI CodeAlign 1
        CFI DataAlign -1
        CFI ReturnAddress ?RET CODE
        CFI CFA_DOVERLAY Used
        CFI CFA_IOVERLAY Used
        CFI CFA_SP SP+-2
        CFI CFA_PSP16 PSP16+0
        CFI CFA_XSP16 XSP16+0
        CFI `PSW.CY` SameValue
        CFI `B.BR0` SameValue
        CFI `B.BR1` SameValue
        CFI `B.BR2` SameValue
        CFI `B.BR3` SameValue
        CFI `B.BR4` SameValue
        CFI `B.BR5` SameValue
        CFI `B.BR6` SameValue
        CFI `B.BR7` SameValue
        CFI `VB.BR8` SameValue
        CFI `VB.BR9` SameValue
        CFI `VB.BR10` SameValue
        CFI `VB.BR11` SameValue
        CFI `VB.BR12` SameValue
        CFI `VB.BR13` SameValue
        CFI `VB.BR14` SameValue
        CFI `VB.BR15` SameValue
        CFI VB SameValue
        CFI B SameValue
        CFI A SameValue
        CFI PSW SameValue
        CFI DPL0 SameValue
        CFI DPH0 SameValue
        CFI R0 SameValue
        CFI R1 SameValue
        CFI R2 SameValue
        CFI R3 SameValue
        CFI R4 SameValue
        CFI R5 SameValue
        CFI R6 SameValue
        CFI R7 SameValue
        CFI V0 SameValue
        CFI V1 SameValue
        CFI V2 SameValue
        CFI V3 SameValue
        CFI V4 SameValue
        CFI V5 SameValue
        CFI V6 SameValue
        CFI V7 SameValue
        CFI V8 SameValue
        CFI V9 SameValue
        CFI V10 SameValue
        CFI V11 SameValue
        CFI V12 SameValue
        CFI V13 SameValue
        CFI V14 SameValue
        CFI V15 SameValue
        CFI PSPH Undefined
        CFI PSPL Undefined
        CFI XSPH Undefined
        CFI XSPL Undefined
        CFI ?RET Concat
        CFI ?BRET_EXT SameValue
        CFI ?RET_HIGH Frame(CFA_SP, 2)
        CFI ?RET_LOW Frame(CFA_SP, 1)
        CFI EndCommon cfiCommon1
        
HalUARTOpen         SYMBOL "HalUARTOpen"
afRegister          SYMBOL "afRegister"
RegisterForKeys     SYMBOL "RegisterForKeys"
HalLcdWriteString   SYMBOL "HalLcdWriteString"
afDataReqMTU        SYMBOL "afDataReqMTU"
ZDO_RegisterForZDOMsg SYMBOL "ZDO_RegisterForZDOMsg"
osal_start_timerEx  SYMBOL "osal_start_timerEx"
NLME_PermitJoiningRequest SYMBOL "NLME_PermitJoiningRequest"
HalLedSet           SYMBOL "HalLedSet"
HalUARTWrite        SYMBOL "HalUARTWrite"
osal_msg_receive    SYMBOL "osal_msg_receive"
osal_msg_deallocate SYMBOL "osal_msg_deallocate"
AF_DataRequest      SYMBOL "AF_DataRequest"
HalLcdWriteStringValueValue SYMBOL "HalLcdWriteStringValueValue"
HalLcdDisplayPercentBar SYMBOL "HalLcdDisplayPercentBar"
memcpy              SYMBOL "memcpy"
HalLcdWriteStringValue SYMBOL "HalLcdWriteStringValue"
??AF_DataRequest?relay SYMBOL "?relay", AF_DataRequest
??HalLcdDisplayPercentBar?relay SYMBOL "?relay", HalLcdDisplayPercentBar
??HalLcdWriteString?relay SYMBOL "?relay", HalLcdWriteString
??HalLcdWriteStringValue?relay SYMBOL "?relay", HalLcdWriteStringValue
??HalLcdWriteStringValueValue?relay SYMBOL "?relay", HalLcdWriteStringValueValue
??HalLedSet?relay   SYMBOL "?relay", HalLedSet
??HalUARTOpen?relay SYMBOL "?relay", HalUARTOpen
??HalUARTWrite?relay SYMBOL "?relay", HalUARTWrite
??NLME_PermitJoiningRequest?relay SYMBOL "?relay", NLME_PermitJoiningRequest
??RegisterForKeys?relay SYMBOL "?relay", RegisterForKeys
??ZDO_RegisterForZDOMsg?relay SYMBOL "?relay", ZDO_RegisterForZDOMsg
??afDataReqMTU?relay SYMBOL "?relay", afDataReqMTU
??afRegister?relay  SYMBOL "?relay", afRegister
??memcpy?relay      SYMBOL "?relay", memcpy
??osal_msg_deallocate?relay SYMBOL "?relay", osal_msg_deallocate
??osal_msg_receive?relay SYMBOL "?relay", osal_msg_receive
??osal_start_timerEx?relay SYMBOL "?relay", osal_start_timerEx
Device_check        SYMBOL "Device_check"
??Device_check?relay SYMBOL "?relay", Device_check
Smart_home_Device_check SYMBOL "Smart_home_Device_check"
??Smart_home_Device_check?relay SYMBOL "?relay", Smart_home_Device_check
Smart_home_HandleKeys SYMBOL "Smart_home_HandleKeys"
??Smart_home_HandleKeys?relay SYMBOL "?relay", Smart_home_HandleKeys
Smart_home_Init     SYMBOL "Smart_home_Init"
??Smart_home_Init?relay SYMBOL "?relay", Smart_home_Init
Smart_home_MessageMSGCB SYMBOL "Smart_home_MessageMSGCB"
??Smart_home_MessageMSGCB?relay SYMBOL "?relay", Smart_home_MessageMSGCB
Smart_home_Motor_cmd SYMBOL "Smart_home_Motor_cmd"
??Smart_home_Motor_cmd?relay SYMBOL "?relay", Smart_home_Motor_cmd
Smart_home_ProcessEvent SYMBOL "Smart_home_ProcessEvent"
??Smart_home_ProcessEvent?relay SYMBOL "?relay", Smart_home_ProcessEvent
Smart_home_ProcessZDOMsgs SYMBOL "Smart_home_ProcessZDOMsgs"
??Smart_home_ProcessZDOMsgs?relay SYMBOL "?relay", Smart_home_ProcessZDOMsgs
Smart_home_SendToMotorMSG SYMBOL "Smart_home_SendToMotorMSG"
??Smart_home_SendToMotorMSG?relay SYMBOL "?relay", Smart_home_SendToMotorMSG
Smart_home_SendToRelayMSG SYMBOL "Smart_home_SendToRelayMSG"
??Smart_home_SendToRelayMSG?relay SYMBOL "?relay", Smart_home_SendToRelayMSG
TransmitAPP_CallBack SYMBOL "TransmitAPP_CallBack"
??TransmitAPP_CallBack?relay SYMBOL "?relay", TransmitAPP_CallBack

        EXTERN HalUARTOpen
        FUNCTION HalUARTOpen,0202H
        ARGFRAME ISTACK, 0, STACK
        ARGFRAME PSTACK, 0, STACK
        ARGFRAME XSTACK, 40, STACK
        ARGFRAME IOVERLAY, 0, STATIC
        ARGFRAME DOVERLAY, 0, STATIC
        EXTERN afRegister
        FUNCTION afRegister,0202H
        ARGFRAME ISTACK, 0, STACK
        ARGFRAME PSTACK, 0, STACK
        ARGFRAME XSTACK, 40, STACK
        ARGFRAME IOVERLAY, 0, STATIC
        ARGFRAME DOVERLAY, 0, STATIC
        EXTERN RegisterForKeys
        FUNCTION RegisterForKeys,0202H
        ARGFRAME ISTACK, 0, STACK
        ARGFRAME PSTACK, 0, STACK
        ARGFRAME XSTACK, 40, STACK
        ARGFRAME IOVERLAY, 0, STATIC
        ARGFRAME DOVERLAY, 0, STATIC
        EXTERN HalLcdWriteString
        FUNCTION HalLcdWriteString,0202H
        ARGFRAME ISTACK, 0, STACK
        ARGFRAME PSTACK, 0, STACK
        ARGFRAME XSTACK, 40, STACK
        ARGFRAME IOVERLAY, 0, STATIC
        ARGFRAME DOVERLAY, 0, STATIC
        EXTERN afDataReqMTU
        FUNCTION afDataReqMTU,0202H
        ARGFRAME ISTACK, 0, STACK
        ARGFRAME PSTACK, 0, STACK
        ARGFRAME XSTACK, 40, STACK
        ARGFRAME IOVERLAY, 0, STATIC
        ARGFRAME DOVERLAY, 0, STATIC
        EXTERN ZDO_RegisterForZDOMsg
        FUNCTION ZDO_RegisterForZDOMsg,0202H
        ARGFRAME ISTACK, 0, STACK
        ARGFRAME PSTACK, 0, STACK
        ARGFRAME XSTACK, 40, STACK
        ARGFRAME IOVERLAY, 0, STATIC
        ARGFRAME DOVERLAY, 0, STATIC
        EXTERN osal_start_timerEx
        FUNCTION osal_start_timerEx,0202H
        ARGFRAME ISTACK, 0, STACK
        ARGFRAME PSTACK, 0, STACK
        ARGFRAME XSTACK, 40, STACK
        ARGFRAME IOVERLAY, 0, STATIC
        ARGFRAME DOVERLAY, 0, STATIC
        EXTERN NLME_PermitJoiningRequest
        FUNCTION NLME_PermitJoiningRequest,0202H
        ARGFRAME ISTACK, 0, STACK
        ARGFRAME PSTACK, 0, STACK
        ARGFRAME XSTACK, 40, STACK
        ARGFRAME IOVERLAY, 0, STATIC
        ARGFRAME DOVERLAY, 0, STATIC
        EXTERN HalLedSet
        FUNCTION HalLedSet,0202H
        ARGFRAME ISTACK, 0, STACK
        ARGFRAME PSTACK, 0, STACK
        ARGFRAME XSTACK, 40, STACK
        ARGFRAME IOVERLAY, 0, STATIC
        ARGFRAME DOVERLAY, 0, STATIC
        EXTERN HalUARTWrite
        FUNCTION HalUARTWrite,0202H
        ARGFRAME ISTACK, 0, STACK
        ARGFRAME PSTACK, 0, STACK
        ARGFRAME XSTACK, 40, STACK
        ARGFRAME IOVERLAY, 0, STATIC
        ARGFRAME DOVERLAY, 0, STATIC
        EXTERN osal_msg_receive
        FUNCTION osal_msg_receive,0202H
        ARGFRAME ISTACK, 0, STACK
        ARGFRAME PSTACK, 0, STACK
        ARGFRAME XSTACK, 12, STACK
        ARGFRAME IOVERLAY, 0, STATIC
        ARGFRAME DOVERLAY, 0, STATIC
        EXTERN osal_msg_deallocate
        FUNCTION osal_msg_deallocate,0202H
        ARGFRAME ISTACK, 0, STACK
        ARGFRAME PSTACK, 0, STACK
        ARGFRAME XSTACK, 12, STACK
        ARGFRAME IOVERLAY, 0, STATIC
        ARGFRAME DOVERLAY, 0, STATIC
        EXTERN AF_DataRequest
        FUNCTION AF_DataRequest,0202H
        ARGFRAME ISTACK, 0, STACK
        ARGFRAME PSTACK, 0, STACK
        ARGFRAME XSTACK, 19, STACK
        ARGFRAME IOVERLAY, 0, STATIC
        ARGFRAME DOVERLAY, 0, STATIC
        EXTERN HalLcdWriteStringValueValue
        FUNCTION HalLcdWriteStringValueValue,0202H
        ARGFRAME ISTACK, 0, STACK
        ARGFRAME PSTACK, 0, STACK
        ARGFRAME XSTACK, 16, STACK
        ARGFRAME IOVERLAY, 0, STATIC
        ARGFRAME DOVERLAY, 0, STATIC
        EXTERN HalLcdDisplayPercentBar
        FUNCTION HalLcdDisplayPercentBar,0202H
        ARGFRAME ISTACK, 0, STACK
        ARGFRAME PSTACK, 0, STACK
        ARGFRAME XSTACK, 10, STACK
        ARGFRAME IOVERLAY, 0, STATIC
        ARGFRAME DOVERLAY, 0, STATIC
        EXTERN memcpy
        FUNCTION memcpy,010202H
        ARGFRAME ISTACK, 0, STACK
        ARGFRAME PSTACK, 0, STACK
        ARGFRAME XSTACK, 12, STACK
        ARGFRAME IOVERLAY, 0, STATIC
        ARGFRAME DOVERLAY, 0, STATIC
        EXTERN HalLcdWriteStringValue
        FUNCTION HalLcdWriteStringValue,0202H
        ARGFRAME ISTACK, 0, STACK
        ARGFRAME PSTACK, 0, STACK
        ARGFRAME XSTACK, 11, STACK
        ARGFRAME IOVERLAY, 0, STATIC
        ARGFRAME DOVERLAY, 0, STATIC
        EXTERN ??AF_DataRequest?relay
        FUNCTION ??AF_DataRequest?relay,00H
        EXTERN ??HalLcdDisplayPercentBar?relay
        FUNCTION ??HalLcdDisplayPercentBar?relay,00H
        EXTERN ??HalLcdWriteString?relay
        FUNCTION ??HalLcdWriteString?relay,00H
        EXTERN ??HalLcdWriteStringValue?relay
        FUNCTION ??HalLcdWriteStringValue?relay,00H
        EXTERN ??HalLcdWriteStringValueValue?relay
        FUNCTION ??HalLcdWriteStringValueValue?relay,00H
        EXTERN ??HalLedSet?relay
        FUNCTION ??HalLedSet?relay,00H
        EXTERN ??HalUARTOpen?relay
        FUNCTION ??HalUARTOpen?relay,00H
        EXTERN ??HalUARTWrite?relay
        FUNCTION ??HalUARTWrite?relay,00H
        EXTERN ??NLME_PermitJoiningRequest?relay
        FUNCTION ??NLME_PermitJoiningRequest?relay,00H
        EXTERN ??RegisterForKeys?relay
        FUNCTION ??RegisterForKeys?relay,00H
        EXTERN ??ZDO_RegisterForZDOMsg?relay
        FUNCTION ??ZDO_RegisterForZDOMsg?relay,00H
        EXTERN ??afDataReqMTU?relay
        FUNCTION ??afDataReqMTU?relay,00H
        EXTERN ??afRegister?relay
        FUNCTION ??afRegister?relay,00H
        EXTERN ??memcpy?relay
        FUNCTION ??memcpy?relay,00H
        EXTERN ??osal_msg_deallocate?relay
        FUNCTION ??osal_msg_deallocate?relay,00H
        EXTERN ??osal_msg_receive?relay
        FUNCTION ??osal_msg_receive?relay,00H
        EXTERN ??osal_start_timerEx?relay
        FUNCTION ??osal_start_timerEx?relay,00H

// D:\毕设\CC2530-smart_home\Projects\zstack\Utilities\Smart_home\Source\Smart_home_test.c
//    1 /**************************************************************************************************
//    2   文件名：Smart_home.c
//    3   作 者： 柳成林
//    4   功 能： 作为网关节点，实现传感器信息的采集，并可以通过其控制一些节点
//    5           终端设备主要分为8个，分别为
//    6      1、温度与光照度传感器；2、烟雾与火焰传感器；3、继电器；4、温湿度传感器；
//    7      5、声音与震动传感器；  6、人体红外检测传感器；7、电机；8、RFID检测器。
//    8   更新日志(2021)
//    9   3.13
//   10   + 新增 8种传感器的Project并设置好编译情况
//   11   + 修改 Smart_home_ProcessEvent() （增加各种处理器的事件）
//   12          Smart_home_Init()         （初始化内容修改，添加设备默认离线）
//   13   3.14
//   14   + 修改 Smart_home_ProcessMSGCmd()（添加终端节点类型判断，具体处理留空）
//   15   + 新增 Hal层各种传感器驱动(头文件)
//   16          ClusterList (添加8个终端，分开出与入)
//   17   3.17
//   18   + 修改 Smart_home_ProcessMSGCmd() （完成接收后对于各终端处理）
//   19   + 添加 Smart_home_HandleKeys()     (修改原来函数增添概念，未补全)
//   20   + 删除 static void Smart_home_Send(void);
//   21          static void Smart_home_Resp(void);
//   22          两个函数
//   23   3.19
//   24   + 检查 出现的warning并做标识
//   25   + 修改 Smart_home_HandleKeys() （补全设计函数）
//   26   + 新增 Smart_home_Device_check() (设备是否在线检查)
//   27 
//   28   3.21
//   29   + 新增 DeviceList以方便初始化和设备在线检查（本地变量部分）
//   30          Smart_home_Display()    （屏幕显示，未补全）
//   31          Smart_home_Key_add()     (控制按键，附加项)
//   32   + 修改 Smart_home_Device_check()
//   33          Smart_home_Init()
//   34          Smart_home_ProcessMSGCmd()
//   35          调整有关DeviceList（设备列表）部分的修改
//   36          直接使用数组位置号作为设备编号
//   37          按键控制方式，用按键情况控制
//   38   3.22
//   39   + 修改 Smart_home_Display()    （屏幕显示，补全）
//   40          Smart_home_Key_add()     (屏幕显示中的电机与继电器部分加入这里)
//   41          重写别名方式减少内存损耗
//   42          出现无法初始化的问题，需要项目重构
//   43   3.23
//   44   + Warn 代码初始化后会产生直接进入key的情况,需debug
//   45          OK键问题无法修复，放弃使用OK键，修改为Cencel组网 禁止组网
//   46   3.23 正式完成网关节点部分，（显示函数部分除外）
//   47   3.24 
//   48   + 修改 Smart_home_Key_add()与display函数整合
//   49   + bug:在每十秒一次调用的周期检查函数中会导致显示屏将近一秒时间不显示
//   50     已解决： 在状态0的时候作为在线即可
//   51   + 完成 显示功能设置
//   52   3.28 调试时间
//   53   + 解决motor显示的bug
//   54   4.4
//   55   + 解决温湿度数据不回显的bug
//   56   4.6
//   57   + 正式拿到所有节点开始调试
//   58   4.9
//   59   + 解决掉串口Bug
//   60   4.14
//   61   + 发现在多终端加入时会出现断网或假死问题，开始寻找
//   62   4.26
//   63   + 提出几种假设，利用其他平台做抓包器尝试
//   64   5.6
//   65   + 不能应用NV操作，因为NV操作仅能烧写20000次，并需要固定位置读取。
//   66   + 调试了N天，感觉是内存问题，开始对程序进行负优化，以时间换空间  （内存仅128字节）
//   67   5.8
//   68   + 串口传输原来的想法是边发边传，但是这样会导致系统崩溃，换用事件轮询定时发送的方式传输
//   69   + 上位机联动效果开始构想
//   70    
//   71   经调试程序无bug，可以接收各个传感器消息。//3.22
//   72   当我没说。。好像出了内存问题//3.22
//   73   项目重构啦！，现在又只有一个小问题了/3.23
//   74 *********************************************************************/
//   75 
//   76 /*******************************************************************************
//   77  * INCLUDES
//   78  */
//   79 #include "OSAL.h"
//   80 #include "AF.h"
//   81 #include "ZDObject.h"
//   82 #include "ZDProfile.h"
//   83 #include "nwk_util.h"
//   84 
//   85 #include "Smart_home.h"
//   86 #include "OnBoard.h"
//   87 
//   88 #include "DebugTrace.h"
//   89 #include "string.h"
//   90 
//   91 /* HAL */
//   92 #include "hal_lcd.h"
//   93 #include "hal_led.h"
//   94 #include "hal_key.h"
//   95 #include "hal_uart.h"
//   96 
//   97 /*******************************************************************************
//   98  * MACROS
//   99  */
//  100 
//  101 // 设备离线定时计数临界值
//  102 #define  DEVICE_HEART_BEAT 3
//  103 
//  104 // Send with or without APS ACKs
//  105 #define Smart_home_TX_OPTIONS              AF_DISCV_ROUTE
//  106 
//  107 // 第一次LCD显示延时
//  108 #define Smart_home_DISPLAY_DELAY           10000
//  109 // LCD每次显示时间间隔
//  110 #define Smart_home_DISPLAY_TIMER           2000
//  111 
//  112 #define Smart_home_DEVICE_CHECK_DELAY      5000
//  113 #define Smart_home_DEVICE_CHECK_TIMER      2000 
//  114 // not used here
//  115 #define Smart_home_MATCH_TIMER     
//  116 // not used here
//  117 #define Smart_home_BIND_TIMER      
//  118 
//  119 #if defined ( Smart_home_FRAGMENTED )
//  120 #define Smart_home_MAX_DATA_LEN            225
//  121 #else
//  122 #define Smart_home_MAX_DATA_LEN            102
//  123 #endif
//  124 
//  125 /*******************************************************************************
//  126  * GLOBAL VARIABLES
//  127  */
//  128 
//  129 // This is the buffer that is sent out as data.

        RSEG XDATA_Z:XDATA:NOROOT(0)
        DATA8
//  130 byte Coordinator_Msg[ Smart_home_MAX_DATA_LEN ];
Coordinator_Msg:
        DS 102
        REQUIRE __INIT_XDATA_Z
//  131 
//  132 // This is the Cluster ID List and should be filled with Application
//  133 // specific cluster IDs.

        RSEG XDATA_ROM_C:CONST:REORDER:NOROOT(0)
        DATA8
//  134 const cId_t Smart_home_InClusterList[Smart_home_MAX_INCLUSTERS] =
Smart_home_InClusterList:
        DATA16
        DW 1
        DW 2
        DW 3
        DW 4
        DW 5
        DW 6
        DW 7
        DW 8
        DW 0
//  135 {
//  136   Smart_home_CLUSTERID_HUMITMSG,      // 温湿度
//  137   Smart_home_CLUSTERID_TEMPLIGHTMSG,  // 温度光照
//  138   Smart_home_CLUSTERID_RFIDMSG,       // 射频卡
//  139   Smart_home_CLUSTERID_GASFLAMEMSG,   // 气体火焰
//  140   Smart_home_CLUSTERID_INFRAREDMSG,   // 人体红外
//  141   Smart_home_CLUSTERID_SOUNDVBMSG,    // 声音震动
//  142   Smart_home_CLUSTERID_MOTORSTATUSMSG,// 电机状态
//  143   Smart_home_CLUSTERID_RELAYSTATUSMSG // 继电器状态
//  144 };
//  145 

        RSEG XDATA_ROM_C:CONST:REORDER:NOROOT(0)
        DATA8
//  146 const cId_t Smart_home_OutClusterList[Smart_home_MAX_OUTCLUSTERS] =
Smart_home_OutClusterList:
        DATA16
        DW 9
        DW 11
        DW 10
//  147 {
//  148   Smart_home_CLUSTERID_TEXT,    
//  149   Smart_home_CLUSTERID_MOTORCTRL,   // 继电器
//  150   Smart_home_CLUSTERID_RELAYCTRL    // 直流电机
//  151 };
//  152 

        RSEG XDATA_ROM_C:CONST:REORDER:NOROOT(0)
        DATA8
//  153 const SimpleDescriptionFormat_t Smart_home_SimpleDesc =
Smart_home_SimpleDesc:
        DB 1
        DATA16
        DW 3845
        DW 1
        DATA8
        DB 0
        DB 9
        DATA16
        DW Smart_home_InClusterList
        DATA8
        DB 3
        DATA16
        DW Smart_home_OutClusterList
//  154 {
//  155   Smart_home_ENDPOINT,                //  int    Endpoint;
//  156   Smart_home_PROFID,                  //  uint16 AppProfId[2];
//  157   Smart_home_DEVICEID,                //  uint16 AppDeviceId[2];
//  158   Smart_home_DEVICE_VERSION,          //  int    AppDevVer:4;
//  159   Smart_home_FLAGS,                   //  int    AppFlags:4;
//  160   Smart_home_MAX_INCLUSTERS,          
//  161   (cId_t *)Smart_home_InClusterList,  
//  162   Smart_home_MAX_OUTCLUSTERS,         
//  163   (cId_t *)Smart_home_OutClusterList  
//  164 };
//  165 
//  166 // This is the Endpoint/Interface description.  It is defined here, but
//  167 // filled-in in Smart_home_Init().  Another way to go would be to fill
//  168 // in the structure here and make it a "const" (in code space).  The
//  169 // way it's defined in this sample app it is define in RAM.

        RSEG XDATA_Z:XDATA:NOROOT(0)
        DATA8
//  170 endPointDesc_t Smart_home_epDesc;    // 定义节点
Smart_home_epDesc:
        DS 6
        REQUIRE __INIT_XDATA_Z
//  171 
//  172 
//  173 /*******************************************************************************
//  174  *串口配置
//  175  */
//  176 #define TRANSMIT_APP_PORT  0
//  177 // zstack default: 38400
//  178 #define TRANSMIT_APP_BAUD  HAL_UART_BR_115200
//  179 // When the Rx buf space is less than this threshold, invoke the Rx callback.
//  180 #define TRANSMIT_APP_THRESH  64
//  181 #define TRANSMIT_APP_RX_SZ  128
//  182 #define TRANSMIT_APP_TX_SZ  128
//  183 // Millisecs of idle time after a byte is received before invoking Rx callback.
//  184 #define TRANSMIT_APP_IDLE  6
//  185 // Loopback Rx bytes to Tx for throughput testing.
//  186 #define TRANSMIT_APP_LOOPBACK  FALSE
//  187 
//  188 /*关于显示部分相关的宏*/
//  189 #define LCD_PAGE_MAX         4     //目前目录页最多4页
//  190 

        RSEG XDATA_Z:XDATA:NOROOT(0)
        DATA8
//  191 static int8 Ctrlcase = 0;    //0用来控制屏幕显示，1控制继电器，2控制电机
Ctrlcase:
        DS 1
        REQUIRE __INIT_XDATA_Z

        RSEG XDATA_Z:XDATA:NOROOT(0)
        DATA8
//  192 static int8 LCD_Page  =  0;  //终端状态显示
LCD_Page:
        DS 1
        REQUIRE __INIT_XDATA_Z
//  193 /* 直流电机状态(status)定义*/
//  194 #define  HAL_MOTOR_STOP            0x01
//  195 #define  HAL_MOTOR_FORWARD         0x02
//  196 #define  HAL_MOTOR_BACKWARD        0x03
//  197 #define  MOTOR_MAX_SPEED           2400
//  198 
//  199 /*********************************************************************
//  200  * LOCAL VARIABLES
//  201  */
//  202 
//  203 /*3.18 终端节点的设备详细信息缓存*/
//  204 /*5.6 尝试利用离散变量的方式*/
//  205 //DeviceInfo   DeviceList[Smart_home_MAX_INCLUSTERS];                      //设备列表 
//  206 // 温湿度缓存, 第一个字节是湿度，第二个字节是温度(均是整数)

        RSEG XDATA_Z:XDATA:NOROOT(0)
        DATA8
//  207 DeviceInfo Humit;
Humit:
        DS 6
        REQUIRE __INIT_XDATA_Z
//  208 // 温度光照缓存, 前两个字节是温度整数和小数, 后两个字节是光照的16位整数 

        RSEG XDATA_Z:XDATA:NOROOT(0)
        DATA8
//  209 DeviceInfo TempLight;
TempLight:
        DS 6
        REQUIRE __INIT_XDATA_Z
//  210 // RFID 信息

        RSEG XDATA_Z:XDATA:NOROOT(0)
        DATA8
//  211 DeviceInfo RfID;
RfID:
        DS 6
        REQUIRE __INIT_XDATA_Z
//  212 //气体火焰

        RSEG XDATA_Z:XDATA:NOROOT(0)
        DATA8
//  213 DeviceInfo gasFlame;
gasFlame:
        DS 6
        REQUIRE __INIT_XDATA_Z
//  214 //人体红外

        RSEG XDATA_Z:XDATA:NOROOT(0)
        DATA8
//  215 DeviceInfo infrared;
infrared:
        DS 6
        REQUIRE __INIT_XDATA_Z
//  216 //电机状态

        RSEG XDATA_Z:XDATA:NOROOT(0)
        DATA8
//  217 DeviceInfo motor;
motor:
        DS 6
        REQUIRE __INIT_XDATA_Z
//  218 //继电器状态

        RSEG XDATA_Z:XDATA:NOROOT(0)
        DATA8
//  219 DeviceInfo relay;
relay:
        DS 6
        REQUIRE __INIT_XDATA_Z
//  220 //声音震动

        RSEG XDATA_Z:XDATA:NOROOT(0)
        DATA8
//  221 DeviceInfo soundVb;
soundVb:
        DS 6
        REQUIRE __INIT_XDATA_Z
//  222 
//  223 // Task ID for event processing - received when Smart_home_Init() is called.

        RSEG XDATA_Z:XDATA:NOROOT(0)
        DATA8
//  224 byte Smart_home_TaskID;
Smart_home_TaskID:
        DS 1
        REQUIRE __INIT_XDATA_Z
//  225 
//  226 

        RSEG XDATA_Z:XDATA:NOROOT(0)
        DATA8
//  227 static byte Smart_home_RelayTransID;  // This is the unique message ID (counter)
Smart_home_RelayTransID:
        DS 1
        REQUIRE __INIT_XDATA_Z

        RSEG XDATA_Z:XDATA:NOROOT(0)
        DATA8
//  228 static byte Smart_home_MotorTransID;  // This is the unique message ID (counter)
Smart_home_MotorTransID:
        DS 1
        REQUIRE __INIT_XDATA_Z
//  229 

        RSEG XDATA_Z:XDATA:NOROOT(0)
        DATA8
//  230 afAddrType_t Smart_home_DstAddr;
Smart_home_DstAddr:
        DS 12
        REQUIRE __INIT_XDATA_Z
//  231 

        RSEG XDATA_Z:XDATA:NOROOT(0)
        DATA8
//  232 afAddrType_t Smart_home_DstRelayAddr;
Smart_home_DstRelayAddr:
        DS 12
        REQUIRE __INIT_XDATA_Z
//  233 

        RSEG XDATA_Z:XDATA:NOROOT(0)
        DATA8
//  234 afAddrType_t Smart_home_DstMotorAddr;
Smart_home_DstMotorAddr:
        DS 12
        REQUIRE __INIT_XDATA_Z
//  235 
//  236 // Max Data Request Length

        RSEG XDATA_Z:XDATA:NOROOT(0)
        DATA16
//  237 uint16 Smart_home_MaxDataLength;
Smart_home_MaxDataLength:
        DS 2
        REQUIRE __INIT_XDATA_Z
//  238 
//  239 
//  240 /*******************************************************************************
//  241  * LOCAL FUNCTIONS
//  242  */
//  243 void Smart_home_ProcessZDOMsgs( zdoIncomingMsg_t *inMsg );
//  244 void Smart_home_HandleKeys( byte shift, byte keys );
//  245 void Smart_home_MessageMSGCB( afIncomingMSGPacket_t *pckt );
//  246 void Smart_home_SendToRelayMSG( uint8 cmd );
//  247 void Smart_home_SendToMotorMSG( uint8 cmd,uint8 speed );
//  248 void TransmitAPP_CallBack(uint8 port, uint8 event);
//  249 void Smart_home_Device_check(void);
//  250 void Smart_home_Display(void);
//  251 
//  252 /*******************************************************************************
//  253  * @fn      Smart_home_Init
//  254  *
//  255  * @brief   Initialization function for the Generic App Task.
//  256  *          This is called during initialization and should contain
//  257  *          any application specific initialization (ie. hardware
//  258  *          initialization/setup, table initialization, power up
//  259  *          notificaiton ... ).
//  260  *
//  261  * @param   task_id - the ID assigned by OSAL.  This ID should be
//  262  *                    used to send messages and set timers.
//  263  *
//  264  * @return  none
//  265  */

        RSEG BANKED_CODE:CODE:NOROOT(0)
//  266 void Smart_home_Init( byte task_id )
Smart_home_Init:
        CFI Block cfiBlock0 Using cfiCommon0
        CFI Function Smart_home_Init
        CODE
//  267 {
        FUNCALL Smart_home_Init, HalUARTOpen
        LOCFRAME ISTACK, 0, STACK
        LOCFRAME PSTACK, 0, STACK
        LOCFRAME XSTACK, 40, STACK
        LOCFRAME IOVERLAY, 0, STATIC
        LOCFRAME DOVERLAY, 0, STATIC
        ARGFRAME ISTACK, 0, STACK
        ARGFRAME PSTACK, 0, STACK
        ARGFRAME XSTACK, 40, STACK
        ARGFRAME IOVERLAY, 0, STATIC
        ARGFRAME DOVERLAY, 0, STATIC
        FUNCALL Smart_home_Init, afRegister
        LOCFRAME ISTACK, 0, STACK
        LOCFRAME PSTACK, 0, STACK
        LOCFRAME XSTACK, 40, STACK
        LOCFRAME IOVERLAY, 0, STATIC
        LOCFRAME DOVERLAY, 0, STATIC
        ARGFRAME ISTACK, 0, STACK
        ARGFRAME PSTACK, 0, STACK
        ARGFRAME XSTACK, 40, STACK
        ARGFRAME IOVERLAY, 0, STATIC
        ARGFRAME DOVERLAY, 0, STATIC
        FUNCALL Smart_home_Init, RegisterForKeys
        LOCFRAME ISTACK, 0, STACK
        LOCFRAME PSTACK, 0, STACK
        LOCFRAME XSTACK, 40, STACK
        LOCFRAME IOVERLAY, 0, STATIC
        LOCFRAME DOVERLAY, 0, STATIC
        ARGFRAME ISTACK, 0, STACK
        ARGFRAME PSTACK, 0, STACK
        ARGFRAME XSTACK, 40, STACK
        ARGFRAME IOVERLAY, 0, STATIC
        ARGFRAME DOVERLAY, 0, STATIC
        FUNCALL Smart_home_Init, HalLcdWriteString
        LOCFRAME ISTACK, 0, STACK
        LOCFRAME PSTACK, 0, STACK
        LOCFRAME XSTACK, 40, STACK
        LOCFRAME IOVERLAY, 0, STATIC
        LOCFRAME DOVERLAY, 0, STATIC
        ARGFRAME ISTACK, 0, STACK
        ARGFRAME PSTACK, 0, STACK
        ARGFRAME XSTACK, 40, STACK
        ARGFRAME IOVERLAY, 0, STATIC
        ARGFRAME DOVERLAY, 0, STATIC
        FUNCALL Smart_home_Init, afDataReqMTU
        LOCFRAME ISTACK, 0, STACK
        LOCFRAME PSTACK, 0, STACK
        LOCFRAME XSTACK, 40, STACK
        LOCFRAME IOVERLAY, 0, STATIC
        LOCFRAME DOVERLAY, 0, STATIC
        ARGFRAME ISTACK, 0, STACK
        ARGFRAME PSTACK, 0, STACK
        ARGFRAME XSTACK, 40, STACK
        ARGFRAME IOVERLAY, 0, STATIC
        ARGFRAME DOVERLAY, 0, STATIC
        FUNCALL Smart_home_Init, ZDO_RegisterForZDOMsg
        LOCFRAME ISTACK, 0, STACK
        LOCFRAME PSTACK, 0, STACK
        LOCFRAME XSTACK, 40, STACK
        LOCFRAME IOVERLAY, 0, STATIC
        LOCFRAME DOVERLAY, 0, STATIC
        ARGFRAME ISTACK, 0, STACK
        ARGFRAME PSTACK, 0, STACK
        ARGFRAME XSTACK, 40, STACK
        ARGFRAME IOVERLAY, 0, STATIC
        ARGFRAME DOVERLAY, 0, STATIC
        FUNCALL Smart_home_Init, ZDO_RegisterForZDOMsg
        LOCFRAME ISTACK, 0, STACK
        LOCFRAME PSTACK, 0, STACK
        LOCFRAME XSTACK, 40, STACK
        LOCFRAME IOVERLAY, 0, STATIC
        LOCFRAME DOVERLAY, 0, STATIC
        ARGFRAME ISTACK, 0, STACK
        ARGFRAME PSTACK, 0, STACK
        ARGFRAME XSTACK, 40, STACK
        ARGFRAME IOVERLAY, 0, STATIC
        ARGFRAME DOVERLAY, 0, STATIC
        FUNCALL Smart_home_Init, osal_start_timerEx
        LOCFRAME ISTACK, 0, STACK
        LOCFRAME PSTACK, 0, STACK
        LOCFRAME XSTACK, 40, STACK
        LOCFRAME IOVERLAY, 0, STATIC
        LOCFRAME DOVERLAY, 0, STATIC
        ARGFRAME ISTACK, 0, STACK
        ARGFRAME PSTACK, 0, STACK
        ARGFRAME XSTACK, 40, STACK
        ARGFRAME IOVERLAY, 0, STATIC
        ARGFRAME DOVERLAY, 0, STATIC
        FUNCALL Smart_home_Init, osal_start_timerEx
        LOCFRAME ISTACK, 0, STACK
        LOCFRAME PSTACK, 0, STACK
        LOCFRAME XSTACK, 40, STACK
        LOCFRAME IOVERLAY, 0, STATIC
        LOCFRAME DOVERLAY, 0, STATIC
        ARGFRAME ISTACK, 0, STACK
        ARGFRAME PSTACK, 0, STACK
        ARGFRAME XSTACK, 40, STACK
        ARGFRAME IOVERLAY, 0, STATIC
        ARGFRAME DOVERLAY, 0, STATIC
        FUNCALL Smart_home_Init, NLME_PermitJoiningRequest
        LOCFRAME ISTACK, 0, STACK
        LOCFRAME PSTACK, 0, STACK
        LOCFRAME XSTACK, 40, STACK
        LOCFRAME IOVERLAY, 0, STATIC
        LOCFRAME DOVERLAY, 0, STATIC
        ARGFRAME ISTACK, 0, STACK
        ARGFRAME PSTACK, 0, STACK
        ARGFRAME XSTACK, 40, STACK
        ARGFRAME IOVERLAY, 0, STATIC
        ARGFRAME DOVERLAY, 0, STATIC
        FUNCALL Smart_home_Init, HalLedSet
        LOCFRAME ISTACK, 0, STACK
        LOCFRAME PSTACK, 0, STACK
        LOCFRAME XSTACK, 40, STACK
        LOCFRAME IOVERLAY, 0, STATIC
        LOCFRAME DOVERLAY, 0, STATIC
        ARGFRAME ISTACK, 0, STACK
        ARGFRAME PSTACK, 0, STACK
        ARGFRAME XSTACK, 40, STACK
        ARGFRAME IOVERLAY, 0, STATIC
        ARGFRAME DOVERLAY, 0, STATIC
        FUNCALL Smart_home_Init, HalUARTWrite
        LOCFRAME ISTACK, 0, STACK
        LOCFRAME PSTACK, 0, STACK
        LOCFRAME XSTACK, 40, STACK
        LOCFRAME IOVERLAY, 0, STATIC
        LOCFRAME DOVERLAY, 0, STATIC
        ARGFRAME ISTACK, 0, STACK
        ARGFRAME PSTACK, 0, STACK
        ARGFRAME XSTACK, 40, STACK
        ARGFRAME IOVERLAY, 0, STATIC
        ARGFRAME DOVERLAY, 0, STATIC
        MOV     A,#-0x9
        LCALL   ?BANKED_ENTER_XDATA
        CFI DPH0 load(1, XDATA, add(CFA_XSP16, literal(-1)))
        CFI DPL0 load(1, XDATA, add(CFA_XSP16, literal(-2)))
        CFI ?BRET_EXT load(1, XDATA, add(CFA_XSP16, literal(-3)))
        CFI ?RET_HIGH load(1, XDATA, add(CFA_XSP16, literal(-4)))
        CFI ?RET_LOW load(1, XDATA, add(CFA_XSP16, literal(-5)))
        CFI R7 load(1, XDATA, add(CFA_XSP16, literal(-6)))
        CFI V0 load(1, XDATA, add(CFA_XSP16, literal(-7)))
        CFI VB load(1, XDATA, add(CFA_XSP16, literal(-8)))
        CFI R6 load(1, XDATA, add(CFA_XSP16, literal(-9)))
        CFI CFA_SP SP+0
        CFI CFA_XSP16 add(XSP16, 9)
        ; Saved register size: 9
        ; Auto size: 31
        MOV     A,#-0x1f
        LCALL   ?ALLOC_XSTACK8
        CFI CFA_XSP16 add(XSP16, 40)
        MOV     A,R1
        MOV     R6,A
//  268 #if HAL_UART==TRUE
//  269   halUARTCfg_t uartConfig;
//  270 
//  271   uartConfig.configured           = TRUE;              // 2x30 don't care - see uart driver.
        MOV     A,#0x2
        LCALL   ?XSTACK_DISP0_8
        MOV     A,#0x1
        MOVX    @DPTR,A
//  272   uartConfig.baudRate             = TRANSMIT_APP_BAUD;
        MOV     A,#0x3
        LCALL   ?XSTACK_DISP0_8
        MOV     A,#0x4
        MOVX    @DPTR,A
//  273   uartConfig.flowControl          = FALSE;
        LCALL   ?XSTACK_DISP0_8
        CLR     A
        MOVX    @DPTR,A
//  274   uartConfig.flowControlThreshold = TRANSMIT_APP_THRESH; // 2x30 don't care - see uart driver.
        MOV     A,#0x5
        LCALL   ?XSTACK_DISP0_8
        MOV     A,#0x40
        LCALL   ??Subroutine35_0 & 0xFFFF
//  275   uartConfig.rx.maxBufSize        = TRANSMIT_APP_RX_SZ;  // 2x30 don't care - see uart driver.
??CrossCallReturnLabel_84:
        MOV     A,#0xc
        LCALL   ?XSTACK_DISP0_8
        LCALL   ?Subroutine13 & 0xFFFF
//  276   uartConfig.tx.maxBufSize        = TRANSMIT_APP_TX_SZ;  // 2x30 don't care - see uart driver.
??CrossCallReturnLabel_87:
        MOV     A,#0x14
        LCALL   ?XSTACK_DISP0_8
        LCALL   ?Subroutine13 & 0xFFFF
//  277   uartConfig.idleTimeout          = TRANSMIT_APP_IDLE;   // 2x30 don't care - see uart driver.
??CrossCallReturnLabel_88:
        MOV     A,#0x7
        LCALL   ?XSTACK_DISP0_8
        MOV     A,#0x6
        MOVX    @DPTR,A
//  278   uartConfig.intEnable            = FALSE;              // 2x30 don't care - see uart driver.
        MOV     A,#0x18
        LCALL   ?XSTACK_DISP0_8
        CLR     A
        MOVX    @DPTR,A
//  279   uartConfig.callBackFunc         = TransmitAPP_CallBack;
        MOV     A,#0x1d
        LCALL   ?XSTACK_DISP0_8
        MOV     A,#??TransmitAPP_CallBack?relay & 0xff
        MOVX    @DPTR,A
        INC     DPTR
        MOV     A,#(??TransmitAPP_CallBack?relay >> 8) & 0xff
        MOVX    @DPTR,A
//  280   HalUARTOpen (HAL_UART_PORT_0, &uartConfig);
        ; Setup parameters for call to function HalUARTOpen
        MOV     A,#0x2
        LCALL   ?XSTACK_DISP0_8
        MOV     R2,DPL
        MOV     R3,DPH
        MOV     R1,#0x0
        LCALL   ??HalUARTOpen?relay
//  281 #endif
//  282   
//  283 #if !defined ( Smart_home_FRAGMENTED )
//  284   afDataReqMTU_t mtu;
//  285 #endif
//  286   uint16 i;
//  287 
//  288   Smart_home_TaskID = task_id;
        MOV     A,R6
        MOV     DPTR,#Smart_home_TaskID
        MOVX    @DPTR,A
//  289   Smart_home_RelayTransID = 0;
        MOV     DPTR,#Smart_home_RelayTransID
        CLR     A
        MOVX    @DPTR,A
//  290   Smart_home_MotorTransID = 0;
        MOV     DPTR,#Smart_home_MotorTransID
        MOVX    @DPTR,A
//  291 
//  292   // Device hardware initialization can be added here or in main() (Zmain.c).
//  293   // If the hardware is application specific - add it here.
//  294   // If the hardware is other parts of the device add it in main().
//  295 
//  296   //Smart_home_DstAddr.addrMode = (afAddrMode_t)AddrNotPresent;
//  297   //Smart_home_DstAddr.endPoint = 0;
//  298   //Smart_home_DstAddr.addr.shortAddr = 0;
//  299 
//  300   // Fill out the endpoint description.
//  301   // 初始化节点
//  302   Smart_home_epDesc.endPoint = Smart_home_ENDPOINT;   // 端口号
        MOV     DPTR,#Smart_home_epDesc
        INC     A
        MOVX    @DPTR,A
//  303   Smart_home_epDesc.task_id = &Smart_home_TaskID;     // 任务ID
        INC     DPTR
        MOV     A,#Smart_home_TaskID & 0xff
        MOVX    @DPTR,A
        INC     DPTR
        MOV     A,#(Smart_home_TaskID >> 8) & 0xff
        MOVX    @DPTR,A
//  304   Smart_home_epDesc.simpleDesc                         // 简单描述符来描述端口
//  305             = (SimpleDescriptionFormat_t *)&Smart_home_SimpleDesc;
        INC     DPTR
        MOV     A,#Smart_home_SimpleDesc & 0xff
        MOVX    @DPTR,A
        INC     DPTR
        MOV     A,#(Smart_home_SimpleDesc >> 8) & 0xff
        LCALL   ??Subroutine35_0 & 0xFFFF
//  306   Smart_home_epDesc.latencyReq = noLatencyReqs;
//  307 
//  308   // Register the endpoint/interface description with the AF
//  309   afRegister( &Smart_home_epDesc );
??CrossCallReturnLabel_83:
        ; Setup parameters for call to function afRegister
        MOV     R2,#Smart_home_epDesc & 0xff
        MOV     R3,#(Smart_home_epDesc >> 8) & 0xff
        LCALL   ??afRegister?relay
//  310 
//  311   // Register for all key events - This app will handle all key events
//  312   RegisterForKeys( Smart_home_TaskID );
        ; Setup parameters for call to function RegisterForKeys
        MOV     DPTR,#Smart_home_TaskID
        MOVX    A,@DPTR
        MOV     R1,A
        LCALL   ??RegisterForKeys?relay
//  313 
//  314   // Update the display
//  315 #if defined ( LCD_SUPPORTED )
//  316   HalLcdWriteString( "Smart_home", HAL_LCD_LINE_2 );
        ; Setup parameters for call to function HalLcdWriteString
        MOV     R1,#0x2
        MOV     R2,#`?<Constant "Smart_home">` & 0xff
        MOV     R3,#(`?<Constant "Smart_home">` >> 8) & 0xff
        LCALL   ??HalLcdWriteString?relay
//  317 #endif
//  318 
//  319   // Set the data length
//  320 #if defined ( Smart_home_FRAGMENTED )
//  321   Smart_home_MaxDataLength = Smart_home_MAX_DATA_LEN;
//  322 #else
//  323   mtu.kvp        = FALSE;
        MOV     DPL,?XSP + 0
        MOV     DPH,?XSP + 1
        CLR     A
        MOVX    @DPTR,A
//  324   mtu.aps.secure = FALSE;
        INC     A
        LCALL   ?XSTACK_DISP0_8
        CLR     A
        MOVX    @DPTR,A
//  325   Smart_home_MaxDataLength = afDataReqMTU( &mtu );
        ; Setup parameters for call to function afDataReqMTU
        MOV     DPL,?XSP + 0
        MOV     DPH,?XSP + 1
        MOV     R2,DPL
        MOV     R3,DPH
        LCALL   ??afDataReqMTU?relay
        MOV     A,R1
        MOV     DPTR,#Smart_home_MaxDataLength
        LCALL   ??Subroutine35_0 & 0xFFFF
//  326 #endif
//  327 
//  328   // 发送数据清零
//  329   for (i = 0; i < Smart_home_MaxDataLength; i++)
??CrossCallReturnLabel_85:
        MOV     DPTR,#Smart_home_MaxDataLength
        MOVX    A,@DPTR
        JZ      ??Smart_home_Init_0
//  330   {
//  331     Coordinator_Msg[i] = 0;
        MOV     R0,A
        MOV     R1,#0x0
        MOV     DPTR,#Coordinator_Msg
??Smart_home_Init_1:
        CLR     A
        MOVX    @DPTR,A
        INC     DPTR
        MOV     A,R0
        ADD     A,#-0x1
        DEC     R0
        MOV     A,R1
        ADDC    A,#-0x1
        MOV     R1,A
        ORL     A,R0
        JNZ     ??Smart_home_Init_1
//  332   }
//  333 
//  334   // 注册两个MSG
//  335   ZDO_RegisterForZDOMsg( Smart_home_TaskID, End_Device_Bind_rsp );
??Smart_home_Init_0:
        ; Setup parameters for call to function ZDO_RegisterForZDOMsg
        MOV     R2,#0x20
        MOV     R3,#-0x80
        MOV     DPTR,#Smart_home_TaskID
        MOVX    A,@DPTR
        MOV     R1,A
        LCALL   ??ZDO_RegisterForZDOMsg?relay
//  336   ZDO_RegisterForZDOMsg( Smart_home_TaskID, Match_Desc_rsp );
        ; Setup parameters for call to function ZDO_RegisterForZDOMsg
        MOV     R2,#0x6
        MOV     R3,#-0x80
        MOV     DPTR,#Smart_home_TaskID
        MOVX    A,@DPTR
        MOV     R1,A
        LCALL   ??ZDO_RegisterForZDOMsg?relay
//  337   
//  338   // 打开显示，第一次延时周期较长
//  339   osal_start_timerEx( Smart_home_TaskID, SMART_HOME_DISPLAY_EVT, 
//  340                       Smart_home_DISPLAY_DELAY);
        ; Setup parameters for call to function osal_start_timerEx
        MOV     R4,#0x10
        MOV     R5,#0x27
        LCALL   ?Subroutine17 & 0xFFFF
//  341   
//  342   // 打开设备在线检测，第一次开启检测延时较长时间
//  343   osal_start_timerEx( Smart_home_TaskID, SMART_HOME_DEVICE_CHECK_EVT, 
//  344                       Smart_home_DEVICE_CHECK_DELAY);
??CrossCallReturnLabel_76:
        ; Setup parameters for call to function osal_start_timerEx
        MOV     R4,#-0x78
        MOV     R5,#0x13
        MOV     R2,#-0x80
        LCALL   ??Subroutine33_0 & 0xFFFF
//  345   
//  346   // 关闭LED灯(D4)，表示协调器默认不允许组网
//  347   NLME_PermitJoiningRequest(0x00);
??CrossCallReturnLabel_78:
        ; Setup parameters for call to function NLME_PermitJoiningRequest
        MOV     R1,#0x0
        LCALL   ?Subroutine25 & 0xFFFF
//  348   HalLedSet(HAL_LED_1, HAL_LED_MODE_OFF);
//  349   HalUARTWrite(HAL_UART_PORT_0, "init success!\n",   14);
??CrossCallReturnLabel_62:
        ; Setup parameters for call to function HalUARTWrite
        MOV     R4,#0xe
        MOV     R5,#0x0
        MOV     R2,#`?<Constant "init success!\\n">` & 0xff
        MOV     R3,#(`?<Constant "init success!\\n">` >> 8) & 0xff
        MOV     R1,#0x0
        LCALL   ??HalUARTWrite?relay
//  350   
//  351   // 设备离线状态检测初始化，初始化为离线
//  352   Humit.deviceStatus     = DEVICE_OFFLINE;
        MOV     DPTR,#Humit
        MOV     A,#0x2
        MOVX    @DPTR,A
//  353   TempLight.deviceStatus = DEVICE_OFFLINE;
        MOV     DPTR,#TempLight
        MOVX    @DPTR,A
//  354   RfID.deviceStatus      = DEVICE_OFFLINE;
        MOV     DPTR,#RfID
        MOVX    @DPTR,A
//  355   gasFlame.deviceStatus  = DEVICE_OFFLINE;
        MOV     DPTR,#gasFlame
        MOVX    @DPTR,A
//  356   infrared.deviceStatus  = DEVICE_OFFLINE;
        MOV     DPTR,#infrared
        MOVX    @DPTR,A
//  357   soundVb.deviceStatus   = DEVICE_OFFLINE;
        MOV     DPTR,#soundVb
        MOVX    @DPTR,A
//  358   motor.deviceStatus     = DEVICE_OFFLINE;
        MOV     DPTR,#motor
        MOVX    @DPTR,A
//  359   relay.deviceStatus     = DEVICE_OFFLINE;
        MOV     DPTR,#relay
        MOVX    @DPTR,A
//  360 }
        MOV     A,#0x1f
        LCALL   ?DEALLOC_XSTACK8
        CFI EndBlock cfiBlock0
        REQUIRE ?Subroutine0
        ; // Fall through to label ?Subroutine0

        RSEG BANKED_CODE:CODE:NOROOT(0)
?Subroutine0:
        CFI Block cfiBlock1 Using cfiCommon0
        CFI NoFunction
        CFI CFA_SP SP+0
        CFI CFA_XSP16 add(XSP16, 9)
        CFI VB load(1, XDATA, add(CFA_XSP16, literal(-8)))
        CFI DPL0 load(1, XDATA, add(CFA_XSP16, literal(-2)))
        CFI DPH0 load(1, XDATA, add(CFA_XSP16, literal(-1)))
        CFI R6 load(1, XDATA, add(CFA_XSP16, literal(-9)))
        CFI R7 load(1, XDATA, add(CFA_XSP16, literal(-6)))
        CFI V0 load(1, XDATA, add(CFA_XSP16, literal(-7)))
        CFI ?BRET_EXT load(1, XDATA, add(CFA_XSP16, literal(-3)))
        CFI ?RET_HIGH load(1, XDATA, add(CFA_XSP16, literal(-4)))
        CFI ?RET_LOW load(1, XDATA, add(CFA_XSP16, literal(-5)))
        MOV     R7,#0x1
        LJMP    ?BANKED_LEAVE_XDATA
        CFI EndBlock cfiBlock1
//  361 
//  362 /*******************************************************************************
//  363  * @fn      Smart_home_ProcessEvent
//  364  *
//  365  * @brief   Generic Application Task event processor.  This function
//  366  *          is called to process all events for the task.  Events
//  367  *          include timers, messages and any other user defined events.
//  368  *
//  369  * @param   task_id  - The OSAL assigned task ID.
//  370  * @param   events - events to process.  This is a bit map and can
//  371  *                   contain more than one event.
//  372  *
//  373  * @return  none
//  374  */

        RSEG BANKED_CODE:CODE:NOROOT(0)
//  375 UINT16 Smart_home_ProcessEvent( byte task_id, UINT16 events )
Smart_home_ProcessEvent:
        CFI Block cfiBlock2 Using cfiCommon0
        CFI Function Smart_home_ProcessEvent
        CODE
//  376 {
        FUNCALL Smart_home_ProcessEvent, osal_msg_receive
        LOCFRAME ISTACK, 0, STACK
        LOCFRAME PSTACK, 0, STACK
        LOCFRAME XSTACK, 12, STACK
        LOCFRAME IOVERLAY, 0, STATIC
        LOCFRAME DOVERLAY, 0, STATIC
        ARGFRAME ISTACK, 0, STACK
        ARGFRAME PSTACK, 0, STACK
        ARGFRAME XSTACK, 12, STACK
        ARGFRAME IOVERLAY, 0, STATIC
        ARGFRAME DOVERLAY, 0, STATIC
        FUNCALL Smart_home_ProcessEvent, Smart_home_MessageMSGCB
        LOCFRAME ISTACK, 0, STACK
        LOCFRAME PSTACK, 0, STACK
        LOCFRAME XSTACK, 12, STACK
        LOCFRAME IOVERLAY, 0, STATIC
        LOCFRAME DOVERLAY, 0, STATIC
        ARGFRAME ISTACK, 0, STACK
        ARGFRAME PSTACK, 0, STACK
        ARGFRAME XSTACK, 12, STACK
        ARGFRAME IOVERLAY, 0, STATIC
        ARGFRAME DOVERLAY, 0, STATIC
        FUNCALL Smart_home_ProcessEvent, osal_msg_deallocate
        LOCFRAME ISTACK, 0, STACK
        LOCFRAME PSTACK, 0, STACK
        LOCFRAME XSTACK, 12, STACK
        LOCFRAME IOVERLAY, 0, STATIC
        LOCFRAME DOVERLAY, 0, STATIC
        ARGFRAME ISTACK, 0, STACK
        ARGFRAME PSTACK, 0, STACK
        ARGFRAME XSTACK, 12, STACK
        ARGFRAME IOVERLAY, 0, STATIC
        ARGFRAME DOVERLAY, 0, STATIC
        FUNCALL Smart_home_ProcessEvent, osal_msg_receive
        LOCFRAME ISTACK, 0, STACK
        LOCFRAME PSTACK, 0, STACK
        LOCFRAME XSTACK, 12, STACK
        LOCFRAME IOVERLAY, 0, STATIC
        LOCFRAME DOVERLAY, 0, STATIC
        ARGFRAME ISTACK, 0, STACK
        ARGFRAME PSTACK, 0, STACK
        ARGFRAME XSTACK, 12, STACK
        ARGFRAME IOVERLAY, 0, STATIC
        ARGFRAME DOVERLAY, 0, STATIC
        FUNCALL Smart_home_ProcessEvent, Smart_home_HandleKeys
        LOCFRAME ISTACK, 0, STACK
        LOCFRAME PSTACK, 0, STACK
        LOCFRAME XSTACK, 12, STACK
        LOCFRAME IOVERLAY, 0, STATIC
        LOCFRAME DOVERLAY, 0, STATIC
        ARGFRAME ISTACK, 0, STACK
        ARGFRAME PSTACK, 0, STACK
        ARGFRAME XSTACK, 12, STACK
        ARGFRAME IOVERLAY, 0, STATIC
        ARGFRAME DOVERLAY, 0, STATIC
        FUNCALL Smart_home_ProcessEvent, Smart_home_Device_check
        LOCFRAME ISTACK, 0, STACK
        LOCFRAME PSTACK, 0, STACK
        LOCFRAME XSTACK, 12, STACK
        LOCFRAME IOVERLAY, 0, STATIC
        LOCFRAME DOVERLAY, 0, STATIC
        ARGFRAME ISTACK, 0, STACK
        ARGFRAME PSTACK, 0, STACK
        ARGFRAME XSTACK, 12, STACK
        ARGFRAME IOVERLAY, 0, STATIC
        ARGFRAME DOVERLAY, 0, STATIC
        FUNCALL Smart_home_ProcessEvent, osal_start_timerEx
        LOCFRAME ISTACK, 0, STACK
        LOCFRAME PSTACK, 0, STACK
        LOCFRAME XSTACK, 12, STACK
        LOCFRAME IOVERLAY, 0, STATIC
        LOCFRAME DOVERLAY, 0, STATIC
        ARGFRAME ISTACK, 0, STACK
        ARGFRAME PSTACK, 0, STACK
        ARGFRAME XSTACK, 12, STACK
        ARGFRAME IOVERLAY, 0, STATIC
        ARGFRAME DOVERLAY, 0, STATIC
        FUNCALL Smart_home_ProcessEvent, Smart_home_Display
        LOCFRAME ISTACK, 0, STACK
        LOCFRAME PSTACK, 0, STACK
        LOCFRAME XSTACK, 12, STACK
        LOCFRAME IOVERLAY, 0, STATIC
        LOCFRAME DOVERLAY, 0, STATIC
        ARGFRAME ISTACK, 0, STACK
        ARGFRAME PSTACK, 0, STACK
        ARGFRAME XSTACK, 12, STACK
        ARGFRAME IOVERLAY, 0, STATIC
        ARGFRAME DOVERLAY, 0, STATIC
        FUNCALL Smart_home_ProcessEvent, osal_start_timerEx
        LOCFRAME ISTACK, 0, STACK
        LOCFRAME PSTACK, 0, STACK
        LOCFRAME XSTACK, 12, STACK
        LOCFRAME IOVERLAY, 0, STATIC
        LOCFRAME DOVERLAY, 0, STATIC
        ARGFRAME ISTACK, 0, STACK
        ARGFRAME PSTACK, 0, STACK
        ARGFRAME XSTACK, 12, STACK
        ARGFRAME IOVERLAY, 0, STATIC
        ARGFRAME DOVERLAY, 0, STATIC
        MOV     A,#-0xc
        LCALL   ?BANKED_ENTER_XDATA
        CFI DPH0 load(1, XDATA, add(CFA_XSP16, literal(-1)))
        CFI DPL0 load(1, XDATA, add(CFA_XSP16, literal(-2)))
        CFI ?BRET_EXT load(1, XDATA, add(CFA_XSP16, literal(-3)))
        CFI ?RET_HIGH load(1, XDATA, add(CFA_XSP16, literal(-4)))
        CFI ?RET_LOW load(1, XDATA, add(CFA_XSP16, literal(-5)))
        CFI R7 load(1, XDATA, add(CFA_XSP16, literal(-6)))
        CFI V3 load(1, XDATA, add(CFA_XSP16, literal(-7)))
        CFI V2 load(1, XDATA, add(CFA_XSP16, literal(-8)))
        CFI V1 load(1, XDATA, add(CFA_XSP16, literal(-9)))
        CFI V0 load(1, XDATA, add(CFA_XSP16, literal(-10)))
        CFI VB load(1, XDATA, add(CFA_XSP16, literal(-11)))
        CFI R6 load(1, XDATA, add(CFA_XSP16, literal(-12)))
        CFI CFA_SP SP+0
        CFI CFA_XSP16 add(XSP16, 12)
        ; Saved register size: 12
        ; Auto size: 0
        MOV     A,R2
        MOV     R6,A
        MOV     A,R3
        MOV     R7,A
//  377   afIncomingMSGPacket_t *MSGpkt;
//  378   afDataConfirm_t *afDataConfirm;
//  379   (void)task_id;  // Intentionally unreferenced parameter
//  380 
//  381   // Data Confirmation message fields
//  382   ZStatus_t sentStatus;
//  383   byte sentEP;
//  384 
//  385   if ( events & SYS_EVENT_MSG )
        ANL     A,#0x80
        JZ      ??Smart_home_ProcessEvent_0
//  386   {
//  387     MSGpkt = (afIncomingMSGPacket_t *)osal_msg_receive( Smart_home_TaskID );
        ; Setup parameters for call to function osal_msg_receive
        SJMP    ??Smart_home_ProcessEvent_1
//  388     while ( MSGpkt )
//  389     {
//  390       switch ( MSGpkt->hdr.event )
//  391       { 
//  392         case ZDO_CB_MSG:
//  393           Smart_home_ProcessZDOMsgs( (zdoIncomingMsg_t *)MSGpkt );
//  394           break;
//  395 
//  396         case KEY_CHANGE:
//  397           Smart_home_HandleKeys( ((keyChange_t *)MSGpkt)->state, ((keyChange_t *)MSGpkt)->keys );
//  398           break;
//  399 
//  400         case AF_DATA_CONFIRM_CMD:
//  401           // This message is received as a confirmation of a data packet sent.
//  402           // The status is of ZStatus_t type [defined in ZComDef.h]
//  403           // The message fields are defined in AF.h
//  404           afDataConfirm = (afDataConfirm_t *)MSGpkt;
//  405           sentEP = afDataConfirm->endpoint;
//  406           sentStatus = afDataConfirm->hdr.status;
//  407  
//  408           if ( (ZSuccess == sentStatus) &&
//  409                (Smart_home_epDesc.endPoint == sentEP) )
//  410           {  
//  411           }
//  412           break;
//  413 
//  414         case AF_INCOMING_MSG_CMD:
//  415           Smart_home_MessageMSGCB( MSGpkt );
??Smart_home_ProcessEvent_2:
        ; Setup parameters for call to function Smart_home_MessageMSGCB
        MOV     R2,?V0 + 0
        MOV     R3,?V0 + 1
        LCALL   ??Smart_home_MessageMSGCB?relay
//  416           break;
//  417 
//  418         case ZDO_STATE_CHANGE:
//  419           break;
//  420 
//  421         default:
//  422           break;
//  423       }
//  424 
//  425       // Release the memory
//  426       osal_msg_deallocate( (uint8 *)MSGpkt );
??Smart_home_ProcessEvent_3:
        ; Setup parameters for call to function osal_msg_deallocate
        MOV     R2,?V0 + 0
        MOV     R3,?V0 + 1
        LCALL   ??osal_msg_deallocate?relay
//  427 
//  428       // Next
//  429       MSGpkt = (afIncomingMSGPacket_t *)osal_msg_receive( Smart_home_TaskID );
        ; Setup parameters for call to function osal_msg_receive
??Smart_home_ProcessEvent_1:
        MOV     DPTR,#Smart_home_TaskID
        MOVX    A,@DPTR
        MOV     R1,A
        LCALL   ??osal_msg_receive?relay
        MOV     ?V0 + 0,R2
        MOV     ?V0 + 1,R3
        MOV     A,?V0 + 0
        ORL     A,?V0 + 1
        JZ      ??Smart_home_ProcessEvent_4
        MOV     DPL,?V0 + 0
        MOV     DPH,?V0 + 1
        MOVX    A,@DPTR
        ADD     A,#-0x1a
        JZ      ??Smart_home_ProcessEvent_2
        ADD     A,#0x5a
        JNZ     ??Smart_home_ProcessEvent_3
        ; Setup parameters for call to function Smart_home_HandleKeys
        INC     DPTR
        INC     DPTR
        INC     DPTR
        MOVX    A,@DPTR
        MOV     R2,A
        MOV     DPL,?V0 + 0
        MOV     DPH,?V0 + 1
        INC     DPTR
        INC     DPTR
        MOVX    A,@DPTR
        MOV     R1,A
        LCALL   ??Smart_home_HandleKeys?relay
        SJMP    ??Smart_home_ProcessEvent_3
//  430     }
//  431 
//  432     // Squash compiler warnings until values are used.
//  433     (void)sentStatus;
//  434     (void)sentEP;
//  435 
//  436     // Return unprocessed events
//  437     return (events ^ SYS_EVENT_MSG);
??Smart_home_ProcessEvent_4:
        MOV     A,R6
        MOV     R2,A
        MOV     A,R7
        XRL     A,#0x80
??Smart_home_ProcessEvent_5:
        MOV     R3,A
        SJMP    ??Smart_home_ProcessEvent_6
//  438   }
//  439 
//  440   // Send a message out, 周期性串口回调
//  441   if ( events & SMART_HOME_SEND_MSG_EVT )
??Smart_home_ProcessEvent_0:
        MOV     A,R6
        MOV     C,0xE0 /* A   */.0
        JNC     ??Smart_home_ProcessEvent_7
//  442   {      
//  443     // Return unprocessed events
//  444     return (events ^ SMART_HOME_SEND_MSG_EVT);
        XRL     A,#0x1
??Smart_home_ProcessEvent_8:
        MOV     R2,A
        SJMP    ??Smart_home_ProcessEvent_6
//  445   }
//  446   
//  447   // 设备状态检查事件
//  448   if ( events & SMART_HOME_DEVICE_CHECK_EVT )
??Smart_home_ProcessEvent_7:
        ANL     A,#0x80
        JZ      ??Smart_home_ProcessEvent_9
//  449   {
//  450     // 调用设备网络状态监测函数 
//  451     Smart_home_Device_check();
        ; Setup parameters for call to function Smart_home_Device_check
        LCALL   ??Smart_home_Device_check?relay
//  452     
//  453     // 任务需要周期性运行
//  454     osal_start_timerEx( Smart_home_TaskID, SMART_HOME_DEVICE_CHECK_EVT, 
//  455                         Smart_home_DEVICE_CHECK_TIMER);
        ; Setup parameters for call to function osal_start_timerEx
        MOV     R4,#-0x30
        MOV     R5,#0x7
        MOV     R2,#-0x80
        LCALL   ??Subroutine33_0 & 0xFFFF
//  456     
//  457     // Return unprocessed events
//  458     return (events ^ SMART_HOME_DEVICE_CHECK_EVT);
??CrossCallReturnLabel_79:
        MOV     A,R6
        XRL     A,#0x80
??Smart_home_ProcessEvent_10:
        MOV     R2,A
        MOV     A,R7
        SJMP    ??Smart_home_ProcessEvent_5
//  459   }
//  460  
//  461 
//  462   // LCD显示事件
//  463   if ( events & SMART_HOME_DISPLAY_EVT )
??Smart_home_ProcessEvent_9:
        MOV     A,R6
        ANL     A,#0x10
        JZ      ??Smart_home_ProcessEvent_11
//  464   {
//  465     // 刷新显示数据
//  466     //Smart_home_DisplayResults( dispPage, &scrollLine);
//  467     Smart_home_Display();
        ; Setup parameters for call to function Smart_home_Display
        LCALL   ??Smart_home_Display?relay
//  468     
//  469     // 周期性的调用该事件来刷新显示数据
//  470     osal_start_timerEx( Smart_home_TaskID, SMART_HOME_DISPLAY_EVT, 
//  471                         Smart_home_DISPLAY_TIMER );   
        ; Setup parameters for call to function osal_start_timerEx
        MOV     R4,#-0x30
        MOV     R5,#0x7
        LCALL   ?Subroutine17 & 0xFFFF
//  472     // Return unprocessed events
//  473     return (events ^ SMART_HOME_DISPLAY_EVT);
??CrossCallReturnLabel_77:
        MOV     A,R6
        XRL     A,#0x10
        SJMP    ??Smart_home_ProcessEvent_10
//  474   }
//  475 
//  476   // Smart_home_MATCHRSP_EVT事件预留
//  477   if ( events & SMART_HOME_MATCHRSP_EVT )
??Smart_home_ProcessEvent_11:
        MOV     A,R6
        ANL     A,#0x8
        JZ      ??Smart_home_ProcessEvent_12
//  478   {  
//  479     return (events ^ SMART_HOME_MATCHRSP_EVT);
        MOV     A,R6
        XRL     A,#0x8
        SJMP    ??Smart_home_ProcessEvent_8
//  480   }
//  481   // Smart_home_BINDRSP_EVT事件预留
//  482   if ( events & SMART_HOME_BINDRSP_EVT )
??Smart_home_ProcessEvent_12:
        MOV     A,R6
        ANL     A,#0x20
        JZ      ??Smart_home_ProcessEvent_13
//  483   {
//  484     return (events ^ SMART_HOME_BINDRSP_EVT);
        MOV     A,R6
        XRL     A,#0x20
        SJMP    ??Smart_home_ProcessEvent_8
//  485   }
//  486   
//  487   // Discard unknown events
//  488   return 0;
??Smart_home_ProcessEvent_13:
        MOV     R2,#0x0
        MOV     R3,#0x0
??Smart_home_ProcessEvent_6:
        MOV     R7,#0x4
        LJMP    ?BANKED_LEAVE_XDATA
        CFI EndBlock cfiBlock2
//  489 }

        RSEG BANKED_CODE:CODE:NOROOT(0)
?Subroutine17:
        CFI Block cfiCond3 Using cfiCommon0
        CFI NoFunction
        CFI Conditional ??CrossCallReturnLabel_76
        CFI R6 load(1, XDATA, add(CFA_XSP16, literal(-9)))
        CFI VB load(1, XDATA, add(CFA_XSP16, literal(-8)))
        CFI V0 load(1, XDATA, add(CFA_XSP16, literal(-7)))
        CFI R7 load(1, XDATA, add(CFA_XSP16, literal(-6)))
        CFI ?RET_LOW load(1, XDATA, add(CFA_XSP16, literal(-5)))
        CFI ?RET_HIGH load(1, XDATA, add(CFA_XSP16, literal(-4)))
        CFI ?BRET_EXT load(1, XDATA, add(CFA_XSP16, literal(-3)))
        CFI DPL0 load(1, XDATA, add(CFA_XSP16, literal(-2)))
        CFI DPH0 load(1, XDATA, add(CFA_XSP16, literal(-1)))
        CFI CFA_SP SP+0
        CFI CFA_XSP16 add(XSP16, 40)
        CFI Block cfiCond4 Using cfiCommon0
        CFI (cfiCond4) NoFunction
        CFI (cfiCond4) Conditional ??CrossCallReturnLabel_77
        CFI (cfiCond4) R6 load(1, XDATA, add(CFA_XSP16, literal(-12)))
        CFI (cfiCond4) VB load(1, XDATA, add(CFA_XSP16, literal(-11)))
        CFI (cfiCond4) V0 load(1, XDATA, add(CFA_XSP16, literal(-10)))
        CFI (cfiCond4) V1 load(1, XDATA, add(CFA_XSP16, literal(-9)))
        CFI (cfiCond4) V2 load(1, XDATA, add(CFA_XSP16, literal(-8)))
        CFI (cfiCond4) V3 load(1, XDATA, add(CFA_XSP16, literal(-7)))
        CFI (cfiCond4) R7 load(1, XDATA, add(CFA_XSP16, literal(-6)))
        CFI (cfiCond4) ?RET_LOW load(1, XDATA, add(CFA_XSP16, literal(-5)))
        CFI (cfiCond4) ?RET_HIGH load(1, XDATA, add(CFA_XSP16, literal(-4)))
        CFI (cfiCond4) ?BRET_EXT load(1, XDATA, add(CFA_XSP16, literal(-3)))
        CFI (cfiCond4) DPL0 load(1, XDATA, add(CFA_XSP16, literal(-2)))
        CFI (cfiCond4) DPH0 load(1, XDATA, add(CFA_XSP16, literal(-1)))
        CFI (cfiCond4) CFA_SP SP+0
        CFI (cfiCond4) CFA_XSP16 add(XSP16, 12)
        CFI Block cfiPicker5 Using cfiCommon1
        CFI (cfiPicker5) NoFunction
        CFI (cfiPicker5) Picker
        MOV     R2,#0x10
        CFI EndBlock cfiCond3
        CFI EndBlock cfiCond4
        CFI EndBlock cfiPicker5
        REQUIRE ??Subroutine33_0
        ; // Fall through to label ??Subroutine33_0

        RSEG BANKED_CODE:CODE:NOROOT(0)
??Subroutine33_0:
        CFI Block cfiCond6 Using cfiCommon0
        CFI NoFunction
        CFI Conditional ??CrossCallReturnLabel_78
        CFI R6 load(1, XDATA, add(CFA_XSP16, literal(-9)))
        CFI VB load(1, XDATA, add(CFA_XSP16, literal(-8)))
        CFI V0 load(1, XDATA, add(CFA_XSP16, literal(-7)))
        CFI R7 load(1, XDATA, add(CFA_XSP16, literal(-6)))
        CFI ?RET_LOW load(1, XDATA, add(CFA_XSP16, literal(-5)))
        CFI ?RET_HIGH load(1, XDATA, add(CFA_XSP16, literal(-4)))
        CFI ?BRET_EXT load(1, XDATA, add(CFA_XSP16, literal(-3)))
        CFI DPL0 load(1, XDATA, add(CFA_XSP16, literal(-2)))
        CFI DPH0 load(1, XDATA, add(CFA_XSP16, literal(-1)))
        CFI CFA_SP SP+0
        CFI CFA_XSP16 add(XSP16, 40)
        CFI Block cfiCond7 Using cfiCommon0
        CFI (cfiCond7) NoFunction
        CFI (cfiCond7) Conditional ??CrossCallReturnLabel_79
        CFI (cfiCond7) R6 load(1, XDATA, add(CFA_XSP16, literal(-12)))
        CFI (cfiCond7) VB load(1, XDATA, add(CFA_XSP16, literal(-11)))
        CFI (cfiCond7) V0 load(1, XDATA, add(CFA_XSP16, literal(-10)))
        CFI (cfiCond7) V1 load(1, XDATA, add(CFA_XSP16, literal(-9)))
        CFI (cfiCond7) V2 load(1, XDATA, add(CFA_XSP16, literal(-8)))
        CFI (cfiCond7) V3 load(1, XDATA, add(CFA_XSP16, literal(-7)))
        CFI (cfiCond7) R7 load(1, XDATA, add(CFA_XSP16, literal(-6)))
        CFI (cfiCond7) ?RET_LOW load(1, XDATA, add(CFA_XSP16, literal(-5)))
        CFI (cfiCond7) ?RET_HIGH load(1, XDATA, add(CFA_XSP16, literal(-4)))
        CFI (cfiCond7) ?BRET_EXT load(1, XDATA, add(CFA_XSP16, literal(-3)))
        CFI (cfiCond7) DPL0 load(1, XDATA, add(CFA_XSP16, literal(-2)))
        CFI (cfiCond7) DPH0 load(1, XDATA, add(CFA_XSP16, literal(-1)))
        CFI (cfiCond7) CFA_SP SP+0
        CFI (cfiCond7) CFA_XSP16 add(XSP16, 12)
        CFI Block cfiCond8 Using cfiCommon0
        CFI (cfiCond8) NoFunction
        CFI (cfiCond8) Conditional ??CrossCallReturnLabel_76
        CFI (cfiCond8) R6 load(1, XDATA, add(CFA_XSP16, literal(-9)))
        CFI (cfiCond8) VB load(1, XDATA, add(CFA_XSP16, literal(-8)))
        CFI (cfiCond8) V0 load(1, XDATA, add(CFA_XSP16, literal(-7)))
        CFI (cfiCond8) R7 load(1, XDATA, add(CFA_XSP16, literal(-6)))
        CFI (cfiCond8) ?RET_LOW load(1, XDATA, add(CFA_XSP16, literal(-5)))
        CFI (cfiCond8) ?RET_HIGH load(1, XDATA, add(CFA_XSP16, literal(-4)))
        CFI (cfiCond8) ?BRET_EXT load(1, XDATA, add(CFA_XSP16, literal(-3)))
        CFI (cfiCond8) DPL0 load(1, XDATA, add(CFA_XSP16, literal(-2)))
        CFI (cfiCond8) DPH0 load(1, XDATA, add(CFA_XSP16, literal(-1)))
        CFI (cfiCond8) CFA_SP SP+0
        CFI (cfiCond8) CFA_XSP16 add(XSP16, 40)
        CFI Block cfiCond9 Using cfiCommon0
        CFI (cfiCond9) NoFunction
        CFI (cfiCond9) Conditional ??CrossCallReturnLabel_77
        CFI (cfiCond9) R6 load(1, XDATA, add(CFA_XSP16, literal(-12)))
        CFI (cfiCond9) VB load(1, XDATA, add(CFA_XSP16, literal(-11)))
        CFI (cfiCond9) V0 load(1, XDATA, add(CFA_XSP16, literal(-10)))
        CFI (cfiCond9) V1 load(1, XDATA, add(CFA_XSP16, literal(-9)))
        CFI (cfiCond9) V2 load(1, XDATA, add(CFA_XSP16, literal(-8)))
        CFI (cfiCond9) V3 load(1, XDATA, add(CFA_XSP16, literal(-7)))
        CFI (cfiCond9) R7 load(1, XDATA, add(CFA_XSP16, literal(-6)))
        CFI (cfiCond9) ?RET_LOW load(1, XDATA, add(CFA_XSP16, literal(-5)))
        CFI (cfiCond9) ?RET_HIGH load(1, XDATA, add(CFA_XSP16, literal(-4)))
        CFI (cfiCond9) ?BRET_EXT load(1, XDATA, add(CFA_XSP16, literal(-3)))
        CFI (cfiCond9) DPL0 load(1, XDATA, add(CFA_XSP16, literal(-2)))
        CFI (cfiCond9) DPH0 load(1, XDATA, add(CFA_XSP16, literal(-1)))
        CFI (cfiCond9) CFA_SP SP+0
        CFI (cfiCond9) CFA_XSP16 add(XSP16, 12)
        CFI Block cfiPicker10 Using cfiCommon1
        CFI (cfiPicker10) NoFunction
        CFI (cfiPicker10) Picker
        MOV     R3,#0x0
        MOV     DPTR,#Smart_home_TaskID
        MOVX    A,@DPTR
        MOV     R1,A
        LCALL   ??osal_start_timerEx?relay
        RET
        CFI EndBlock cfiCond6
        CFI EndBlock cfiCond7
        CFI EndBlock cfiCond8
        CFI EndBlock cfiCond9
        CFI EndBlock cfiPicker10
//  490 
//  491 /*******************************************************************************
//  492  * Event Generation Functions
//  493  */
//  494 /*******************************************************************************
//  495  * @fn      Smart_home_ProcessZDOMsgs()
//  496  *
//  497  * @brief   Process response messages
//  498  *
//  499  * @param   none
//  500  *
//  501  * @return  none
//  502  */

        RSEG BANKED_CODE:CODE:NOROOT(0)
//  503 void Smart_home_ProcessZDOMsgs( zdoIncomingMsg_t *inMsg )
Smart_home_ProcessZDOMsgs:
        CFI Block cfiBlock11 Using cfiCommon0
        CFI Function Smart_home_ProcessZDOMsgs
        CODE
//  504 {
        ; Saved register size: 0
        ; Auto size: 0
//  505   /*
//  506   switch ( inMsg->clusterID )
//  507   {
//  508     // 绑定信息处理
//  509     case End_Device_Bind_rsp:
//  510       if ( ZDO_ParseBindRsp( inMsg ) == ZSuccess )
//  511       {
//  512         osal_stop_timerEx( Smart_home_TaskID, Smart_home_BINDRSP_EVT);
//  513 #if defined ( LCD_SUPPORTED )
//  514         HalLcdWriteString( "BindSuccess", HAL_LCD_LINE_3 );
//  515 #endif
//  516       }
//  517       break;
//  518 
//  519     // 描述符匹配信息处理 
//  520     case Match_Desc_rsp:
//  521       ZDO_ActiveEndpointRsp_t *pRsp = ZDO_ParseEPListRsp( inMsg );
//  522       if ( pRsp )
//  523       {
//  524         if ( pRsp->status == ZSuccess && pRsp->cnt )
//  525         {
//  526           osal_stop_timerEx( Smart_home_TaskID, Smart_home_MATCHRSP_EVT);
//  527 
//  528 #if defined ( LCD_SUPPORTED )
//  529           HalLcdWriteString( "MatchSuccess", HAL_LCD_LINE_3 );
//  530 #endif
//  531          }
//  532          osal_mem_free( pRsp );
//  533       }
//  534       break;
//  535   }*/
//  536 }
        LJMP    ?BRET
        CFI EndBlock cfiBlock11
//  537 
//  538 /*********************************************************************
//  539  * @fn      Smart_home_Motor_cmd
//  540  * 
//  541  * @brief   通过电机速度判断电机转向
//  542  * 
//  543  * 
//  544  * @param   uint8 电机转速
//  545  * 
//  546  * @return  
//  547  *          #define  HAL_MOTOR_STOP            0x01
//  548  *          #define  HAL_MOTOR_FORWARD         0x02
//  549  *          #define  HAL_MOTOR_BACKWARD        0x03
//  550  */

        RSEG BANKED_CODE:CODE:NOROOT(0)
//  551 void Smart_home_Motor_cmd(int8 speed)
Smart_home_Motor_cmd:
        CFI Block cfiBlock12 Using cfiCommon0
        CFI Function Smart_home_Motor_cmd
        CODE
//  552 {
        FUNCALL Smart_home_Motor_cmd, Smart_home_SendToMotorMSG
        LOCFRAME ISTACK, 0, STACK
        LOCFRAME PSTACK, 0, STACK
        LOCFRAME XSTACK, 9, STACK
        LOCFRAME IOVERLAY, 0, STATIC
        LOCFRAME DOVERLAY, 0, STATIC
        ARGFRAME ISTACK, 0, STACK
        ARGFRAME PSTACK, 0, STACK
        ARGFRAME XSTACK, 9, STACK
        ARGFRAME IOVERLAY, 0, STATIC
        ARGFRAME DOVERLAY, 0, STATIC
        MOV     A,#-0x9
        LCALL   ?BANKED_ENTER_XDATA
        CFI DPH0 load(1, XDATA, add(CFA_XSP16, literal(-1)))
        CFI DPL0 load(1, XDATA, add(CFA_XSP16, literal(-2)))
        CFI ?BRET_EXT load(1, XDATA, add(CFA_XSP16, literal(-3)))
        CFI ?RET_HIGH load(1, XDATA, add(CFA_XSP16, literal(-4)))
        CFI ?RET_LOW load(1, XDATA, add(CFA_XSP16, literal(-5)))
        CFI R7 load(1, XDATA, add(CFA_XSP16, literal(-6)))
        CFI V0 load(1, XDATA, add(CFA_XSP16, literal(-7)))
        CFI VB load(1, XDATA, add(CFA_XSP16, literal(-8)))
        CFI R6 load(1, XDATA, add(CFA_XSP16, literal(-9)))
        CFI CFA_SP SP+0
        CFI CFA_XSP16 add(XSP16, 9)
        ; Saved register size: 9
        ; Auto size: 0
        MOV     A,R1
        MOV     R6,A
//  553   uint8 outspeed;
//  554   uint8 cmd;
//  555   if(speed == 0)
        JNZ     ??Smart_home_Motor_cmd_0
//  556   {
//  557     outspeed = 0;
??Smart_home_Motor_cmd_1:
        MOV     R7,#0x0
//  558     cmd = HAL_MOTOR_STOP;
        MOV     R1,#0x1
        SJMP    ??Smart_home_Motor_cmd_2
//  559   }   
//  560   else if(speed > 0)
??Smart_home_Motor_cmd_0:
        CLR     C
        SUBB    A,#0x1
        MOV     C,0xD0 /* PSW */.2
        XRL     A,PSW
        RLC     A
        MOV     A,R6
        JC      ??Smart_home_Motor_cmd_3
//  561   {
//  562     outspeed = speed;
        MOV     R7,A
//  563     cmd = HAL_MOTOR_FORWARD;
        MOV     R1,#0x2
        SJMP    ??Smart_home_Motor_cmd_2
//  564   }
//  565   
//  566   else if(speed < 0)
??Smart_home_Motor_cmd_3:
        CLR     C
        SUBB    A,#0x0
        MOV     C,0xD0 /* PSW */.2
        XRL     A,PSW
        RLC     A
        JNC     ??Smart_home_Motor_cmd_1
//  567   {
//  568     outspeed = 0xff - speed;
        MOV     A,#-0x1
        CLR     C
        SUBB    A,R6
        MOV     R7,A
//  569     cmd = HAL_MOTOR_BACKWARD;
        MOV     R1,#0x3
//  570   }
//  571   
//  572   else
//  573   {
//  574     outspeed = 0;
//  575     cmd = HAL_MOTOR_STOP;    
//  576   }
//  577   Smart_home_SendToMotorMSG(cmd,outspeed); 
??Smart_home_Motor_cmd_2:
        ; Setup parameters for call to function Smart_home_SendToMotorMSG
        MOV     A,R7
        MOV     R2,A
        LCALL   ??Smart_home_SendToMotorMSG?relay
//  578 }
        LJMP    ?Subroutine0 & 0xFFFF
        CFI EndBlock cfiBlock12
//  579 
//  580 

        RSEG BANKED_CODE:CODE:NOROOT(0)
//  581 void Smart_home_HandleKeys( byte shift, byte keys )
Smart_home_HandleKeys:
        CFI Block cfiBlock13 Using cfiCommon0
        CFI Function Smart_home_HandleKeys
        CODE
//  582 {
        FUNCALL Smart_home_HandleKeys, Smart_home_SendToRelayMSG
        LOCFRAME ISTACK, 0, STACK
        LOCFRAME PSTACK, 0, STACK
        LOCFRAME XSTACK, 9, STACK
        LOCFRAME IOVERLAY, 0, STATIC
        LOCFRAME DOVERLAY, 0, STATIC
        ARGFRAME ISTACK, 0, STACK
        ARGFRAME PSTACK, 0, STACK
        ARGFRAME XSTACK, 9, STACK
        ARGFRAME IOVERLAY, 0, STATIC
        ARGFRAME DOVERLAY, 0, STATIC
        FUNCALL Smart_home_HandleKeys, HalLcdWriteString
        LOCFRAME ISTACK, 0, STACK
        LOCFRAME PSTACK, 0, STACK
        LOCFRAME XSTACK, 9, STACK
        LOCFRAME IOVERLAY, 0, STATIC
        LOCFRAME DOVERLAY, 0, STATIC
        ARGFRAME ISTACK, 0, STACK
        ARGFRAME PSTACK, 0, STACK
        ARGFRAME XSTACK, 9, STACK
        ARGFRAME IOVERLAY, 0, STATIC
        ARGFRAME DOVERLAY, 0, STATIC
        FUNCALL Smart_home_HandleKeys, Smart_home_Motor_cmd
        LOCFRAME ISTACK, 0, STACK
        LOCFRAME PSTACK, 0, STACK
        LOCFRAME XSTACK, 9, STACK
        LOCFRAME IOVERLAY, 0, STATIC
        LOCFRAME DOVERLAY, 0, STATIC
        ARGFRAME ISTACK, 0, STACK
        ARGFRAME PSTACK, 0, STACK
        ARGFRAME XSTACK, 9, STACK
        ARGFRAME IOVERLAY, 0, STATIC
        ARGFRAME DOVERLAY, 0, STATIC
        FUNCALL Smart_home_HandleKeys, Smart_home_SendToRelayMSG
        LOCFRAME ISTACK, 0, STACK
        LOCFRAME PSTACK, 0, STACK
        LOCFRAME XSTACK, 9, STACK
        LOCFRAME IOVERLAY, 0, STATIC
        LOCFRAME DOVERLAY, 0, STATIC
        ARGFRAME ISTACK, 0, STACK
        ARGFRAME PSTACK, 0, STACK
        ARGFRAME XSTACK, 9, STACK
        ARGFRAME IOVERLAY, 0, STATIC
        ARGFRAME DOVERLAY, 0, STATIC
        FUNCALL Smart_home_HandleKeys, HalLcdWriteString
        LOCFRAME ISTACK, 0, STACK
        LOCFRAME PSTACK, 0, STACK
        LOCFRAME XSTACK, 9, STACK
        LOCFRAME IOVERLAY, 0, STATIC
        LOCFRAME DOVERLAY, 0, STATIC
        ARGFRAME ISTACK, 0, STACK
        ARGFRAME PSTACK, 0, STACK
        ARGFRAME XSTACK, 9, STACK
        ARGFRAME IOVERLAY, 0, STATIC
        ARGFRAME DOVERLAY, 0, STATIC
        FUNCALL Smart_home_HandleKeys, Smart_home_Motor_cmd
        LOCFRAME ISTACK, 0, STACK
        LOCFRAME PSTACK, 0, STACK
        LOCFRAME XSTACK, 9, STACK
        LOCFRAME IOVERLAY, 0, STATIC
        LOCFRAME DOVERLAY, 0, STATIC
        ARGFRAME ISTACK, 0, STACK
        ARGFRAME PSTACK, 0, STACK
        ARGFRAME XSTACK, 9, STACK
        ARGFRAME IOVERLAY, 0, STATIC
        ARGFRAME DOVERLAY, 0, STATIC
        FUNCALL Smart_home_HandleKeys, NLME_PermitJoiningRequest
        LOCFRAME ISTACK, 0, STACK
        LOCFRAME PSTACK, 0, STACK
        LOCFRAME XSTACK, 9, STACK
        LOCFRAME IOVERLAY, 0, STATIC
        LOCFRAME DOVERLAY, 0, STATIC
        ARGFRAME ISTACK, 0, STACK
        ARGFRAME PSTACK, 0, STACK
        ARGFRAME XSTACK, 9, STACK
        ARGFRAME IOVERLAY, 0, STATIC
        ARGFRAME DOVERLAY, 0, STATIC
        FUNCALL Smart_home_HandleKeys, HalLedSet
        LOCFRAME ISTACK, 0, STACK
        LOCFRAME PSTACK, 0, STACK
        LOCFRAME XSTACK, 9, STACK
        LOCFRAME IOVERLAY, 0, STATIC
        LOCFRAME DOVERLAY, 0, STATIC
        ARGFRAME ISTACK, 0, STACK
        ARGFRAME PSTACK, 0, STACK
        ARGFRAME XSTACK, 9, STACK
        ARGFRAME IOVERLAY, 0, STATIC
        ARGFRAME DOVERLAY, 0, STATIC
        FUNCALL Smart_home_HandleKeys, HalLcdWriteString
        LOCFRAME ISTACK, 0, STACK
        LOCFRAME PSTACK, 0, STACK
        LOCFRAME XSTACK, 9, STACK
        LOCFRAME IOVERLAY, 0, STATIC
        LOCFRAME DOVERLAY, 0, STATIC
        ARGFRAME ISTACK, 0, STACK
        ARGFRAME PSTACK, 0, STACK
        ARGFRAME XSTACK, 9, STACK
        ARGFRAME IOVERLAY, 0, STATIC
        ARGFRAME DOVERLAY, 0, STATIC
        FUNCALL Smart_home_HandleKeys, NLME_PermitJoiningRequest
        LOCFRAME ISTACK, 0, STACK
        LOCFRAME PSTACK, 0, STACK
        LOCFRAME XSTACK, 9, STACK
        LOCFRAME IOVERLAY, 0, STATIC
        LOCFRAME DOVERLAY, 0, STATIC
        ARGFRAME ISTACK, 0, STACK
        ARGFRAME PSTACK, 0, STACK
        ARGFRAME XSTACK, 9, STACK
        ARGFRAME IOVERLAY, 0, STATIC
        ARGFRAME DOVERLAY, 0, STATIC
        FUNCALL Smart_home_HandleKeys, HalLedSet
        LOCFRAME ISTACK, 0, STACK
        LOCFRAME PSTACK, 0, STACK
        LOCFRAME XSTACK, 9, STACK
        LOCFRAME IOVERLAY, 0, STATIC
        LOCFRAME DOVERLAY, 0, STATIC
        ARGFRAME ISTACK, 0, STACK
        ARGFRAME PSTACK, 0, STACK
        ARGFRAME XSTACK, 9, STACK
        ARGFRAME IOVERLAY, 0, STATIC
        ARGFRAME DOVERLAY, 0, STATIC
        FUNCALL Smart_home_HandleKeys, HalLcdWriteString
        LOCFRAME ISTACK, 0, STACK
        LOCFRAME PSTACK, 0, STACK
        LOCFRAME XSTACK, 9, STACK
        LOCFRAME IOVERLAY, 0, STATIC
        LOCFRAME DOVERLAY, 0, STATIC
        ARGFRAME ISTACK, 0, STACK
        ARGFRAME PSTACK, 0, STACK
        ARGFRAME XSTACK, 9, STACK
        ARGFRAME IOVERLAY, 0, STATIC
        ARGFRAME DOVERLAY, 0, STATIC
        MOV     A,#-0x9
        LCALL   ?BANKED_ENTER_XDATA
        CFI DPH0 load(1, XDATA, add(CFA_XSP16, literal(-1)))
        CFI DPL0 load(1, XDATA, add(CFA_XSP16, literal(-2)))
        CFI ?BRET_EXT load(1, XDATA, add(CFA_XSP16, literal(-3)))
        CFI ?RET_HIGH load(1, XDATA, add(CFA_XSP16, literal(-4)))
        CFI ?RET_LOW load(1, XDATA, add(CFA_XSP16, literal(-5)))
        CFI R7 load(1, XDATA, add(CFA_XSP16, literal(-6)))
        CFI V0 load(1, XDATA, add(CFA_XSP16, literal(-7)))
        CFI VB load(1, XDATA, add(CFA_XSP16, literal(-8)))
        CFI R6 load(1, XDATA, add(CFA_XSP16, literal(-9)))
        CFI CFA_SP SP+0
        CFI CFA_XSP16 add(XSP16, 9)
        ; Saved register size: 9
        ; Auto size: 0
        MOV     A,R2
        MOV     R6,A
//  583   //zAddrType_t txAddr;
//  584   static int8 MotorSpeed = 0;
//  585   static uint8 NetWorkAllow = 0;
//  586   /*这里这么设置似乎会出现内存问题
//  587   static uint8 Relay1_on = 0x02;  //两个默认都是关闭
//  588   static uint8 Relay2_on = 0x10;
//  589   */
//  590   /*3.21 LCD 显示*/
//  591   static uint8 Relay1_on = 0;  //两个默认都是关闭
//  592   static uint8 Relay2_on = 0;
//  593   
//  594   
//  595   if ( keys & HAL_KEY_SW_1 )  //UP
        MOV     C,0xE0 /* A   */.0
        JNC     ??Smart_home_HandleKeys_0
//  596   {
//  597     switch(Ctrlcase)
        MOV     DPTR,#Ctrlcase
        MOVX    A,@DPTR
        DEC     A
        JZ      ??Smart_home_HandleKeys_1
        DEC     A
        JZ      ??Smart_home_HandleKeys_2
//  598     {
//  599       default:    
//  600       case 0:
//  601       {
//  602         if(LCD_Page < LCD_PAGE_MAX)       {LCD_Page++;}
        MOV     DPTR,#LCD_Page
        LCALL   ?Subroutine18 & 0xFFFF
??CrossCallReturnLabel_43:
        JNC     ??Smart_home_HandleKeys_3
        MOVX    A,@DPTR
        INC     A
        MOVX    @DPTR,A
//  603         if(LCD_Page > LCD_PAGE_MAX - 1)       {LCD_Page = 0;}
??Smart_home_HandleKeys_3:
        LCALL   ?Subroutine18 & 0xFFFF
??CrossCallReturnLabel_44:
        JC      ??Smart_home_HandleKeys_0
        CLR     A
        MOVX    @DPTR,A
        SJMP    ??Smart_home_HandleKeys_0
//  604         break;
//  605       }
//  606       case 1:
//  607       {  
//  608         uint8 switch1;
//  609         if(Relay1_on == 0)  {Relay1_on = 1 ; switch1 = 0x02;}
??Smart_home_HandleKeys_1:
        MOV     DPTR,#??Relay1_on
        MOVX    A,@DPTR
        JNZ     ??Smart_home_HandleKeys_4
        MOV     A,#0x1
        MOVX    @DPTR,A
        MOV     R1,#0x2
        SJMP    ??Smart_home_HandleKeys_5
//  610         else if(Relay1_on == 1)  {Relay1_on = 0; switch1 = 0x01;}
??Smart_home_HandleKeys_4:
        CLR     A
        MOVX    @DPTR,A
        MOV     R1,#0x1
//  611         else  {Relay1_on = 0; switch1 = 0x01;}       
//  612         Smart_home_SendToRelayMSG(switch1);  
??Smart_home_HandleKeys_5:
        ; Setup parameters for call to function Smart_home_SendToRelayMSG
        LCALL   ??Smart_home_SendToRelayMSG?relay
//  613         break;
        SJMP    ??Smart_home_HandleKeys_0
//  614       } 
//  615       case 2:
//  616       {
//  617         if(MotorSpeed < 50)     {MotorSpeed += 10;}
??Smart_home_HandleKeys_2:
        MOV     DPTR,#??MotorSpeed
        LCALL   ?Subroutine19 & 0xFFFF
??CrossCallReturnLabel_45:
        JNC     ??Smart_home_HandleKeys_6
        MOVX    A,@DPTR
        ADD     A,#0xa
        MOVX    @DPTR,A
//  618         if(MotorSpeed >= 50)     
??Smart_home_HandleKeys_6:
        LCALL   ?Subroutine19 & 0xFFFF
??CrossCallReturnLabel_46:
        JC      ??Smart_home_HandleKeys_7
//  619         {
//  620 #if defined ( LCD_SUPPORTED )
//  621            HalLcdWriteString( "Motor max Speed", HAL_LCD_LINE_4 );
        ; Setup parameters for call to function HalLcdWriteString
        MOV     R1,#0x4
        MOV     R2,#`?<Constant "Motor max Speed">` & 0xff
        MOV     R3,#(`?<Constant "Motor max Speed">` >> 8) & 0xff
        LCALL   ??HalLcdWriteString?relay
//  622 #endif 
//  623            MotorSpeed = 50;
        MOV     DPTR,#??MotorSpeed
        MOV     A,#0x32
        MOVX    @DPTR,A
//  624         }
//  625         Smart_home_Motor_cmd(MotorSpeed);
??Smart_home_HandleKeys_7:
        ; Setup parameters for call to function Smart_home_Motor_cmd
        MOVX    A,@DPTR
        MOV     R1,A
        LCALL   ??Smart_home_Motor_cmd?relay
//  626         
//  627         break;
//  628       }
//  629          
//  630     }    
//  631   }
//  632   
//  633   if ( keys & HAL_KEY_SW_3 )  //DOWN
??Smart_home_HandleKeys_0:
        MOV     A,R6
        MOV     C,0xE0 /* A   */.4
        JNC     ??Smart_home_HandleKeys_8
//  634   {
//  635     switch(Ctrlcase)
        MOV     DPTR,#Ctrlcase
        MOVX    A,@DPTR
        DEC     A
        JZ      ??Smart_home_HandleKeys_9
        DEC     A
        JZ      ??Smart_home_HandleKeys_10
//  636     {
//  637       default:    
//  638       case 0:
//  639       {
//  640         if(LCD_Page >= 0)       {LCD_Page--;}
        MOV     DPTR,#LCD_Page
        LCALL   ?Subroutine15 & 0xFFFF
??CrossCallReturnLabel_36:
        JC      ??Smart_home_HandleKeys_11
        MOVX    A,@DPTR
        DEC     A
        MOVX    @DPTR,A
//  641         if(LCD_Page < 0)        {LCD_Page = LCD_PAGE_MAX;}
??Smart_home_HandleKeys_11:
        LCALL   ?Subroutine15 & 0xFFFF
??CrossCallReturnLabel_37:
        JNC     ??Smart_home_HandleKeys_8
        MOV     A,#0x4
        MOVX    @DPTR,A
        SJMP    ??Smart_home_HandleKeys_8
//  642         break;
//  643       }
//  644       case 1:  
//  645       {
//  646         uint8 switch2;
//  647         if(Relay2_on == 0)  {Relay2_on = 1 ; switch2 = 0x20;}
??Smart_home_HandleKeys_9:
        MOV     DPTR,#??Relay2_on
        MOVX    A,@DPTR
        JNZ     ??Smart_home_HandleKeys_12
        MOV     A,#0x1
        MOVX    @DPTR,A
        MOV     R1,#0x20
        SJMP    ??Smart_home_HandleKeys_13
//  648         else if(Relay2_on == 1)  {Relay2_on = 0; switch2 = 0x10;}
??Smart_home_HandleKeys_12:
        XRL     A,#0x1
        JNZ     ??Smart_home_HandleKeys_14
        CLR     A
        MOVX    @DPTR,A
        MOV     R1,#0x10
        SJMP    ??Smart_home_HandleKeys_13
//  649         else  {Relay2_on = 0; switch2 = 0x01;}       
??Smart_home_HandleKeys_14:
        CLR     A
        MOVX    @DPTR,A
        MOV     R1,#0x1
//  650         Smart_home_SendToRelayMSG(switch2);       
??Smart_home_HandleKeys_13:
        ; Setup parameters for call to function Smart_home_SendToRelayMSG
        LCALL   ??Smart_home_SendToRelayMSG?relay
//  651         break;
        SJMP    ??Smart_home_HandleKeys_8
//  652       } 
//  653       case 2:
//  654       {
//  655         /*
//  656         #define  HAL_MOTOR_STOP            0x01
//  657         #define  HAL_MOTOR_FORWORD         0x02
//  658         #define  HAL_MOTOR_BACKWORD        0x03*/
//  659         if(MotorSpeed > -50)     {MotorSpeed -= 10;}
??Smart_home_HandleKeys_10:
        MOV     DPTR,#??MotorSpeed
        LCALL   ?Subroutine20 & 0xFFFF
??CrossCallReturnLabel_47:
        JC      ??Smart_home_HandleKeys_15
        MOVX    A,@DPTR
        ADD     A,#-0xa
        MOVX    @DPTR,A
//  660         if(MotorSpeed <= -50)     
??Smart_home_HandleKeys_15:
        LCALL   ?Subroutine20 & 0xFFFF
??CrossCallReturnLabel_48:
        JNC     ??Smart_home_HandleKeys_16
//  661         {
//  662 #if defined ( LCD_SUPPORTED )
//  663            HalLcdWriteString( "Motor min Speed", HAL_LCD_LINE_4 );
        ; Setup parameters for call to function HalLcdWriteString
        MOV     R1,#0x4
        MOV     R2,#`?<Constant "Motor min Speed">` & 0xff
        MOV     R3,#(`?<Constant "Motor min Speed">` >> 8) & 0xff
        LCALL   ??HalLcdWriteString?relay
//  664 #endif 
//  665            MotorSpeed = -80;
        MOV     DPTR,#??MotorSpeed
        MOV     A,#-0x50
        MOVX    @DPTR,A
//  666         }
//  667         Smart_home_Motor_cmd(MotorSpeed);
??Smart_home_HandleKeys_16:
        ; Setup parameters for call to function Smart_home_Motor_cmd
        MOVX    A,@DPTR
        MOV     R1,A
        LCALL   ??Smart_home_Motor_cmd?relay
//  668         break; 
//  669       }
//  670     }
//  671   }
//  672   
//  673   if ( keys & HAL_KEY_SW_2 )  //RIGHT  
??Smart_home_HandleKeys_8:
        MOV     A,R6
        MOV     C,0xE0 /* A   */.1
        JNC     ??Smart_home_HandleKeys_17
//  674   /*3.22 这里在调试时出现问题，具体问题为 点击up时会出现屏幕变为禁止组网
//  675     控制方面变为控制电机，问题在于汇编中的key值会出现  keys & HAL_KEY_SW_2 = 2
//  676     的情况，暂时禁止，需要等待研究  还有key_7*/
//  677   {
//  678      if(Ctrlcase < 3)   { Ctrlcase++;}
        MOV     DPTR,#Ctrlcase
        LCALL   ?Subroutine21 & 0xFFFF
??CrossCallReturnLabel_49:
        JNC     ??Smart_home_HandleKeys_18
        MOVX    A,@DPTR
        INC     A
        MOVX    @DPTR,A
//  679      if(Ctrlcase > 2)   { Ctrlcase=0;}
??Smart_home_HandleKeys_18:
        LCALL   ?Subroutine21 & 0xFFFF
??CrossCallReturnLabel_50:
        JC      ??Smart_home_HandleKeys_17
        CLR     A
        MOVX    @DPTR,A
//  680      //Smart_home_Key_add(Ctrlcase);
//  681   }
//  682   
//  683   if ( keys & HAL_KEY_SW_4 )  //LEFT
??Smart_home_HandleKeys_17:
        MOV     A,R6
        MOV     C,0xE0 /* A   */.3
        JNC     ??Smart_home_HandleKeys_19
//  684   {
//  685      if(Ctrlcase > -1)   { Ctrlcase--;}
        MOV     DPTR,#Ctrlcase
        LCALL   ?Subroutine15 & 0xFFFF
??CrossCallReturnLabel_38:
        JC      ??Smart_home_HandleKeys_20
        MOVX    A,@DPTR
        DEC     A
        MOVX    @DPTR,A
//  686      if(Ctrlcase < 0)    { Ctrlcase=2;}
??Smart_home_HandleKeys_20:
        LCALL   ?Subroutine15 & 0xFFFF
??CrossCallReturnLabel_39:
        JNC     ??Smart_home_HandleKeys_19
        MOV     A,#0x2
        MOVX    @DPTR,A
//  687      //Smart_home_Key_add(Ctrlcase);    
//  688   }
//  689   
//  690   if ( keys & HAL_KEY_SW_5 )  //OK
//  691   {
//  692 
//  693   }
//  694   
//  695   if ( keys & HAL_KEY_SW_7 )  //CENCEL
??Smart_home_HandleKeys_19:
        MOV     A,R6
        MOV     C,0xE0 /* A   */.6
        JNC     ??Smart_home_HandleKeys_21
//  696   {
//  697      if(NetWorkAllow == 0)
        MOV     DPTR,#??NetWorkAllow
        MOVX    A,@DPTR
        JNZ     ??Smart_home_HandleKeys_22
//  698      {
//  699        NetWorkAllow = 1;
        MOV     A,#0x1
        MOVX    @DPTR,A
//  700        NLME_PermitJoiningRequest(0xFF); // 组网，允许随时加入
        ; Setup parameters for call to function NLME_PermitJoiningRequest
        MOV     R1,#-0x1
        LCALL   ??NLME_PermitJoiningRequest?relay
//  701        HalLedSet(HAL_LED_1, HAL_LED_MODE_ON);
        ; Setup parameters for call to function HalLedSet
        MOV     R2,#0x1
        MOV     R1,#0x1
        LCALL   ??HalLedSet?relay
//  702        //HalLedSet(HAL_LED_2, HAL_LED_MODE_ON);
//  703 #if defined ( LCD_SUPPORTED )
//  704        HalLcdWriteString( "Allow networking", HAL_LCD_LINE_4 );
        ; Setup parameters for call to function HalLcdWriteString
        MOV     R1,#0x4
        MOV     R2,#`?<Constant "Allow networking">` & 0xff
        MOV     R3,#(`?<Constant "Allow networking">` >> 8) & 0xff
        SJMP    ??Smart_home_HandleKeys_23
//  705 #endif
//  706      }
//  707      else
//  708      {
//  709        NetWorkAllow = 0;
??Smart_home_HandleKeys_22:
        CLR     A
        MOVX    @DPTR,A
//  710        NLME_PermitJoiningRequest(0x00); // 不允许组网
        ; Setup parameters for call to function NLME_PermitJoiningRequest
        MOV     R1,A
        LCALL   ?Subroutine25 & 0xFFFF
//  711        HalLedSet(HAL_LED_1, HAL_LED_MODE_OFF);  
//  712        //HalLedSet(HAL_LED_2, HAL_LED_MODE_OFF); 
//  713 #if defined ( LCD_SUPPORTED )
//  714        HalLcdWriteString( "Ban   networking", HAL_LCD_LINE_4 );
??CrossCallReturnLabel_63:
        ; Setup parameters for call to function HalLcdWriteString
        MOV     R1,#0x4
        MOV     R2,#`?<Constant "Ban   networking">` & 0xff
        MOV     R3,#(`?<Constant "Ban   networking">` >> 8) & 0xff
??Smart_home_HandleKeys_23:
        LCALL   ??HalLcdWriteString?relay
//  715 #endif        
//  716      }
//  717   }
//  718 }
??Smart_home_HandleKeys_21:
        LJMP    ?Subroutine0 & 0xFFFF
        CFI EndBlock cfiBlock13

        RSEG BANKED_CODE:CODE:NOROOT(0)
?Subroutine25:
        CFI Block cfiCond14 Using cfiCommon0
        CFI NoFunction
        CFI Conditional ??CrossCallReturnLabel_62
        CFI R6 load(1, XDATA, add(CFA_XSP16, literal(-9)))
        CFI VB load(1, XDATA, add(CFA_XSP16, literal(-8)))
        CFI V0 load(1, XDATA, add(CFA_XSP16, literal(-7)))
        CFI R7 load(1, XDATA, add(CFA_XSP16, literal(-6)))
        CFI ?RET_LOW load(1, XDATA, add(CFA_XSP16, literal(-5)))
        CFI ?RET_HIGH load(1, XDATA, add(CFA_XSP16, literal(-4)))
        CFI ?BRET_EXT load(1, XDATA, add(CFA_XSP16, literal(-3)))
        CFI DPL0 load(1, XDATA, add(CFA_XSP16, literal(-2)))
        CFI DPH0 load(1, XDATA, add(CFA_XSP16, literal(-1)))
        CFI CFA_SP SP+0
        CFI CFA_XSP16 add(XSP16, 40)
        CFI Block cfiCond15 Using cfiCommon0
        CFI (cfiCond15) NoFunction
        CFI (cfiCond15) Conditional ??CrossCallReturnLabel_63
        CFI (cfiCond15) R6 load(1, XDATA, add(CFA_XSP16, literal(-9)))
        CFI (cfiCond15) VB load(1, XDATA, add(CFA_XSP16, literal(-8)))
        CFI (cfiCond15) V0 load(1, XDATA, add(CFA_XSP16, literal(-7)))
        CFI (cfiCond15) R7 load(1, XDATA, add(CFA_XSP16, literal(-6)))
        CFI (cfiCond15) ?RET_LOW load(1, XDATA, add(CFA_XSP16, literal(-5)))
        CFI (cfiCond15) ?RET_HIGH load(1, XDATA, add(CFA_XSP16, literal(-4)))
        CFI (cfiCond15) ?BRET_EXT load(1, XDATA, add(CFA_XSP16, literal(-3)))
        CFI (cfiCond15) DPL0 load(1, XDATA, add(CFA_XSP16, literal(-2)))
        CFI (cfiCond15) DPH0 load(1, XDATA, add(CFA_XSP16, literal(-1)))
        CFI (cfiCond15) CFA_SP SP+0
        CFI (cfiCond15) CFA_XSP16 add(XSP16, 9)
        CFI Block cfiPicker16 Using cfiCommon1
        CFI (cfiPicker16) NoFunction
        CFI (cfiPicker16) Picker
        LCALL   ??NLME_PermitJoiningRequest?relay
        ; Setup parameters for call to function HalLedSet
        ; Setup parameters for call to function HalLedSet
        MOV     R2,#0x0
        MOV     R1,#0x1
        LCALL   ??HalLedSet?relay
        RET
        CFI EndBlock cfiCond14
        CFI EndBlock cfiCond15
        CFI EndBlock cfiPicker16

        RSEG BANKED_CODE:CODE:NOROOT(0)
?Subroutine21:
        CFI Block cfiCond17 Using cfiCommon0
        CFI NoFunction
        CFI Conditional ??CrossCallReturnLabel_49
        CFI R6 load(1, XDATA, add(CFA_XSP16, literal(-9)))
        CFI VB load(1, XDATA, add(CFA_XSP16, literal(-8)))
        CFI V0 load(1, XDATA, add(CFA_XSP16, literal(-7)))
        CFI R7 load(1, XDATA, add(CFA_XSP16, literal(-6)))
        CFI ?RET_LOW load(1, XDATA, add(CFA_XSP16, literal(-5)))
        CFI ?RET_HIGH load(1, XDATA, add(CFA_XSP16, literal(-4)))
        CFI ?BRET_EXT load(1, XDATA, add(CFA_XSP16, literal(-3)))
        CFI DPL0 load(1, XDATA, add(CFA_XSP16, literal(-2)))
        CFI DPH0 load(1, XDATA, add(CFA_XSP16, literal(-1)))
        CFI CFA_SP SP+0
        CFI CFA_XSP16 add(XSP16, 9)
        CFI Block cfiCond18 Using cfiCommon0
        CFI (cfiCond18) NoFunction
        CFI (cfiCond18) Conditional ??CrossCallReturnLabel_50
        CFI (cfiCond18) R6 load(1, XDATA, add(CFA_XSP16, literal(-9)))
        CFI (cfiCond18) VB load(1, XDATA, add(CFA_XSP16, literal(-8)))
        CFI (cfiCond18) V0 load(1, XDATA, add(CFA_XSP16, literal(-7)))
        CFI (cfiCond18) R7 load(1, XDATA, add(CFA_XSP16, literal(-6)))
        CFI (cfiCond18) ?RET_LOW load(1, XDATA, add(CFA_XSP16, literal(-5)))
        CFI (cfiCond18) ?RET_HIGH load(1, XDATA, add(CFA_XSP16, literal(-4)))
        CFI (cfiCond18) ?BRET_EXT load(1, XDATA, add(CFA_XSP16, literal(-3)))
        CFI (cfiCond18) DPL0 load(1, XDATA, add(CFA_XSP16, literal(-2)))
        CFI (cfiCond18) DPH0 load(1, XDATA, add(CFA_XSP16, literal(-1)))
        CFI (cfiCond18) CFA_SP SP+0
        CFI (cfiCond18) CFA_XSP16 add(XSP16, 9)
        CFI Block cfiPicker19 Using cfiCommon1
        CFI (cfiPicker19) NoFunction
        CFI (cfiPicker19) Picker
        MOVX    A,@DPTR
        CLR     C
        SUBB    A,#0x3
        MOV     C,0xD0 /* PSW */.2
        XRL     A,PSW
        RLC     A
        RET
        CFI EndBlock cfiCond17
        CFI EndBlock cfiCond18
        CFI EndBlock cfiPicker19

        RSEG BANKED_CODE:CODE:NOROOT(0)
?Subroutine20:
        CFI Block cfiCond20 Using cfiCommon0
        CFI NoFunction
        CFI Conditional ??CrossCallReturnLabel_47
        CFI R6 load(1, XDATA, add(CFA_XSP16, literal(-9)))
        CFI VB load(1, XDATA, add(CFA_XSP16, literal(-8)))
        CFI V0 load(1, XDATA, add(CFA_XSP16, literal(-7)))
        CFI R7 load(1, XDATA, add(CFA_XSP16, literal(-6)))
        CFI ?RET_LOW load(1, XDATA, add(CFA_XSP16, literal(-5)))
        CFI ?RET_HIGH load(1, XDATA, add(CFA_XSP16, literal(-4)))
        CFI ?BRET_EXT load(1, XDATA, add(CFA_XSP16, literal(-3)))
        CFI DPL0 load(1, XDATA, add(CFA_XSP16, literal(-2)))
        CFI DPH0 load(1, XDATA, add(CFA_XSP16, literal(-1)))
        CFI CFA_SP SP+0
        CFI CFA_XSP16 add(XSP16, 9)
        CFI Block cfiCond21 Using cfiCommon0
        CFI (cfiCond21) NoFunction
        CFI (cfiCond21) Conditional ??CrossCallReturnLabel_48
        CFI (cfiCond21) R6 load(1, XDATA, add(CFA_XSP16, literal(-9)))
        CFI (cfiCond21) VB load(1, XDATA, add(CFA_XSP16, literal(-8)))
        CFI (cfiCond21) V0 load(1, XDATA, add(CFA_XSP16, literal(-7)))
        CFI (cfiCond21) R7 load(1, XDATA, add(CFA_XSP16, literal(-6)))
        CFI (cfiCond21) ?RET_LOW load(1, XDATA, add(CFA_XSP16, literal(-5)))
        CFI (cfiCond21) ?RET_HIGH load(1, XDATA, add(CFA_XSP16, literal(-4)))
        CFI (cfiCond21) ?BRET_EXT load(1, XDATA, add(CFA_XSP16, literal(-3)))
        CFI (cfiCond21) DPL0 load(1, XDATA, add(CFA_XSP16, literal(-2)))
        CFI (cfiCond21) DPH0 load(1, XDATA, add(CFA_XSP16, literal(-1)))
        CFI (cfiCond21) CFA_SP SP+0
        CFI (cfiCond21) CFA_XSP16 add(XSP16, 9)
        CFI Block cfiPicker22 Using cfiCommon1
        CFI (cfiPicker22) NoFunction
        CFI (cfiPicker22) Picker
        MOVX    A,@DPTR
        CLR     C
        SUBB    A,#-0x31
        MOV     C,0xD0 /* PSW */.2
        XRL     A,PSW
        RLC     A
        RET
        CFI EndBlock cfiCond20
        CFI EndBlock cfiCond21
        CFI EndBlock cfiPicker22

        RSEG BANKED_CODE:CODE:NOROOT(0)
?Subroutine19:
        CFI Block cfiCond23 Using cfiCommon0
        CFI NoFunction
        CFI Conditional ??CrossCallReturnLabel_45
        CFI R6 load(1, XDATA, add(CFA_XSP16, literal(-9)))
        CFI VB load(1, XDATA, add(CFA_XSP16, literal(-8)))
        CFI V0 load(1, XDATA, add(CFA_XSP16, literal(-7)))
        CFI R7 load(1, XDATA, add(CFA_XSP16, literal(-6)))
        CFI ?RET_LOW load(1, XDATA, add(CFA_XSP16, literal(-5)))
        CFI ?RET_HIGH load(1, XDATA, add(CFA_XSP16, literal(-4)))
        CFI ?BRET_EXT load(1, XDATA, add(CFA_XSP16, literal(-3)))
        CFI DPL0 load(1, XDATA, add(CFA_XSP16, literal(-2)))
        CFI DPH0 load(1, XDATA, add(CFA_XSP16, literal(-1)))
        CFI CFA_SP SP+0
        CFI CFA_XSP16 add(XSP16, 9)
        CFI Block cfiCond24 Using cfiCommon0
        CFI (cfiCond24) NoFunction
        CFI (cfiCond24) Conditional ??CrossCallReturnLabel_46
        CFI (cfiCond24) R6 load(1, XDATA, add(CFA_XSP16, literal(-9)))
        CFI (cfiCond24) VB load(1, XDATA, add(CFA_XSP16, literal(-8)))
        CFI (cfiCond24) V0 load(1, XDATA, add(CFA_XSP16, literal(-7)))
        CFI (cfiCond24) R7 load(1, XDATA, add(CFA_XSP16, literal(-6)))
        CFI (cfiCond24) ?RET_LOW load(1, XDATA, add(CFA_XSP16, literal(-5)))
        CFI (cfiCond24) ?RET_HIGH load(1, XDATA, add(CFA_XSP16, literal(-4)))
        CFI (cfiCond24) ?BRET_EXT load(1, XDATA, add(CFA_XSP16, literal(-3)))
        CFI (cfiCond24) DPL0 load(1, XDATA, add(CFA_XSP16, literal(-2)))
        CFI (cfiCond24) DPH0 load(1, XDATA, add(CFA_XSP16, literal(-1)))
        CFI (cfiCond24) CFA_SP SP+0
        CFI (cfiCond24) CFA_XSP16 add(XSP16, 9)
        CFI Block cfiPicker25 Using cfiCommon1
        CFI (cfiPicker25) NoFunction
        CFI (cfiPicker25) Picker
        MOVX    A,@DPTR
        CLR     C
        SUBB    A,#0x32
        MOV     C,0xD0 /* PSW */.2
        XRL     A,PSW
        RLC     A
        RET
        CFI EndBlock cfiCond23
        CFI EndBlock cfiCond24
        CFI EndBlock cfiPicker25

        RSEG BANKED_CODE:CODE:NOROOT(0)
?Subroutine18:
        CFI Block cfiCond26 Using cfiCommon0
        CFI NoFunction
        CFI Conditional ??CrossCallReturnLabel_43
        CFI R6 load(1, XDATA, add(CFA_XSP16, literal(-9)))
        CFI VB load(1, XDATA, add(CFA_XSP16, literal(-8)))
        CFI V0 load(1, XDATA, add(CFA_XSP16, literal(-7)))
        CFI R7 load(1, XDATA, add(CFA_XSP16, literal(-6)))
        CFI ?RET_LOW load(1, XDATA, add(CFA_XSP16, literal(-5)))
        CFI ?RET_HIGH load(1, XDATA, add(CFA_XSP16, literal(-4)))
        CFI ?BRET_EXT load(1, XDATA, add(CFA_XSP16, literal(-3)))
        CFI DPL0 load(1, XDATA, add(CFA_XSP16, literal(-2)))
        CFI DPH0 load(1, XDATA, add(CFA_XSP16, literal(-1)))
        CFI CFA_SP SP+0
        CFI CFA_XSP16 add(XSP16, 9)
        CFI Block cfiCond27 Using cfiCommon0
        CFI (cfiCond27) NoFunction
        CFI (cfiCond27) Conditional ??CrossCallReturnLabel_44
        CFI (cfiCond27) R6 load(1, XDATA, add(CFA_XSP16, literal(-9)))
        CFI (cfiCond27) VB load(1, XDATA, add(CFA_XSP16, literal(-8)))
        CFI (cfiCond27) V0 load(1, XDATA, add(CFA_XSP16, literal(-7)))
        CFI (cfiCond27) R7 load(1, XDATA, add(CFA_XSP16, literal(-6)))
        CFI (cfiCond27) ?RET_LOW load(1, XDATA, add(CFA_XSP16, literal(-5)))
        CFI (cfiCond27) ?RET_HIGH load(1, XDATA, add(CFA_XSP16, literal(-4)))
        CFI (cfiCond27) ?BRET_EXT load(1, XDATA, add(CFA_XSP16, literal(-3)))
        CFI (cfiCond27) DPL0 load(1, XDATA, add(CFA_XSP16, literal(-2)))
        CFI (cfiCond27) DPH0 load(1, XDATA, add(CFA_XSP16, literal(-1)))
        CFI (cfiCond27) CFA_SP SP+0
        CFI (cfiCond27) CFA_XSP16 add(XSP16, 9)
        CFI Block cfiPicker28 Using cfiCommon1
        CFI (cfiPicker28) NoFunction
        CFI (cfiPicker28) Picker
        MOVX    A,@DPTR
        CLR     C
        SUBB    A,#0x4
        MOV     C,0xD0 /* PSW */.2
        XRL     A,PSW
        RLC     A
        RET
        CFI EndBlock cfiCond26
        CFI EndBlock cfiCond27
        CFI EndBlock cfiPicker28

        RSEG BANKED_CODE:CODE:NOROOT(0)
?Subroutine15:
        CFI Block cfiCond29 Using cfiCommon0
        CFI NoFunction
        CFI Conditional ??CrossCallReturnLabel_36
        CFI R6 load(1, XDATA, add(CFA_XSP16, literal(-9)))
        CFI VB load(1, XDATA, add(CFA_XSP16, literal(-8)))
        CFI V0 load(1, XDATA, add(CFA_XSP16, literal(-7)))
        CFI R7 load(1, XDATA, add(CFA_XSP16, literal(-6)))
        CFI ?RET_LOW load(1, XDATA, add(CFA_XSP16, literal(-5)))
        CFI ?RET_HIGH load(1, XDATA, add(CFA_XSP16, literal(-4)))
        CFI ?BRET_EXT load(1, XDATA, add(CFA_XSP16, literal(-3)))
        CFI DPL0 load(1, XDATA, add(CFA_XSP16, literal(-2)))
        CFI DPH0 load(1, XDATA, add(CFA_XSP16, literal(-1)))
        CFI CFA_SP SP+0
        CFI CFA_XSP16 add(XSP16, 9)
        CFI Block cfiCond30 Using cfiCommon0
        CFI (cfiCond30) NoFunction
        CFI (cfiCond30) Conditional ??CrossCallReturnLabel_37
        CFI (cfiCond30) R6 load(1, XDATA, add(CFA_XSP16, literal(-9)))
        CFI (cfiCond30) VB load(1, XDATA, add(CFA_XSP16, literal(-8)))
        CFI (cfiCond30) V0 load(1, XDATA, add(CFA_XSP16, literal(-7)))
        CFI (cfiCond30) R7 load(1, XDATA, add(CFA_XSP16, literal(-6)))
        CFI (cfiCond30) ?RET_LOW load(1, XDATA, add(CFA_XSP16, literal(-5)))
        CFI (cfiCond30) ?RET_HIGH load(1, XDATA, add(CFA_XSP16, literal(-4)))
        CFI (cfiCond30) ?BRET_EXT load(1, XDATA, add(CFA_XSP16, literal(-3)))
        CFI (cfiCond30) DPL0 load(1, XDATA, add(CFA_XSP16, literal(-2)))
        CFI (cfiCond30) DPH0 load(1, XDATA, add(CFA_XSP16, literal(-1)))
        CFI (cfiCond30) CFA_SP SP+0
        CFI (cfiCond30) CFA_XSP16 add(XSP16, 9)
        CFI Block cfiCond31 Using cfiCommon0
        CFI (cfiCond31) NoFunction
        CFI (cfiCond31) Conditional ??CrossCallReturnLabel_38
        CFI (cfiCond31) R6 load(1, XDATA, add(CFA_XSP16, literal(-9)))
        CFI (cfiCond31) VB load(1, XDATA, add(CFA_XSP16, literal(-8)))
        CFI (cfiCond31) V0 load(1, XDATA, add(CFA_XSP16, literal(-7)))
        CFI (cfiCond31) R7 load(1, XDATA, add(CFA_XSP16, literal(-6)))
        CFI (cfiCond31) ?RET_LOW load(1, XDATA, add(CFA_XSP16, literal(-5)))
        CFI (cfiCond31) ?RET_HIGH load(1, XDATA, add(CFA_XSP16, literal(-4)))
        CFI (cfiCond31) ?BRET_EXT load(1, XDATA, add(CFA_XSP16, literal(-3)))
        CFI (cfiCond31) DPL0 load(1, XDATA, add(CFA_XSP16, literal(-2)))
        CFI (cfiCond31) DPH0 load(1, XDATA, add(CFA_XSP16, literal(-1)))
        CFI (cfiCond31) CFA_SP SP+0
        CFI (cfiCond31) CFA_XSP16 add(XSP16, 9)
        CFI Block cfiCond32 Using cfiCommon0
        CFI (cfiCond32) NoFunction
        CFI (cfiCond32) Conditional ??CrossCallReturnLabel_39
        CFI (cfiCond32) R6 load(1, XDATA, add(CFA_XSP16, literal(-9)))
        CFI (cfiCond32) VB load(1, XDATA, add(CFA_XSP16, literal(-8)))
        CFI (cfiCond32) V0 load(1, XDATA, add(CFA_XSP16, literal(-7)))
        CFI (cfiCond32) R7 load(1, XDATA, add(CFA_XSP16, literal(-6)))
        CFI (cfiCond32) ?RET_LOW load(1, XDATA, add(CFA_XSP16, literal(-5)))
        CFI (cfiCond32) ?RET_HIGH load(1, XDATA, add(CFA_XSP16, literal(-4)))
        CFI (cfiCond32) ?BRET_EXT load(1, XDATA, add(CFA_XSP16, literal(-3)))
        CFI (cfiCond32) DPL0 load(1, XDATA, add(CFA_XSP16, literal(-2)))
        CFI (cfiCond32) DPH0 load(1, XDATA, add(CFA_XSP16, literal(-1)))
        CFI (cfiCond32) CFA_SP SP+0
        CFI (cfiCond32) CFA_XSP16 add(XSP16, 9)
        CFI Block cfiPicker33 Using cfiCommon1
        CFI (cfiPicker33) NoFunction
        CFI (cfiPicker33) Picker
        MOVX    A,@DPTR
        CLR     C
        SUBB    A,#0x0
        MOV     C,0xD0 /* PSW */.2
        XRL     A,PSW
        RLC     A
        RET
        CFI EndBlock cfiCond29
        CFI EndBlock cfiCond30
        CFI EndBlock cfiCond31
        CFI EndBlock cfiCond32
        CFI EndBlock cfiPicker33

        RSEG XDATA_Z:XDATA:NOROOT(0)
        DATA8
??MotorSpeed:
        DS 1
        REQUIRE __INIT_XDATA_Z

        RSEG XDATA_Z:XDATA:NOROOT(0)
        DATA8
??NetWorkAllow:
        DS 1
        REQUIRE __INIT_XDATA_Z

        RSEG XDATA_Z:XDATA:NOROOT(0)
        DATA8
??Relay1_on:
        DS 1
        REQUIRE __INIT_XDATA_Z

        RSEG XDATA_Z:XDATA:NOROOT(0)
        DATA8
??Relay2_on:
        DS 1
        REQUIRE __INIT_XDATA_Z
//  719 
//  720 
//  721 /*******************************************************************************
//  722  * LOCAL FUNCTIONS
//  723  */
//  724 
//  725 /*******************************************************************************
//  726  * @fn      Smart_home_MessageMSGCB
//  727  *
//  728  * @brief   Data message processor callback.  This function processes
//  729  *          any incoming data - probably from other devices.  So, based
//  730  *          on cluster ID, perform the intended action.
//  731  *
//  732  * @param   none
//  733  *
//  734  * @return  none
//  735  */
//  736   
//  737    /***********************************************************************
//  738     目前总共8种case
//  739    #define Smart_home_CLUSTERID_HUMITMSG            1  // 温湿度
//  740    #define Smart_home_CLUSTERID_TEMPLIGHTMSG        2  // 温度光照
//  741    #define Smart_home_CLUSTERID_RFIDMSG             3  // 射频卡
//  742    #define Smart_home_CLUSTERID_GASFLAMEMSG         4  // 烟雾火焰
//  743    #define Smart_home_CLUSTERID_INFRAREDMSG         5  // 人体红外
//  744    #define Smart_home_CLUSTERID_SOUNDVBMSG          6  // 声音振动
//  745    #define Smart_home_CLUSTERID_MOTORSTATUSMSG      7  // 直流电机状态信息
//  746    #define Smart_home_CLUSTERID_RELAYSTATUSMSG      8  // 继电器状态信息
//  747     
//  748    设备描述
//  749    typedef struct DeviceInfo
//  750    {
//  751      uint8 deviceID;
//  752      uint8 deviceStatus;
//  753      uint8 data[5];
//  754    } DeviceInfo; 
//  755    ************************************************************************/ 
//  756     //3.14 消息处理模块，共8个，行为类似 
//  757   //HalUARTWrite(HAL_UART_PORT_0, "9",   1);

        RSEG BANKED_CODE:CODE:NOROOT(0)
//  758 void Smart_home_MessageMSGCB( afIncomingMSGPacket_t *pkt )
Smart_home_MessageMSGCB:
        CFI Block cfiBlock34 Using cfiCommon0
        CFI Function Smart_home_MessageMSGCB
        CODE
//  759 {
        FUNCALL Smart_home_MessageMSGCB, HalUARTWrite
        LOCFRAME ISTACK, 0, STACK
        LOCFRAME PSTACK, 0, STACK
        LOCFRAME XSTACK, 10, STACK
        LOCFRAME IOVERLAY, 0, STATIC
        LOCFRAME DOVERLAY, 0, STATIC
        ARGFRAME ISTACK, 0, STACK
        ARGFRAME PSTACK, 0, STACK
        ARGFRAME XSTACK, 10, STACK
        ARGFRAME IOVERLAY, 0, STATIC
        ARGFRAME DOVERLAY, 0, STATIC
        FUNCALL Smart_home_MessageMSGCB, HalUARTWrite
        LOCFRAME ISTACK, 0, STACK
        LOCFRAME PSTACK, 0, STACK
        LOCFRAME XSTACK, 10, STACK
        LOCFRAME IOVERLAY, 0, STATIC
        LOCFRAME DOVERLAY, 0, STATIC
        ARGFRAME ISTACK, 0, STACK
        ARGFRAME PSTACK, 0, STACK
        ARGFRAME XSTACK, 10, STACK
        ARGFRAME IOVERLAY, 0, STATIC
        ARGFRAME DOVERLAY, 0, STATIC
        FUNCALL Smart_home_MessageMSGCB, HalUARTWrite
        LOCFRAME ISTACK, 0, STACK
        LOCFRAME PSTACK, 0, STACK
        LOCFRAME XSTACK, 10, STACK
        LOCFRAME IOVERLAY, 0, STATIC
        LOCFRAME DOVERLAY, 0, STATIC
        ARGFRAME ISTACK, 0, STACK
        ARGFRAME PSTACK, 0, STACK
        ARGFRAME XSTACK, 10, STACK
        ARGFRAME IOVERLAY, 0, STATIC
        ARGFRAME DOVERLAY, 0, STATIC
        FUNCALL Smart_home_MessageMSGCB, HalUARTWrite
        LOCFRAME ISTACK, 0, STACK
        LOCFRAME PSTACK, 0, STACK
        LOCFRAME XSTACK, 10, STACK
        LOCFRAME IOVERLAY, 0, STATIC
        LOCFRAME DOVERLAY, 0, STATIC
        ARGFRAME ISTACK, 0, STACK
        ARGFRAME PSTACK, 0, STACK
        ARGFRAME XSTACK, 10, STACK
        ARGFRAME IOVERLAY, 0, STATIC
        ARGFRAME DOVERLAY, 0, STATIC
        FUNCALL Smart_home_MessageMSGCB, HalUARTWrite
        LOCFRAME ISTACK, 0, STACK
        LOCFRAME PSTACK, 0, STACK
        LOCFRAME XSTACK, 10, STACK
        LOCFRAME IOVERLAY, 0, STATIC
        LOCFRAME DOVERLAY, 0, STATIC
        ARGFRAME ISTACK, 0, STACK
        ARGFRAME PSTACK, 0, STACK
        ARGFRAME XSTACK, 10, STACK
        ARGFRAME IOVERLAY, 0, STATIC
        ARGFRAME DOVERLAY, 0, STATIC
        FUNCALL Smart_home_MessageMSGCB, HalUARTWrite
        LOCFRAME ISTACK, 0, STACK
        LOCFRAME PSTACK, 0, STACK
        LOCFRAME XSTACK, 10, STACK
        LOCFRAME IOVERLAY, 0, STATIC
        LOCFRAME DOVERLAY, 0, STATIC
        ARGFRAME ISTACK, 0, STACK
        ARGFRAME PSTACK, 0, STACK
        ARGFRAME XSTACK, 10, STACK
        ARGFRAME IOVERLAY, 0, STATIC
        ARGFRAME DOVERLAY, 0, STATIC
        FUNCALL Smart_home_MessageMSGCB, HalUARTWrite
        LOCFRAME ISTACK, 0, STACK
        LOCFRAME PSTACK, 0, STACK
        LOCFRAME XSTACK, 10, STACK
        LOCFRAME IOVERLAY, 0, STATIC
        LOCFRAME DOVERLAY, 0, STATIC
        ARGFRAME ISTACK, 0, STACK
        ARGFRAME PSTACK, 0, STACK
        ARGFRAME XSTACK, 10, STACK
        ARGFRAME IOVERLAY, 0, STATIC
        ARGFRAME DOVERLAY, 0, STATIC
        FUNCALL Smart_home_MessageMSGCB, HalUARTWrite
        LOCFRAME ISTACK, 0, STACK
        LOCFRAME PSTACK, 0, STACK
        LOCFRAME XSTACK, 10, STACK
        LOCFRAME IOVERLAY, 0, STATIC
        LOCFRAME DOVERLAY, 0, STATIC
        ARGFRAME ISTACK, 0, STACK
        ARGFRAME PSTACK, 0, STACK
        ARGFRAME XSTACK, 10, STACK
        ARGFRAME IOVERLAY, 0, STATIC
        ARGFRAME DOVERLAY, 0, STATIC
        FUNCALL Smart_home_MessageMSGCB, HalUARTWrite
        LOCFRAME ISTACK, 0, STACK
        LOCFRAME PSTACK, 0, STACK
        LOCFRAME XSTACK, 10, STACK
        LOCFRAME IOVERLAY, 0, STATIC
        LOCFRAME DOVERLAY, 0, STATIC
        ARGFRAME ISTACK, 0, STACK
        ARGFRAME PSTACK, 0, STACK
        ARGFRAME XSTACK, 10, STACK
        ARGFRAME IOVERLAY, 0, STATIC
        ARGFRAME DOVERLAY, 0, STATIC
        FUNCALL Smart_home_MessageMSGCB, HalUARTWrite
        LOCFRAME ISTACK, 0, STACK
        LOCFRAME PSTACK, 0, STACK
        LOCFRAME XSTACK, 10, STACK
        LOCFRAME IOVERLAY, 0, STATIC
        LOCFRAME DOVERLAY, 0, STATIC
        ARGFRAME ISTACK, 0, STACK
        ARGFRAME PSTACK, 0, STACK
        ARGFRAME XSTACK, 10, STACK
        ARGFRAME IOVERLAY, 0, STATIC
        ARGFRAME DOVERLAY, 0, STATIC
        FUNCALL Smart_home_MessageMSGCB, HalUARTWrite
        LOCFRAME ISTACK, 0, STACK
        LOCFRAME PSTACK, 0, STACK
        LOCFRAME XSTACK, 10, STACK
        LOCFRAME IOVERLAY, 0, STATIC
        LOCFRAME DOVERLAY, 0, STATIC
        ARGFRAME ISTACK, 0, STACK
        ARGFRAME PSTACK, 0, STACK
        ARGFRAME XSTACK, 10, STACK
        ARGFRAME IOVERLAY, 0, STATIC
        ARGFRAME DOVERLAY, 0, STATIC
        FUNCALL Smart_home_MessageMSGCB, HalUARTWrite
        LOCFRAME ISTACK, 0, STACK
        LOCFRAME PSTACK, 0, STACK
        LOCFRAME XSTACK, 10, STACK
        LOCFRAME IOVERLAY, 0, STATIC
        LOCFRAME DOVERLAY, 0, STATIC
        ARGFRAME ISTACK, 0, STACK
        ARGFRAME PSTACK, 0, STACK
        ARGFRAME XSTACK, 10, STACK
        ARGFRAME IOVERLAY, 0, STATIC
        ARGFRAME DOVERLAY, 0, STATIC
        MOV     A,#-0xa
        LCALL   ?BANKED_ENTER_XDATA
        CFI DPH0 load(1, XDATA, add(CFA_XSP16, literal(-1)))
        CFI DPL0 load(1, XDATA, add(CFA_XSP16, literal(-2)))
        CFI ?BRET_EXT load(1, XDATA, add(CFA_XSP16, literal(-3)))
        CFI ?RET_HIGH load(1, XDATA, add(CFA_XSP16, literal(-4)))
        CFI ?RET_LOW load(1, XDATA, add(CFA_XSP16, literal(-5)))
        CFI R7 load(1, XDATA, add(CFA_XSP16, literal(-6)))
        CFI V1 load(1, XDATA, add(CFA_XSP16, literal(-7)))
        CFI V0 load(1, XDATA, add(CFA_XSP16, literal(-8)))
        CFI VB load(1, XDATA, add(CFA_XSP16, literal(-9)))
        CFI R6 load(1, XDATA, add(CFA_XSP16, literal(-10)))
        CFI CFA_SP SP+0
        CFI CFA_XSP16 add(XSP16, 10)
        ; Saved register size: 10
        ; Auto size: 0
//  760 
//  761   switch ( pkt->clusterId )
        MOV     DPL,R2
        MOV     DPH,R3
        INC     DPTR
        INC     DPTR
        INC     DPTR
        INC     DPTR
        MOVX    A,@DPTR
        MOV     ?V0 + 0,A
        INC     DPTR
        MOVX    A,@DPTR
        MOV     ?V0 + 1,A
        MOV     R0,#?V0 + 0
        LCALL   ?US_SWITCH_DENSE
`?<Jumptable for Smart_home_MessageMSGCB>_0`:
        DATA
        DATA16
        DATA
        DATA16
        DW        1
        DATA
        DATA8
        DATA
        DATA8
        DB        7
        DATA
        DATA16
        DATA
        DATA16
        DW        ??Smart_home_MessageMSGCB_0
        DATA
        DATA16
        DATA
        DATA16
        DW        ??Smart_home_MessageMSGCB_1
        DATA
        DATA16
        DATA
        DATA16
        DW        ??Smart_home_MessageMSGCB_2
        DATA
        DATA16
        DATA
        DATA16
        DW        ??Smart_home_MessageMSGCB_3
        DATA
        DATA16
        DATA
        DATA16
        DW        ??Smart_home_MessageMSGCB_4
        DATA
        DATA16
        DATA
        DATA16
        DW        ??Smart_home_MessageMSGCB_5
        DATA
        DATA16
        DATA
        DATA16
        DW        ??Smart_home_MessageMSGCB_6
        DATA
        DATA16
        DATA
        DATA16
        DW        ??Smart_home_MessageMSGCB_7
        DATA
        DATA16
        DATA
        DATA16
        DW        ??Smart_home_MessageMSGCB_8
        CODE
//  762   {
//  763     // 温湿度传感器信息
//  764     case Smart_home_CLUSTERID_HUMITMSG:
//  765       Humit.deviceStatus = DEVICE_ONLINE;
??Smart_home_MessageMSGCB_1:
        MOV     DPTR,#Humit
        LCALL   ?Subroutine3 & 0xFFFF
//  766       Humit.data[0] = pkt->cmd.Data[4]; // 湿度 
??CrossCallReturnLabel_0:
        MOV     DPTR,#Humit + 1
        LCALL   ?Subroutine7 & 0xFFFF
//  767       Humit.data[1] = pkt->cmd.Data[5]; // 温度
??CrossCallReturnLabel_12:
        MOV     DPTR,#Humit + 2
        LCALL   ?Subroutine10 & 0xFFFF
//  768       HalUARTWrite(HAL_UART_PORT_0, "1",   1);
??CrossCallReturnLabel_18:
        MOV     R2,#`?<Constant "1">` & 0xff
        MOV     R3,#(`?<Constant "1">` >> 8) & 0xff
        LCALL   ?Subroutine24 & 0xFFFF
//  769       HalUARTWrite(HAL_UART_PORT_0, Humit.data,   5);      
??CrossCallReturnLabel_56:
        MOV     R2,#(Humit + 1) & 0xff
        MOV     R3,#((Humit + 1) >> 8) & 0xff
        LJMP    ??Smart_home_MessageMSGCB_9 & 0xFFFF
//  770       break;
//  771     
//  772     // 温度与光照度传感器信息  
//  773     case Smart_home_CLUSTERID_TEMPLIGHTMSG:
//  774       TempLight.deviceStatus = DEVICE_ONLINE;
??Smart_home_MessageMSGCB_2:
        MOV     DPTR,#TempLight
        LCALL   ?Subroutine3 & 0xFFFF
//  775       TempLight.data[0] = pkt->cmd.Data[4]; // 温度整数
??CrossCallReturnLabel_1:
        MOV     DPTR,#TempLight + 1
        LCALL   ?Subroutine8 & 0xFFFF
//  776       TempLight.data[1] = pkt->cmd.Data[5]; // 温度小数
??CrossCallReturnLabel_14:
        MOV     DPTR,#TempLight + 2
        LCALL   ?Subroutine6 & 0xFFFF
//  777       TempLight.data[2] = pkt->cmd.Data[6]; // 光照
??CrossCallReturnLabel_10:
        MOV     DPTR,#TempLight + 3
        LCALL   ?Subroutine5 & 0xFFFF
//  778       TempLight.data[3] = pkt->cmd.Data[7]; // 光照
??CrossCallReturnLabel_8:
        MOVX    A,@DPTR
        MOV     DPTR,#TempLight + 4
        LCALL   ?Subroutine10 & 0xFFFF
//  779       HalUARTWrite(HAL_UART_PORT_0, "2",   1);
??CrossCallReturnLabel_19:
        MOV     R2,#`?<Constant "2">` & 0xff
        MOV     R3,#(`?<Constant "2">` >> 8) & 0xff
        LCALL   ?Subroutine24 & 0xFFFF
//  780       HalUARTWrite(HAL_UART_PORT_0, TempLight.data,   5);
??CrossCallReturnLabel_57:
        MOV     R2,#(TempLight + 1) & 0xff
        MOV     R3,#((TempLight + 1) >> 8) & 0xff
        LJMP    ??Smart_home_MessageMSGCB_9 & 0xFFFF
//  781       break;
//  782     
//  783     // RFID射频卡信息 
//  784     case Smart_home_CLUSTERID_RFIDMSG:
//  785       RfID.deviceStatus = DEVICE_ONLINE;
??Smart_home_MessageMSGCB_3:
        MOV     DPTR,#RfID
        LCALL   ?Subroutine3 & 0xFFFF
//  786       RfID.data[0] = pkt->cmd.Data[4]; // 射频卡类型
??CrossCallReturnLabel_2:
        MOV     DPTR,#RfID + 1
        LCALL   ?Subroutine8 & 0xFFFF
//  787       RfID.data[1] = pkt->cmd.Data[5]; // 4个字节的ID号
??CrossCallReturnLabel_15:
        MOV     DPTR,#RfID + 2
        LCALL   ?Subroutine6 & 0xFFFF
//  788       RfID.data[2] = pkt->cmd.Data[6]; //
??CrossCallReturnLabel_11:
        MOV     DPTR,#RfID + 3
        LCALL   ?Subroutine27 & 0xFFFF
//  789       RfID.data[3] = pkt->cmd.Data[7]; //
??CrossCallReturnLabel_66:
        INC     DPTR
        MOVX    A,@DPTR
        MOV     DPTR,#RfID + 4
        LCALL   ?Subroutine5 & 0xFFFF
//  790       RfID.data[4] = pkt->cmd.Data[8]; //  
??CrossCallReturnLabel_9:
        INC     DPTR
        MOVX    A,@DPTR
        MOV     DPTR,#RfID + 5
        LCALL   ?Subroutine10 & 0xFFFF
//  791       HalUARTWrite(HAL_UART_PORT_0, "3",   1);
??CrossCallReturnLabel_20:
        MOV     R2,#`?<Constant "3">` & 0xff
        MOV     R3,#(`?<Constant "3">` >> 8) & 0xff
        LCALL   ?Subroutine24 & 0xFFFF
//  792       HalUARTWrite(HAL_UART_PORT_0, RfID.data,   5);
??CrossCallReturnLabel_58:
        MOV     R2,#(RfID + 1) & 0xff
        MOV     R3,#((RfID + 1) >> 8) & 0xff
        LJMP    ??Smart_home_MessageMSGCB_9 & 0xFFFF
//  793       break;
//  794     
//  795     // 烟雾与火焰报警信息  
//  796     case Smart_home_CLUSTERID_GASFLAMEMSG:
//  797       gasFlame.deviceStatus = DEVICE_ONLINE;
??Smart_home_MessageMSGCB_4:
        MOV     DPTR,#gasFlame
        LCALL   ?Subroutine4 & 0xFFFF
//  798       gasFlame.data[0] = pkt->cmd.Data[4]; // 烟雾与火焰报警信息
??CrossCallReturnLabel_4:
        MOV     DPTR,#gasFlame + 1
        LCALL   ?Subroutine10 & 0xFFFF
//  799       HalUARTWrite(HAL_UART_PORT_0, "4",   1);
??CrossCallReturnLabel_21:
        MOV     R2,#`?<Constant "4">` & 0xff
        MOV     R3,#(`?<Constant "4">` >> 8) & 0xff
        LCALL   ?Subroutine24 & 0xFFFF
//  800       HalUARTWrite(HAL_UART_PORT_0, gasFlame.data,   5);
??CrossCallReturnLabel_59:
        MOV     R2,#(gasFlame + 1) & 0xff
        MOV     R3,#((gasFlame + 1) >> 8) & 0xff
        SJMP    ??Smart_home_MessageMSGCB_9
//  801       break;
//  802     
//  803     // 人体红外检测信息  
//  804     case Smart_home_CLUSTERID_INFRAREDMSG:
//  805       infrared.deviceStatus = DEVICE_ONLINE;
??Smart_home_MessageMSGCB_5:
        MOV     DPTR,#infrared
        LCALL   ?Subroutine4 & 0xFFFF
//  806       infrared.data[0] = pkt->cmd.Data[4]; // 人体红外 
??CrossCallReturnLabel_5:
        MOV     DPTR,#infrared + 1
??Smart_home_MessageMSGCB_10:
        MOVX    @DPTR,A
//  807       //HalUARTWrite(HAL_UART_PORT_0, "2",   1);
//  808       //HalUARTWrite(HAL_UART_PORT_0, TempLight.data,   5);
//  809       break;
        SJMP    ??Smart_home_MessageMSGCB_0
//  810     
//  811     // 声音与振动传感器信息  
//  812     case Smart_home_CLUSTERID_SOUNDVBMSG:
//  813       soundVb.deviceStatus = DEVICE_ONLINE;
??Smart_home_MessageMSGCB_6:
        MOV     DPTR,#soundVb
        LCALL   ?Subroutine4 & 0xFFFF
//  814       soundVb.data[0] = pkt->cmd.Data[4]; // 声音震动信息
??CrossCallReturnLabel_6:
        MOV     DPTR,#soundVb + 1
        SJMP    ??Smart_home_MessageMSGCB_10
//  815       break;
//  816     
//  817     // 电机状态信息  
//  818     case Smart_home_CLUSTERID_MOTORSTATUSMSG:
//  819       motor.deviceStatus = DEVICE_ONLINE;
??Smart_home_MessageMSGCB_7:
        MOV     DPTR,#motor
        MOV     A,#0x1
        MOVX    @DPTR,A
//  820       
//  821       // 储存电机设备的网络地址，用于发送控制命令
//  822       Smart_home_DstMotorAddr.addrMode = (afAddrMode_t)Addr16Bit;
        MOV     DPTR,#Smart_home_DstMotorAddr + 8
        LCALL   ?Subroutine9 & 0xFFFF
//  823       Smart_home_DstMotorAddr.addr.shortAddr = pkt->srcAddr.addr.shortAddr;
??CrossCallReturnLabel_16:
        MOV     DPTR,#Smart_home_DstMotorAddr
        MOV     A,R0
        MOVX    @DPTR,A
        INC     DPTR
        MOV     A,R1
        MOVX    @DPTR,A
//  824       
//  825       Smart_home_DstMotorAddr.endPoint = 1;  // 目的节点的端口号
        MOV     DPTR,#Smart_home_DstMotorAddr + 9
        LCALL   ?Subroutine3 & 0xFFFF
//  826       //Smart_home_DstMotorAddr.endPoint = Smart_home_ENDPOINT;
//  827      
//  828       motor.data[0] = pkt->cmd.Data[4]; // 电机转速
??CrossCallReturnLabel_3:
        MOV     DPTR,#motor + 1
        LCALL   ?Subroutine7 & 0xFFFF
//  829       motor.data[1] = pkt->cmd.Data[5]; // 电机状态
??CrossCallReturnLabel_13:
        MOV     DPTR,#motor + 2
        LCALL   ?Subroutine10 & 0xFFFF
//  830       
//  831       HalUARTWrite(HAL_UART_PORT_0, "7",   1);
??CrossCallReturnLabel_22:
        MOV     R2,#`?<Constant "7">` & 0xff
        MOV     R3,#(`?<Constant "7">` >> 8) & 0xff
        LCALL   ?Subroutine24 & 0xFFFF
//  832       HalUARTWrite(HAL_UART_PORT_0, motor.data,   5);
??CrossCallReturnLabel_60:
        MOV     R2,#(motor + 1) & 0xff
        MOV     R3,#((motor + 1) >> 8) & 0xff
        SJMP    ??Smart_home_MessageMSGCB_9
//  833       break;
//  834     
//  835     // 继电器状态信息   
//  836     case Smart_home_CLUSTERID_RELAYSTATUSMSG:
//  837       relay.deviceStatus = DEVICE_ONLINE;
??Smart_home_MessageMSGCB_8:
        MOV     DPTR,#relay
        MOV     A,#0x1
        MOVX    @DPTR,A
//  838       
//  839       // 储存继电器设备的网络地址，用于发送控制命令
//  840       Smart_home_DstRelayAddr.addrMode = (afAddrMode_t)Addr16Bit;
        MOV     DPTR,#Smart_home_DstRelayAddr + 8
        LCALL   ?Subroutine9 & 0xFFFF
//  841       Smart_home_DstRelayAddr.addr.shortAddr = pkt->srcAddr.addr.shortAddr;
??CrossCallReturnLabel_17:
        MOV     DPTR,#Smart_home_DstRelayAddr
        MOV     A,R0
        MOVX    @DPTR,A
        INC     DPTR
        MOV     A,R1
        MOVX    @DPTR,A
//  842       
//  843       Smart_home_DstRelayAddr.endPoint = 1; // 目的节点的端口号
        MOV     DPTR,#Smart_home_DstRelayAddr + 9
        LCALL   ?Subroutine4 & 0xFFFF
//  844       //Smart_home_DstRelayAddr.endPoint = Smart_home_ENDPOINT;  
//  845       
//  846       relay.data[0] = pkt->cmd.Data[4]; 
??CrossCallReturnLabel_7:
        MOV     DPTR,#relay + 1
        LCALL   ?Subroutine10 & 0xFFFF
//  847       HalUARTWrite(HAL_UART_PORT_0, "8",   1);
??CrossCallReturnLabel_23:
        MOV     R2,#`?<Constant "8">` & 0xff
        MOV     R3,#(`?<Constant "8">` >> 8) & 0xff
        LCALL   ?Subroutine24 & 0xFFFF
//  848       HalUARTWrite(HAL_UART_PORT_0, relay.data,   5);
??CrossCallReturnLabel_61:
        MOV     R2,#(relay + 1) & 0xff
        MOV     R3,#((relay + 1) >> 8) & 0xff
??Smart_home_MessageMSGCB_9:
        MOV     R1,#0x0
        LCALL   ??HalUARTWrite?relay
//  849       break;
//  850       
//  851     // 同上面一样，可以在将来添加更多的控制信息
//  852     default:
//  853       break;
//  854   }
//  855 }
??Smart_home_MessageMSGCB_0:
        LJMP    ?Subroutine1 & 0xFFFF
        CFI EndBlock cfiBlock34

        RSEG BANKED_CODE:CODE:NOROOT(0)
?Subroutine24:
        CFI Block cfiCond35 Using cfiCommon0
        CFI NoFunction
        CFI Conditional ??CrossCallReturnLabel_56
        CFI R6 load(1, XDATA, add(CFA_XSP16, literal(-10)))
        CFI VB load(1, XDATA, add(CFA_XSP16, literal(-9)))
        CFI V0 load(1, XDATA, add(CFA_XSP16, literal(-8)))
        CFI V1 load(1, XDATA, add(CFA_XSP16, literal(-7)))
        CFI R7 load(1, XDATA, add(CFA_XSP16, literal(-6)))
        CFI ?RET_LOW load(1, XDATA, add(CFA_XSP16, literal(-5)))
        CFI ?RET_HIGH load(1, XDATA, add(CFA_XSP16, literal(-4)))
        CFI ?BRET_EXT load(1, XDATA, add(CFA_XSP16, literal(-3)))
        CFI DPL0 load(1, XDATA, add(CFA_XSP16, literal(-2)))
        CFI DPH0 load(1, XDATA, add(CFA_XSP16, literal(-1)))
        CFI CFA_SP SP+0
        CFI CFA_XSP16 add(XSP16, 10)
        CFI Block cfiCond36 Using cfiCommon0
        CFI (cfiCond36) NoFunction
        CFI (cfiCond36) Conditional ??CrossCallReturnLabel_57
        CFI (cfiCond36) R6 load(1, XDATA, add(CFA_XSP16, literal(-10)))
        CFI (cfiCond36) VB load(1, XDATA, add(CFA_XSP16, literal(-9)))
        CFI (cfiCond36) V0 load(1, XDATA, add(CFA_XSP16, literal(-8)))
        CFI (cfiCond36) V1 load(1, XDATA, add(CFA_XSP16, literal(-7)))
        CFI (cfiCond36) R7 load(1, XDATA, add(CFA_XSP16, literal(-6)))
        CFI (cfiCond36) ?RET_LOW load(1, XDATA, add(CFA_XSP16, literal(-5)))
        CFI (cfiCond36) ?RET_HIGH load(1, XDATA, add(CFA_XSP16, literal(-4)))
        CFI (cfiCond36) ?BRET_EXT load(1, XDATA, add(CFA_XSP16, literal(-3)))
        CFI (cfiCond36) DPL0 load(1, XDATA, add(CFA_XSP16, literal(-2)))
        CFI (cfiCond36) DPH0 load(1, XDATA, add(CFA_XSP16, literal(-1)))
        CFI (cfiCond36) CFA_SP SP+0
        CFI (cfiCond36) CFA_XSP16 add(XSP16, 10)
        CFI Block cfiCond37 Using cfiCommon0
        CFI (cfiCond37) NoFunction
        CFI (cfiCond37) Conditional ??CrossCallReturnLabel_58
        CFI (cfiCond37) R6 load(1, XDATA, add(CFA_XSP16, literal(-10)))
        CFI (cfiCond37) VB load(1, XDATA, add(CFA_XSP16, literal(-9)))
        CFI (cfiCond37) V0 load(1, XDATA, add(CFA_XSP16, literal(-8)))
        CFI (cfiCond37) V1 load(1, XDATA, add(CFA_XSP16, literal(-7)))
        CFI (cfiCond37) R7 load(1, XDATA, add(CFA_XSP16, literal(-6)))
        CFI (cfiCond37) ?RET_LOW load(1, XDATA, add(CFA_XSP16, literal(-5)))
        CFI (cfiCond37) ?RET_HIGH load(1, XDATA, add(CFA_XSP16, literal(-4)))
        CFI (cfiCond37) ?BRET_EXT load(1, XDATA, add(CFA_XSP16, literal(-3)))
        CFI (cfiCond37) DPL0 load(1, XDATA, add(CFA_XSP16, literal(-2)))
        CFI (cfiCond37) DPH0 load(1, XDATA, add(CFA_XSP16, literal(-1)))
        CFI (cfiCond37) CFA_SP SP+0
        CFI (cfiCond37) CFA_XSP16 add(XSP16, 10)
        CFI Block cfiCond38 Using cfiCommon0
        CFI (cfiCond38) NoFunction
        CFI (cfiCond38) Conditional ??CrossCallReturnLabel_59
        CFI (cfiCond38) R6 load(1, XDATA, add(CFA_XSP16, literal(-10)))
        CFI (cfiCond38) VB load(1, XDATA, add(CFA_XSP16, literal(-9)))
        CFI (cfiCond38) V0 load(1, XDATA, add(CFA_XSP16, literal(-8)))
        CFI (cfiCond38) V1 load(1, XDATA, add(CFA_XSP16, literal(-7)))
        CFI (cfiCond38) R7 load(1, XDATA, add(CFA_XSP16, literal(-6)))
        CFI (cfiCond38) ?RET_LOW load(1, XDATA, add(CFA_XSP16, literal(-5)))
        CFI (cfiCond38) ?RET_HIGH load(1, XDATA, add(CFA_XSP16, literal(-4)))
        CFI (cfiCond38) ?BRET_EXT load(1, XDATA, add(CFA_XSP16, literal(-3)))
        CFI (cfiCond38) DPL0 load(1, XDATA, add(CFA_XSP16, literal(-2)))
        CFI (cfiCond38) DPH0 load(1, XDATA, add(CFA_XSP16, literal(-1)))
        CFI (cfiCond38) CFA_SP SP+0
        CFI (cfiCond38) CFA_XSP16 add(XSP16, 10)
        CFI Block cfiCond39 Using cfiCommon0
        CFI (cfiCond39) NoFunction
        CFI (cfiCond39) Conditional ??CrossCallReturnLabel_60
        CFI (cfiCond39) R6 load(1, XDATA, add(CFA_XSP16, literal(-10)))
        CFI (cfiCond39) VB load(1, XDATA, add(CFA_XSP16, literal(-9)))
        CFI (cfiCond39) V0 load(1, XDATA, add(CFA_XSP16, literal(-8)))
        CFI (cfiCond39) V1 load(1, XDATA, add(CFA_XSP16, literal(-7)))
        CFI (cfiCond39) R7 load(1, XDATA, add(CFA_XSP16, literal(-6)))
        CFI (cfiCond39) ?RET_LOW load(1, XDATA, add(CFA_XSP16, literal(-5)))
        CFI (cfiCond39) ?RET_HIGH load(1, XDATA, add(CFA_XSP16, literal(-4)))
        CFI (cfiCond39) ?BRET_EXT load(1, XDATA, add(CFA_XSP16, literal(-3)))
        CFI (cfiCond39) DPL0 load(1, XDATA, add(CFA_XSP16, literal(-2)))
        CFI (cfiCond39) DPH0 load(1, XDATA, add(CFA_XSP16, literal(-1)))
        CFI (cfiCond39) CFA_SP SP+0
        CFI (cfiCond39) CFA_XSP16 add(XSP16, 10)
        CFI Block cfiCond40 Using cfiCommon0
        CFI (cfiCond40) NoFunction
        CFI (cfiCond40) Conditional ??CrossCallReturnLabel_61
        CFI (cfiCond40) R6 load(1, XDATA, add(CFA_XSP16, literal(-10)))
        CFI (cfiCond40) VB load(1, XDATA, add(CFA_XSP16, literal(-9)))
        CFI (cfiCond40) V0 load(1, XDATA, add(CFA_XSP16, literal(-8)))
        CFI (cfiCond40) V1 load(1, XDATA, add(CFA_XSP16, literal(-7)))
        CFI (cfiCond40) R7 load(1, XDATA, add(CFA_XSP16, literal(-6)))
        CFI (cfiCond40) ?RET_LOW load(1, XDATA, add(CFA_XSP16, literal(-5)))
        CFI (cfiCond40) ?RET_HIGH load(1, XDATA, add(CFA_XSP16, literal(-4)))
        CFI (cfiCond40) ?BRET_EXT load(1, XDATA, add(CFA_XSP16, literal(-3)))
        CFI (cfiCond40) DPL0 load(1, XDATA, add(CFA_XSP16, literal(-2)))
        CFI (cfiCond40) DPH0 load(1, XDATA, add(CFA_XSP16, literal(-1)))
        CFI (cfiCond40) CFA_SP SP+0
        CFI (cfiCond40) CFA_XSP16 add(XSP16, 10)
        CFI Block cfiPicker41 Using cfiCommon1
        CFI (cfiPicker41) NoFunction
        CFI (cfiPicker41) Picker
        MOV     R1,#0x0
        LCALL   ??HalUARTWrite?relay
        ; Setup parameters for call to function HalUARTWrite
        ; Setup parameters for call to function HalUARTWrite
        ; Setup parameters for call to function HalUARTWrite
        ; Setup parameters for call to function HalUARTWrite
        ; Setup parameters for call to function HalUARTWrite
        ; Setup parameters for call to function HalUARTWrite
        MOV     R4,#0x5
        MOV     R5,#0x0
        RET
        CFI EndBlock cfiCond35
        CFI EndBlock cfiCond36
        CFI EndBlock cfiCond37
        CFI EndBlock cfiCond38
        CFI EndBlock cfiCond39
        CFI EndBlock cfiCond40
        CFI EndBlock cfiPicker41

        RSEG BANKED_CODE:CODE:NOROOT(0)
?Subroutine10:
        CFI Block cfiCond42 Using cfiCommon0
        CFI NoFunction
        CFI Conditional ??CrossCallReturnLabel_18
        CFI R6 load(1, XDATA, add(CFA_XSP16, literal(-10)))
        CFI VB load(1, XDATA, add(CFA_XSP16, literal(-9)))
        CFI V0 load(1, XDATA, add(CFA_XSP16, literal(-8)))
        CFI V1 load(1, XDATA, add(CFA_XSP16, literal(-7)))
        CFI R7 load(1, XDATA, add(CFA_XSP16, literal(-6)))
        CFI ?RET_LOW load(1, XDATA, add(CFA_XSP16, literal(-5)))
        CFI ?RET_HIGH load(1, XDATA, add(CFA_XSP16, literal(-4)))
        CFI ?BRET_EXT load(1, XDATA, add(CFA_XSP16, literal(-3)))
        CFI DPL0 load(1, XDATA, add(CFA_XSP16, literal(-2)))
        CFI DPH0 load(1, XDATA, add(CFA_XSP16, literal(-1)))
        CFI CFA_SP SP+0
        CFI CFA_XSP16 add(XSP16, 10)
        CFI Block cfiCond43 Using cfiCommon0
        CFI (cfiCond43) NoFunction
        CFI (cfiCond43) Conditional ??CrossCallReturnLabel_19
        CFI (cfiCond43) R6 load(1, XDATA, add(CFA_XSP16, literal(-10)))
        CFI (cfiCond43) VB load(1, XDATA, add(CFA_XSP16, literal(-9)))
        CFI (cfiCond43) V0 load(1, XDATA, add(CFA_XSP16, literal(-8)))
        CFI (cfiCond43) V1 load(1, XDATA, add(CFA_XSP16, literal(-7)))
        CFI (cfiCond43) R7 load(1, XDATA, add(CFA_XSP16, literal(-6)))
        CFI (cfiCond43) ?RET_LOW load(1, XDATA, add(CFA_XSP16, literal(-5)))
        CFI (cfiCond43) ?RET_HIGH load(1, XDATA, add(CFA_XSP16, literal(-4)))
        CFI (cfiCond43) ?BRET_EXT load(1, XDATA, add(CFA_XSP16, literal(-3)))
        CFI (cfiCond43) DPL0 load(1, XDATA, add(CFA_XSP16, literal(-2)))
        CFI (cfiCond43) DPH0 load(1, XDATA, add(CFA_XSP16, literal(-1)))
        CFI (cfiCond43) CFA_SP SP+0
        CFI (cfiCond43) CFA_XSP16 add(XSP16, 10)
        CFI Block cfiCond44 Using cfiCommon0
        CFI (cfiCond44) NoFunction
        CFI (cfiCond44) Conditional ??CrossCallReturnLabel_20
        CFI (cfiCond44) R6 load(1, XDATA, add(CFA_XSP16, literal(-10)))
        CFI (cfiCond44) VB load(1, XDATA, add(CFA_XSP16, literal(-9)))
        CFI (cfiCond44) V0 load(1, XDATA, add(CFA_XSP16, literal(-8)))
        CFI (cfiCond44) V1 load(1, XDATA, add(CFA_XSP16, literal(-7)))
        CFI (cfiCond44) R7 load(1, XDATA, add(CFA_XSP16, literal(-6)))
        CFI (cfiCond44) ?RET_LOW load(1, XDATA, add(CFA_XSP16, literal(-5)))
        CFI (cfiCond44) ?RET_HIGH load(1, XDATA, add(CFA_XSP16, literal(-4)))
        CFI (cfiCond44) ?BRET_EXT load(1, XDATA, add(CFA_XSP16, literal(-3)))
        CFI (cfiCond44) DPL0 load(1, XDATA, add(CFA_XSP16, literal(-2)))
        CFI (cfiCond44) DPH0 load(1, XDATA, add(CFA_XSP16, literal(-1)))
        CFI (cfiCond44) CFA_SP SP+0
        CFI (cfiCond44) CFA_XSP16 add(XSP16, 10)
        CFI Block cfiCond45 Using cfiCommon0
        CFI (cfiCond45) NoFunction
        CFI (cfiCond45) Conditional ??CrossCallReturnLabel_21
        CFI (cfiCond45) R6 load(1, XDATA, add(CFA_XSP16, literal(-10)))
        CFI (cfiCond45) VB load(1, XDATA, add(CFA_XSP16, literal(-9)))
        CFI (cfiCond45) V0 load(1, XDATA, add(CFA_XSP16, literal(-8)))
        CFI (cfiCond45) V1 load(1, XDATA, add(CFA_XSP16, literal(-7)))
        CFI (cfiCond45) R7 load(1, XDATA, add(CFA_XSP16, literal(-6)))
        CFI (cfiCond45) ?RET_LOW load(1, XDATA, add(CFA_XSP16, literal(-5)))
        CFI (cfiCond45) ?RET_HIGH load(1, XDATA, add(CFA_XSP16, literal(-4)))
        CFI (cfiCond45) ?BRET_EXT load(1, XDATA, add(CFA_XSP16, literal(-3)))
        CFI (cfiCond45) DPL0 load(1, XDATA, add(CFA_XSP16, literal(-2)))
        CFI (cfiCond45) DPH0 load(1, XDATA, add(CFA_XSP16, literal(-1)))
        CFI (cfiCond45) CFA_SP SP+0
        CFI (cfiCond45) CFA_XSP16 add(XSP16, 10)
        CFI Block cfiCond46 Using cfiCommon0
        CFI (cfiCond46) NoFunction
        CFI (cfiCond46) Conditional ??CrossCallReturnLabel_22
        CFI (cfiCond46) R6 load(1, XDATA, add(CFA_XSP16, literal(-10)))
        CFI (cfiCond46) VB load(1, XDATA, add(CFA_XSP16, literal(-9)))
        CFI (cfiCond46) V0 load(1, XDATA, add(CFA_XSP16, literal(-8)))
        CFI (cfiCond46) V1 load(1, XDATA, add(CFA_XSP16, literal(-7)))
        CFI (cfiCond46) R7 load(1, XDATA, add(CFA_XSP16, literal(-6)))
        CFI (cfiCond46) ?RET_LOW load(1, XDATA, add(CFA_XSP16, literal(-5)))
        CFI (cfiCond46) ?RET_HIGH load(1, XDATA, add(CFA_XSP16, literal(-4)))
        CFI (cfiCond46) ?BRET_EXT load(1, XDATA, add(CFA_XSP16, literal(-3)))
        CFI (cfiCond46) DPL0 load(1, XDATA, add(CFA_XSP16, literal(-2)))
        CFI (cfiCond46) DPH0 load(1, XDATA, add(CFA_XSP16, literal(-1)))
        CFI (cfiCond46) CFA_SP SP+0
        CFI (cfiCond46) CFA_XSP16 add(XSP16, 10)
        CFI Block cfiCond47 Using cfiCommon0
        CFI (cfiCond47) NoFunction
        CFI (cfiCond47) Conditional ??CrossCallReturnLabel_23
        CFI (cfiCond47) R6 load(1, XDATA, add(CFA_XSP16, literal(-10)))
        CFI (cfiCond47) VB load(1, XDATA, add(CFA_XSP16, literal(-9)))
        CFI (cfiCond47) V0 load(1, XDATA, add(CFA_XSP16, literal(-8)))
        CFI (cfiCond47) V1 load(1, XDATA, add(CFA_XSP16, literal(-7)))
        CFI (cfiCond47) R7 load(1, XDATA, add(CFA_XSP16, literal(-6)))
        CFI (cfiCond47) ?RET_LOW load(1, XDATA, add(CFA_XSP16, literal(-5)))
        CFI (cfiCond47) ?RET_HIGH load(1, XDATA, add(CFA_XSP16, literal(-4)))
        CFI (cfiCond47) ?BRET_EXT load(1, XDATA, add(CFA_XSP16, literal(-3)))
        CFI (cfiCond47) DPL0 load(1, XDATA, add(CFA_XSP16, literal(-2)))
        CFI (cfiCond47) DPH0 load(1, XDATA, add(CFA_XSP16, literal(-1)))
        CFI (cfiCond47) CFA_SP SP+0
        CFI (cfiCond47) CFA_XSP16 add(XSP16, 10)
        CFI Block cfiPicker48 Using cfiCommon1
        CFI (cfiPicker48) NoFunction
        CFI (cfiPicker48) Picker
        MOVX    @DPTR,A
        ; Setup parameters for call to function HalUARTWrite
        ; Setup parameters for call to function HalUARTWrite
        ; Setup parameters for call to function HalUARTWrite
        ; Setup parameters for call to function HalUARTWrite
        ; Setup parameters for call to function HalUARTWrite
        ; Setup parameters for call to function HalUARTWrite
        MOV     R4,#0x1
        MOV     R5,#0x0
        RET
        CFI EndBlock cfiCond42
        CFI EndBlock cfiCond43
        CFI EndBlock cfiCond44
        CFI EndBlock cfiCond45
        CFI EndBlock cfiCond46
        CFI EndBlock cfiCond47
        CFI EndBlock cfiPicker48

        RSEG BANKED_CODE:CODE:NOROOT(0)
?Subroutine9:
        CFI Block cfiCond49 Using cfiCommon0
        CFI NoFunction
        CFI Conditional ??CrossCallReturnLabel_16
        CFI R6 load(1, XDATA, add(CFA_XSP16, literal(-10)))
        CFI VB load(1, XDATA, add(CFA_XSP16, literal(-9)))
        CFI V0 load(1, XDATA, add(CFA_XSP16, literal(-8)))
        CFI V1 load(1, XDATA, add(CFA_XSP16, literal(-7)))
        CFI R7 load(1, XDATA, add(CFA_XSP16, literal(-6)))
        CFI ?RET_LOW load(1, XDATA, add(CFA_XSP16, literal(-5)))
        CFI ?RET_HIGH load(1, XDATA, add(CFA_XSP16, literal(-4)))
        CFI ?BRET_EXT load(1, XDATA, add(CFA_XSP16, literal(-3)))
        CFI DPL0 load(1, XDATA, add(CFA_XSP16, literal(-2)))
        CFI DPH0 load(1, XDATA, add(CFA_XSP16, literal(-1)))
        CFI CFA_SP SP+0
        CFI CFA_XSP16 add(XSP16, 10)
        CFI Block cfiCond50 Using cfiCommon0
        CFI (cfiCond50) NoFunction
        CFI (cfiCond50) Conditional ??CrossCallReturnLabel_17
        CFI (cfiCond50) R6 load(1, XDATA, add(CFA_XSP16, literal(-10)))
        CFI (cfiCond50) VB load(1, XDATA, add(CFA_XSP16, literal(-9)))
        CFI (cfiCond50) V0 load(1, XDATA, add(CFA_XSP16, literal(-8)))
        CFI (cfiCond50) V1 load(1, XDATA, add(CFA_XSP16, literal(-7)))
        CFI (cfiCond50) R7 load(1, XDATA, add(CFA_XSP16, literal(-6)))
        CFI (cfiCond50) ?RET_LOW load(1, XDATA, add(CFA_XSP16, literal(-5)))
        CFI (cfiCond50) ?RET_HIGH load(1, XDATA, add(CFA_XSP16, literal(-4)))
        CFI (cfiCond50) ?BRET_EXT load(1, XDATA, add(CFA_XSP16, literal(-3)))
        CFI (cfiCond50) DPL0 load(1, XDATA, add(CFA_XSP16, literal(-2)))
        CFI (cfiCond50) DPH0 load(1, XDATA, add(CFA_XSP16, literal(-1)))
        CFI (cfiCond50) CFA_SP SP+0
        CFI (cfiCond50) CFA_XSP16 add(XSP16, 10)
        CFI Block cfiPicker51 Using cfiCommon1
        CFI (cfiPicker51) NoFunction
        CFI (cfiPicker51) Picker
        INC     A
        MOVX    @DPTR,A
        MOV     DPL,R2
        MOV     DPH,R3
        INC     DPTR
        INC     DPTR
        INC     DPTR
        INC     DPTR
        INC     DPTR
        INC     DPTR
        MOVX    A,@DPTR
        MOV     R0,A
        INC     DPTR
        MOVX    A,@DPTR
        MOV     R1,A
        RET
        CFI EndBlock cfiCond49
        CFI EndBlock cfiCond50
        CFI EndBlock cfiPicker51

        RSEG BANKED_CODE:CODE:NOROOT(0)
?Subroutine8:
        CFI Block cfiCond52 Using cfiCommon0
        CFI NoFunction
        CFI Conditional ??CrossCallReturnLabel_14
        CFI R6 load(1, XDATA, add(CFA_XSP16, literal(-10)))
        CFI VB load(1, XDATA, add(CFA_XSP16, literal(-9)))
        CFI V0 load(1, XDATA, add(CFA_XSP16, literal(-8)))
        CFI V1 load(1, XDATA, add(CFA_XSP16, literal(-7)))
        CFI R7 load(1, XDATA, add(CFA_XSP16, literal(-6)))
        CFI ?RET_LOW load(1, XDATA, add(CFA_XSP16, literal(-5)))
        CFI ?RET_HIGH load(1, XDATA, add(CFA_XSP16, literal(-4)))
        CFI ?BRET_EXT load(1, XDATA, add(CFA_XSP16, literal(-3)))
        CFI DPL0 load(1, XDATA, add(CFA_XSP16, literal(-2)))
        CFI DPH0 load(1, XDATA, add(CFA_XSP16, literal(-1)))
        CFI CFA_SP SP+0
        CFI CFA_XSP16 add(XSP16, 10)
        CFI Block cfiCond53 Using cfiCommon0
        CFI (cfiCond53) NoFunction
        CFI (cfiCond53) Conditional ??CrossCallReturnLabel_15
        CFI (cfiCond53) R6 load(1, XDATA, add(CFA_XSP16, literal(-10)))
        CFI (cfiCond53) VB load(1, XDATA, add(CFA_XSP16, literal(-9)))
        CFI (cfiCond53) V0 load(1, XDATA, add(CFA_XSP16, literal(-8)))
        CFI (cfiCond53) V1 load(1, XDATA, add(CFA_XSP16, literal(-7)))
        CFI (cfiCond53) R7 load(1, XDATA, add(CFA_XSP16, literal(-6)))
        CFI (cfiCond53) ?RET_LOW load(1, XDATA, add(CFA_XSP16, literal(-5)))
        CFI (cfiCond53) ?RET_HIGH load(1, XDATA, add(CFA_XSP16, literal(-4)))
        CFI (cfiCond53) ?BRET_EXT load(1, XDATA, add(CFA_XSP16, literal(-3)))
        CFI (cfiCond53) DPL0 load(1, XDATA, add(CFA_XSP16, literal(-2)))
        CFI (cfiCond53) DPH0 load(1, XDATA, add(CFA_XSP16, literal(-1)))
        CFI (cfiCond53) CFA_SP SP+0
        CFI (cfiCond53) CFA_XSP16 add(XSP16, 10)
        CFI Block cfiPicker54 Using cfiCommon1
        CFI (cfiPicker54) NoFunction
        CFI (cfiPicker54) Picker
        MOVX    @DPTR,A
        LCALL   ?Subroutine29 & 0xFFFF
??CrossCallReturnLabel_71:
        INC     DPTR
        MOVX    A,@DPTR
        RET
        CFI EndBlock cfiCond52
        CFI EndBlock cfiCond53
        CFI EndBlock cfiPicker54

        RSEG BANKED_CODE:CODE:NOROOT(0)
?Subroutine7:
        CFI Block cfiCond55 Using cfiCommon0
        CFI NoFunction
        CFI Conditional ??CrossCallReturnLabel_12
        CFI R6 load(1, XDATA, add(CFA_XSP16, literal(-10)))
        CFI VB load(1, XDATA, add(CFA_XSP16, literal(-9)))
        CFI V0 load(1, XDATA, add(CFA_XSP16, literal(-8)))
        CFI V1 load(1, XDATA, add(CFA_XSP16, literal(-7)))
        CFI R7 load(1, XDATA, add(CFA_XSP16, literal(-6)))
        CFI ?RET_LOW load(1, XDATA, add(CFA_XSP16, literal(-5)))
        CFI ?RET_HIGH load(1, XDATA, add(CFA_XSP16, literal(-4)))
        CFI ?BRET_EXT load(1, XDATA, add(CFA_XSP16, literal(-3)))
        CFI DPL0 load(1, XDATA, add(CFA_XSP16, literal(-2)))
        CFI DPH0 load(1, XDATA, add(CFA_XSP16, literal(-1)))
        CFI CFA_SP SP+0
        CFI CFA_XSP16 add(XSP16, 10)
        CFI Block cfiCond56 Using cfiCommon0
        CFI (cfiCond56) NoFunction
        CFI (cfiCond56) Conditional ??CrossCallReturnLabel_13
        CFI (cfiCond56) R6 load(1, XDATA, add(CFA_XSP16, literal(-10)))
        CFI (cfiCond56) VB load(1, XDATA, add(CFA_XSP16, literal(-9)))
        CFI (cfiCond56) V0 load(1, XDATA, add(CFA_XSP16, literal(-8)))
        CFI (cfiCond56) V1 load(1, XDATA, add(CFA_XSP16, literal(-7)))
        CFI (cfiCond56) R7 load(1, XDATA, add(CFA_XSP16, literal(-6)))
        CFI (cfiCond56) ?RET_LOW load(1, XDATA, add(CFA_XSP16, literal(-5)))
        CFI (cfiCond56) ?RET_HIGH load(1, XDATA, add(CFA_XSP16, literal(-4)))
        CFI (cfiCond56) ?BRET_EXT load(1, XDATA, add(CFA_XSP16, literal(-3)))
        CFI (cfiCond56) DPL0 load(1, XDATA, add(CFA_XSP16, literal(-2)))
        CFI (cfiCond56) DPH0 load(1, XDATA, add(CFA_XSP16, literal(-1)))
        CFI (cfiCond56) CFA_SP SP+0
        CFI (cfiCond56) CFA_XSP16 add(XSP16, 10)
        CFI Block cfiPicker57 Using cfiCommon1
        CFI (cfiPicker57) NoFunction
        CFI (cfiPicker57) Picker
        LCALL   ?Subroutine28 & 0xFFFF
??CrossCallReturnLabel_68:
        MOVX    A,@DPTR
        RET
        CFI EndBlock cfiCond55
        CFI EndBlock cfiCond56
        CFI EndBlock cfiPicker57

        RSEG BANKED_CODE:CODE:NOROOT(0)
?Subroutine6:
        CFI Block cfiCond58 Using cfiCommon0
        CFI NoFunction
        CFI Conditional ??CrossCallReturnLabel_10
        CFI R6 load(1, XDATA, add(CFA_XSP16, literal(-10)))
        CFI VB load(1, XDATA, add(CFA_XSP16, literal(-9)))
        CFI V0 load(1, XDATA, add(CFA_XSP16, literal(-8)))
        CFI V1 load(1, XDATA, add(CFA_XSP16, literal(-7)))
        CFI R7 load(1, XDATA, add(CFA_XSP16, literal(-6)))
        CFI ?RET_LOW load(1, XDATA, add(CFA_XSP16, literal(-5)))
        CFI ?RET_HIGH load(1, XDATA, add(CFA_XSP16, literal(-4)))
        CFI ?BRET_EXT load(1, XDATA, add(CFA_XSP16, literal(-3)))
        CFI DPL0 load(1, XDATA, add(CFA_XSP16, literal(-2)))
        CFI DPH0 load(1, XDATA, add(CFA_XSP16, literal(-1)))
        CFI CFA_SP SP+0
        CFI CFA_XSP16 add(XSP16, 10)
        CFI Block cfiCond59 Using cfiCommon0
        CFI (cfiCond59) NoFunction
        CFI (cfiCond59) Conditional ??CrossCallReturnLabel_11
        CFI (cfiCond59) R6 load(1, XDATA, add(CFA_XSP16, literal(-10)))
        CFI (cfiCond59) VB load(1, XDATA, add(CFA_XSP16, literal(-9)))
        CFI (cfiCond59) V0 load(1, XDATA, add(CFA_XSP16, literal(-8)))
        CFI (cfiCond59) V1 load(1, XDATA, add(CFA_XSP16, literal(-7)))
        CFI (cfiCond59) R7 load(1, XDATA, add(CFA_XSP16, literal(-6)))
        CFI (cfiCond59) ?RET_LOW load(1, XDATA, add(CFA_XSP16, literal(-5)))
        CFI (cfiCond59) ?RET_HIGH load(1, XDATA, add(CFA_XSP16, literal(-4)))
        CFI (cfiCond59) ?BRET_EXT load(1, XDATA, add(CFA_XSP16, literal(-3)))
        CFI (cfiCond59) DPL0 load(1, XDATA, add(CFA_XSP16, literal(-2)))
        CFI (cfiCond59) DPH0 load(1, XDATA, add(CFA_XSP16, literal(-1)))
        CFI (cfiCond59) CFA_SP SP+0
        CFI (cfiCond59) CFA_XSP16 add(XSP16, 10)
        CFI Block cfiPicker60 Using cfiCommon1
        CFI (cfiPicker60) NoFunction
        CFI (cfiPicker60) Picker
        LCALL   ?Subroutine27 & 0xFFFF
??CrossCallReturnLabel_67:
        MOVX    A,@DPTR
        RET
        CFI EndBlock cfiCond58
        CFI EndBlock cfiCond59
        CFI EndBlock cfiPicker60

        RSEG BANKED_CODE:CODE:NOROOT(0)
?Subroutine27:
        CFI Block cfiCond61 Using cfiCommon0
        CFI NoFunction
        CFI Conditional ??CrossCallReturnLabel_66
        CFI R6 load(1, XDATA, add(CFA_XSP16, literal(-10)))
        CFI VB load(1, XDATA, add(CFA_XSP16, literal(-9)))
        CFI V0 load(1, XDATA, add(CFA_XSP16, literal(-8)))
        CFI V1 load(1, XDATA, add(CFA_XSP16, literal(-7)))
        CFI R7 load(1, XDATA, add(CFA_XSP16, literal(-6)))
        CFI ?RET_LOW load(1, XDATA, add(CFA_XSP16, literal(-5)))
        CFI ?RET_HIGH load(1, XDATA, add(CFA_XSP16, literal(-4)))
        CFI ?BRET_EXT load(1, XDATA, add(CFA_XSP16, literal(-3)))
        CFI DPL0 load(1, XDATA, add(CFA_XSP16, literal(-2)))
        CFI DPH0 load(1, XDATA, add(CFA_XSP16, literal(-1)))
        CFI CFA_SP SP+0
        CFI CFA_XSP16 add(XSP16, 10)
        CFI Block cfiCond62 Using cfiCommon0
        CFI (cfiCond62) NoFunction
        CFI (cfiCond62) Conditional ??CrossCallReturnLabel_67, ??CrossCallReturnLabel_10
        CFI (cfiCond62) R6 load(1, XDATA, add(CFA_XSP16, literal(-10)))
        CFI (cfiCond62) VB load(1, XDATA, add(CFA_XSP16, literal(-9)))
        CFI (cfiCond62) V0 load(1, XDATA, add(CFA_XSP16, literal(-8)))
        CFI (cfiCond62) V1 load(1, XDATA, add(CFA_XSP16, literal(-7)))
        CFI (cfiCond62) R7 load(1, XDATA, add(CFA_XSP16, literal(-6)))
        CFI (cfiCond62) ?RET_LOW load(1, XDATA, add(CFA_XSP16, literal(-5)))
        CFI (cfiCond62) ?RET_HIGH load(1, XDATA, add(CFA_XSP16, literal(-4)))
        CFI (cfiCond62) ?BRET_EXT load(1, XDATA, add(CFA_XSP16, literal(-3)))
        CFI (cfiCond62) DPL0 load(1, XDATA, add(CFA_XSP16, literal(-2)))
        CFI (cfiCond62) DPH0 load(1, XDATA, add(CFA_XSP16, literal(-1)))
        CFI (cfiCond62) CFA_SP SP+0
        CFI (cfiCond62) CFA_XSP16 add(XSP16, 10)
        CFI Block cfiCond63 Using cfiCommon0
        CFI (cfiCond63) NoFunction
        CFI (cfiCond63) Conditional ??CrossCallReturnLabel_67, ??CrossCallReturnLabel_11
        CFI (cfiCond63) R6 load(1, XDATA, add(CFA_XSP16, literal(-10)))
        CFI (cfiCond63) VB load(1, XDATA, add(CFA_XSP16, literal(-9)))
        CFI (cfiCond63) V0 load(1, XDATA, add(CFA_XSP16, literal(-8)))
        CFI (cfiCond63) V1 load(1, XDATA, add(CFA_XSP16, literal(-7)))
        CFI (cfiCond63) R7 load(1, XDATA, add(CFA_XSP16, literal(-6)))
        CFI (cfiCond63) ?RET_LOW load(1, XDATA, add(CFA_XSP16, literal(-5)))
        CFI (cfiCond63) ?RET_HIGH load(1, XDATA, add(CFA_XSP16, literal(-4)))
        CFI (cfiCond63) ?BRET_EXT load(1, XDATA, add(CFA_XSP16, literal(-3)))
        CFI (cfiCond63) DPL0 load(1, XDATA, add(CFA_XSP16, literal(-2)))
        CFI (cfiCond63) DPH0 load(1, XDATA, add(CFA_XSP16, literal(-1)))
        CFI (cfiCond63) CFA_SP SP+0
        CFI (cfiCond63) CFA_XSP16 add(XSP16, 10)
        CFI Block cfiPicker64 Using cfiCommon1
        CFI (cfiPicker64) NoFunction
        CFI (cfiPicker64) Picker
        MOVX    @DPTR,A
        LCALL   ?Subroutine31 & 0xFFFF
??CrossCallReturnLabel_72:
        INC     DPTR
        INC     DPTR
        RET
        CFI EndBlock cfiCond61
        CFI EndBlock cfiCond62
        CFI EndBlock cfiCond63
        CFI EndBlock cfiPicker64

        RSEG BANKED_CODE:CODE:NOROOT(0)
?Subroutine5:
        CFI Block cfiCond65 Using cfiCommon0
        CFI NoFunction
        CFI Conditional ??CrossCallReturnLabel_8
        CFI R6 load(1, XDATA, add(CFA_XSP16, literal(-10)))
        CFI VB load(1, XDATA, add(CFA_XSP16, literal(-9)))
        CFI V0 load(1, XDATA, add(CFA_XSP16, literal(-8)))
        CFI V1 load(1, XDATA, add(CFA_XSP16, literal(-7)))
        CFI R7 load(1, XDATA, add(CFA_XSP16, literal(-6)))
        CFI ?RET_LOW load(1, XDATA, add(CFA_XSP16, literal(-5)))
        CFI ?RET_HIGH load(1, XDATA, add(CFA_XSP16, literal(-4)))
        CFI ?BRET_EXT load(1, XDATA, add(CFA_XSP16, literal(-3)))
        CFI DPL0 load(1, XDATA, add(CFA_XSP16, literal(-2)))
        CFI DPH0 load(1, XDATA, add(CFA_XSP16, literal(-1)))
        CFI CFA_SP SP+0
        CFI CFA_XSP16 add(XSP16, 10)
        CFI Block cfiCond66 Using cfiCommon0
        CFI (cfiCond66) NoFunction
        CFI (cfiCond66) Conditional ??CrossCallReturnLabel_9
        CFI (cfiCond66) R6 load(1, XDATA, add(CFA_XSP16, literal(-10)))
        CFI (cfiCond66) VB load(1, XDATA, add(CFA_XSP16, literal(-9)))
        CFI (cfiCond66) V0 load(1, XDATA, add(CFA_XSP16, literal(-8)))
        CFI (cfiCond66) V1 load(1, XDATA, add(CFA_XSP16, literal(-7)))
        CFI (cfiCond66) R7 load(1, XDATA, add(CFA_XSP16, literal(-6)))
        CFI (cfiCond66) ?RET_LOW load(1, XDATA, add(CFA_XSP16, literal(-5)))
        CFI (cfiCond66) ?RET_HIGH load(1, XDATA, add(CFA_XSP16, literal(-4)))
        CFI (cfiCond66) ?BRET_EXT load(1, XDATA, add(CFA_XSP16, literal(-3)))
        CFI (cfiCond66) DPL0 load(1, XDATA, add(CFA_XSP16, literal(-2)))
        CFI (cfiCond66) DPH0 load(1, XDATA, add(CFA_XSP16, literal(-1)))
        CFI (cfiCond66) CFA_SP SP+0
        CFI (cfiCond66) CFA_XSP16 add(XSP16, 10)
        CFI Block cfiPicker67 Using cfiCommon1
        CFI (cfiPicker67) NoFunction
        CFI (cfiPicker67) Picker
        LCALL   ?Subroutine28 & 0xFFFF
??CrossCallReturnLabel_69:
        INC     DPTR
        INC     DPTR
        RET
        CFI EndBlock cfiCond65
        CFI EndBlock cfiCond66
        CFI EndBlock cfiPicker67

        RSEG BANKED_CODE:CODE:NOROOT(0)
?Subroutine28:
        CFI Block cfiCond68 Using cfiCommon0
        CFI NoFunction
        CFI Conditional ??CrossCallReturnLabel_68, ??CrossCallReturnLabel_12
        CFI R6 load(1, XDATA, add(CFA_XSP16, literal(-10)))
        CFI VB load(1, XDATA, add(CFA_XSP16, literal(-9)))
        CFI V0 load(1, XDATA, add(CFA_XSP16, literal(-8)))
        CFI V1 load(1, XDATA, add(CFA_XSP16, literal(-7)))
        CFI R7 load(1, XDATA, add(CFA_XSP16, literal(-6)))
        CFI ?RET_LOW load(1, XDATA, add(CFA_XSP16, literal(-5)))
        CFI ?RET_HIGH load(1, XDATA, add(CFA_XSP16, literal(-4)))
        CFI ?BRET_EXT load(1, XDATA, add(CFA_XSP16, literal(-3)))
        CFI DPL0 load(1, XDATA, add(CFA_XSP16, literal(-2)))
        CFI DPH0 load(1, XDATA, add(CFA_XSP16, literal(-1)))
        CFI CFA_SP SP+0
        CFI CFA_XSP16 add(XSP16, 10)
        CFI Block cfiCond69 Using cfiCommon0
        CFI (cfiCond69) NoFunction
        CFI (cfiCond69) Conditional ??CrossCallReturnLabel_68, ??CrossCallReturnLabel_13
        CFI (cfiCond69) R6 load(1, XDATA, add(CFA_XSP16, literal(-10)))
        CFI (cfiCond69) VB load(1, XDATA, add(CFA_XSP16, literal(-9)))
        CFI (cfiCond69) V0 load(1, XDATA, add(CFA_XSP16, literal(-8)))
        CFI (cfiCond69) V1 load(1, XDATA, add(CFA_XSP16, literal(-7)))
        CFI (cfiCond69) R7 load(1, XDATA, add(CFA_XSP16, literal(-6)))
        CFI (cfiCond69) ?RET_LOW load(1, XDATA, add(CFA_XSP16, literal(-5)))
        CFI (cfiCond69) ?RET_HIGH load(1, XDATA, add(CFA_XSP16, literal(-4)))
        CFI (cfiCond69) ?BRET_EXT load(1, XDATA, add(CFA_XSP16, literal(-3)))
        CFI (cfiCond69) DPL0 load(1, XDATA, add(CFA_XSP16, literal(-2)))
        CFI (cfiCond69) DPH0 load(1, XDATA, add(CFA_XSP16, literal(-1)))
        CFI (cfiCond69) CFA_SP SP+0
        CFI (cfiCond69) CFA_XSP16 add(XSP16, 10)
        CFI Block cfiCond70 Using cfiCommon0
        CFI (cfiCond70) NoFunction
        CFI (cfiCond70) Conditional ??CrossCallReturnLabel_69, ??CrossCallReturnLabel_8
        CFI (cfiCond70) R6 load(1, XDATA, add(CFA_XSP16, literal(-10)))
        CFI (cfiCond70) VB load(1, XDATA, add(CFA_XSP16, literal(-9)))
        CFI (cfiCond70) V0 load(1, XDATA, add(CFA_XSP16, literal(-8)))
        CFI (cfiCond70) V1 load(1, XDATA, add(CFA_XSP16, literal(-7)))
        CFI (cfiCond70) R7 load(1, XDATA, add(CFA_XSP16, literal(-6)))
        CFI (cfiCond70) ?RET_LOW load(1, XDATA, add(CFA_XSP16, literal(-5)))
        CFI (cfiCond70) ?RET_HIGH load(1, XDATA, add(CFA_XSP16, literal(-4)))
        CFI (cfiCond70) ?BRET_EXT load(1, XDATA, add(CFA_XSP16, literal(-3)))
        CFI (cfiCond70) DPL0 load(1, XDATA, add(CFA_XSP16, literal(-2)))
        CFI (cfiCond70) DPH0 load(1, XDATA, add(CFA_XSP16, literal(-1)))
        CFI (cfiCond70) CFA_SP SP+0
        CFI (cfiCond70) CFA_XSP16 add(XSP16, 10)
        CFI Block cfiCond71 Using cfiCommon0
        CFI (cfiCond71) NoFunction
        CFI (cfiCond71) Conditional ??CrossCallReturnLabel_69, ??CrossCallReturnLabel_9
        CFI (cfiCond71) R6 load(1, XDATA, add(CFA_XSP16, literal(-10)))
        CFI (cfiCond71) VB load(1, XDATA, add(CFA_XSP16, literal(-9)))
        CFI (cfiCond71) V0 load(1, XDATA, add(CFA_XSP16, literal(-8)))
        CFI (cfiCond71) V1 load(1, XDATA, add(CFA_XSP16, literal(-7)))
        CFI (cfiCond71) R7 load(1, XDATA, add(CFA_XSP16, literal(-6)))
        CFI (cfiCond71) ?RET_LOW load(1, XDATA, add(CFA_XSP16, literal(-5)))
        CFI (cfiCond71) ?RET_HIGH load(1, XDATA, add(CFA_XSP16, literal(-4)))
        CFI (cfiCond71) ?BRET_EXT load(1, XDATA, add(CFA_XSP16, literal(-3)))
        CFI (cfiCond71) DPL0 load(1, XDATA, add(CFA_XSP16, literal(-2)))
        CFI (cfiCond71) DPH0 load(1, XDATA, add(CFA_XSP16, literal(-1)))
        CFI (cfiCond71) CFA_SP SP+0
        CFI (cfiCond71) CFA_XSP16 add(XSP16, 10)
        CFI Block cfiPicker72 Using cfiCommon1
        CFI (cfiPicker72) NoFunction
        CFI (cfiPicker72) Picker
        MOVX    @DPTR,A
        MOV     DPL,R0
        MOV     DPH,R1
        LCALL   ?Subroutine32 & 0xFFFF
??CrossCallReturnLabel_75:
        INC     DPTR
        RET
        CFI EndBlock cfiCond68
        CFI EndBlock cfiCond69
        CFI EndBlock cfiCond70
        CFI EndBlock cfiCond71
        CFI EndBlock cfiPicker72

        RSEG BANKED_CODE:CODE:NOROOT(0)
?Subroutine4:
        CFI Block cfiCond73 Using cfiCommon0
        CFI NoFunction
        CFI Conditional ??CrossCallReturnLabel_4
        CFI R6 load(1, XDATA, add(CFA_XSP16, literal(-10)))
        CFI VB load(1, XDATA, add(CFA_XSP16, literal(-9)))
        CFI V0 load(1, XDATA, add(CFA_XSP16, literal(-8)))
        CFI V1 load(1, XDATA, add(CFA_XSP16, literal(-7)))
        CFI R7 load(1, XDATA, add(CFA_XSP16, literal(-6)))
        CFI ?RET_LOW load(1, XDATA, add(CFA_XSP16, literal(-5)))
        CFI ?RET_HIGH load(1, XDATA, add(CFA_XSP16, literal(-4)))
        CFI ?BRET_EXT load(1, XDATA, add(CFA_XSP16, literal(-3)))
        CFI DPL0 load(1, XDATA, add(CFA_XSP16, literal(-2)))
        CFI DPH0 load(1, XDATA, add(CFA_XSP16, literal(-1)))
        CFI CFA_SP SP+0
        CFI CFA_XSP16 add(XSP16, 10)
        CFI Block cfiCond74 Using cfiCommon0
        CFI (cfiCond74) NoFunction
        CFI (cfiCond74) Conditional ??CrossCallReturnLabel_5
        CFI (cfiCond74) R6 load(1, XDATA, add(CFA_XSP16, literal(-10)))
        CFI (cfiCond74) VB load(1, XDATA, add(CFA_XSP16, literal(-9)))
        CFI (cfiCond74) V0 load(1, XDATA, add(CFA_XSP16, literal(-8)))
        CFI (cfiCond74) V1 load(1, XDATA, add(CFA_XSP16, literal(-7)))
        CFI (cfiCond74) R7 load(1, XDATA, add(CFA_XSP16, literal(-6)))
        CFI (cfiCond74) ?RET_LOW load(1, XDATA, add(CFA_XSP16, literal(-5)))
        CFI (cfiCond74) ?RET_HIGH load(1, XDATA, add(CFA_XSP16, literal(-4)))
        CFI (cfiCond74) ?BRET_EXT load(1, XDATA, add(CFA_XSP16, literal(-3)))
        CFI (cfiCond74) DPL0 load(1, XDATA, add(CFA_XSP16, literal(-2)))
        CFI (cfiCond74) DPH0 load(1, XDATA, add(CFA_XSP16, literal(-1)))
        CFI (cfiCond74) CFA_SP SP+0
        CFI (cfiCond74) CFA_XSP16 add(XSP16, 10)
        CFI Block cfiCond75 Using cfiCommon0
        CFI (cfiCond75) NoFunction
        CFI (cfiCond75) Conditional ??CrossCallReturnLabel_6
        CFI (cfiCond75) R6 load(1, XDATA, add(CFA_XSP16, literal(-10)))
        CFI (cfiCond75) VB load(1, XDATA, add(CFA_XSP16, literal(-9)))
        CFI (cfiCond75) V0 load(1, XDATA, add(CFA_XSP16, literal(-8)))
        CFI (cfiCond75) V1 load(1, XDATA, add(CFA_XSP16, literal(-7)))
        CFI (cfiCond75) R7 load(1, XDATA, add(CFA_XSP16, literal(-6)))
        CFI (cfiCond75) ?RET_LOW load(1, XDATA, add(CFA_XSP16, literal(-5)))
        CFI (cfiCond75) ?RET_HIGH load(1, XDATA, add(CFA_XSP16, literal(-4)))
        CFI (cfiCond75) ?BRET_EXT load(1, XDATA, add(CFA_XSP16, literal(-3)))
        CFI (cfiCond75) DPL0 load(1, XDATA, add(CFA_XSP16, literal(-2)))
        CFI (cfiCond75) DPH0 load(1, XDATA, add(CFA_XSP16, literal(-1)))
        CFI (cfiCond75) CFA_SP SP+0
        CFI (cfiCond75) CFA_XSP16 add(XSP16, 10)
        CFI Block cfiCond76 Using cfiCommon0
        CFI (cfiCond76) NoFunction
        CFI (cfiCond76) Conditional ??CrossCallReturnLabel_7
        CFI (cfiCond76) R6 load(1, XDATA, add(CFA_XSP16, literal(-10)))
        CFI (cfiCond76) VB load(1, XDATA, add(CFA_XSP16, literal(-9)))
        CFI (cfiCond76) V0 load(1, XDATA, add(CFA_XSP16, literal(-8)))
        CFI (cfiCond76) V1 load(1, XDATA, add(CFA_XSP16, literal(-7)))
        CFI (cfiCond76) R7 load(1, XDATA, add(CFA_XSP16, literal(-6)))
        CFI (cfiCond76) ?RET_LOW load(1, XDATA, add(CFA_XSP16, literal(-5)))
        CFI (cfiCond76) ?RET_HIGH load(1, XDATA, add(CFA_XSP16, literal(-4)))
        CFI (cfiCond76) ?BRET_EXT load(1, XDATA, add(CFA_XSP16, literal(-3)))
        CFI (cfiCond76) DPL0 load(1, XDATA, add(CFA_XSP16, literal(-2)))
        CFI (cfiCond76) DPH0 load(1, XDATA, add(CFA_XSP16, literal(-1)))
        CFI (cfiCond76) CFA_SP SP+0
        CFI (cfiCond76) CFA_XSP16 add(XSP16, 10)
        CFI Block cfiPicker77 Using cfiCommon1
        CFI (cfiPicker77) NoFunction
        CFI (cfiPicker77) Picker
        MOV     A,#0x1
        MOVX    @DPTR,A
        MOV     A,R2
        ADD     A,#0x22
        MOV     DPL,A
        MOV     A,R3
        ADDC    A,#0x0
        MOV     DPH,A
        LCALL   ?Subroutine32 & 0xFFFF
??CrossCallReturnLabel_74:
        MOVX    A,@DPTR
        RET
        CFI EndBlock cfiCond73
        CFI EndBlock cfiCond74
        CFI EndBlock cfiCond75
        CFI EndBlock cfiCond76
        CFI EndBlock cfiPicker77

        RSEG BANKED_CODE:CODE:NOROOT(0)
?Subroutine32:
        CFI Block cfiCond78 Using cfiCommon0
        CFI NoFunction
        CFI Conditional ??CrossCallReturnLabel_75, ??CrossCallReturnLabel_68, ??CrossCallReturnLabel_12
        CFI R6 load(1, XDATA, add(CFA_XSP16, literal(-10)))
        CFI VB load(1, XDATA, add(CFA_XSP16, literal(-9)))
        CFI V0 load(1, XDATA, add(CFA_XSP16, literal(-8)))
        CFI V1 load(1, XDATA, add(CFA_XSP16, literal(-7)))
        CFI R7 load(1, XDATA, add(CFA_XSP16, literal(-6)))
        CFI ?RET_LOW load(1, XDATA, add(CFA_XSP16, literal(-5)))
        CFI ?RET_HIGH load(1, XDATA, add(CFA_XSP16, literal(-4)))
        CFI ?BRET_EXT load(1, XDATA, add(CFA_XSP16, literal(-3)))
        CFI DPL0 load(1, XDATA, add(CFA_XSP16, literal(-2)))
        CFI DPH0 load(1, XDATA, add(CFA_XSP16, literal(-1)))
        CFI CFA_SP SP+0
        CFI CFA_XSP16 add(XSP16, 10)
        CFI Block cfiCond79 Using cfiCommon0
        CFI (cfiCond79) NoFunction
        CFI (cfiCond79) Conditional ??CrossCallReturnLabel_75, ??CrossCallReturnLabel_68, ??CrossCallReturnLabel_13
        CFI (cfiCond79) R6 load(1, XDATA, add(CFA_XSP16, literal(-10)))
        CFI (cfiCond79) VB load(1, XDATA, add(CFA_XSP16, literal(-9)))
        CFI (cfiCond79) V0 load(1, XDATA, add(CFA_XSP16, literal(-8)))
        CFI (cfiCond79) V1 load(1, XDATA, add(CFA_XSP16, literal(-7)))
        CFI (cfiCond79) R7 load(1, XDATA, add(CFA_XSP16, literal(-6)))
        CFI (cfiCond79) ?RET_LOW load(1, XDATA, add(CFA_XSP16, literal(-5)))
        CFI (cfiCond79) ?RET_HIGH load(1, XDATA, add(CFA_XSP16, literal(-4)))
        CFI (cfiCond79) ?BRET_EXT load(1, XDATA, add(CFA_XSP16, literal(-3)))
        CFI (cfiCond79) DPL0 load(1, XDATA, add(CFA_XSP16, literal(-2)))
        CFI (cfiCond79) DPH0 load(1, XDATA, add(CFA_XSP16, literal(-1)))
        CFI (cfiCond79) CFA_SP SP+0
        CFI (cfiCond79) CFA_XSP16 add(XSP16, 10)
        CFI Block cfiCond80 Using cfiCommon0
        CFI (cfiCond80) NoFunction
        CFI (cfiCond80) Conditional ??CrossCallReturnLabel_75, ??CrossCallReturnLabel_69, ??CrossCallReturnLabel_8
        CFI (cfiCond80) R6 load(1, XDATA, add(CFA_XSP16, literal(-10)))
        CFI (cfiCond80) VB load(1, XDATA, add(CFA_XSP16, literal(-9)))
        CFI (cfiCond80) V0 load(1, XDATA, add(CFA_XSP16, literal(-8)))
        CFI (cfiCond80) V1 load(1, XDATA, add(CFA_XSP16, literal(-7)))
        CFI (cfiCond80) R7 load(1, XDATA, add(CFA_XSP16, literal(-6)))
        CFI (cfiCond80) ?RET_LOW load(1, XDATA, add(CFA_XSP16, literal(-5)))
        CFI (cfiCond80) ?RET_HIGH load(1, XDATA, add(CFA_XSP16, literal(-4)))
        CFI (cfiCond80) ?BRET_EXT load(1, XDATA, add(CFA_XSP16, literal(-3)))
        CFI (cfiCond80) DPL0 load(1, XDATA, add(CFA_XSP16, literal(-2)))
        CFI (cfiCond80) DPH0 load(1, XDATA, add(CFA_XSP16, literal(-1)))
        CFI (cfiCond80) CFA_SP SP+0
        CFI (cfiCond80) CFA_XSP16 add(XSP16, 10)
        CFI Block cfiCond81 Using cfiCommon0
        CFI (cfiCond81) NoFunction
        CFI (cfiCond81) Conditional ??CrossCallReturnLabel_75, ??CrossCallReturnLabel_69, ??CrossCallReturnLabel_9
        CFI (cfiCond81) R6 load(1, XDATA, add(CFA_XSP16, literal(-10)))
        CFI (cfiCond81) VB load(1, XDATA, add(CFA_XSP16, literal(-9)))
        CFI (cfiCond81) V0 load(1, XDATA, add(CFA_XSP16, literal(-8)))
        CFI (cfiCond81) V1 load(1, XDATA, add(CFA_XSP16, literal(-7)))
        CFI (cfiCond81) R7 load(1, XDATA, add(CFA_XSP16, literal(-6)))
        CFI (cfiCond81) ?RET_LOW load(1, XDATA, add(CFA_XSP16, literal(-5)))
        CFI (cfiCond81) ?RET_HIGH load(1, XDATA, add(CFA_XSP16, literal(-4)))
        CFI (cfiCond81) ?BRET_EXT load(1, XDATA, add(CFA_XSP16, literal(-3)))
        CFI (cfiCond81) DPL0 load(1, XDATA, add(CFA_XSP16, literal(-2)))
        CFI (cfiCond81) DPH0 load(1, XDATA, add(CFA_XSP16, literal(-1)))
        CFI (cfiCond81) CFA_SP SP+0
        CFI (cfiCond81) CFA_XSP16 add(XSP16, 10)
        CFI Block cfiCond82 Using cfiCommon0
        CFI (cfiCond82) NoFunction
        CFI (cfiCond82) Conditional ??CrossCallReturnLabel_74, ??CrossCallReturnLabel_4
        CFI (cfiCond82) R6 load(1, XDATA, add(CFA_XSP16, literal(-10)))
        CFI (cfiCond82) VB load(1, XDATA, add(CFA_XSP16, literal(-9)))
        CFI (cfiCond82) V0 load(1, XDATA, add(CFA_XSP16, literal(-8)))
        CFI (cfiCond82) V1 load(1, XDATA, add(CFA_XSP16, literal(-7)))
        CFI (cfiCond82) R7 load(1, XDATA, add(CFA_XSP16, literal(-6)))
        CFI (cfiCond82) ?RET_LOW load(1, XDATA, add(CFA_XSP16, literal(-5)))
        CFI (cfiCond82) ?RET_HIGH load(1, XDATA, add(CFA_XSP16, literal(-4)))
        CFI (cfiCond82) ?BRET_EXT load(1, XDATA, add(CFA_XSP16, literal(-3)))
        CFI (cfiCond82) DPL0 load(1, XDATA, add(CFA_XSP16, literal(-2)))
        CFI (cfiCond82) DPH0 load(1, XDATA, add(CFA_XSP16, literal(-1)))
        CFI (cfiCond82) CFA_SP SP+0
        CFI (cfiCond82) CFA_XSP16 add(XSP16, 10)
        CFI Block cfiCond83 Using cfiCommon0
        CFI (cfiCond83) NoFunction
        CFI (cfiCond83) Conditional ??CrossCallReturnLabel_74, ??CrossCallReturnLabel_5
        CFI (cfiCond83) R6 load(1, XDATA, add(CFA_XSP16, literal(-10)))
        CFI (cfiCond83) VB load(1, XDATA, add(CFA_XSP16, literal(-9)))
        CFI (cfiCond83) V0 load(1, XDATA, add(CFA_XSP16, literal(-8)))
        CFI (cfiCond83) V1 load(1, XDATA, add(CFA_XSP16, literal(-7)))
        CFI (cfiCond83) R7 load(1, XDATA, add(CFA_XSP16, literal(-6)))
        CFI (cfiCond83) ?RET_LOW load(1, XDATA, add(CFA_XSP16, literal(-5)))
        CFI (cfiCond83) ?RET_HIGH load(1, XDATA, add(CFA_XSP16, literal(-4)))
        CFI (cfiCond83) ?BRET_EXT load(1, XDATA, add(CFA_XSP16, literal(-3)))
        CFI (cfiCond83) DPL0 load(1, XDATA, add(CFA_XSP16, literal(-2)))
        CFI (cfiCond83) DPH0 load(1, XDATA, add(CFA_XSP16, literal(-1)))
        CFI (cfiCond83) CFA_SP SP+0
        CFI (cfiCond83) CFA_XSP16 add(XSP16, 10)
        CFI Block cfiCond84 Using cfiCommon0
        CFI (cfiCond84) NoFunction
        CFI (cfiCond84) Conditional ??CrossCallReturnLabel_74, ??CrossCallReturnLabel_6
        CFI (cfiCond84) R6 load(1, XDATA, add(CFA_XSP16, literal(-10)))
        CFI (cfiCond84) VB load(1, XDATA, add(CFA_XSP16, literal(-9)))
        CFI (cfiCond84) V0 load(1, XDATA, add(CFA_XSP16, literal(-8)))
        CFI (cfiCond84) V1 load(1, XDATA, add(CFA_XSP16, literal(-7)))
        CFI (cfiCond84) R7 load(1, XDATA, add(CFA_XSP16, literal(-6)))
        CFI (cfiCond84) ?RET_LOW load(1, XDATA, add(CFA_XSP16, literal(-5)))
        CFI (cfiCond84) ?RET_HIGH load(1, XDATA, add(CFA_XSP16, literal(-4)))
        CFI (cfiCond84) ?BRET_EXT load(1, XDATA, add(CFA_XSP16, literal(-3)))
        CFI (cfiCond84) DPL0 load(1, XDATA, add(CFA_XSP16, literal(-2)))
        CFI (cfiCond84) DPH0 load(1, XDATA, add(CFA_XSP16, literal(-1)))
        CFI (cfiCond84) CFA_SP SP+0
        CFI (cfiCond84) CFA_XSP16 add(XSP16, 10)
        CFI Block cfiCond85 Using cfiCommon0
        CFI (cfiCond85) NoFunction
        CFI (cfiCond85) Conditional ??CrossCallReturnLabel_74, ??CrossCallReturnLabel_7
        CFI (cfiCond85) R6 load(1, XDATA, add(CFA_XSP16, literal(-10)))
        CFI (cfiCond85) VB load(1, XDATA, add(CFA_XSP16, literal(-9)))
        CFI (cfiCond85) V0 load(1, XDATA, add(CFA_XSP16, literal(-8)))
        CFI (cfiCond85) V1 load(1, XDATA, add(CFA_XSP16, literal(-7)))
        CFI (cfiCond85) R7 load(1, XDATA, add(CFA_XSP16, literal(-6)))
        CFI (cfiCond85) ?RET_LOW load(1, XDATA, add(CFA_XSP16, literal(-5)))
        CFI (cfiCond85) ?RET_HIGH load(1, XDATA, add(CFA_XSP16, literal(-4)))
        CFI (cfiCond85) ?BRET_EXT load(1, XDATA, add(CFA_XSP16, literal(-3)))
        CFI (cfiCond85) DPL0 load(1, XDATA, add(CFA_XSP16, literal(-2)))
        CFI (cfiCond85) DPH0 load(1, XDATA, add(CFA_XSP16, literal(-1)))
        CFI (cfiCond85) CFA_SP SP+0
        CFI (cfiCond85) CFA_XSP16 add(XSP16, 10)
        CFI Block cfiPicker86 Using cfiCommon1
        CFI (cfiPicker86) NoFunction
        CFI (cfiPicker86) Picker
        MOVX    A,@DPTR
        MOV     R0,A
        INC     DPTR
        MOVX    A,@DPTR
        MOV     DPH,A
        MOV     DPL,R0
        INC     DPTR
        INC     DPTR
        INC     DPTR
        INC     DPTR
        RET
        CFI EndBlock cfiCond78
        CFI EndBlock cfiCond79
        CFI EndBlock cfiCond80
        CFI EndBlock cfiCond81
        CFI EndBlock cfiCond82
        CFI EndBlock cfiCond83
        CFI EndBlock cfiCond84
        CFI EndBlock cfiCond85
        CFI EndBlock cfiPicker86

        RSEG BANKED_CODE:CODE:NOROOT(0)
?Subroutine3:
        CFI Block cfiCond87 Using cfiCommon0
        CFI NoFunction
        CFI Conditional ??CrossCallReturnLabel_0
        CFI R6 load(1, XDATA, add(CFA_XSP16, literal(-10)))
        CFI VB load(1, XDATA, add(CFA_XSP16, literal(-9)))
        CFI V0 load(1, XDATA, add(CFA_XSP16, literal(-8)))
        CFI V1 load(1, XDATA, add(CFA_XSP16, literal(-7)))
        CFI R7 load(1, XDATA, add(CFA_XSP16, literal(-6)))
        CFI ?RET_LOW load(1, XDATA, add(CFA_XSP16, literal(-5)))
        CFI ?RET_HIGH load(1, XDATA, add(CFA_XSP16, literal(-4)))
        CFI ?BRET_EXT load(1, XDATA, add(CFA_XSP16, literal(-3)))
        CFI DPL0 load(1, XDATA, add(CFA_XSP16, literal(-2)))
        CFI DPH0 load(1, XDATA, add(CFA_XSP16, literal(-1)))
        CFI CFA_SP SP+0
        CFI CFA_XSP16 add(XSP16, 10)
        CFI Block cfiCond88 Using cfiCommon0
        CFI (cfiCond88) NoFunction
        CFI (cfiCond88) Conditional ??CrossCallReturnLabel_1
        CFI (cfiCond88) R6 load(1, XDATA, add(CFA_XSP16, literal(-10)))
        CFI (cfiCond88) VB load(1, XDATA, add(CFA_XSP16, literal(-9)))
        CFI (cfiCond88) V0 load(1, XDATA, add(CFA_XSP16, literal(-8)))
        CFI (cfiCond88) V1 load(1, XDATA, add(CFA_XSP16, literal(-7)))
        CFI (cfiCond88) R7 load(1, XDATA, add(CFA_XSP16, literal(-6)))
        CFI (cfiCond88) ?RET_LOW load(1, XDATA, add(CFA_XSP16, literal(-5)))
        CFI (cfiCond88) ?RET_HIGH load(1, XDATA, add(CFA_XSP16, literal(-4)))
        CFI (cfiCond88) ?BRET_EXT load(1, XDATA, add(CFA_XSP16, literal(-3)))
        CFI (cfiCond88) DPL0 load(1, XDATA, add(CFA_XSP16, literal(-2)))
        CFI (cfiCond88) DPH0 load(1, XDATA, add(CFA_XSP16, literal(-1)))
        CFI (cfiCond88) CFA_SP SP+0
        CFI (cfiCond88) CFA_XSP16 add(XSP16, 10)
        CFI Block cfiCond89 Using cfiCommon0
        CFI (cfiCond89) NoFunction
        CFI (cfiCond89) Conditional ??CrossCallReturnLabel_2
        CFI (cfiCond89) R6 load(1, XDATA, add(CFA_XSP16, literal(-10)))
        CFI (cfiCond89) VB load(1, XDATA, add(CFA_XSP16, literal(-9)))
        CFI (cfiCond89) V0 load(1, XDATA, add(CFA_XSP16, literal(-8)))
        CFI (cfiCond89) V1 load(1, XDATA, add(CFA_XSP16, literal(-7)))
        CFI (cfiCond89) R7 load(1, XDATA, add(CFA_XSP16, literal(-6)))
        CFI (cfiCond89) ?RET_LOW load(1, XDATA, add(CFA_XSP16, literal(-5)))
        CFI (cfiCond89) ?RET_HIGH load(1, XDATA, add(CFA_XSP16, literal(-4)))
        CFI (cfiCond89) ?BRET_EXT load(1, XDATA, add(CFA_XSP16, literal(-3)))
        CFI (cfiCond89) DPL0 load(1, XDATA, add(CFA_XSP16, literal(-2)))
        CFI (cfiCond89) DPH0 load(1, XDATA, add(CFA_XSP16, literal(-1)))
        CFI (cfiCond89) CFA_SP SP+0
        CFI (cfiCond89) CFA_XSP16 add(XSP16, 10)
        CFI Block cfiCond90 Using cfiCommon0
        CFI (cfiCond90) NoFunction
        CFI (cfiCond90) Conditional ??CrossCallReturnLabel_3
        CFI (cfiCond90) R6 load(1, XDATA, add(CFA_XSP16, literal(-10)))
        CFI (cfiCond90) VB load(1, XDATA, add(CFA_XSP16, literal(-9)))
        CFI (cfiCond90) V0 load(1, XDATA, add(CFA_XSP16, literal(-8)))
        CFI (cfiCond90) V1 load(1, XDATA, add(CFA_XSP16, literal(-7)))
        CFI (cfiCond90) R7 load(1, XDATA, add(CFA_XSP16, literal(-6)))
        CFI (cfiCond90) ?RET_LOW load(1, XDATA, add(CFA_XSP16, literal(-5)))
        CFI (cfiCond90) ?RET_HIGH load(1, XDATA, add(CFA_XSP16, literal(-4)))
        CFI (cfiCond90) ?BRET_EXT load(1, XDATA, add(CFA_XSP16, literal(-3)))
        CFI (cfiCond90) DPL0 load(1, XDATA, add(CFA_XSP16, literal(-2)))
        CFI (cfiCond90) DPH0 load(1, XDATA, add(CFA_XSP16, literal(-1)))
        CFI (cfiCond90) CFA_SP SP+0
        CFI (cfiCond90) CFA_XSP16 add(XSP16, 10)
        CFI Block cfiPicker91 Using cfiCommon1
        CFI (cfiPicker91) NoFunction
        CFI (cfiPicker91) Picker
        MOV     A,#0x1
        MOVX    @DPTR,A
        MOV     A,R2
        ADD     A,#0x22
        MOV     R0,A
        MOV     A,R3
        ADDC    A,#0x0
        MOV     R1,A
        LCALL   ?Subroutine29 & 0xFFFF
??CrossCallReturnLabel_70:
        MOVX    A,@DPTR
        RET
        CFI EndBlock cfiCond87
        CFI EndBlock cfiCond88
        CFI EndBlock cfiCond89
        CFI EndBlock cfiCond90
        CFI EndBlock cfiPicker91

        RSEG BANKED_CODE:CODE:NOROOT(0)
?Subroutine29:
        CFI Block cfiCond92 Using cfiCommon0
        CFI NoFunction
        CFI Conditional ??CrossCallReturnLabel_71, ??CrossCallReturnLabel_14
        CFI R6 load(1, XDATA, add(CFA_XSP16, literal(-10)))
        CFI VB load(1, XDATA, add(CFA_XSP16, literal(-9)))
        CFI V0 load(1, XDATA, add(CFA_XSP16, literal(-8)))
        CFI V1 load(1, XDATA, add(CFA_XSP16, literal(-7)))
        CFI R7 load(1, XDATA, add(CFA_XSP16, literal(-6)))
        CFI ?RET_LOW load(1, XDATA, add(CFA_XSP16, literal(-5)))
        CFI ?RET_HIGH load(1, XDATA, add(CFA_XSP16, literal(-4)))
        CFI ?BRET_EXT load(1, XDATA, add(CFA_XSP16, literal(-3)))
        CFI DPL0 load(1, XDATA, add(CFA_XSP16, literal(-2)))
        CFI DPH0 load(1, XDATA, add(CFA_XSP16, literal(-1)))
        CFI CFA_SP SP+0
        CFI CFA_XSP16 add(XSP16, 10)
        CFI Block cfiCond93 Using cfiCommon0
        CFI (cfiCond93) NoFunction
        CFI (cfiCond93) Conditional ??CrossCallReturnLabel_71, ??CrossCallReturnLabel_15
        CFI (cfiCond93) R6 load(1, XDATA, add(CFA_XSP16, literal(-10)))
        CFI (cfiCond93) VB load(1, XDATA, add(CFA_XSP16, literal(-9)))
        CFI (cfiCond93) V0 load(1, XDATA, add(CFA_XSP16, literal(-8)))
        CFI (cfiCond93) V1 load(1, XDATA, add(CFA_XSP16, literal(-7)))
        CFI (cfiCond93) R7 load(1, XDATA, add(CFA_XSP16, literal(-6)))
        CFI (cfiCond93) ?RET_LOW load(1, XDATA, add(CFA_XSP16, literal(-5)))
        CFI (cfiCond93) ?RET_HIGH load(1, XDATA, add(CFA_XSP16, literal(-4)))
        CFI (cfiCond93) ?BRET_EXT load(1, XDATA, add(CFA_XSP16, literal(-3)))
        CFI (cfiCond93) DPL0 load(1, XDATA, add(CFA_XSP16, literal(-2)))
        CFI (cfiCond93) DPH0 load(1, XDATA, add(CFA_XSP16, literal(-1)))
        CFI (cfiCond93) CFA_SP SP+0
        CFI (cfiCond93) CFA_XSP16 add(XSP16, 10)
        CFI Block cfiCond94 Using cfiCommon0
        CFI (cfiCond94) NoFunction
        CFI (cfiCond94) Conditional ??CrossCallReturnLabel_70, ??CrossCallReturnLabel_0
        CFI (cfiCond94) R6 load(1, XDATA, add(CFA_XSP16, literal(-10)))
        CFI (cfiCond94) VB load(1, XDATA, add(CFA_XSP16, literal(-9)))
        CFI (cfiCond94) V0 load(1, XDATA, add(CFA_XSP16, literal(-8)))
        CFI (cfiCond94) V1 load(1, XDATA, add(CFA_XSP16, literal(-7)))
        CFI (cfiCond94) R7 load(1, XDATA, add(CFA_XSP16, literal(-6)))
        CFI (cfiCond94) ?RET_LOW load(1, XDATA, add(CFA_XSP16, literal(-5)))
        CFI (cfiCond94) ?RET_HIGH load(1, XDATA, add(CFA_XSP16, literal(-4)))
        CFI (cfiCond94) ?BRET_EXT load(1, XDATA, add(CFA_XSP16, literal(-3)))
        CFI (cfiCond94) DPL0 load(1, XDATA, add(CFA_XSP16, literal(-2)))
        CFI (cfiCond94) DPH0 load(1, XDATA, add(CFA_XSP16, literal(-1)))
        CFI (cfiCond94) CFA_SP SP+0
        CFI (cfiCond94) CFA_XSP16 add(XSP16, 10)
        CFI Block cfiCond95 Using cfiCommon0
        CFI (cfiCond95) NoFunction
        CFI (cfiCond95) Conditional ??CrossCallReturnLabel_70, ??CrossCallReturnLabel_1
        CFI (cfiCond95) R6 load(1, XDATA, add(CFA_XSP16, literal(-10)))
        CFI (cfiCond95) VB load(1, XDATA, add(CFA_XSP16, literal(-9)))
        CFI (cfiCond95) V0 load(1, XDATA, add(CFA_XSP16, literal(-8)))
        CFI (cfiCond95) V1 load(1, XDATA, add(CFA_XSP16, literal(-7)))
        CFI (cfiCond95) R7 load(1, XDATA, add(CFA_XSP16, literal(-6)))
        CFI (cfiCond95) ?RET_LOW load(1, XDATA, add(CFA_XSP16, literal(-5)))
        CFI (cfiCond95) ?RET_HIGH load(1, XDATA, add(CFA_XSP16, literal(-4)))
        CFI (cfiCond95) ?BRET_EXT load(1, XDATA, add(CFA_XSP16, literal(-3)))
        CFI (cfiCond95) DPL0 load(1, XDATA, add(CFA_XSP16, literal(-2)))
        CFI (cfiCond95) DPH0 load(1, XDATA, add(CFA_XSP16, literal(-1)))
        CFI (cfiCond95) CFA_SP SP+0
        CFI (cfiCond95) CFA_XSP16 add(XSP16, 10)
        CFI Block cfiCond96 Using cfiCommon0
        CFI (cfiCond96) NoFunction
        CFI (cfiCond96) Conditional ??CrossCallReturnLabel_70, ??CrossCallReturnLabel_2
        CFI (cfiCond96) R6 load(1, XDATA, add(CFA_XSP16, literal(-10)))
        CFI (cfiCond96) VB load(1, XDATA, add(CFA_XSP16, literal(-9)))
        CFI (cfiCond96) V0 load(1, XDATA, add(CFA_XSP16, literal(-8)))
        CFI (cfiCond96) V1 load(1, XDATA, add(CFA_XSP16, literal(-7)))
        CFI (cfiCond96) R7 load(1, XDATA, add(CFA_XSP16, literal(-6)))
        CFI (cfiCond96) ?RET_LOW load(1, XDATA, add(CFA_XSP16, literal(-5)))
        CFI (cfiCond96) ?RET_HIGH load(1, XDATA, add(CFA_XSP16, literal(-4)))
        CFI (cfiCond96) ?BRET_EXT load(1, XDATA, add(CFA_XSP16, literal(-3)))
        CFI (cfiCond96) DPL0 load(1, XDATA, add(CFA_XSP16, literal(-2)))
        CFI (cfiCond96) DPH0 load(1, XDATA, add(CFA_XSP16, literal(-1)))
        CFI (cfiCond96) CFA_SP SP+0
        CFI (cfiCond96) CFA_XSP16 add(XSP16, 10)
        CFI Block cfiCond97 Using cfiCommon0
        CFI (cfiCond97) NoFunction
        CFI (cfiCond97) Conditional ??CrossCallReturnLabel_70, ??CrossCallReturnLabel_3
        CFI (cfiCond97) R6 load(1, XDATA, add(CFA_XSP16, literal(-10)))
        CFI (cfiCond97) VB load(1, XDATA, add(CFA_XSP16, literal(-9)))
        CFI (cfiCond97) V0 load(1, XDATA, add(CFA_XSP16, literal(-8)))
        CFI (cfiCond97) V1 load(1, XDATA, add(CFA_XSP16, literal(-7)))
        CFI (cfiCond97) R7 load(1, XDATA, add(CFA_XSP16, literal(-6)))
        CFI (cfiCond97) ?RET_LOW load(1, XDATA, add(CFA_XSP16, literal(-5)))
        CFI (cfiCond97) ?RET_HIGH load(1, XDATA, add(CFA_XSP16, literal(-4)))
        CFI (cfiCond97) ?BRET_EXT load(1, XDATA, add(CFA_XSP16, literal(-3)))
        CFI (cfiCond97) DPL0 load(1, XDATA, add(CFA_XSP16, literal(-2)))
        CFI (cfiCond97) DPH0 load(1, XDATA, add(CFA_XSP16, literal(-1)))
        CFI (cfiCond97) CFA_SP SP+0
        CFI (cfiCond97) CFA_XSP16 add(XSP16, 10)
        CFI Block cfiPicker98 Using cfiCommon1
        CFI (cfiPicker98) NoFunction
        CFI (cfiPicker98) Picker
        LCALL   ?Subroutine31 & 0xFFFF
??CrossCallReturnLabel_73:
        RET
        CFI EndBlock cfiCond92
        CFI EndBlock cfiCond93
        CFI EndBlock cfiCond94
        CFI EndBlock cfiCond95
        CFI EndBlock cfiCond96
        CFI EndBlock cfiCond97
        CFI EndBlock cfiPicker98

        RSEG BANKED_CODE:CODE:NOROOT(0)
?Subroutine31:
        CFI Block cfiCond99 Using cfiCommon0
        CFI NoFunction
        CFI Conditional ??CrossCallReturnLabel_72, ??CrossCallReturnLabel_66
        CFI R6 load(1, XDATA, add(CFA_XSP16, literal(-10)))
        CFI VB load(1, XDATA, add(CFA_XSP16, literal(-9)))
        CFI V0 load(1, XDATA, add(CFA_XSP16, literal(-8)))
        CFI V1 load(1, XDATA, add(CFA_XSP16, literal(-7)))
        CFI R7 load(1, XDATA, add(CFA_XSP16, literal(-6)))
        CFI ?RET_LOW load(1, XDATA, add(CFA_XSP16, literal(-5)))
        CFI ?RET_HIGH load(1, XDATA, add(CFA_XSP16, literal(-4)))
        CFI ?BRET_EXT load(1, XDATA, add(CFA_XSP16, literal(-3)))
        CFI DPL0 load(1, XDATA, add(CFA_XSP16, literal(-2)))
        CFI DPH0 load(1, XDATA, add(CFA_XSP16, literal(-1)))
        CFI CFA_SP SP+0
        CFI CFA_XSP16 add(XSP16, 10)
        CFI Block cfiCond100 Using cfiCommon0
        CFI (cfiCond100) NoFunction
        CFI (cfiCond100) Conditional ??CrossCallReturnLabel_72, ??CrossCallReturnLabel_67, ??CrossCallReturnLabel_10
        CFI (cfiCond100) R6 load(1, XDATA, add(CFA_XSP16, literal(-10)))
        CFI (cfiCond100) VB load(1, XDATA, add(CFA_XSP16, literal(-9)))
        CFI (cfiCond100) V0 load(1, XDATA, add(CFA_XSP16, literal(-8)))
        CFI (cfiCond100) V1 load(1, XDATA, add(CFA_XSP16, literal(-7)))
        CFI (cfiCond100) R7 load(1, XDATA, add(CFA_XSP16, literal(-6)))
        CFI (cfiCond100) ?RET_LOW load(1, XDATA, add(CFA_XSP16, literal(-5)))
        CFI (cfiCond100) ?RET_HIGH load(1, XDATA, add(CFA_XSP16, literal(-4)))
        CFI (cfiCond100) ?BRET_EXT load(1, XDATA, add(CFA_XSP16, literal(-3)))
        CFI (cfiCond100) DPL0 load(1, XDATA, add(CFA_XSP16, literal(-2)))
        CFI (cfiCond100) DPH0 load(1, XDATA, add(CFA_XSP16, literal(-1)))
        CFI (cfiCond100) CFA_SP SP+0
        CFI (cfiCond100) CFA_XSP16 add(XSP16, 10)
        CFI Block cfiCond101 Using cfiCommon0
        CFI (cfiCond101) NoFunction
        CFI (cfiCond101) Conditional ??CrossCallReturnLabel_72, ??CrossCallReturnLabel_67, ??CrossCallReturnLabel_11
        CFI (cfiCond101) R6 load(1, XDATA, add(CFA_XSP16, literal(-10)))
        CFI (cfiCond101) VB load(1, XDATA, add(CFA_XSP16, literal(-9)))
        CFI (cfiCond101) V0 load(1, XDATA, add(CFA_XSP16, literal(-8)))
        CFI (cfiCond101) V1 load(1, XDATA, add(CFA_XSP16, literal(-7)))
        CFI (cfiCond101) R7 load(1, XDATA, add(CFA_XSP16, literal(-6)))
        CFI (cfiCond101) ?RET_LOW load(1, XDATA, add(CFA_XSP16, literal(-5)))
        CFI (cfiCond101) ?RET_HIGH load(1, XDATA, add(CFA_XSP16, literal(-4)))
        CFI (cfiCond101) ?BRET_EXT load(1, XDATA, add(CFA_XSP16, literal(-3)))
        CFI (cfiCond101) DPL0 load(1, XDATA, add(CFA_XSP16, literal(-2)))
        CFI (cfiCond101) DPH0 load(1, XDATA, add(CFA_XSP16, literal(-1)))
        CFI (cfiCond101) CFA_SP SP+0
        CFI (cfiCond101) CFA_XSP16 add(XSP16, 10)
        CFI Block cfiCond102 Using cfiCommon0
        CFI (cfiCond102) NoFunction
        CFI (cfiCond102) Conditional ??CrossCallReturnLabel_73, ??CrossCallReturnLabel_71, ??CrossCallReturnLabel_14
        CFI (cfiCond102) R6 load(1, XDATA, add(CFA_XSP16, literal(-10)))
        CFI (cfiCond102) VB load(1, XDATA, add(CFA_XSP16, literal(-9)))
        CFI (cfiCond102) V0 load(1, XDATA, add(CFA_XSP16, literal(-8)))
        CFI (cfiCond102) V1 load(1, XDATA, add(CFA_XSP16, literal(-7)))
        CFI (cfiCond102) R7 load(1, XDATA, add(CFA_XSP16, literal(-6)))
        CFI (cfiCond102) ?RET_LOW load(1, XDATA, add(CFA_XSP16, literal(-5)))
        CFI (cfiCond102) ?RET_HIGH load(1, XDATA, add(CFA_XSP16, literal(-4)))
        CFI (cfiCond102) ?BRET_EXT load(1, XDATA, add(CFA_XSP16, literal(-3)))
        CFI (cfiCond102) DPL0 load(1, XDATA, add(CFA_XSP16, literal(-2)))
        CFI (cfiCond102) DPH0 load(1, XDATA, add(CFA_XSP16, literal(-1)))
        CFI (cfiCond102) CFA_SP SP+0
        CFI (cfiCond102) CFA_XSP16 add(XSP16, 10)
        CFI Block cfiCond103 Using cfiCommon0
        CFI (cfiCond103) NoFunction
        CFI (cfiCond103) Conditional ??CrossCallReturnLabel_73, ??CrossCallReturnLabel_71, ??CrossCallReturnLabel_15
        CFI (cfiCond103) R6 load(1, XDATA, add(CFA_XSP16, literal(-10)))
        CFI (cfiCond103) VB load(1, XDATA, add(CFA_XSP16, literal(-9)))
        CFI (cfiCond103) V0 load(1, XDATA, add(CFA_XSP16, literal(-8)))
        CFI (cfiCond103) V1 load(1, XDATA, add(CFA_XSP16, literal(-7)))
        CFI (cfiCond103) R7 load(1, XDATA, add(CFA_XSP16, literal(-6)))
        CFI (cfiCond103) ?RET_LOW load(1, XDATA, add(CFA_XSP16, literal(-5)))
        CFI (cfiCond103) ?RET_HIGH load(1, XDATA, add(CFA_XSP16, literal(-4)))
        CFI (cfiCond103) ?BRET_EXT load(1, XDATA, add(CFA_XSP16, literal(-3)))
        CFI (cfiCond103) DPL0 load(1, XDATA, add(CFA_XSP16, literal(-2)))
        CFI (cfiCond103) DPH0 load(1, XDATA, add(CFA_XSP16, literal(-1)))
        CFI (cfiCond103) CFA_SP SP+0
        CFI (cfiCond103) CFA_XSP16 add(XSP16, 10)
        CFI Block cfiCond104 Using cfiCommon0
        CFI (cfiCond104) NoFunction
        CFI (cfiCond104) Conditional ??CrossCallReturnLabel_73, ??CrossCallReturnLabel_70, ??CrossCallReturnLabel_0
        CFI (cfiCond104) R6 load(1, XDATA, add(CFA_XSP16, literal(-10)))
        CFI (cfiCond104) VB load(1, XDATA, add(CFA_XSP16, literal(-9)))
        CFI (cfiCond104) V0 load(1, XDATA, add(CFA_XSP16, literal(-8)))
        CFI (cfiCond104) V1 load(1, XDATA, add(CFA_XSP16, literal(-7)))
        CFI (cfiCond104) R7 load(1, XDATA, add(CFA_XSP16, literal(-6)))
        CFI (cfiCond104) ?RET_LOW load(1, XDATA, add(CFA_XSP16, literal(-5)))
        CFI (cfiCond104) ?RET_HIGH load(1, XDATA, add(CFA_XSP16, literal(-4)))
        CFI (cfiCond104) ?BRET_EXT load(1, XDATA, add(CFA_XSP16, literal(-3)))
        CFI (cfiCond104) DPL0 load(1, XDATA, add(CFA_XSP16, literal(-2)))
        CFI (cfiCond104) DPH0 load(1, XDATA, add(CFA_XSP16, literal(-1)))
        CFI (cfiCond104) CFA_SP SP+0
        CFI (cfiCond104) CFA_XSP16 add(XSP16, 10)
        CFI Block cfiCond105 Using cfiCommon0
        CFI (cfiCond105) NoFunction
        CFI (cfiCond105) Conditional ??CrossCallReturnLabel_73, ??CrossCallReturnLabel_70, ??CrossCallReturnLabel_1
        CFI (cfiCond105) R6 load(1, XDATA, add(CFA_XSP16, literal(-10)))
        CFI (cfiCond105) VB load(1, XDATA, add(CFA_XSP16, literal(-9)))
        CFI (cfiCond105) V0 load(1, XDATA, add(CFA_XSP16, literal(-8)))
        CFI (cfiCond105) V1 load(1, XDATA, add(CFA_XSP16, literal(-7)))
        CFI (cfiCond105) R7 load(1, XDATA, add(CFA_XSP16, literal(-6)))
        CFI (cfiCond105) ?RET_LOW load(1, XDATA, add(CFA_XSP16, literal(-5)))
        CFI (cfiCond105) ?RET_HIGH load(1, XDATA, add(CFA_XSP16, literal(-4)))
        CFI (cfiCond105) ?BRET_EXT load(1, XDATA, add(CFA_XSP16, literal(-3)))
        CFI (cfiCond105) DPL0 load(1, XDATA, add(CFA_XSP16, literal(-2)))
        CFI (cfiCond105) DPH0 load(1, XDATA, add(CFA_XSP16, literal(-1)))
        CFI (cfiCond105) CFA_SP SP+0
        CFI (cfiCond105) CFA_XSP16 add(XSP16, 10)
        CFI Block cfiCond106 Using cfiCommon0
        CFI (cfiCond106) NoFunction
        CFI (cfiCond106) Conditional ??CrossCallReturnLabel_73, ??CrossCallReturnLabel_70, ??CrossCallReturnLabel_2
        CFI (cfiCond106) R6 load(1, XDATA, add(CFA_XSP16, literal(-10)))
        CFI (cfiCond106) VB load(1, XDATA, add(CFA_XSP16, literal(-9)))
        CFI (cfiCond106) V0 load(1, XDATA, add(CFA_XSP16, literal(-8)))
        CFI (cfiCond106) V1 load(1, XDATA, add(CFA_XSP16, literal(-7)))
        CFI (cfiCond106) R7 load(1, XDATA, add(CFA_XSP16, literal(-6)))
        CFI (cfiCond106) ?RET_LOW load(1, XDATA, add(CFA_XSP16, literal(-5)))
        CFI (cfiCond106) ?RET_HIGH load(1, XDATA, add(CFA_XSP16, literal(-4)))
        CFI (cfiCond106) ?BRET_EXT load(1, XDATA, add(CFA_XSP16, literal(-3)))
        CFI (cfiCond106) DPL0 load(1, XDATA, add(CFA_XSP16, literal(-2)))
        CFI (cfiCond106) DPH0 load(1, XDATA, add(CFA_XSP16, literal(-1)))
        CFI (cfiCond106) CFA_SP SP+0
        CFI (cfiCond106) CFA_XSP16 add(XSP16, 10)
        CFI Block cfiCond107 Using cfiCommon0
        CFI (cfiCond107) NoFunction
        CFI (cfiCond107) Conditional ??CrossCallReturnLabel_73, ??CrossCallReturnLabel_70, ??CrossCallReturnLabel_3
        CFI (cfiCond107) R6 load(1, XDATA, add(CFA_XSP16, literal(-10)))
        CFI (cfiCond107) VB load(1, XDATA, add(CFA_XSP16, literal(-9)))
        CFI (cfiCond107) V0 load(1, XDATA, add(CFA_XSP16, literal(-8)))
        CFI (cfiCond107) V1 load(1, XDATA, add(CFA_XSP16, literal(-7)))
        CFI (cfiCond107) R7 load(1, XDATA, add(CFA_XSP16, literal(-6)))
        CFI (cfiCond107) ?RET_LOW load(1, XDATA, add(CFA_XSP16, literal(-5)))
        CFI (cfiCond107) ?RET_HIGH load(1, XDATA, add(CFA_XSP16, literal(-4)))
        CFI (cfiCond107) ?BRET_EXT load(1, XDATA, add(CFA_XSP16, literal(-3)))
        CFI (cfiCond107) DPL0 load(1, XDATA, add(CFA_XSP16, literal(-2)))
        CFI (cfiCond107) DPH0 load(1, XDATA, add(CFA_XSP16, literal(-1)))
        CFI (cfiCond107) CFA_SP SP+0
        CFI (cfiCond107) CFA_XSP16 add(XSP16, 10)
        CFI Block cfiPicker108 Using cfiCommon1
        CFI (cfiPicker108) NoFunction
        CFI (cfiPicker108) Picker
        MOV     DPL,R0
        MOV     DPH,R1
        MOVX    A,@DPTR
        MOV     R2,A
        INC     DPTR
        MOVX    A,@DPTR
        MOV     DPH,A
        MOV     DPL,R2
        INC     DPTR
        INC     DPTR
        INC     DPTR
        INC     DPTR
        RET
        CFI EndBlock cfiCond99
        CFI EndBlock cfiCond100
        CFI EndBlock cfiCond101
        CFI EndBlock cfiCond102
        CFI EndBlock cfiCond103
        CFI EndBlock cfiCond104
        CFI EndBlock cfiCond105
        CFI EndBlock cfiCond106
        CFI EndBlock cfiCond107
        CFI EndBlock cfiPicker108
//  856 
//  857 
//  858 /*******************************************************************************
//  859  * @fn      Smart_home_DeviceCheck
//  860  *
//  861  * @brief   check the device  status: online or offline.
//  862  *          由宏定义Smart_home_DEVICE_CHECK_TIMER确定周期是2秒
//  863  *
//  864  * @param   none
//  865  *
//  866  * @return  none
//  867  */
//  868 /*3.24 这里的检测时常有点长 改为变量外提的方式加快处理速度*/

        RSEG BANKED_CODE:CODE:NOROOT(0)
//  869 uint8 Device_check(DeviceInfo dev,uint8 count)
Device_check:
        CFI Block cfiBlock109 Using cfiCommon0
        CFI Function Device_check
        CODE
//  870 {
        PUSH    DPL
        CFI DPL0 Frame(CFA_SP, 4)
        CFI CFA_SP SP+-4
        PUSH    DPH
        CFI DPH0 Frame(CFA_SP, 5)
        CFI CFA_SP SP+-5
        ; Saved register size: 2
        ; Auto size: 0
//  871   if(dev.deviceStatus != DEVICE_ONLINE)    //设备离线
        MOV     DPL,?XSP + 0
        MOV     DPH,?XSP + 1
        MOVX    A,@DPTR
        XRL     A,#0x1
        JZ      ??Device_check_0
//  872   {
//  873     count++;
        INC     R1
//  874   }
//  875   if(dev.deviceStatus == DEVICE_ONLINE)    //设备在线
//  876   {
//  877     count = 0;
//  878     dev.deviceStatus = 0;
//  879   }
//  880   if(count > DEVICE_HEART_BEAT)
        MOV     A,R1
        CLR     C
        SUBB    A,#0x4
        JC      ??Device_check_1
//  881   {
//  882     count = DEVICE_HEART_BEAT;
        MOV     R1,#0x3
//  883     dev.deviceStatus = DEVICE_OFFLINE;
//  884   }  
//  885   return count;
??Device_check_1:
        LJMP    ?Subroutine2 & 0xFFFF
??Device_check_0:
        MOV     R1,#0x0
        SJMP    ??Device_check_1
        CFI EndBlock cfiBlock109
//  886 }
//  887 

        RSEG BANKED_CODE:CODE:NOROOT(0)
//  888 void Smart_home_Device_check(void)
Smart_home_Device_check:
        CFI Block cfiBlock110 Using cfiCommon0
        CFI Function Smart_home_Device_check
        CODE
//  889 {
        FUNCALL Smart_home_Device_check, Device_check
        LOCFRAME ISTACK, 2, STACK
        LOCFRAME PSTACK, 0, STACK
        LOCFRAME XSTACK, 6, STACK
        LOCFRAME IOVERLAY, 0, STATIC
        LOCFRAME DOVERLAY, 0, STATIC
        ARGFRAME ISTACK, 2, STACK
        ARGFRAME PSTACK, 0, STACK
        ARGFRAME XSTACK, 6, STACK
        ARGFRAME IOVERLAY, 0, STATIC
        ARGFRAME DOVERLAY, 0, STATIC
        FUNCALL Smart_home_Device_check, Device_check
        LOCFRAME ISTACK, 2, STACK
        LOCFRAME PSTACK, 0, STACK
        LOCFRAME XSTACK, 6, STACK
        LOCFRAME IOVERLAY, 0, STATIC
        LOCFRAME DOVERLAY, 0, STATIC
        ARGFRAME ISTACK, 2, STACK
        ARGFRAME PSTACK, 0, STACK
        ARGFRAME XSTACK, 6, STACK
        ARGFRAME IOVERLAY, 0, STATIC
        ARGFRAME DOVERLAY, 0, STATIC
        FUNCALL Smart_home_Device_check, Device_check
        LOCFRAME ISTACK, 2, STACK
        LOCFRAME PSTACK, 0, STACK
        LOCFRAME XSTACK, 6, STACK
        LOCFRAME IOVERLAY, 0, STATIC
        LOCFRAME DOVERLAY, 0, STATIC
        ARGFRAME ISTACK, 2, STACK
        ARGFRAME PSTACK, 0, STACK
        ARGFRAME XSTACK, 6, STACK
        ARGFRAME IOVERLAY, 0, STATIC
        ARGFRAME DOVERLAY, 0, STATIC
        FUNCALL Smart_home_Device_check, Device_check
        LOCFRAME ISTACK, 2, STACK
        LOCFRAME PSTACK, 0, STACK
        LOCFRAME XSTACK, 6, STACK
        LOCFRAME IOVERLAY, 0, STATIC
        LOCFRAME DOVERLAY, 0, STATIC
        ARGFRAME ISTACK, 2, STACK
        ARGFRAME PSTACK, 0, STACK
        ARGFRAME XSTACK, 6, STACK
        ARGFRAME IOVERLAY, 0, STATIC
        ARGFRAME DOVERLAY, 0, STATIC
        FUNCALL Smart_home_Device_check, Device_check
        LOCFRAME ISTACK, 2, STACK
        LOCFRAME PSTACK, 0, STACK
        LOCFRAME XSTACK, 6, STACK
        LOCFRAME IOVERLAY, 0, STATIC
        LOCFRAME DOVERLAY, 0, STATIC
        ARGFRAME ISTACK, 2, STACK
        ARGFRAME PSTACK, 0, STACK
        ARGFRAME XSTACK, 6, STACK
        ARGFRAME IOVERLAY, 0, STATIC
        ARGFRAME DOVERLAY, 0, STATIC
        FUNCALL Smart_home_Device_check, Device_check
        LOCFRAME ISTACK, 2, STACK
        LOCFRAME PSTACK, 0, STACK
        LOCFRAME XSTACK, 6, STACK
        LOCFRAME IOVERLAY, 0, STATIC
        LOCFRAME DOVERLAY, 0, STATIC
        ARGFRAME ISTACK, 2, STACK
        ARGFRAME PSTACK, 0, STACK
        ARGFRAME XSTACK, 6, STACK
        ARGFRAME IOVERLAY, 0, STATIC
        ARGFRAME DOVERLAY, 0, STATIC
        FUNCALL Smart_home_Device_check, Device_check
        LOCFRAME ISTACK, 2, STACK
        LOCFRAME PSTACK, 0, STACK
        LOCFRAME XSTACK, 6, STACK
        LOCFRAME IOVERLAY, 0, STATIC
        LOCFRAME DOVERLAY, 0, STATIC
        ARGFRAME ISTACK, 2, STACK
        ARGFRAME PSTACK, 0, STACK
        ARGFRAME XSTACK, 6, STACK
        ARGFRAME IOVERLAY, 0, STATIC
        ARGFRAME DOVERLAY, 0, STATIC
        FUNCALL Smart_home_Device_check, Device_check
        LOCFRAME ISTACK, 2, STACK
        LOCFRAME PSTACK, 0, STACK
        LOCFRAME XSTACK, 6, STACK
        LOCFRAME IOVERLAY, 0, STATIC
        LOCFRAME DOVERLAY, 0, STATIC
        ARGFRAME ISTACK, 2, STACK
        ARGFRAME PSTACK, 0, STACK
        ARGFRAME XSTACK, 6, STACK
        ARGFRAME IOVERLAY, 0, STATIC
        ARGFRAME DOVERLAY, 0, STATIC
        PUSH    DPL
        CFI DPL0 Frame(CFA_SP, 4)
        CFI CFA_SP SP+-4
        PUSH    DPH
        CFI DPH0 Frame(CFA_SP, 5)
        CFI CFA_SP SP+-5
        ; Saved register size: 2
        ; Auto size: 0
//  890   static uint8 humitCnt, tempLightCnt, rfIDCnt, gasFlameCnt, infraredCnt;
//  891   static uint8 motorCnt, relayStatusCnt, soundVbCnt;
//  892   humitCnt = Device_check(Humit,humitCnt);
        ; Setup parameters for call to function Device_check
        MOV     DPTR,#Humit
        MOV     A,#0x6
        LCALL   ?PUSH_XSTACK8_X
        CFI CFA_XSP16 add(XSP16, 6)
        MOV     DPTR,#??humitCnt
        LCALL   ?Subroutine14 & 0xFFFF
??CrossCallReturnLabel_28:
        LCALL   ?DEALLOC_XSTACK8
        CFI CFA_XSP16 XSP16+0
        MOV     A,R1
        MOV     DPTR,#??humitCnt
        MOVX    @DPTR,A
//  893   tempLightCnt = Device_check(TempLight,tempLightCnt);
        ; Setup parameters for call to function Device_check
        MOV     DPTR,#TempLight
        MOV     A,#0x6
        LCALL   ?PUSH_XSTACK8_X
        CFI CFA_XSP16 add(XSP16, 6)
        MOV     DPTR,#??tempLightCnt
        LCALL   ?Subroutine14 & 0xFFFF
??CrossCallReturnLabel_29:
        LCALL   ?DEALLOC_XSTACK8
        CFI CFA_XSP16 XSP16+0
        MOV     A,R1
        MOV     DPTR,#??tempLightCnt
        MOVX    @DPTR,A
//  894   rfIDCnt = Device_check(RfID,rfIDCnt);
        ; Setup parameters for call to function Device_check
        MOV     DPTR,#RfID
        MOV     A,#0x6
        LCALL   ?PUSH_XSTACK8_X
        CFI CFA_XSP16 add(XSP16, 6)
        MOV     DPTR,#??rfIDCnt
        LCALL   ?Subroutine14 & 0xFFFF
??CrossCallReturnLabel_30:
        LCALL   ?DEALLOC_XSTACK8
        CFI CFA_XSP16 XSP16+0
        MOV     A,R1
        MOV     DPTR,#??rfIDCnt
        MOVX    @DPTR,A
//  895   gasFlameCnt = Device_check(gasFlame,gasFlameCnt);
        ; Setup parameters for call to function Device_check
        MOV     DPTR,#gasFlame
        MOV     A,#0x6
        LCALL   ?PUSH_XSTACK8_X
        CFI CFA_XSP16 add(XSP16, 6)
        MOV     DPTR,#??gasFlameCnt
        LCALL   ?Subroutine14 & 0xFFFF
??CrossCallReturnLabel_31:
        LCALL   ?DEALLOC_XSTACK8
        CFI CFA_XSP16 XSP16+0
        MOV     A,R1
        MOV     DPTR,#??gasFlameCnt
        MOVX    @DPTR,A
//  896   infraredCnt = Device_check(infrared,infraredCnt);
        ; Setup parameters for call to function Device_check
        MOV     DPTR,#infrared
        MOV     A,#0x6
        LCALL   ?PUSH_XSTACK8_X
        CFI CFA_XSP16 add(XSP16, 6)
        MOV     DPTR,#??infraredCnt
        LCALL   ?Subroutine14 & 0xFFFF
??CrossCallReturnLabel_32:
        LCALL   ?DEALLOC_XSTACK8
        CFI CFA_XSP16 XSP16+0
        MOV     A,R1
        MOV     DPTR,#??infraredCnt
        MOVX    @DPTR,A
//  897   motorCnt = Device_check(motor,motorCnt);
        ; Setup parameters for call to function Device_check
        MOV     DPTR,#motor
        MOV     A,#0x6
        LCALL   ?PUSH_XSTACK8_X
        CFI CFA_XSP16 add(XSP16, 6)
        MOV     DPTR,#??motorCnt
        LCALL   ?Subroutine14 & 0xFFFF
??CrossCallReturnLabel_33:
        LCALL   ?DEALLOC_XSTACK8
        CFI CFA_XSP16 XSP16+0
        MOV     A,R1
        MOV     DPTR,#??motorCnt
        MOVX    @DPTR,A
//  898   relayStatusCnt = Device_check(relay,relayStatusCnt);
        ; Setup parameters for call to function Device_check
        MOV     DPTR,#relay
        MOV     A,#0x6
        LCALL   ?PUSH_XSTACK8_X
        CFI CFA_XSP16 add(XSP16, 6)
        MOV     DPTR,#??relayStatusCnt
        LCALL   ?Subroutine14 & 0xFFFF
??CrossCallReturnLabel_34:
        LCALL   ?DEALLOC_XSTACK8
        CFI CFA_XSP16 XSP16+0
        MOV     A,R1
        MOV     DPTR,#??relayStatusCnt
        MOVX    @DPTR,A
//  899   soundVbCnt = Device_check(soundVb,soundVbCnt);
        ; Setup parameters for call to function Device_check
        MOV     DPTR,#soundVb
        MOV     A,#0x6
        LCALL   ?PUSH_XSTACK8_X
        CFI CFA_XSP16 add(XSP16, 6)
        MOV     DPTR,#??soundVbCnt
        LCALL   ?Subroutine14 & 0xFFFF
??CrossCallReturnLabel_35:
        LCALL   ?DEALLOC_XSTACK8
        CFI CFA_XSP16 XSP16+0
        MOV     A,R1
        MOV     DPTR,#??soundVbCnt
        MOVX    @DPTR,A
        CFI EndBlock cfiBlock110
//  900   /*温湿度缓存 温度光照缓存 RFID 信息缓存 气体火焰缓存 
//  901   人体红外 电机状态 继电器状态 声音震动*/
//  902 }
        REQUIRE ?Subroutine2
        ; // Fall through to label ?Subroutine2

        RSEG BANKED_CODE:CODE:NOROOT(0)
?Subroutine2:
        CFI Block cfiBlock111 Using cfiCommon0
        CFI NoFunction
        CFI CFA_SP SP+-5
        CFI DPL0 Frame(CFA_SP, 4)
        CFI DPH0 Frame(CFA_SP, 5)
        POP     DPH
        CFI CFA_SP SP+-4
        CFI DPH0 SameValue
        POP     DPL
        CFI CFA_SP SP+-3
        CFI DPL0 SameValue
        LJMP    ?BRET
        CFI EndBlock cfiBlock111

        RSEG BANKED_CODE:CODE:NOROOT(0)
?Subroutine14:
        CFI Block cfiCond112 Using cfiCommon0
        CFI NoFunction
        CFI Conditional ??CrossCallReturnLabel_28
        CFI DPL0 Frame(CFA_SP, 4)
        CFI DPH0 Frame(CFA_SP, 5)
        CFI CFA_SP SP+-5
        CFI CFA_XSP16 add(XSP16, 6)
        CFI Block cfiCond113 Using cfiCommon0
        CFI (cfiCond113) NoFunction
        CFI (cfiCond113) Conditional ??CrossCallReturnLabel_29
        CFI (cfiCond113) DPL0 Frame(CFA_SP, 4)
        CFI (cfiCond113) DPH0 Frame(CFA_SP, 5)
        CFI (cfiCond113) CFA_SP SP+-5
        CFI (cfiCond113) CFA_XSP16 add(XSP16, 6)
        CFI Block cfiCond114 Using cfiCommon0
        CFI (cfiCond114) NoFunction
        CFI (cfiCond114) Conditional ??CrossCallReturnLabel_30
        CFI (cfiCond114) DPL0 Frame(CFA_SP, 4)
        CFI (cfiCond114) DPH0 Frame(CFA_SP, 5)
        CFI (cfiCond114) CFA_SP SP+-5
        CFI (cfiCond114) CFA_XSP16 add(XSP16, 6)
        CFI Block cfiCond115 Using cfiCommon0
        CFI (cfiCond115) NoFunction
        CFI (cfiCond115) Conditional ??CrossCallReturnLabel_31
        CFI (cfiCond115) DPL0 Frame(CFA_SP, 4)
        CFI (cfiCond115) DPH0 Frame(CFA_SP, 5)
        CFI (cfiCond115) CFA_SP SP+-5
        CFI (cfiCond115) CFA_XSP16 add(XSP16, 6)
        CFI Block cfiCond116 Using cfiCommon0
        CFI (cfiCond116) NoFunction
        CFI (cfiCond116) Conditional ??CrossCallReturnLabel_32
        CFI (cfiCond116) DPL0 Frame(CFA_SP, 4)
        CFI (cfiCond116) DPH0 Frame(CFA_SP, 5)
        CFI (cfiCond116) CFA_SP SP+-5
        CFI (cfiCond116) CFA_XSP16 add(XSP16, 6)
        CFI Block cfiCond117 Using cfiCommon0
        CFI (cfiCond117) NoFunction
        CFI (cfiCond117) Conditional ??CrossCallReturnLabel_33
        CFI (cfiCond117) DPL0 Frame(CFA_SP, 4)
        CFI (cfiCond117) DPH0 Frame(CFA_SP, 5)
        CFI (cfiCond117) CFA_SP SP+-5
        CFI (cfiCond117) CFA_XSP16 add(XSP16, 6)
        CFI Block cfiCond118 Using cfiCommon0
        CFI (cfiCond118) NoFunction
        CFI (cfiCond118) Conditional ??CrossCallReturnLabel_34
        CFI (cfiCond118) DPL0 Frame(CFA_SP, 4)
        CFI (cfiCond118) DPH0 Frame(CFA_SP, 5)
        CFI (cfiCond118) CFA_SP SP+-5
        CFI (cfiCond118) CFA_XSP16 add(XSP16, 6)
        CFI Block cfiCond119 Using cfiCommon0
        CFI (cfiCond119) NoFunction
        CFI (cfiCond119) Conditional ??CrossCallReturnLabel_35
        CFI (cfiCond119) DPL0 Frame(CFA_SP, 4)
        CFI (cfiCond119) DPH0 Frame(CFA_SP, 5)
        CFI (cfiCond119) CFA_SP SP+-5
        CFI (cfiCond119) CFA_XSP16 add(XSP16, 6)
        CFI Block cfiPicker120 Using cfiCommon1
        CFI (cfiPicker120) NoFunction
        CFI (cfiPicker120) Picker
        MOVX    A,@DPTR
        MOV     R1,A
        LCALL   ??Device_check?relay
        MOV     A,#0x6
        RET
        CFI EndBlock cfiCond112
        CFI EndBlock cfiCond113
        CFI EndBlock cfiCond114
        CFI EndBlock cfiCond115
        CFI EndBlock cfiCond116
        CFI EndBlock cfiCond117
        CFI EndBlock cfiCond118
        CFI EndBlock cfiCond119
        CFI EndBlock cfiPicker120

        RSEG XDATA_Z:XDATA:NOROOT(0)
        DATA8
??humitCnt:
        DS 1
        REQUIRE __INIT_XDATA_Z

        RSEG XDATA_Z:XDATA:NOROOT(0)
        DATA8
??tempLightCnt:
        DS 1
        REQUIRE __INIT_XDATA_Z

        RSEG XDATA_Z:XDATA:NOROOT(0)
        DATA8
??rfIDCnt:
        DS 1
        REQUIRE __INIT_XDATA_Z

        RSEG XDATA_Z:XDATA:NOROOT(0)
        DATA8
??gasFlameCnt:
        DS 1
        REQUIRE __INIT_XDATA_Z

        RSEG XDATA_Z:XDATA:NOROOT(0)
        DATA8
??infraredCnt:
        DS 1
        REQUIRE __INIT_XDATA_Z

        RSEG XDATA_Z:XDATA:NOROOT(0)
        DATA8
??motorCnt:
        DS 1
        REQUIRE __INIT_XDATA_Z

        RSEG XDATA_Z:XDATA:NOROOT(0)
        DATA8
??relayStatusCnt:
        DS 1
        REQUIRE __INIT_XDATA_Z

        RSEG XDATA_Z:XDATA:NOROOT(0)
        DATA8
??soundVbCnt:
        DS 1
        REQUIRE __INIT_XDATA_Z
//  903 
//  904 /*******************************************************************************
//  905  * @fn      Smart_home_SendToRelayMSG
//  906  *
//  907  * @brief   Send control message to relay, if relay is in the network.
//  908  *
//  909  * @param   uint8 cmd: Relay control command
//  910  *
//  911  * @return  none
//  912  */

        RSEG BANKED_CODE:CODE:NOROOT(0)
//  913 void Smart_home_SendToRelayMSG( uint8 cmd )
Smart_home_SendToRelayMSG:
        CFI Block cfiBlock121 Using cfiCommon0
        CFI Function Smart_home_SendToRelayMSG
        CODE
//  914 {
        FUNCALL Smart_home_SendToRelayMSG, AF_DataRequest
        LOCFRAME ISTACK, 0, STACK
        LOCFRAME PSTACK, 0, STACK
        LOCFRAME XSTACK, 19, STACK
        LOCFRAME IOVERLAY, 0, STATIC
        LOCFRAME DOVERLAY, 0, STATIC
        ARGFRAME ISTACK, 0, STACK
        ARGFRAME PSTACK, 0, STACK
        ARGFRAME XSTACK, 19, STACK
        ARGFRAME IOVERLAY, 0, STATIC
        ARGFRAME DOVERLAY, 0, STATIC
        MOV     A,#-0xa
        LCALL   ?BANKED_ENTER_XDATA
        CFI DPH0 load(1, XDATA, add(CFA_XSP16, literal(-1)))
        CFI DPL0 load(1, XDATA, add(CFA_XSP16, literal(-2)))
        CFI ?BRET_EXT load(1, XDATA, add(CFA_XSP16, literal(-3)))
        CFI ?RET_HIGH load(1, XDATA, add(CFA_XSP16, literal(-4)))
        CFI ?RET_LOW load(1, XDATA, add(CFA_XSP16, literal(-5)))
        CFI R7 load(1, XDATA, add(CFA_XSP16, literal(-6)))
        CFI V1 load(1, XDATA, add(CFA_XSP16, literal(-7)))
        CFI V0 load(1, XDATA, add(CFA_XSP16, literal(-8)))
        CFI VB load(1, XDATA, add(CFA_XSP16, literal(-9)))
        CFI R6 load(1, XDATA, add(CFA_XSP16, literal(-10)))
        CFI CFA_SP SP+0
        CFI CFA_XSP16 add(XSP16, 10)
        ; Saved register size: 10
        ; Auto size: 0
        MOV     A,R1
        MOV     R6,A
//  915   uint8 tmp;
//  916   
//  917   // 只有设备在线时, 方发送控制命令
//  918   if (relay.deviceStatus != DEVICE_OFFLINE)
        MOV     DPTR,#relay
        MOVX    A,@DPTR
        XRL     A,#0x2
        JZ      ??Smart_home_SendToRelayMSG_0
//  919   {
//  920     // put the sequence number in the message
//  921     tmp = HI_UINT8( Smart_home_RelayTransID );
        MOV     DPTR,#Smart_home_RelayTransID
        LCALL   ?Subroutine22 & 0xFFFF
//  922     tmp += (tmp <= 9) ? ('0') : ('A' - 0x0A);
??CrossCallReturnLabel_51:
        JNC     ??Smart_home_SendToRelayMSG_1
        MOV     R0,#0x30
        SJMP    ??Smart_home_SendToRelayMSG_2
??Smart_home_SendToRelayMSG_1:
        MOV     R0,#0x37
//  923     Coordinator_Msg[2] = tmp;
??Smart_home_SendToRelayMSG_2:
        MOV     A,R0
        ADD     A,R2
        MOV     DPTR,#Coordinator_Msg + 2
        MOVX    @DPTR,A
//  924     tmp = LO_UINT8( Smart_home_RelayTransID );
        MOV     DPTR,#Smart_home_RelayTransID
        LCALL   ?Subroutine30 & 0xFFFF
//  925     tmp += (tmp <= 9) ? ('0') : ('A' - 0x0A);
??CrossCallReturnLabel_80:
        JNC     ??Smart_home_SendToRelayMSG_3
        MOV     R0,#0x30
        SJMP    ??Smart_home_SendToRelayMSG_4
??Smart_home_SendToRelayMSG_3:
        MOV     R0,#0x37
//  926     Coordinator_Msg[3] = tmp;
??Smart_home_SendToRelayMSG_4:
        MOV     A,R0
        ADD     A,R2
        MOV     DPTR,#Coordinator_Msg + 3
        LCALL   ?Subroutine12 & 0xFFFF
//  927     
//  928     // 发送给继电器的控制命令 
//  929     Coordinator_Msg[4] = cmd;
//  930     
//  931     // Smart_home_epDesc.endPoint = Smart_home_CLUSTERID_RELAYCTLMSG; // 20201225
//  932     tmp = AF_DataRequest( &Smart_home_DstRelayAddr,           \ 
//  933                           &Smart_home_epDesc,                 \ 
//  934                            Smart_home_CLUSTERID_RELAYCTRL,    \ 
//  935                            RELAYSTATUSMSG_LEN,                \ 
//  936                            Coordinator_Msg,                   \ 
//  937                           &Smart_home_RelayTransID,           \ 
//  938                            Smart_home_TX_OPTIONS,             \ 
//  939                            AF_DEFAULT_RADIUS );
//  940   }
??CrossCallReturnLabel_26:
        LCALL   ?PUSH_XSTACK_I_ONE
        CFI CFA_XSP16 add(XSP16, 11)
        MOV     ?V0 + 0,#Smart_home_RelayTransID & 0xff
        MOV     ?V0 + 1,#(Smart_home_RelayTransID >> 8) & 0xff
        MOV     R0,#?V0 + 0
        LCALL   ?PUSH_XSTACK_I_TWO
        CFI CFA_XSP16 add(XSP16, 13)
        MOV     ?V0 + 0,#Coordinator_Msg & 0xff
        MOV     ?V0 + 1,#(Coordinator_Msg >> 8) & 0xff
        MOV     R0,#?V0 + 0
        LCALL   ?PUSH_XSTACK_I_TWO
        CFI CFA_XSP16 add(XSP16, 15)
        MOV     ?V0 + 0,#0x5
        MOV     ?V0 + 1,#0x0
        MOV     R0,#?V0 + 0
        LCALL   ?PUSH_XSTACK_I_TWO
        CFI CFA_XSP16 add(XSP16, 17)
        MOV     ?V0 + 0,#0xa
        MOV     R0,#?V0 + 0
        LCALL   ?PUSH_XSTACK_I_TWO
        CFI CFA_XSP16 add(XSP16, 19)
        MOV     R1,#0x20
        MOV     R4,#Smart_home_epDesc & 0xff
        MOV     R5,#(Smart_home_epDesc >> 8) & 0xff
        MOV     R2,#Smart_home_DstRelayAddr & 0xff
        MOV     R3,#(Smart_home_DstRelayAddr >> 8) & 0xff
        LCALL   ??AF_DataRequest?relay
        MOV     A,#0x9
        LCALL   ?DEALLOC_XSTACK8
        CFI CFA_XSP16 add(XSP16, 10)
//  941 }
??Smart_home_SendToRelayMSG_0:
        LJMP    ?Subroutine1 & 0xFFFF
        CFI EndBlock cfiBlock121

        RSEG BANKED_CODE:CODE:NOROOT(0)
?Subroutine30:
        CFI Block cfiCond122 Using cfiCommon0
        CFI NoFunction
        CFI Conditional ??CrossCallReturnLabel_80
        CFI R6 load(1, XDATA, add(CFA_XSP16, literal(-10)))
        CFI VB load(1, XDATA, add(CFA_XSP16, literal(-9)))
        CFI V0 load(1, XDATA, add(CFA_XSP16, literal(-8)))
        CFI V1 load(1, XDATA, add(CFA_XSP16, literal(-7)))
        CFI R7 load(1, XDATA, add(CFA_XSP16, literal(-6)))
        CFI ?RET_LOW load(1, XDATA, add(CFA_XSP16, literal(-5)))
        CFI ?RET_HIGH load(1, XDATA, add(CFA_XSP16, literal(-4)))
        CFI ?BRET_EXT load(1, XDATA, add(CFA_XSP16, literal(-3)))
        CFI DPL0 load(1, XDATA, add(CFA_XSP16, literal(-2)))
        CFI DPH0 load(1, XDATA, add(CFA_XSP16, literal(-1)))
        CFI CFA_SP SP+0
        CFI CFA_XSP16 add(XSP16, 10)
        CFI Block cfiCond123 Using cfiCommon0
        CFI (cfiCond123) NoFunction
        CFI (cfiCond123) Conditional ??CrossCallReturnLabel_81
        CFI (cfiCond123) R6 load(1, XDATA, add(CFA_XSP16, literal(-10)))
        CFI (cfiCond123) VB load(1, XDATA, add(CFA_XSP16, literal(-9)))
        CFI (cfiCond123) V0 load(1, XDATA, add(CFA_XSP16, literal(-8)))
        CFI (cfiCond123) V1 load(1, XDATA, add(CFA_XSP16, literal(-7)))
        CFI (cfiCond123) R7 load(1, XDATA, add(CFA_XSP16, literal(-6)))
        CFI (cfiCond123) ?RET_LOW load(1, XDATA, add(CFA_XSP16, literal(-5)))
        CFI (cfiCond123) ?RET_HIGH load(1, XDATA, add(CFA_XSP16, literal(-4)))
        CFI (cfiCond123) ?BRET_EXT load(1, XDATA, add(CFA_XSP16, literal(-3)))
        CFI (cfiCond123) DPL0 load(1, XDATA, add(CFA_XSP16, literal(-2)))
        CFI (cfiCond123) DPH0 load(1, XDATA, add(CFA_XSP16, literal(-1)))
        CFI (cfiCond123) CFA_SP SP+0
        CFI (cfiCond123) CFA_XSP16 add(XSP16, 10)
        CFI Block cfiPicker124 Using cfiCommon1
        CFI (cfiPicker124) NoFunction
        CFI (cfiPicker124) Picker
        MOVX    A,@DPTR
        CFI EndBlock cfiCond122
        CFI EndBlock cfiCond123
        CFI EndBlock cfiPicker124
        REQUIRE ??Subroutine34_0
        ; // Fall through to label ??Subroutine34_0

        RSEG BANKED_CODE:CODE:NOROOT(0)
??Subroutine34_0:
        CFI Block cfiCond125 Using cfiCommon0
        CFI NoFunction
        CFI Conditional ??CrossCallReturnLabel_82, ??CrossCallReturnLabel_51
        CFI R6 load(1, XDATA, add(CFA_XSP16, literal(-10)))
        CFI VB load(1, XDATA, add(CFA_XSP16, literal(-9)))
        CFI V0 load(1, XDATA, add(CFA_XSP16, literal(-8)))
        CFI V1 load(1, XDATA, add(CFA_XSP16, literal(-7)))
        CFI R7 load(1, XDATA, add(CFA_XSP16, literal(-6)))
        CFI ?RET_LOW load(1, XDATA, add(CFA_XSP16, literal(-5)))
        CFI ?RET_HIGH load(1, XDATA, add(CFA_XSP16, literal(-4)))
        CFI ?BRET_EXT load(1, XDATA, add(CFA_XSP16, literal(-3)))
        CFI DPL0 load(1, XDATA, add(CFA_XSP16, literal(-2)))
        CFI DPH0 load(1, XDATA, add(CFA_XSP16, literal(-1)))
        CFI CFA_SP SP+0
        CFI CFA_XSP16 add(XSP16, 10)
        CFI Block cfiCond126 Using cfiCommon0
        CFI (cfiCond126) NoFunction
        CFI (cfiCond126) Conditional ??CrossCallReturnLabel_82, ??CrossCallReturnLabel_52
        CFI (cfiCond126) R6 load(1, XDATA, add(CFA_XSP16, literal(-10)))
        CFI (cfiCond126) VB load(1, XDATA, add(CFA_XSP16, literal(-9)))
        CFI (cfiCond126) V0 load(1, XDATA, add(CFA_XSP16, literal(-8)))
        CFI (cfiCond126) V1 load(1, XDATA, add(CFA_XSP16, literal(-7)))
        CFI (cfiCond126) R7 load(1, XDATA, add(CFA_XSP16, literal(-6)))
        CFI (cfiCond126) ?RET_LOW load(1, XDATA, add(CFA_XSP16, literal(-5)))
        CFI (cfiCond126) ?RET_HIGH load(1, XDATA, add(CFA_XSP16, literal(-4)))
        CFI (cfiCond126) ?BRET_EXT load(1, XDATA, add(CFA_XSP16, literal(-3)))
        CFI (cfiCond126) DPL0 load(1, XDATA, add(CFA_XSP16, literal(-2)))
        CFI (cfiCond126) DPH0 load(1, XDATA, add(CFA_XSP16, literal(-1)))
        CFI (cfiCond126) CFA_SP SP+0
        CFI (cfiCond126) CFA_XSP16 add(XSP16, 10)
        CFI Block cfiCond127 Using cfiCommon0
        CFI (cfiCond127) NoFunction
        CFI (cfiCond127) Conditional ??CrossCallReturnLabel_80
        CFI (cfiCond127) R6 load(1, XDATA, add(CFA_XSP16, literal(-10)))
        CFI (cfiCond127) VB load(1, XDATA, add(CFA_XSP16, literal(-9)))
        CFI (cfiCond127) V0 load(1, XDATA, add(CFA_XSP16, literal(-8)))
        CFI (cfiCond127) V1 load(1, XDATA, add(CFA_XSP16, literal(-7)))
        CFI (cfiCond127) R7 load(1, XDATA, add(CFA_XSP16, literal(-6)))
        CFI (cfiCond127) ?RET_LOW load(1, XDATA, add(CFA_XSP16, literal(-5)))
        CFI (cfiCond127) ?RET_HIGH load(1, XDATA, add(CFA_XSP16, literal(-4)))
        CFI (cfiCond127) ?BRET_EXT load(1, XDATA, add(CFA_XSP16, literal(-3)))
        CFI (cfiCond127) DPL0 load(1, XDATA, add(CFA_XSP16, literal(-2)))
        CFI (cfiCond127) DPH0 load(1, XDATA, add(CFA_XSP16, literal(-1)))
        CFI (cfiCond127) CFA_SP SP+0
        CFI (cfiCond127) CFA_XSP16 add(XSP16, 10)
        CFI Block cfiCond128 Using cfiCommon0
        CFI (cfiCond128) NoFunction
        CFI (cfiCond128) Conditional ??CrossCallReturnLabel_81
        CFI (cfiCond128) R6 load(1, XDATA, add(CFA_XSP16, literal(-10)))
        CFI (cfiCond128) VB load(1, XDATA, add(CFA_XSP16, literal(-9)))
        CFI (cfiCond128) V0 load(1, XDATA, add(CFA_XSP16, literal(-8)))
        CFI (cfiCond128) V1 load(1, XDATA, add(CFA_XSP16, literal(-7)))
        CFI (cfiCond128) R7 load(1, XDATA, add(CFA_XSP16, literal(-6)))
        CFI (cfiCond128) ?RET_LOW load(1, XDATA, add(CFA_XSP16, literal(-5)))
        CFI (cfiCond128) ?RET_HIGH load(1, XDATA, add(CFA_XSP16, literal(-4)))
        CFI (cfiCond128) ?BRET_EXT load(1, XDATA, add(CFA_XSP16, literal(-3)))
        CFI (cfiCond128) DPL0 load(1, XDATA, add(CFA_XSP16, literal(-2)))
        CFI (cfiCond128) DPH0 load(1, XDATA, add(CFA_XSP16, literal(-1)))
        CFI (cfiCond128) CFA_SP SP+0
        CFI (cfiCond128) CFA_XSP16 add(XSP16, 10)
        CFI Block cfiPicker129 Using cfiCommon1
        CFI (cfiPicker129) NoFunction
        CFI (cfiPicker129) Picker
        ANL     A,#0xf
        MOV     R2,A
        CLR     C
        SUBB    A,#0xa
        RET
        CFI EndBlock cfiCond125
        CFI EndBlock cfiCond126
        CFI EndBlock cfiCond127
        CFI EndBlock cfiCond128
        CFI EndBlock cfiPicker129
//  942 
//  943 /*******************************************************************************
//  944  * @fn      Smart_home_SendToMotorMSG
//  945  *
//  946  * @brief   Send  message to motor.
//  947  *
//  948  * @param   uint8 cmd: motor command
//  949  *
//  950  * @return  none
//  951  */

        RSEG BANKED_CODE:CODE:NOROOT(0)
//  952 void Smart_home_SendToMotorMSG( uint8 cmd, uint8 speed )
Smart_home_SendToMotorMSG:
        CFI Block cfiBlock130 Using cfiCommon0
        CFI Function Smart_home_SendToMotorMSG
        CODE
//  953 {
        FUNCALL Smart_home_SendToMotorMSG, AF_DataRequest
        LOCFRAME ISTACK, 0, STACK
        LOCFRAME PSTACK, 0, STACK
        LOCFRAME XSTACK, 19, STACK
        LOCFRAME IOVERLAY, 0, STATIC
        LOCFRAME DOVERLAY, 0, STATIC
        ARGFRAME ISTACK, 0, STACK
        ARGFRAME PSTACK, 0, STACK
        ARGFRAME XSTACK, 19, STACK
        ARGFRAME IOVERLAY, 0, STATIC
        ARGFRAME DOVERLAY, 0, STATIC
        MOV     A,#-0xa
        LCALL   ?BANKED_ENTER_XDATA
        CFI DPH0 load(1, XDATA, add(CFA_XSP16, literal(-1)))
        CFI DPL0 load(1, XDATA, add(CFA_XSP16, literal(-2)))
        CFI ?BRET_EXT load(1, XDATA, add(CFA_XSP16, literal(-3)))
        CFI ?RET_HIGH load(1, XDATA, add(CFA_XSP16, literal(-4)))
        CFI ?RET_LOW load(1, XDATA, add(CFA_XSP16, literal(-5)))
        CFI R7 load(1, XDATA, add(CFA_XSP16, literal(-6)))
        CFI V1 load(1, XDATA, add(CFA_XSP16, literal(-7)))
        CFI V0 load(1, XDATA, add(CFA_XSP16, literal(-8)))
        CFI VB load(1, XDATA, add(CFA_XSP16, literal(-9)))
        CFI R6 load(1, XDATA, add(CFA_XSP16, literal(-10)))
        CFI CFA_SP SP+0
        CFI CFA_XSP16 add(XSP16, 10)
        ; Saved register size: 10
        ; Auto size: 0
        MOV     A,R1
        MOV     R6,A
        MOV     A,R2
        MOV     R7,A
//  954   uint8 tmp;
//  955   
//  956   // 只有设备在线时, 方发送控制命令
//  957   if (motor.deviceStatus != DEVICE_OFFLINE)
        MOV     DPTR,#motor
        MOVX    A,@DPTR
        XRL     A,#0x2
        JZ      ??Smart_home_SendToMotorMSG_0
//  958   {
//  959     // put the sequence number in the message
//  960     tmp = HI_UINT8( Smart_home_MotorTransID );
        MOV     DPTR,#Smart_home_MotorTransID
        LCALL   ?Subroutine22 & 0xFFFF
//  961     tmp += (tmp <= 9) ? ('0') : ('A' - 0x0A);
??CrossCallReturnLabel_52:
        JNC     ??Smart_home_SendToMotorMSG_1
        MOV     R0,#0x30
        SJMP    ??Smart_home_SendToMotorMSG_2
??Smart_home_SendToMotorMSG_1:
        MOV     R0,#0x37
//  962     Coordinator_Msg[2] = tmp;
??Smart_home_SendToMotorMSG_2:
        MOV     A,R0
        ADD     A,R2
        MOV     DPTR,#Coordinator_Msg + 2
        MOVX    @DPTR,A
//  963     tmp = LO_UINT8( Smart_home_MotorTransID );
        MOV     DPTR,#Smart_home_MotorTransID
        LCALL   ?Subroutine30 & 0xFFFF
//  964     tmp += (tmp <= 9) ? ('0') : ('A' - 0x0A);
??CrossCallReturnLabel_81:
        JNC     ??Smart_home_SendToMotorMSG_3
        MOV     R0,#0x30
        SJMP    ??Smart_home_SendToMotorMSG_4
??Smart_home_SendToMotorMSG_3:
        MOV     R0,#0x37
//  965     Coordinator_Msg[3] = tmp;
??Smart_home_SendToMotorMSG_4:
        MOV     A,R0
        ADD     A,R2
        MOV     DPTR,#Coordinator_Msg + 3
        MOVX    @DPTR,A
//  966     
//  967     Coordinator_Msg[4] = speed; // 电机速度
        MOV     A,R7
        INC     DPTR
        LCALL   ?Subroutine12 & 0xFFFF
//  968     Coordinator_Msg[5] = cmd;   // 电机控制状态(方向)
//  969   
//  970     //Smart_home_epDesc.endPoint = Smart_home_CLUSTERID_MOTORCTLMSG; // 20201225
//  971     tmp = AF_DataRequest( &Smart_home_DstMotorAddr,            \ 
//  972                           &Smart_home_epDesc,                  \ 
//  973                            Smart_home_CLUSTERID_MOTORCTRL,     \ 
//  974                            MOTORSTATUSMSG_LEN,                 \ 
//  975                            Coordinator_Msg,                    \ 
//  976                           &Smart_home_MotorTransID,            \ 
//  977                            Smart_home_TX_OPTIONS,              \ 
//  978                            AF_DEFAULT_RADIUS );
//  979   }
??CrossCallReturnLabel_27:
        LCALL   ?PUSH_XSTACK_I_ONE
        CFI CFA_XSP16 add(XSP16, 11)
        MOV     ?V0 + 0,#Smart_home_MotorTransID & 0xff
        MOV     ?V0 + 1,#(Smart_home_MotorTransID >> 8) & 0xff
        MOV     R0,#?V0 + 0
        LCALL   ?PUSH_XSTACK_I_TWO
        CFI CFA_XSP16 add(XSP16, 13)
        MOV     ?V0 + 0,#Coordinator_Msg & 0xff
        MOV     ?V0 + 1,#(Coordinator_Msg >> 8) & 0xff
        MOV     R0,#?V0 + 0
        LCALL   ?PUSH_XSTACK_I_TWO
        CFI CFA_XSP16 add(XSP16, 15)
        MOV     ?V0 + 0,#0x6
        MOV     ?V0 + 1,#0x0
        MOV     R0,#?V0 + 0
        LCALL   ?PUSH_XSTACK_I_TWO
        CFI CFA_XSP16 add(XSP16, 17)
        MOV     ?V0 + 0,#0xb
        MOV     R0,#?V0 + 0
        LCALL   ?PUSH_XSTACK_I_TWO
        CFI CFA_XSP16 add(XSP16, 19)
        MOV     R1,#0x20
        MOV     R4,#Smart_home_epDesc & 0xff
        MOV     R5,#(Smart_home_epDesc >> 8) & 0xff
        MOV     R2,#Smart_home_DstMotorAddr & 0xff
        MOV     R3,#(Smart_home_DstMotorAddr >> 8) & 0xff
        LCALL   ??AF_DataRequest?relay
        MOV     A,#0x9
        LCALL   ?DEALLOC_XSTACK8
        CFI CFA_XSP16 add(XSP16, 10)
        CFI EndBlock cfiBlock130
//  980 }
??Smart_home_SendToMotorMSG_0:
        REQUIRE ?Subroutine1
        ; // Fall through to label ?Subroutine1

        RSEG BANKED_CODE:CODE:NOROOT(0)
?Subroutine1:
        CFI Block cfiBlock131 Using cfiCommon0
        CFI NoFunction
        CFI CFA_SP SP+0
        CFI CFA_XSP16 add(XSP16, 10)
        CFI VB load(1, XDATA, add(CFA_XSP16, literal(-9)))
        CFI DPL0 load(1, XDATA, add(CFA_XSP16, literal(-2)))
        CFI DPH0 load(1, XDATA, add(CFA_XSP16, literal(-1)))
        CFI R6 load(1, XDATA, add(CFA_XSP16, literal(-10)))
        CFI R7 load(1, XDATA, add(CFA_XSP16, literal(-6)))
        CFI V0 load(1, XDATA, add(CFA_XSP16, literal(-8)))
        CFI V1 load(1, XDATA, add(CFA_XSP16, literal(-7)))
        CFI ?BRET_EXT load(1, XDATA, add(CFA_XSP16, literal(-3)))
        CFI ?RET_HIGH load(1, XDATA, add(CFA_XSP16, literal(-4)))
        CFI ?RET_LOW load(1, XDATA, add(CFA_XSP16, literal(-5)))
        MOV     R7,#0x2
        LJMP    ?BANKED_LEAVE_XDATA
        CFI EndBlock cfiBlock131

        RSEG BANKED_CODE:CODE:NOROOT(0)
?Subroutine22:
        CFI Block cfiCond132 Using cfiCommon0
        CFI NoFunction
        CFI Conditional ??CrossCallReturnLabel_51
        CFI R6 load(1, XDATA, add(CFA_XSP16, literal(-10)))
        CFI VB load(1, XDATA, add(CFA_XSP16, literal(-9)))
        CFI V0 load(1, XDATA, add(CFA_XSP16, literal(-8)))
        CFI V1 load(1, XDATA, add(CFA_XSP16, literal(-7)))
        CFI R7 load(1, XDATA, add(CFA_XSP16, literal(-6)))
        CFI ?RET_LOW load(1, XDATA, add(CFA_XSP16, literal(-5)))
        CFI ?RET_HIGH load(1, XDATA, add(CFA_XSP16, literal(-4)))
        CFI ?BRET_EXT load(1, XDATA, add(CFA_XSP16, literal(-3)))
        CFI DPL0 load(1, XDATA, add(CFA_XSP16, literal(-2)))
        CFI DPH0 load(1, XDATA, add(CFA_XSP16, literal(-1)))
        CFI CFA_SP SP+0
        CFI CFA_XSP16 add(XSP16, 10)
        CFI Block cfiCond133 Using cfiCommon0
        CFI (cfiCond133) NoFunction
        CFI (cfiCond133) Conditional ??CrossCallReturnLabel_52
        CFI (cfiCond133) R6 load(1, XDATA, add(CFA_XSP16, literal(-10)))
        CFI (cfiCond133) VB load(1, XDATA, add(CFA_XSP16, literal(-9)))
        CFI (cfiCond133) V0 load(1, XDATA, add(CFA_XSP16, literal(-8)))
        CFI (cfiCond133) V1 load(1, XDATA, add(CFA_XSP16, literal(-7)))
        CFI (cfiCond133) R7 load(1, XDATA, add(CFA_XSP16, literal(-6)))
        CFI (cfiCond133) ?RET_LOW load(1, XDATA, add(CFA_XSP16, literal(-5)))
        CFI (cfiCond133) ?RET_HIGH load(1, XDATA, add(CFA_XSP16, literal(-4)))
        CFI (cfiCond133) ?BRET_EXT load(1, XDATA, add(CFA_XSP16, literal(-3)))
        CFI (cfiCond133) DPL0 load(1, XDATA, add(CFA_XSP16, literal(-2)))
        CFI (cfiCond133) DPH0 load(1, XDATA, add(CFA_XSP16, literal(-1)))
        CFI (cfiCond133) CFA_SP SP+0
        CFI (cfiCond133) CFA_XSP16 add(XSP16, 10)
        CFI Block cfiPicker134 Using cfiCommon1
        CFI (cfiPicker134) NoFunction
        CFI (cfiPicker134) Picker
        MOVX    A,@DPTR
        SWAP    A
        LCALL   ??Subroutine34_0 & 0xFFFF
??CrossCallReturnLabel_82:
        RET
        CFI EndBlock cfiCond132
        CFI EndBlock cfiCond133
        CFI EndBlock cfiPicker134

        RSEG BANKED_CODE:CODE:NOROOT(0)
?Subroutine12:
        CFI Block cfiCond135 Using cfiCommon0
        CFI NoFunction
        CFI Conditional ??CrossCallReturnLabel_26
        CFI R6 load(1, XDATA, add(CFA_XSP16, literal(-10)))
        CFI VB load(1, XDATA, add(CFA_XSP16, literal(-9)))
        CFI V0 load(1, XDATA, add(CFA_XSP16, literal(-8)))
        CFI V1 load(1, XDATA, add(CFA_XSP16, literal(-7)))
        CFI R7 load(1, XDATA, add(CFA_XSP16, literal(-6)))
        CFI ?RET_LOW load(1, XDATA, add(CFA_XSP16, literal(-5)))
        CFI ?RET_HIGH load(1, XDATA, add(CFA_XSP16, literal(-4)))
        CFI ?BRET_EXT load(1, XDATA, add(CFA_XSP16, literal(-3)))
        CFI DPL0 load(1, XDATA, add(CFA_XSP16, literal(-2)))
        CFI DPH0 load(1, XDATA, add(CFA_XSP16, literal(-1)))
        CFI CFA_SP SP+0
        CFI CFA_XSP16 add(XSP16, 10)
        CFI Block cfiCond136 Using cfiCommon0
        CFI (cfiCond136) NoFunction
        CFI (cfiCond136) Conditional ??CrossCallReturnLabel_27
        CFI (cfiCond136) R6 load(1, XDATA, add(CFA_XSP16, literal(-10)))
        CFI (cfiCond136) VB load(1, XDATA, add(CFA_XSP16, literal(-9)))
        CFI (cfiCond136) V0 load(1, XDATA, add(CFA_XSP16, literal(-8)))
        CFI (cfiCond136) V1 load(1, XDATA, add(CFA_XSP16, literal(-7)))
        CFI (cfiCond136) R7 load(1, XDATA, add(CFA_XSP16, literal(-6)))
        CFI (cfiCond136) ?RET_LOW load(1, XDATA, add(CFA_XSP16, literal(-5)))
        CFI (cfiCond136) ?RET_HIGH load(1, XDATA, add(CFA_XSP16, literal(-4)))
        CFI (cfiCond136) ?BRET_EXT load(1, XDATA, add(CFA_XSP16, literal(-3)))
        CFI (cfiCond136) DPL0 load(1, XDATA, add(CFA_XSP16, literal(-2)))
        CFI (cfiCond136) DPH0 load(1, XDATA, add(CFA_XSP16, literal(-1)))
        CFI (cfiCond136) CFA_SP SP+0
        CFI (cfiCond136) CFA_XSP16 add(XSP16, 10)
        CFI Block cfiPicker137 Using cfiCommon1
        CFI (cfiPicker137) NoFunction
        CFI (cfiPicker137) Picker
        MOVX    @DPTR,A
        MOV     A,R6
        INC     DPTR
        MOVX    @DPTR,A
        ; Setup parameters for call to function AF_DataRequest
        ; Setup parameters for call to function AF_DataRequest
        MOV     ?V0 + 0,#0x1e
        MOV     R0,#?V0 + 0
        RET
        CFI EndBlock cfiCond135
        CFI EndBlock cfiCond136
        CFI EndBlock cfiPicker137
//  981 
//  982 /*******************************************************************************
//  983  * @fn      TransmitAPP_CallBack
//  984  *
//  985  * @brief   Send data OTA.
//  986  *
//  987  * @param   port - UART port.
//  988  * @param   event - the UART port event flag.
//  989  *
//  990  * @return  none
//  991  */

        RSEG BANKED_CODE:CODE:NOROOT(0)
//  992 void TransmitAPP_CallBack(uint8 port, uint8 event)
TransmitAPP_CallBack:
        CFI Block cfiBlock138 Using cfiCommon0
        CFI Function TransmitAPP_CallBack
        CODE
//  993 { 
        ; Saved register size: 0
        ; Auto size: 0
//  994 }
        LJMP    ?BRET
        CFI EndBlock cfiBlock138
//  995 
//  996 /*******************************************************************************
//  997 *******************************************************************************/
//  998 /*********************************************************************
//  999  * @fn      Smart_home_Display
// 1000  *
// 1001  * @brief   屏幕回显函数，定义了内容如何显示.
// 1002  *
// 1003  * @param   port - UART port.
// 1004  * @param   event - the UART port event flag.
// 1005  *
// 1006  * @return  none
// 1007  */

        RSEG BANKED_CODE:CODE:NOROOT(0)
// 1008 static void Smart_home_Display(void)
Smart_home_Display:
        CFI Block cfiBlock139 Using cfiCommon0
        CFI Function Smart_home_Display
        CODE
// 1009 {
        FUNCALL Smart_home_Display, HalLcdWriteString
        LOCFRAME ISTACK, 0, STACK
        LOCFRAME PSTACK, 0, STACK
        LOCFRAME XSTACK, 10, STACK
        LOCFRAME IOVERLAY, 0, STATIC
        LOCFRAME DOVERLAY, 0, STATIC
        ARGFRAME ISTACK, 0, STACK
        ARGFRAME PSTACK, 0, STACK
        ARGFRAME XSTACK, 10, STACK
        ARGFRAME IOVERLAY, 0, STATIC
        ARGFRAME DOVERLAY, 0, STATIC
        FUNCALL Smart_home_Display, HalLcdWriteString
        LOCFRAME ISTACK, 0, STACK
        LOCFRAME PSTACK, 0, STACK
        LOCFRAME XSTACK, 10, STACK
        LOCFRAME IOVERLAY, 0, STATIC
        LOCFRAME DOVERLAY, 0, STATIC
        ARGFRAME ISTACK, 0, STACK
        ARGFRAME PSTACK, 0, STACK
        ARGFRAME XSTACK, 10, STACK
        ARGFRAME IOVERLAY, 0, STATIC
        ARGFRAME DOVERLAY, 0, STATIC
        FUNCALL Smart_home_Display, HalLcdWriteString
        LOCFRAME ISTACK, 0, STACK
        LOCFRAME PSTACK, 0, STACK
        LOCFRAME XSTACK, 10, STACK
        LOCFRAME IOVERLAY, 0, STATIC
        LOCFRAME DOVERLAY, 0, STATIC
        ARGFRAME ISTACK, 0, STACK
        ARGFRAME PSTACK, 0, STACK
        ARGFRAME XSTACK, 10, STACK
        ARGFRAME IOVERLAY, 0, STATIC
        ARGFRAME DOVERLAY, 0, STATIC
        FUNCALL Smart_home_Display, HalLcdWriteStringValueValue
        LOCFRAME ISTACK, 0, STACK
        LOCFRAME PSTACK, 0, STACK
        LOCFRAME XSTACK, 16, STACK
        LOCFRAME IOVERLAY, 0, STATIC
        LOCFRAME DOVERLAY, 0, STATIC
        ARGFRAME ISTACK, 0, STACK
        ARGFRAME PSTACK, 0, STACK
        ARGFRAME XSTACK, 16, STACK
        ARGFRAME IOVERLAY, 0, STATIC
        ARGFRAME DOVERLAY, 0, STATIC
        FUNCALL Smart_home_Display, HalLcdWriteString
        LOCFRAME ISTACK, 0, STACK
        LOCFRAME PSTACK, 0, STACK
        LOCFRAME XSTACK, 10, STACK
        LOCFRAME IOVERLAY, 0, STATIC
        LOCFRAME DOVERLAY, 0, STATIC
        ARGFRAME ISTACK, 0, STACK
        ARGFRAME PSTACK, 0, STACK
        ARGFRAME XSTACK, 10, STACK
        ARGFRAME IOVERLAY, 0, STATIC
        ARGFRAME DOVERLAY, 0, STATIC
        FUNCALL Smart_home_Display, HalLcdWriteString
        LOCFRAME ISTACK, 0, STACK
        LOCFRAME PSTACK, 0, STACK
        LOCFRAME XSTACK, 10, STACK
        LOCFRAME IOVERLAY, 0, STATIC
        LOCFRAME DOVERLAY, 0, STATIC
        ARGFRAME ISTACK, 0, STACK
        ARGFRAME PSTACK, 0, STACK
        ARGFRAME XSTACK, 10, STACK
        ARGFRAME IOVERLAY, 0, STATIC
        ARGFRAME DOVERLAY, 0, STATIC
        FUNCALL Smart_home_Display, HalLcdWriteString
        LOCFRAME ISTACK, 0, STACK
        LOCFRAME PSTACK, 0, STACK
        LOCFRAME XSTACK, 10, STACK
        LOCFRAME IOVERLAY, 0, STATIC
        LOCFRAME DOVERLAY, 0, STATIC
        ARGFRAME ISTACK, 0, STACK
        ARGFRAME PSTACK, 0, STACK
        ARGFRAME XSTACK, 10, STACK
        ARGFRAME IOVERLAY, 0, STATIC
        ARGFRAME DOVERLAY, 0, STATIC
        FUNCALL Smart_home_Display, HalLcdWriteString
        LOCFRAME ISTACK, 0, STACK
        LOCFRAME PSTACK, 0, STACK
        LOCFRAME XSTACK, 10, STACK
        LOCFRAME IOVERLAY, 0, STATIC
        LOCFRAME DOVERLAY, 0, STATIC
        ARGFRAME ISTACK, 0, STACK
        ARGFRAME PSTACK, 0, STACK
        ARGFRAME XSTACK, 10, STACK
        ARGFRAME IOVERLAY, 0, STATIC
        ARGFRAME DOVERLAY, 0, STATIC
        FUNCALL Smart_home_Display, HalLcdDisplayPercentBar
        LOCFRAME ISTACK, 0, STACK
        LOCFRAME PSTACK, 0, STACK
        LOCFRAME XSTACK, 10, STACK
        LOCFRAME IOVERLAY, 0, STATIC
        LOCFRAME DOVERLAY, 0, STATIC
        ARGFRAME ISTACK, 0, STACK
        ARGFRAME PSTACK, 0, STACK
        ARGFRAME XSTACK, 10, STACK
        ARGFRAME IOVERLAY, 0, STATIC
        ARGFRAME DOVERLAY, 0, STATIC
        FUNCALL Smart_home_Display, memcpy
        LOCFRAME ISTACK, 0, STACK
        LOCFRAME PSTACK, 0, STACK
        LOCFRAME XSTACK, 12, STACK
        LOCFRAME IOVERLAY, 0, STATIC
        LOCFRAME DOVERLAY, 0, STATIC
        ARGFRAME ISTACK, 0, STACK
        ARGFRAME PSTACK, 0, STACK
        ARGFRAME XSTACK, 12, STACK
        ARGFRAME IOVERLAY, 0, STATIC
        ARGFRAME DOVERLAY, 0, STATIC
        FUNCALL Smart_home_Display, HalLcdWriteStringValueValue
        LOCFRAME ISTACK, 0, STACK
        LOCFRAME PSTACK, 0, STACK
        LOCFRAME XSTACK, 16, STACK
        LOCFRAME IOVERLAY, 0, STATIC
        LOCFRAME DOVERLAY, 0, STATIC
        ARGFRAME ISTACK, 0, STACK
        ARGFRAME PSTACK, 0, STACK
        ARGFRAME XSTACK, 16, STACK
        ARGFRAME IOVERLAY, 0, STATIC
        ARGFRAME DOVERLAY, 0, STATIC
        FUNCALL Smart_home_Display, HalLcdWriteStringValue
        LOCFRAME ISTACK, 0, STACK
        LOCFRAME PSTACK, 0, STACK
        LOCFRAME XSTACK, 11, STACK
        LOCFRAME IOVERLAY, 0, STATIC
        LOCFRAME DOVERLAY, 0, STATIC
        ARGFRAME ISTACK, 0, STACK
        ARGFRAME PSTACK, 0, STACK
        ARGFRAME XSTACK, 11, STACK
        ARGFRAME IOVERLAY, 0, STATIC
        ARGFRAME DOVERLAY, 0, STATIC
        FUNCALL Smart_home_Display, osal_msg_deallocate
        LOCFRAME ISTACK, 0, STACK
        LOCFRAME PSTACK, 0, STACK
        LOCFRAME XSTACK, 10, STACK
        LOCFRAME IOVERLAY, 0, STATIC
        LOCFRAME DOVERLAY, 0, STATIC
        ARGFRAME ISTACK, 0, STACK
        ARGFRAME PSTACK, 0, STACK
        ARGFRAME XSTACK, 10, STACK
        ARGFRAME IOVERLAY, 0, STATIC
        ARGFRAME DOVERLAY, 0, STATIC
        FUNCALL Smart_home_Display, HalLcdWriteString
        LOCFRAME ISTACK, 0, STACK
        LOCFRAME PSTACK, 0, STACK
        LOCFRAME XSTACK, 10, STACK
        LOCFRAME IOVERLAY, 0, STATIC
        LOCFRAME DOVERLAY, 0, STATIC
        ARGFRAME ISTACK, 0, STACK
        ARGFRAME PSTACK, 0, STACK
        ARGFRAME XSTACK, 10, STACK
        ARGFRAME IOVERLAY, 0, STATIC
        ARGFRAME DOVERLAY, 0, STATIC
        FUNCALL Smart_home_Display, HalLcdWriteString
        LOCFRAME ISTACK, 0, STACK
        LOCFRAME PSTACK, 0, STACK
        LOCFRAME XSTACK, 10, STACK
        LOCFRAME IOVERLAY, 0, STATIC
        LOCFRAME DOVERLAY, 0, STATIC
        ARGFRAME ISTACK, 0, STACK
        ARGFRAME PSTACK, 0, STACK
        ARGFRAME XSTACK, 10, STACK
        ARGFRAME IOVERLAY, 0, STATIC
        ARGFRAME DOVERLAY, 0, STATIC
        FUNCALL Smart_home_Display, HalLcdDisplayPercentBar
        LOCFRAME ISTACK, 0, STACK
        LOCFRAME PSTACK, 0, STACK
        LOCFRAME XSTACK, 10, STACK
        LOCFRAME IOVERLAY, 0, STATIC
        LOCFRAME DOVERLAY, 0, STATIC
        ARGFRAME ISTACK, 0, STACK
        ARGFRAME PSTACK, 0, STACK
        ARGFRAME XSTACK, 10, STACK
        ARGFRAME IOVERLAY, 0, STATIC
        ARGFRAME DOVERLAY, 0, STATIC
        FUNCALL Smart_home_Display, HalLcdWriteString
        LOCFRAME ISTACK, 0, STACK
        LOCFRAME PSTACK, 0, STACK
        LOCFRAME XSTACK, 10, STACK
        LOCFRAME IOVERLAY, 0, STATIC
        LOCFRAME DOVERLAY, 0, STATIC
        ARGFRAME ISTACK, 0, STACK
        ARGFRAME PSTACK, 0, STACK
        ARGFRAME XSTACK, 10, STACK
        ARGFRAME IOVERLAY, 0, STATIC
        ARGFRAME DOVERLAY, 0, STATIC
        FUNCALL Smart_home_Display, HalLcdWriteString
        LOCFRAME ISTACK, 0, STACK
        LOCFRAME PSTACK, 0, STACK
        LOCFRAME XSTACK, 10, STACK
        LOCFRAME IOVERLAY, 0, STATIC
        LOCFRAME DOVERLAY, 0, STATIC
        ARGFRAME ISTACK, 0, STACK
        ARGFRAME PSTACK, 0, STACK
        ARGFRAME XSTACK, 10, STACK
        ARGFRAME IOVERLAY, 0, STATIC
        ARGFRAME DOVERLAY, 0, STATIC
        FUNCALL Smart_home_Display, HalLcdWriteString
        LOCFRAME ISTACK, 0, STACK
        LOCFRAME PSTACK, 0, STACK
        LOCFRAME XSTACK, 10, STACK
        LOCFRAME IOVERLAY, 0, STATIC
        LOCFRAME DOVERLAY, 0, STATIC
        ARGFRAME ISTACK, 0, STACK
        ARGFRAME PSTACK, 0, STACK
        ARGFRAME XSTACK, 10, STACK
        ARGFRAME IOVERLAY, 0, STATIC
        ARGFRAME DOVERLAY, 0, STATIC
        FUNCALL Smart_home_Display, HalLcdWriteString
        LOCFRAME ISTACK, 0, STACK
        LOCFRAME PSTACK, 0, STACK
        LOCFRAME XSTACK, 10, STACK
        LOCFRAME IOVERLAY, 0, STATIC
        LOCFRAME DOVERLAY, 0, STATIC
        ARGFRAME ISTACK, 0, STACK
        ARGFRAME PSTACK, 0, STACK
        ARGFRAME XSTACK, 10, STACK
        ARGFRAME IOVERLAY, 0, STATIC
        ARGFRAME DOVERLAY, 0, STATIC
        FUNCALL Smart_home_Display, HalLcdWriteString
        LOCFRAME ISTACK, 0, STACK
        LOCFRAME PSTACK, 0, STACK
        LOCFRAME XSTACK, 10, STACK
        LOCFRAME IOVERLAY, 0, STATIC
        LOCFRAME DOVERLAY, 0, STATIC
        ARGFRAME ISTACK, 0, STACK
        ARGFRAME PSTACK, 0, STACK
        ARGFRAME XSTACK, 10, STACK
        ARGFRAME IOVERLAY, 0, STATIC
        ARGFRAME DOVERLAY, 0, STATIC
        FUNCALL Smart_home_Display, HalLcdWriteString
        LOCFRAME ISTACK, 0, STACK
        LOCFRAME PSTACK, 0, STACK
        LOCFRAME XSTACK, 10, STACK
        LOCFRAME IOVERLAY, 0, STATIC
        LOCFRAME DOVERLAY, 0, STATIC
        ARGFRAME ISTACK, 0, STACK
        ARGFRAME PSTACK, 0, STACK
        ARGFRAME XSTACK, 10, STACK
        ARGFRAME IOVERLAY, 0, STATIC
        ARGFRAME DOVERLAY, 0, STATIC
        FUNCALL Smart_home_Display, HalLcdWriteStringValueValue
        LOCFRAME ISTACK, 0, STACK
        LOCFRAME PSTACK, 0, STACK
        LOCFRAME XSTACK, 16, STACK
        LOCFRAME IOVERLAY, 0, STATIC
        LOCFRAME DOVERLAY, 0, STATIC
        ARGFRAME ISTACK, 0, STACK
        ARGFRAME PSTACK, 0, STACK
        ARGFRAME XSTACK, 16, STACK
        ARGFRAME IOVERLAY, 0, STATIC
        ARGFRAME DOVERLAY, 0, STATIC
        FUNCALL Smart_home_Display, HalLcdDisplayPercentBar
        LOCFRAME ISTACK, 0, STACK
        LOCFRAME PSTACK, 0, STACK
        LOCFRAME XSTACK, 10, STACK
        LOCFRAME IOVERLAY, 0, STATIC
        LOCFRAME DOVERLAY, 0, STATIC
        ARGFRAME ISTACK, 0, STACK
        ARGFRAME PSTACK, 0, STACK
        ARGFRAME XSTACK, 10, STACK
        ARGFRAME IOVERLAY, 0, STATIC
        ARGFRAME DOVERLAY, 0, STATIC
        FUNCALL Smart_home_Display, osal_msg_deallocate
        LOCFRAME ISTACK, 0, STACK
        LOCFRAME PSTACK, 0, STACK
        LOCFRAME XSTACK, 10, STACK
        LOCFRAME IOVERLAY, 0, STATIC
        LOCFRAME DOVERLAY, 0, STATIC
        ARGFRAME ISTACK, 0, STACK
        ARGFRAME PSTACK, 0, STACK
        ARGFRAME XSTACK, 10, STACK
        ARGFRAME IOVERLAY, 0, STATIC
        ARGFRAME DOVERLAY, 0, STATIC
        FUNCALL Smart_home_Display, osal_msg_deallocate
        LOCFRAME ISTACK, 0, STACK
        LOCFRAME PSTACK, 0, STACK
        LOCFRAME XSTACK, 10, STACK
        LOCFRAME IOVERLAY, 0, STATIC
        LOCFRAME DOVERLAY, 0, STATIC
        ARGFRAME ISTACK, 0, STACK
        ARGFRAME PSTACK, 0, STACK
        ARGFRAME XSTACK, 10, STACK
        ARGFRAME IOVERLAY, 0, STATIC
        ARGFRAME DOVERLAY, 0, STATIC
        FUNCALL Smart_home_Display, HalLcdWriteString
        LOCFRAME ISTACK, 0, STACK
        LOCFRAME PSTACK, 0, STACK
        LOCFRAME XSTACK, 10, STACK
        LOCFRAME IOVERLAY, 0, STATIC
        LOCFRAME DOVERLAY, 0, STATIC
        ARGFRAME ISTACK, 0, STACK
        ARGFRAME PSTACK, 0, STACK
        ARGFRAME XSTACK, 10, STACK
        ARGFRAME IOVERLAY, 0, STATIC
        ARGFRAME DOVERLAY, 0, STATIC
        FUNCALL Smart_home_Display, HalLcdWriteString
        LOCFRAME ISTACK, 0, STACK
        LOCFRAME PSTACK, 0, STACK
        LOCFRAME XSTACK, 10, STACK
        LOCFRAME IOVERLAY, 0, STATIC
        LOCFRAME DOVERLAY, 0, STATIC
        ARGFRAME ISTACK, 0, STACK
        ARGFRAME PSTACK, 0, STACK
        ARGFRAME XSTACK, 10, STACK
        ARGFRAME IOVERLAY, 0, STATIC
        ARGFRAME DOVERLAY, 0, STATIC
        FUNCALL Smart_home_Display, HalLcdWriteString
        LOCFRAME ISTACK, 0, STACK
        LOCFRAME PSTACK, 0, STACK
        LOCFRAME XSTACK, 10, STACK
        LOCFRAME IOVERLAY, 0, STATIC
        LOCFRAME DOVERLAY, 0, STATIC
        ARGFRAME ISTACK, 0, STACK
        ARGFRAME PSTACK, 0, STACK
        ARGFRAME XSTACK, 10, STACK
        ARGFRAME IOVERLAY, 0, STATIC
        ARGFRAME DOVERLAY, 0, STATIC
        FUNCALL Smart_home_Display, HalLcdWriteString
        LOCFRAME ISTACK, 0, STACK
        LOCFRAME PSTACK, 0, STACK
        LOCFRAME XSTACK, 10, STACK
        LOCFRAME IOVERLAY, 0, STATIC
        LOCFRAME DOVERLAY, 0, STATIC
        ARGFRAME ISTACK, 0, STACK
        ARGFRAME PSTACK, 0, STACK
        ARGFRAME XSTACK, 10, STACK
        ARGFRAME IOVERLAY, 0, STATIC
        ARGFRAME DOVERLAY, 0, STATIC
        FUNCALL Smart_home_Display, HalLcdWriteString
        LOCFRAME ISTACK, 0, STACK
        LOCFRAME PSTACK, 0, STACK
        LOCFRAME XSTACK, 10, STACK
        LOCFRAME IOVERLAY, 0, STATIC
        LOCFRAME DOVERLAY, 0, STATIC
        ARGFRAME ISTACK, 0, STACK
        ARGFRAME PSTACK, 0, STACK
        ARGFRAME XSTACK, 10, STACK
        ARGFRAME IOVERLAY, 0, STATIC
        ARGFRAME DOVERLAY, 0, STATIC
        FUNCALL Smart_home_Display, HalLcdWriteString
        LOCFRAME ISTACK, 0, STACK
        LOCFRAME PSTACK, 0, STACK
        LOCFRAME XSTACK, 10, STACK
        LOCFRAME IOVERLAY, 0, STATIC
        LOCFRAME DOVERLAY, 0, STATIC
        ARGFRAME ISTACK, 0, STACK
        ARGFRAME PSTACK, 0, STACK
        ARGFRAME XSTACK, 10, STACK
        ARGFRAME IOVERLAY, 0, STATIC
        ARGFRAME DOVERLAY, 0, STATIC
        FUNCALL Smart_home_Display, HalLcdDisplayPercentBar
        LOCFRAME ISTACK, 0, STACK
        LOCFRAME PSTACK, 0, STACK
        LOCFRAME XSTACK, 10, STACK
        LOCFRAME IOVERLAY, 0, STATIC
        LOCFRAME DOVERLAY, 0, STATIC
        ARGFRAME ISTACK, 0, STACK
        ARGFRAME PSTACK, 0, STACK
        ARGFRAME XSTACK, 10, STACK
        ARGFRAME IOVERLAY, 0, STATIC
        ARGFRAME DOVERLAY, 0, STATIC
        FUNCALL Smart_home_Display, HalLcdWriteString
        LOCFRAME ISTACK, 0, STACK
        LOCFRAME PSTACK, 0, STACK
        LOCFRAME XSTACK, 10, STACK
        LOCFRAME IOVERLAY, 0, STATIC
        LOCFRAME DOVERLAY, 0, STATIC
        ARGFRAME ISTACK, 0, STACK
        ARGFRAME PSTACK, 0, STACK
        ARGFRAME XSTACK, 10, STACK
        ARGFRAME IOVERLAY, 0, STATIC
        ARGFRAME DOVERLAY, 0, STATIC
        FUNCALL Smart_home_Display, HalLcdWriteString
        LOCFRAME ISTACK, 0, STACK
        LOCFRAME PSTACK, 0, STACK
        LOCFRAME XSTACK, 10, STACK
        LOCFRAME IOVERLAY, 0, STATIC
        LOCFRAME DOVERLAY, 0, STATIC
        ARGFRAME ISTACK, 0, STACK
        ARGFRAME PSTACK, 0, STACK
        ARGFRAME XSTACK, 10, STACK
        ARGFRAME IOVERLAY, 0, STATIC
        ARGFRAME DOVERLAY, 0, STATIC
        FUNCALL Smart_home_Display, HalLcdWriteString
        LOCFRAME ISTACK, 0, STACK
        LOCFRAME PSTACK, 0, STACK
        LOCFRAME XSTACK, 10, STACK
        LOCFRAME IOVERLAY, 0, STATIC
        LOCFRAME DOVERLAY, 0, STATIC
        ARGFRAME ISTACK, 0, STACK
        ARGFRAME PSTACK, 0, STACK
        ARGFRAME XSTACK, 10, STACK
        ARGFRAME IOVERLAY, 0, STATIC
        ARGFRAME DOVERLAY, 0, STATIC
        FUNCALL Smart_home_Display, HalLcdWriteString
        LOCFRAME ISTACK, 0, STACK
        LOCFRAME PSTACK, 0, STACK
        LOCFRAME XSTACK, 10, STACK
        LOCFRAME IOVERLAY, 0, STATIC
        LOCFRAME DOVERLAY, 0, STATIC
        ARGFRAME ISTACK, 0, STACK
        ARGFRAME PSTACK, 0, STACK
        ARGFRAME XSTACK, 10, STACK
        ARGFRAME IOVERLAY, 0, STATIC
        ARGFRAME DOVERLAY, 0, STATIC
        FUNCALL Smart_home_Display, HalLcdWriteString
        LOCFRAME ISTACK, 0, STACK
        LOCFRAME PSTACK, 0, STACK
        LOCFRAME XSTACK, 10, STACK
        LOCFRAME IOVERLAY, 0, STATIC
        LOCFRAME DOVERLAY, 0, STATIC
        ARGFRAME ISTACK, 0, STACK
        ARGFRAME PSTACK, 0, STACK
        ARGFRAME XSTACK, 10, STACK
        ARGFRAME IOVERLAY, 0, STATIC
        ARGFRAME DOVERLAY, 0, STATIC
        FUNCALL Smart_home_Display, HalLcdWriteString
        LOCFRAME ISTACK, 0, STACK
        LOCFRAME PSTACK, 0, STACK
        LOCFRAME XSTACK, 10, STACK
        LOCFRAME IOVERLAY, 0, STATIC
        LOCFRAME DOVERLAY, 0, STATIC
        ARGFRAME ISTACK, 0, STACK
        ARGFRAME PSTACK, 0, STACK
        ARGFRAME XSTACK, 10, STACK
        ARGFRAME IOVERLAY, 0, STATIC
        ARGFRAME DOVERLAY, 0, STATIC
        FUNCALL Smart_home_Display, HalLcdWriteString
        LOCFRAME ISTACK, 0, STACK
        LOCFRAME PSTACK, 0, STACK
        LOCFRAME XSTACK, 10, STACK
        LOCFRAME IOVERLAY, 0, STATIC
        LOCFRAME DOVERLAY, 0, STATIC
        ARGFRAME ISTACK, 0, STACK
        ARGFRAME PSTACK, 0, STACK
        ARGFRAME XSTACK, 10, STACK
        ARGFRAME IOVERLAY, 0, STATIC
        ARGFRAME DOVERLAY, 0, STATIC
        FUNCALL Smart_home_Display, HalLcdWriteString
        LOCFRAME ISTACK, 0, STACK
        LOCFRAME PSTACK, 0, STACK
        LOCFRAME XSTACK, 10, STACK
        LOCFRAME IOVERLAY, 0, STATIC
        LOCFRAME DOVERLAY, 0, STATIC
        ARGFRAME ISTACK, 0, STACK
        ARGFRAME PSTACK, 0, STACK
        ARGFRAME XSTACK, 10, STACK
        ARGFRAME IOVERLAY, 0, STATIC
        ARGFRAME DOVERLAY, 0, STATIC
        FUNCALL Smart_home_Display, HalLcdWriteString
        LOCFRAME ISTACK, 0, STACK
        LOCFRAME PSTACK, 0, STACK
        LOCFRAME XSTACK, 10, STACK
        LOCFRAME IOVERLAY, 0, STATIC
        LOCFRAME DOVERLAY, 0, STATIC
        ARGFRAME ISTACK, 0, STACK
        ARGFRAME PSTACK, 0, STACK
        ARGFRAME XSTACK, 10, STACK
        ARGFRAME IOVERLAY, 0, STATIC
        ARGFRAME DOVERLAY, 0, STATIC
        FUNCALL Smart_home_Display, HalLcdWriteString
        LOCFRAME ISTACK, 0, STACK
        LOCFRAME PSTACK, 0, STACK
        LOCFRAME XSTACK, 10, STACK
        LOCFRAME IOVERLAY, 0, STATIC
        LOCFRAME DOVERLAY, 0, STATIC
        ARGFRAME ISTACK, 0, STACK
        ARGFRAME PSTACK, 0, STACK
        ARGFRAME XSTACK, 10, STACK
        ARGFRAME IOVERLAY, 0, STATIC
        ARGFRAME DOVERLAY, 0, STATIC
        FUNCALL Smart_home_Display, HalLcdWriteString
        LOCFRAME ISTACK, 0, STACK
        LOCFRAME PSTACK, 0, STACK
        LOCFRAME XSTACK, 10, STACK
        LOCFRAME IOVERLAY, 0, STATIC
        LOCFRAME DOVERLAY, 0, STATIC
        ARGFRAME ISTACK, 0, STACK
        ARGFRAME PSTACK, 0, STACK
        ARGFRAME XSTACK, 10, STACK
        ARGFRAME IOVERLAY, 0, STATIC
        ARGFRAME DOVERLAY, 0, STATIC
        FUNCALL Smart_home_Display, HalLcdWriteString
        LOCFRAME ISTACK, 0, STACK
        LOCFRAME PSTACK, 0, STACK
        LOCFRAME XSTACK, 10, STACK
        LOCFRAME IOVERLAY, 0, STATIC
        LOCFRAME DOVERLAY, 0, STATIC
        ARGFRAME ISTACK, 0, STACK
        ARGFRAME PSTACK, 0, STACK
        ARGFRAME XSTACK, 10, STACK
        ARGFRAME IOVERLAY, 0, STATIC
        ARGFRAME DOVERLAY, 0, STATIC
        FUNCALL Smart_home_Display, HalLcdWriteString
        LOCFRAME ISTACK, 0, STACK
        LOCFRAME PSTACK, 0, STACK
        LOCFRAME XSTACK, 10, STACK
        LOCFRAME IOVERLAY, 0, STATIC
        LOCFRAME DOVERLAY, 0, STATIC
        ARGFRAME ISTACK, 0, STACK
        ARGFRAME PSTACK, 0, STACK
        ARGFRAME XSTACK, 10, STACK
        ARGFRAME IOVERLAY, 0, STATIC
        ARGFRAME DOVERLAY, 0, STATIC
        FUNCALL Smart_home_Display, HalLcdWriteString
        LOCFRAME ISTACK, 0, STACK
        LOCFRAME PSTACK, 0, STACK
        LOCFRAME XSTACK, 10, STACK
        LOCFRAME IOVERLAY, 0, STATIC
        LOCFRAME DOVERLAY, 0, STATIC
        ARGFRAME ISTACK, 0, STACK
        ARGFRAME PSTACK, 0, STACK
        ARGFRAME XSTACK, 10, STACK
        ARGFRAME IOVERLAY, 0, STATIC
        ARGFRAME DOVERLAY, 0, STATIC
        FUNCALL Smart_home_Display, HalLcdWriteString
        LOCFRAME ISTACK, 0, STACK
        LOCFRAME PSTACK, 0, STACK
        LOCFRAME XSTACK, 10, STACK
        LOCFRAME IOVERLAY, 0, STATIC
        LOCFRAME DOVERLAY, 0, STATIC
        ARGFRAME ISTACK, 0, STACK
        ARGFRAME PSTACK, 0, STACK
        ARGFRAME XSTACK, 10, STACK
        ARGFRAME IOVERLAY, 0, STATIC
        ARGFRAME DOVERLAY, 0, STATIC
        FUNCALL Smart_home_Display, HalLcdWriteString
        LOCFRAME ISTACK, 0, STACK
        LOCFRAME PSTACK, 0, STACK
        LOCFRAME XSTACK, 10, STACK
        LOCFRAME IOVERLAY, 0, STATIC
        LOCFRAME DOVERLAY, 0, STATIC
        ARGFRAME ISTACK, 0, STACK
        ARGFRAME PSTACK, 0, STACK
        ARGFRAME XSTACK, 10, STACK
        ARGFRAME IOVERLAY, 0, STATIC
        ARGFRAME DOVERLAY, 0, STATIC
        FUNCALL Smart_home_Display, HalLcdWriteString
        LOCFRAME ISTACK, 0, STACK
        LOCFRAME PSTACK, 0, STACK
        LOCFRAME XSTACK, 10, STACK
        LOCFRAME IOVERLAY, 0, STATIC
        LOCFRAME DOVERLAY, 0, STATIC
        ARGFRAME ISTACK, 0, STACK
        ARGFRAME PSTACK, 0, STACK
        ARGFRAME XSTACK, 10, STACK
        ARGFRAME IOVERLAY, 0, STATIC
        ARGFRAME DOVERLAY, 0, STATIC
        FUNCALL Smart_home_Display, HalLcdWriteStringValue
        LOCFRAME ISTACK, 0, STACK
        LOCFRAME PSTACK, 0, STACK
        LOCFRAME XSTACK, 11, STACK
        LOCFRAME IOVERLAY, 0, STATIC
        LOCFRAME DOVERLAY, 0, STATIC
        ARGFRAME ISTACK, 0, STACK
        ARGFRAME PSTACK, 0, STACK
        ARGFRAME XSTACK, 11, STACK
        ARGFRAME IOVERLAY, 0, STATIC
        ARGFRAME DOVERLAY, 0, STATIC
        MOV     A,#-0xa
        LCALL   ?BANKED_ENTER_XDATA
        CFI DPH0 load(1, XDATA, add(CFA_XSP16, literal(-1)))
        CFI DPL0 load(1, XDATA, add(CFA_XSP16, literal(-2)))
        CFI ?BRET_EXT load(1, XDATA, add(CFA_XSP16, literal(-3)))
        CFI ?RET_HIGH load(1, XDATA, add(CFA_XSP16, literal(-4)))
        CFI ?RET_LOW load(1, XDATA, add(CFA_XSP16, literal(-5)))
        CFI R7 load(1, XDATA, add(CFA_XSP16, literal(-6)))
        CFI V1 load(1, XDATA, add(CFA_XSP16, literal(-7)))
        CFI V0 load(1, XDATA, add(CFA_XSP16, literal(-8)))
        CFI VB load(1, XDATA, add(CFA_XSP16, literal(-9)))
        CFI R6 load(1, XDATA, add(CFA_XSP16, literal(-10)))
        CFI CFA_SP SP+0
        CFI CFA_XSP16 add(XSP16, 10)
        ; Saved register size: 10
        ; Auto size: 0
// 1010 #if defined LCD_SUPPORTED
// 1011   static uint8 percent;
// 1012   switch(Ctrlcase)
        MOV     DPTR,#Ctrlcase
        MOVX    A,@DPTR
        DEC     A
        JNZ     $+5
        LJMP    ??Smart_home_Display_0 & 0xFFFF
        DEC     A
        JNZ     $+5
        LJMP    ??Smart_home_Display_1 & 0xFFFF
// 1013   {
// 1014     default:    
// 1015     case 0:
// 1016       HalLcdWriteString( "      Menu      ", HAL_LCD_LINE_1 );
        ; Setup parameters for call to function HalLcdWriteString
        MOV     R1,#0x1
        MOV     R2,#`?<Constant "      Menu      ">` & 0xff
        MOV     R3,#(`?<Constant "      Menu      ">` >> 8) & 0xff
        LCALL   ?Subroutine23 & 0xFFFF
// 1017       //HalLcdWriteString( "Flip use UP/DOWN", HAL_LCD_LINE_4 ); 
// 1018       //清除屏幕显示
// 1019       HalLcdWriteString( " ", HAL_LCD_LINE_2 ); 
// 1020       HalLcdWriteString( " ", HAL_LCD_LINE_3 );
// 1021       
// 1022       switch(LCD_Page)
??CrossCallReturnLabel_53:
        MOV     DPTR,#LCD_Page
        MOVX    A,@DPTR
        DEC     A
        JNZ     $+5
        LJMP    ??Smart_home_Display_2 & 0xFFFF
        DEC     A
        JNZ     $+5
        LJMP    ??Smart_home_Display_3 & 0xFFFF
        DEC     A
        JNZ     $+5
        LJMP    ??Smart_home_Display_4 & 0xFFFF
// 1023       {
// 1024         default:
// 1025         case 0:
// 1026         { 
// 1027           //DeviceInfo* Devhum = &DeviceList[Humit];
// 1028           //DeviceInfo* DevSound = &DeviceList[soundVb];
// 1029           //第一页第二行显示温度
// 1030           //      第三行显示光照
// 1031           if(Humit.deviceStatus != DEVICE_OFFLINE)
        MOV     DPTR,#Humit
        MOVX    A,@DPTR
        XRL     A,#0x2
        JZ      ??Smart_home_Display_5
// 1032           {    
// 1033               HalLcdWriteStringValueValue( "Hum:", Humit.data[0], 10, "% T_1:", Humit.data[1], 10, HAL_LCD_LINE_2 );
        ; Setup parameters for call to function HalLcdWriteStringValueValue
        MOV     ?V0 + 0,#0x2
        MOV     R0,#?V0 + 0
        LCALL   ?PUSH_XSTACK_I_ONE
        CFI CFA_XSP16 add(XSP16, 11)
        MOV     ?V0 + 0,#0xa
        MOV     R0,#?V0 + 0
        LCALL   ?PUSH_XSTACK_I_ONE
        CFI CFA_XSP16 add(XSP16, 12)
        MOV     DPTR,#Humit + 2
        MOVX    A,@DPTR
        MOV     ?V0 + 0,A
        MOV     ?V0 + 1,#0x0
        MOV     R0,#?V0 + 0
        LCALL   ?PUSH_XSTACK_I_TWO
        CFI CFA_XSP16 add(XSP16, 14)
        MOV     ?V0 + 0,#`?<Constant "% T_1:">` & 0xff
        MOV     ?V0 + 1,#(`?<Constant "% T_1:">` >> 8) & 0xff
        MOV     R0,#?V0 + 0
        LCALL   ?PUSH_XSTACK_I_TWO
        CFI CFA_XSP16 add(XSP16, 16)
        MOV     R1,#0xa
        MOV     DPTR,#Humit + 1
        MOVX    A,@DPTR
        MOV     R4,A
        MOV     R5,#0x0
        MOV     R2,#`?<Constant "Hum:">` & 0xff
        MOV     R3,#(`?<Constant "Hum:">` >> 8) & 0xff
        LCALL   ??HalLcdWriteStringValueValue?relay
        MOV     A,#0x6
        LCALL   ?DEALLOC_XSTACK8
        CFI CFA_XSP16 add(XSP16, 10)
        SJMP    ??Smart_home_Display_6
// 1034           }
// 1035           else
// 1036           {
// 1037               HalLcdWriteString( "Hum:OFF T_1:OFF", HAL_LCD_LINE_2 ); 
??Smart_home_Display_5:
        ; Setup parameters for call to function HalLcdWriteString
        MOV     R1,#0x2
        MOV     R2,#`?<Constant "Hum:OFF T_1:OFF">` & 0xff
        MOV     R3,#(`?<Constant "Hum:OFF T_1:OFF">` >> 8) & 0xff
        LCALL   ??HalLcdWriteString?relay
// 1038           }
// 1039           
// 1040           
// 1041           if(soundVb.deviceStatus  != DEVICE_OFFLINE)
??Smart_home_Display_6:
        MOV     DPTR,#soundVb
        MOVX    A,@DPTR
        XRL     A,#0x2
        JZ      ??Smart_home_Display_7
// 1042           {    
// 1043               if(soundVb.data[0] & 0x01 == 0x01) { HalLcdWriteString( "Sound: Voice", HAL_LCD_LINE_3 ); }
        INC     DPTR
        MOVX    A,@DPTR
        MOV     C,0xE0 /* A   */.0
        MOV     R1,#0x3
        JNC     ??Smart_home_Display_8
        ; Setup parameters for call to function HalLcdWriteString
        MOV     R2,#`?<Constant "Sound: Voice">` & 0xff
        MOV     R3,#(`?<Constant "Sound: Voice">` >> 8) & 0xff
        SJMP    ??Smart_home_Display_9
// 1044               else if(soundVb.data[0] & 0x02 == 0x02) { HalLcdWriteString( "Sound: Vibration", HAL_LCD_LINE_3 ); }
// 1045               else if(soundVb.data[0] & 0x03 == 0x03) { HalLcdWriteString( "Sound: All", HAL_LCD_LINE_3 ); }
// 1046               else {HalLcdWriteString( "Sound: None", HAL_LCD_LINE_3 );}
??Smart_home_Display_8:
        ; Setup parameters for call to function HalLcdWriteString
        MOV     R2,#`?<Constant "Sound: None">` & 0xff
        MOV     R3,#(`?<Constant "Sound: None">` >> 8) & 0xff
        SJMP    ??Smart_home_Display_9
// 1047           }
// 1048           else
// 1049           {
// 1050               HalLcdWriteString( "Sound:OFFLINE", HAL_LCD_LINE_3 ); 
??Smart_home_Display_7:
        ; Setup parameters for call to function HalLcdWriteString
        MOV     R1,#0x3
        MOV     R2,#`?<Constant "Sound:OFFLINE">` & 0xff
        MOV     R3,#(`?<Constant "Sound:OFFLINE">` >> 8) & 0xff
??Smart_home_Display_9:
        LCALL   ??HalLcdWriteString?relay
// 1051           }
// 1052        
// 1053           //HalLcdWriteStringValue( "Sound:", SoundVb, 16, HAL_LCD_LINE_3 );
// 1054           
// 1055           
// 1056           //显示最下面的百分比条
// 1057           percent = (1 * 100) / LCD_PAGE_MAX;
        MOV     DPTR,#??percent
        MOV     A,#0x19
??Smart_home_Display_10:
        LCALL   ?Subroutine11 & 0xFFFF
// 1058           HalLcdDisplayPercentBar("",percent);
// 1059           break;
??CrossCallReturnLabel_24:
        LJMP    ??Smart_home_Display_11 & 0xFFFF
// 1060         }
// 1061         case 1:
// 1062         {
// 1063           //第二页只有光照
// 1064           //第一页第二行显示温度
// 1065           //      第三行显示光照
// 1066           //DeviceInfo* Devtmp = &DeviceList[TempLight];
// 1067           if(TempLight.deviceStatus  != DEVICE_OFFLINE)
??Smart_home_Display_2:
        MOV     DPTR,#TempLight
        MOVX    A,@DPTR
        XRL     A,#0x2
        JNZ     $+5
        LJMP    ??Smart_home_Display_12 & 0xFFFF
// 1068           {    
// 1069               static uint16 Light;
// 1070               static uint8 lightmp;
// 1071           
// 1072 
// 1073               lightmp = TempLight.data[3];
        MOV     DPTR,#TempLight + 4
        MOVX    A,@DPTR
        MOV     DPTR,#??lightmp
        MOVX    @DPTR,A
// 1074               Light = (uint16)TempLight.data[4];
        MOV     DPTR,#TempLight + 5
        MOVX    A,@DPTR
        MOV     DPTR,#??Light
        LCALL   ??Subroutine35_0 & 0xFFFF
// 1075               memcpy(&Light,&lightmp,sizeof(lightmp));
??CrossCallReturnLabel_86:
        ; Setup parameters for call to function memcpy
        MOV     ?V0 + 0,#0x1
        MOV     ?V0 + 1,A
        MOV     R0,#?V0 + 0
        LCALL   ?PUSH_XSTACK_I_TWO
        CFI CFA_XSP16 add(XSP16, 12)
        MOV     R4,#??lightmp & 0xff
        MOV     R5,#(??lightmp >> 8) & 0xff
        MOV     R2,#??Light & 0xff
        MOV     R3,#(??Light >> 8) & 0xff
        LCALL   ??memcpy?relay
        MOV     A,#0x2
        LCALL   ?DEALLOC_XSTACK8
        CFI CFA_XSP16 add(XSP16, 10)
// 1076           
// 1077               HalLcdWriteStringValueValue( "Temper_2:", TempLight.data[0], 10, ".", TempLight.data[1], 10, HAL_LCD_LINE_2 );
        ; Setup parameters for call to function HalLcdWriteStringValueValue
        MOV     ?V0 + 0,#0x2
        MOV     R0,#?V0 + 0
        LCALL   ?PUSH_XSTACK_I_ONE
        CFI CFA_XSP16 add(XSP16, 11)
        MOV     ?V0 + 0,#0xa
        MOV     R0,#?V0 + 0
        LCALL   ?PUSH_XSTACK_I_ONE
        CFI CFA_XSP16 add(XSP16, 12)
        MOV     DPTR,#TempLight + 2
        MOVX    A,@DPTR
        MOV     ?V0 + 0,A
        MOV     R0,#?V0 + 0
        LCALL   ?PUSH_XSTACK_I_TWO
        CFI CFA_XSP16 add(XSP16, 14)
        MOV     ?V0 + 0,#`?<Constant ".">` & 0xff
        MOV     ?V0 + 1,#(`?<Constant ".">` >> 8) & 0xff
        MOV     R0,#?V0 + 0
        LCALL   ?PUSH_XSTACK_I_TWO
        CFI CFA_XSP16 add(XSP16, 16)
        MOV     R1,#0xa
        MOV     DPTR,#TempLight + 1
        MOVX    A,@DPTR
        MOV     R4,A
        MOV     R5,#0x0
        MOV     R2,#`?<Constant "Temper_2:">` & 0xff
        MOV     R3,#(`?<Constant "Temper_2:">` >> 8) & 0xff
        LCALL   ??HalLcdWriteStringValueValue?relay
        MOV     A,#0x6
        LCALL   ?DEALLOC_XSTACK8
        CFI CFA_XSP16 add(XSP16, 10)
// 1078               HalLcdWriteStringValue( "Light:", Light, 10, HAL_LCD_LINE_3 );
        ; Setup parameters for call to function HalLcdWriteStringValue
        MOV     ?V0 + 0,#0x3
        MOV     R0,#?V0 + 0
        LCALL   ?PUSH_XSTACK_I_ONE
        CFI CFA_XSP16 add(XSP16, 11)
        MOV     R1,#0xa
        MOV     DPTR,#??Light
        MOVX    A,@DPTR
        MOV     R4,A
        INC     DPTR
        MOVX    A,@DPTR
        MOV     R5,A
        MOV     R2,#`?<Constant "Light:">` & 0xff
        MOV     R3,#(`?<Constant "Light:">` >> 8) & 0xff
        LCALL   ??HalLcdWriteStringValue?relay
        MOV     A,#0x1
        LCALL   ?DEALLOC_XSTACK8
        CFI CFA_XSP16 add(XSP16, 10)
// 1079               
// 1080               osal_msg_deallocate((uint8*)Light);
        ; Setup parameters for call to function osal_msg_deallocate
        MOV     DPTR,#??Light
        LCALL   ?Subroutine16 & 0xFFFF
// 1081           }
??CrossCallReturnLabel_40:
        SJMP    ??Smart_home_Display_13
// 1082           else
// 1083           {
// 1084               HalLcdWriteString( "Temper_2:OFF", HAL_LCD_LINE_2 ); 
??Smart_home_Display_12:
        ; Setup parameters for call to function HalLcdWriteString
        MOV     R1,#0x2
        MOV     R2,#`?<Constant "Temper_2:OFF">` & 0xff
        MOV     R3,#(`?<Constant "Temper_2:OFF">` >> 8) & 0xff
        LCALL   ??HalLcdWriteString?relay
// 1085               HalLcdWriteString( "Light:OFF", HAL_LCD_LINE_3 ); 
        ; Setup parameters for call to function HalLcdWriteString
        MOV     R1,#0x3
        MOV     R2,#`?<Constant "Light:OFF">` & 0xff
        MOV     R3,#(`?<Constant "Light:OFF">` >> 8) & 0xff
        LCALL   ??HalLcdWriteString?relay
// 1086           }
// 1087           
// 1088           //显示最下面的百分比条
// 1089           percent = (2 * 100) / LCD_PAGE_MAX;
??Smart_home_Display_13:
        MOV     DPTR,#??percent
        MOV     A,#0x32
        LJMP    ??Smart_home_Display_10 & 0xFFFF
// 1090           HalLcdDisplayPercentBar("",percent);
// 1091           break;
// 1092           
// 1093           
// 1094         }
// 1095         
// 1096       case 2:
// 1097       {
// 1098           static uint16 Data1;
// 1099           static uint16 Data2;
// 1100           //显示最下面的百分比条
// 1101           //DeviceInfo* rfid = &DeviceList[RfID];
// 1102           
// 1103           Data1 = ( RfID.data[1] << 8) | RfID.data[2];
??Smart_home_Display_3:
        MOV     DPTR,#RfID + 2
        MOVX    A,@DPTR
        MOV     R1,A
        INC     DPTR
        MOVX    A,@DPTR
        MOV     DPTR,#??Data1
        MOVX    @DPTR,A
        INC     DPTR
        MOV     A,R1
        MOVX    @DPTR,A
// 1104           Data2 = ( RfID.data[3] << 8) | RfID.data[4];
        MOV     DPTR,#RfID + 4
        MOVX    A,@DPTR
        MOV     R1,A
        INC     DPTR
        MOVX    A,@DPTR
        MOV     DPTR,#??Data2
        MOVX    @DPTR,A
        INC     DPTR
        MOV     A,R1
        MOVX    @DPTR,A
// 1105           
// 1106           switch(RfID.data[0])
        MOV     DPTR,#RfID + 1
        MOVX    A,@DPTR
        DEC     A
        JZ      ??Smart_home_Display_14
        DEC     A
        JZ      ??Smart_home_Display_15
        DEC     A
        JZ      ??Smart_home_Display_16
        DEC     A
        JZ      ??Smart_home_Display_17
        DEC     A
        JZ      ??Smart_home_Display_18
        SJMP    ??Smart_home_Display_19
// 1107           {
// 1108           case 0x01:
// 1109             HalLcdWriteString( "MFOne-S50", HAL_LCD_LINE_2 );
??Smart_home_Display_14:
        ; Setup parameters for call to function HalLcdWriteString
        MOV     R1,#0x2
        MOV     R2,#`?<Constant "MFOne-S50">` & 0xff
        MOV     R3,#(`?<Constant "MFOne-S50">` >> 8) & 0xff
        SJMP    ??Smart_home_Display_20
// 1110             break;
// 1111           case 0x02:
// 1112             HalLcdWriteString( "MFOne-S70", HAL_LCD_LINE_2 );
??Smart_home_Display_15:
        ; Setup parameters for call to function HalLcdWriteString
        MOV     R1,#0x2
        MOV     R2,#`?<Constant "MFOne-S70">` & 0xff
        MOV     R3,#(`?<Constant "MFOne-S70">` >> 8) & 0xff
        SJMP    ??Smart_home_Display_20
// 1113             break;
// 1114           case 0x03:
// 1115             HalLcdWriteString( "MF-UltraLight", HAL_LCD_LINE_2 );
??Smart_home_Display_16:
        ; Setup parameters for call to function HalLcdWriteString
        MOV     R1,#0x2
        MOV     R2,#`?<Constant "MF-UltraLight">` & 0xff
        MOV     R3,#(`?<Constant "MF-UltraLight">` >> 8) & 0xff
        SJMP    ??Smart_home_Display_20
// 1116             break;
// 1117           case 0x04:
// 1118             HalLcdWriteString( "MF-Pro", HAL_LCD_LINE_2 );
??Smart_home_Display_17:
        ; Setup parameters for call to function HalLcdWriteString
        MOV     R1,#0x2
        MOV     R2,#`?<Constant "MF-Pro">` & 0xff
        MOV     R3,#(`?<Constant "MF-Pro">` >> 8) & 0xff
        SJMP    ??Smart_home_Display_20
// 1119             break;
// 1120           case 0x05:
// 1121             HalLcdWriteString( "MF-DesFire", HAL_LCD_LINE_2 );
??Smart_home_Display_18:
        ; Setup parameters for call to function HalLcdWriteString
        MOV     R1,#0x2
        MOV     R2,#`?<Constant "MF-DesFire">` & 0xff
        MOV     R3,#(`?<Constant "MF-DesFire">` >> 8) & 0xff
        SJMP    ??Smart_home_Display_20
// 1122             break;
// 1123             
// 1124           default:
// 1125             HalLcdWriteString( "No Card", HAL_LCD_LINE_2 );
??Smart_home_Display_19:
        ; Setup parameters for call to function HalLcdWriteString
        MOV     R1,#0x2
        MOV     R2,#`?<Constant "No Card">` & 0xff
        MOV     R3,#(`?<Constant "No Card">` >> 8) & 0xff
// 1126             break;
// 1127           }
??Smart_home_Display_20:
        LCALL   ?Subroutine26 & 0xFFFF
// 1128           
// 1129           HalLcdWriteStringValueValue( "ID: ", Data1, 16, "-", Data2, 16, HAL_LCD_LINE_3 );
??CrossCallReturnLabel_64:
        LCALL   ?PUSH_XSTACK_I_ONE
        CFI CFA_XSP16 add(XSP16, 11)
        MOV     ?V0 + 0,#0x10
        MOV     R0,#?V0 + 0
        LCALL   ?PUSH_XSTACK_I_ONE
        CFI CFA_XSP16 add(XSP16, 12)
        MOV     DPTR,#??Data2
        LCALL   ?PUSH_XSTACK8_X_TWO
        CFI CFA_XSP16 add(XSP16, 14)
        MOV     ?V0 + 0,#`?<Constant "-">` & 0xff
        MOV     ?V0 + 1,#(`?<Constant "-">` >> 8) & 0xff
        MOV     R0,#?V0 + 0
        LCALL   ?PUSH_XSTACK_I_TWO
        CFI CFA_XSP16 add(XSP16, 16)
        MOV     R1,#0x10
        MOV     DPTR,#??Data1
        MOVX    A,@DPTR
        MOV     R4,A
        INC     DPTR
        MOVX    A,@DPTR
        MOV     R5,A
        MOV     R2,#`?<Constant "ID: ">` & 0xff
        MOV     R3,#(`?<Constant "ID: ">` >> 8) & 0xff
        LCALL   ??HalLcdWriteStringValueValue?relay
        MOV     A,#0x6
        LCALL   ?DEALLOC_XSTACK8
        CFI CFA_XSP16 add(XSP16, 10)
// 1130           
// 1131           percent = (3 * 100) / LCD_PAGE_MAX;
        MOV     DPTR,#??percent
        MOV     A,#0x4b
        LCALL   ?Subroutine11 & 0xFFFF
// 1132           HalLcdDisplayPercentBar("",percent);
// 1133           
// 1134           osal_msg_deallocate((uint8*)Data1);
??CrossCallReturnLabel_25:
        ; Setup parameters for call to function osal_msg_deallocate
        MOV     DPTR,#??Data1
        LCALL   ?Subroutine16 & 0xFFFF
// 1135           osal_msg_deallocate((uint8*)Data2);
??CrossCallReturnLabel_41:
        ; Setup parameters for call to function osal_msg_deallocate
        MOV     DPTR,#??Data2
        LCALL   ?Subroutine16 & 0xFFFF
// 1136           
// 1137           break;
??CrossCallReturnLabel_42:
        LJMP    ??Smart_home_Display_11 & 0xFFFF
// 1138       }
// 1139       
// 1140       case 3:
// 1141       {        
// 1142           //DeviceInfo* DevGas = &DeviceList[gasFlame];
// 1143           //DeviceInfo* DevInf = &DeviceList[infrared];         
// 1144           
// 1145           if(gasFlame.deviceStatus  != DEVICE_OFFLINE)
??Smart_home_Display_4:
        MOV     DPTR,#gasFlame
        MOVX    A,@DPTR
        XRL     A,#0x2
        JZ      ??Smart_home_Display_21
// 1146           {    
// 1147               if(gasFlame.data[0] & 0x01 == 0x01) { HalLcdWriteString( "GasFlame: Flame", HAL_LCD_LINE_2 ); }         //0位是火焰
        INC     DPTR
        MOVX    A,@DPTR
        MOV     C,0xE0 /* A   */.0
        MOV     R1,#0x2
        JNC     ??Smart_home_Display_22
        ; Setup parameters for call to function HalLcdWriteString
        MOV     R2,#`?<Constant "GasFlame: Flame">` & 0xff
        MOV     R3,#(`?<Constant "GasFlame: Flame">` >> 8) & 0xff
        SJMP    ??Smart_home_Display_23
// 1148               else if(gasFlame.data[0] & 0x02 == 0x02) { HalLcdWriteString( "GasFlame: Gas", HAL_LCD_LINE_2 ); }//1位是气体
// 1149               else if(gasFlame.data[0] & 0x03 == 0x03) { HalLcdWriteString( "GasFlame: All", HAL_LCD_LINE_2 ); }
// 1150               else {HalLcdWriteString( "GasFlame: None", HAL_LCD_LINE_2 );}
??Smart_home_Display_22:
        ; Setup parameters for call to function HalLcdWriteString
        MOV     R2,#`?<Constant "GasFlame: None">` & 0xff
        MOV     R3,#(`?<Constant "GasFlame: None">` >> 8) & 0xff
        SJMP    ??Smart_home_Display_23
// 1151           }
// 1152           else
// 1153           {
// 1154               HalLcdWriteString( "GasFlame: OFF", HAL_LCD_LINE_2 ); 
??Smart_home_Display_21:
        ; Setup parameters for call to function HalLcdWriteString
        MOV     R1,#0x2
        MOV     R2,#`?<Constant "GasFlame: OFF">` & 0xff
        MOV     R3,#(`?<Constant "GasFlame: OFF">` >> 8) & 0xff
??Smart_home_Display_23:
        LCALL   ??HalLcdWriteString?relay
// 1155           }
// 1156           
// 1157           
// 1158           if(infrared.deviceStatus  != DEVICE_OFFLINE)
        MOV     DPTR,#infrared
        MOVX    A,@DPTR
        XRL     A,#0x2
        JZ      ??Smart_home_Display_24
// 1159           {    
// 1160               if(infrared.data[0] == 0x01)
        INC     DPTR
        MOVX    A,@DPTR
        XRL     A,#0x1
        MOV     R1,#0x3
        JNZ     ??Smart_home_Display_25
// 1161               {
// 1162                 HalLcdWriteString("Infrared: Human", HAL_LCD_LINE_3 );
        ; Setup parameters for call to function HalLcdWriteString
        MOV     R2,#`?<Constant "Infrared: Human">` & 0xff
        MOV     R3,#(`?<Constant "Infrared: Human">` >> 8) & 0xff
        SJMP    ??Smart_home_Display_26
// 1163               }
// 1164               else{
// 1165                 HalLcdWriteString("Infrared: NoHuman", HAL_LCD_LINE_3 );
??Smart_home_Display_25:
        ; Setup parameters for call to function HalLcdWriteString
        MOV     R2,#`?<Constant "Infrared: NoHuman">` & 0xff
        MOV     R3,#(`?<Constant "Infrared: NoHuman">` >> 8) & 0xff
        SJMP    ??Smart_home_Display_26
// 1166               }
// 1167           }
// 1168           else
// 1169           {
// 1170               HalLcdWriteString( "Infrared: OFF", HAL_LCD_LINE_3 ); 
??Smart_home_Display_24:
        ; Setup parameters for call to function HalLcdWriteString
        MOV     R1,#0x3
        MOV     R2,#`?<Constant "Infrared: OFF">` & 0xff
        MOV     R3,#(`?<Constant "Infrared: OFF">` >> 8) & 0xff
??Smart_home_Display_26:
        LCALL   ??HalLcdWriteString?relay
// 1171           }         
// 1172 
// 1173           
// 1174           
// 1175           //显示最下面的百分比条
// 1176           percent = (4 * 100) / LCD_PAGE_MAX;
        MOV     DPTR,#??percent
        MOV     A,#0x64
        LJMP    ??Smart_home_Display_10 & 0xFFFF
// 1177           HalLcdDisplayPercentBar("",percent);
// 1178           break;
// 1179       }
// 1180           
// 1181     }
// 1182       
// 1183       break;
// 1184     
// 1185     case 1:
// 1186       HalLcdWriteString( "Relay Contrling", HAL_LCD_LINE_4 ); 
??Smart_home_Display_0:
        ; Setup parameters for call to function HalLcdWriteString
        MOV     R1,#0x4
        MOV     R2,#`?<Constant "Relay Contrling">` & 0xff
        MOV     R3,#(`?<Constant "Relay Contrling">` >> 8) & 0xff
        LCALL   ?Subroutine23 & 0xFFFF
// 1187       //清除屏幕显示
// 1188       HalLcdWriteString( " ", HAL_LCD_LINE_2 ); 
// 1189       HalLcdWriteString( " ", HAL_LCD_LINE_3 );
// 1190       //这里的deviceStatus 可能是0x00,所以会出现bug 这个0在Device检查时被设置 2.24
// 1191       if(relay.deviceStatus == DEVICE_OFFLINE)
??CrossCallReturnLabel_54:
        MOV     DPTR,#relay
        MOVX    A,@DPTR
        XRL     A,#0x2
        MOV     R1,#0x1
        JNZ     ??Smart_home_Display_27
// 1192       {
// 1193         HalLcdWriteString( "Relay Offline", HAL_LCD_LINE_1 );      
        ; Setup parameters for call to function HalLcdWriteString
        MOV     R2,#`?<Constant "Relay Offline">` & 0xff
        MOV     R3,#(`?<Constant "Relay Offline">` >> 8) & 0xff
??Smart_home_Display_28:
        LCALL   ??HalLcdWriteString?relay
        LJMP    ??Smart_home_Display_11 & 0xFFFF
// 1194       }
// 1195       else  //设备在线回显  设备在线可能是 0/1
// 1196       {
// 1197         HalLcdWriteString( "Relay Online", HAL_LCD_LINE_1 ); 
??Smart_home_Display_27:
        ; Setup parameters for call to function HalLcdWriteString
        MOV     R2,#`?<Constant "Relay Online">` & 0xff
        MOV     R3,#(`?<Constant "Relay Online">` >> 8) & 0xff
        LCALL   ??HalLcdWriteString?relay
// 1198         //继电器控制界面
// 1199 
// 1200         if((relay.data[0]& 0x02) == 0x02) {HalLcdWriteString( "K1:ON", HAL_LCD_LINE_2 );}
        MOV     DPTR,#relay + 1
        MOVX    A,@DPTR
        MOV     C,0xE0 /* A   */.1
        JNC     ??Smart_home_Display_29
        ; Setup parameters for call to function HalLcdWriteString
        MOV     R1,#0x2
        MOV     R2,#`?<Constant "K1:ON">` & 0xff
        MOV     R3,#(`?<Constant "K1:ON">` >> 8) & 0xff
        LCALL   ??HalLcdWriteString?relay
// 1201         if((relay.data[0] & 0x01) == 0x01) {HalLcdWriteString( "K1:OFF", HAL_LCD_LINE_2 );}
??Smart_home_Display_29:
        MOV     DPTR,#relay + 1
        MOVX    A,@DPTR
        MOV     C,0xE0 /* A   */.0
        JNC     ??Smart_home_Display_30
        ; Setup parameters for call to function HalLcdWriteString
        MOV     R1,#0x2
        MOV     R2,#`?<Constant "K1:OFF">` & 0xff
        MOV     R3,#(`?<Constant "K1:OFF">` >> 8) & 0xff
        LCALL   ??HalLcdWriteString?relay
// 1202         if((relay.data[0] & 0x20) == 0x20) {HalLcdWriteString( "K2:ON", HAL_LCD_LINE_3 );}
??Smart_home_Display_30:
        MOV     DPTR,#relay + 1
        MOVX    A,@DPTR
        MOV     C,0xE0 /* A   */.5
        JNC     ??Smart_home_Display_31
        ; Setup parameters for call to function HalLcdWriteString
        MOV     R1,#0x3
        MOV     R2,#`?<Constant "K2:ON">` & 0xff
        MOV     R3,#(`?<Constant "K2:ON">` >> 8) & 0xff
        LCALL   ??HalLcdWriteString?relay
// 1203         if((relay.data[0] & 0x10) == 0x10) {HalLcdWriteString( "K2:OFF", HAL_LCD_LINE_3 );}      
??Smart_home_Display_31:
        MOV     DPTR,#relay + 1
        MOVX    A,@DPTR
        MOV     C,0xE0 /* A   */.4
        JNC     ??Smart_home_Display_11
        ; Setup parameters for call to function HalLcdWriteString
        MOV     R1,#0x3
        MOV     R2,#`?<Constant "K2:OFF">` & 0xff
        MOV     R3,#(`?<Constant "K2:OFF">` >> 8) & 0xff
        SJMP    ??Smart_home_Display_28
// 1204       }
// 1205 
// 1206       break;
// 1207     
// 1208     case 2:
// 1209       HalLcdWriteString( "Motor Contrling", HAL_LCD_LINE_4 );
??Smart_home_Display_1:
        ; Setup parameters for call to function HalLcdWriteString
        MOV     R1,#0x4
        MOV     R2,#`?<Constant "Motor Contrling">` & 0xff
        MOV     R3,#(`?<Constant "Motor Contrling">` >> 8) & 0xff
        LCALL   ?Subroutine23 & 0xFFFF
// 1210       //清除屏幕显示
// 1211       HalLcdWriteString( " ", HAL_LCD_LINE_2 ); 
// 1212       HalLcdWriteString( " ", HAL_LCD_LINE_3 );
// 1213       if(motor.deviceStatus == DEVICE_OFFLINE)
??CrossCallReturnLabel_55:
        MOV     DPTR,#motor
        MOVX    A,@DPTR
        XRL     A,#0x2
        MOV     R1,#0x1
        JNZ     ??Smart_home_Display_32
// 1214       {
// 1215         HalLcdWriteString( "Motor Offline", HAL_LCD_LINE_1 );      
        ; Setup parameters for call to function HalLcdWriteString
        MOV     R2,#`?<Constant "Motor Offline">` & 0xff
        MOV     R3,#(`?<Constant "Motor Offline">` >> 8) & 0xff
        SJMP    ??Smart_home_Display_28
// 1216       }
// 1217       else  //设备在线回显  设备在线可能是 0/1
// 1218       {
// 1219         HalLcdWriteString( "Motor Online", HAL_LCD_LINE_1 ); 
??Smart_home_Display_32:
        ; Setup parameters for call to function HalLcdWriteString
        MOV     R2,#`?<Constant "Motor Online">` & 0xff
        MOV     R3,#(`?<Constant "Motor Online">` >> 8) & 0xff
        LCALL   ??HalLcdWriteString?relay
// 1220         //电机控制界面
// 1221         switch(motor.data[1])
        MOV     DPTR,#motor + 2
        MOVX    A,@DPTR
        ADD     A,#-0x2
        JZ      ??Smart_home_Display_33
        DEC     A
        MOV     R1,#0x2
        JZ      ??Smart_home_Display_34
// 1222         {
// 1223         default:
// 1224         case 1:
// 1225           HalLcdWriteString( "Status: STOP", HAL_LCD_LINE_2 );
        ; Setup parameters for call to function HalLcdWriteString
        MOV     R2,#`?<Constant "Status: STOP">` & 0xff
        MOV     R3,#(`?<Constant "Status: STOP">` >> 8) & 0xff
        SJMP    ??Smart_home_Display_35
// 1226           break;
// 1227         case 2:
// 1228           HalLcdWriteString( "Status: FORWARD", HAL_LCD_LINE_2 );
??Smart_home_Display_33:
        ; Setup parameters for call to function HalLcdWriteString
        MOV     R1,#0x2
        MOV     R2,#`?<Constant "Status: FORWARD">` & 0xff
        MOV     R3,#(`?<Constant "Status: FORWARD">` >> 8) & 0xff
        SJMP    ??Smart_home_Display_35
// 1229           break;
// 1230         case 3:
// 1231           HalLcdWriteString( "Status: BACKWARD", HAL_LCD_LINE_2 );
??Smart_home_Display_34:
        ; Setup parameters for call to function HalLcdWriteString
        MOV     R2,#`?<Constant "Status: BACKWARD">` & 0xff
        MOV     R3,#(`?<Constant "Status: BACKWARD">` >> 8) & 0xff
// 1232           break;
// 1233         }
// 1234         
// 1235         HalLcdWriteStringValue( "Speed:", motor.data[0], 10, HAL_LCD_LINE_3 );
// 1236       
// 1237       }
// 1238   }
??Smart_home_Display_35:
        LCALL   ?Subroutine26 & 0xFFFF
??CrossCallReturnLabel_65:
        LCALL   ?PUSH_XSTACK_I_ONE
        CFI CFA_XSP16 add(XSP16, 11)
        MOV     R1,#0xa
        MOV     DPTR,#motor + 1
        MOVX    A,@DPTR
        MOV     R4,A
        MOV     R5,#0x0
        MOV     R2,#`?<Constant "Speed:">` & 0xff
        MOV     R3,#(`?<Constant "Speed:">` >> 8) & 0xff
        LCALL   ??HalLcdWriteStringValue?relay
        MOV     A,#0x1
        LCALL   ?DEALLOC_XSTACK8
        CFI CFA_XSP16 add(XSP16, 10)
// 1239   
// 1240 #endif // LCD_SUPPORTED  
// 1241 }
??Smart_home_Display_11:
        LJMP    ?Subroutine1 & 0xFFFF
        CFI EndBlock cfiBlock139

        RSEG BANKED_CODE:CODE:NOROOT(0)
?Subroutine26:
        CFI Block cfiCond140 Using cfiCommon0
        CFI NoFunction
        CFI Conditional ??CrossCallReturnLabel_64
        CFI R6 load(1, XDATA, add(CFA_XSP16, literal(-10)))
        CFI VB load(1, XDATA, add(CFA_XSP16, literal(-9)))
        CFI V0 load(1, XDATA, add(CFA_XSP16, literal(-8)))
        CFI V1 load(1, XDATA, add(CFA_XSP16, literal(-7)))
        CFI R7 load(1, XDATA, add(CFA_XSP16, literal(-6)))
        CFI ?RET_LOW load(1, XDATA, add(CFA_XSP16, literal(-5)))
        CFI ?RET_HIGH load(1, XDATA, add(CFA_XSP16, literal(-4)))
        CFI ?BRET_EXT load(1, XDATA, add(CFA_XSP16, literal(-3)))
        CFI DPL0 load(1, XDATA, add(CFA_XSP16, literal(-2)))
        CFI DPH0 load(1, XDATA, add(CFA_XSP16, literal(-1)))
        CFI CFA_SP SP+0
        CFI CFA_XSP16 add(XSP16, 10)
        CFI Block cfiCond141 Using cfiCommon0
        CFI (cfiCond141) NoFunction
        CFI (cfiCond141) Conditional ??CrossCallReturnLabel_65
        CFI (cfiCond141) R6 load(1, XDATA, add(CFA_XSP16, literal(-10)))
        CFI (cfiCond141) VB load(1, XDATA, add(CFA_XSP16, literal(-9)))
        CFI (cfiCond141) V0 load(1, XDATA, add(CFA_XSP16, literal(-8)))
        CFI (cfiCond141) V1 load(1, XDATA, add(CFA_XSP16, literal(-7)))
        CFI (cfiCond141) R7 load(1, XDATA, add(CFA_XSP16, literal(-6)))
        CFI (cfiCond141) ?RET_LOW load(1, XDATA, add(CFA_XSP16, literal(-5)))
        CFI (cfiCond141) ?RET_HIGH load(1, XDATA, add(CFA_XSP16, literal(-4)))
        CFI (cfiCond141) ?BRET_EXT load(1, XDATA, add(CFA_XSP16, literal(-3)))
        CFI (cfiCond141) DPL0 load(1, XDATA, add(CFA_XSP16, literal(-2)))
        CFI (cfiCond141) DPH0 load(1, XDATA, add(CFA_XSP16, literal(-1)))
        CFI (cfiCond141) CFA_SP SP+0
        CFI (cfiCond141) CFA_XSP16 add(XSP16, 10)
        CFI Block cfiPicker142 Using cfiCommon1
        CFI (cfiPicker142) NoFunction
        CFI (cfiPicker142) Picker
        LCALL   ??HalLcdWriteString?relay
        ; Setup parameters for call to function HalLcdWriteStringValueValue
        ; Setup parameters for call to function HalLcdWriteStringValue
        MOV     ?V0 + 0,#0x3
        MOV     R0,#?V0 + 0
        RET
        CFI EndBlock cfiCond140
        CFI EndBlock cfiCond141
        CFI EndBlock cfiPicker142

        RSEG BANKED_CODE:CODE:NOROOT(0)
?Subroutine23:
        CFI Block cfiCond143 Using cfiCommon0
        CFI NoFunction
        CFI Conditional ??CrossCallReturnLabel_53
        CFI R6 load(1, XDATA, add(CFA_XSP16, literal(-10)))
        CFI VB load(1, XDATA, add(CFA_XSP16, literal(-9)))
        CFI V0 load(1, XDATA, add(CFA_XSP16, literal(-8)))
        CFI V1 load(1, XDATA, add(CFA_XSP16, literal(-7)))
        CFI R7 load(1, XDATA, add(CFA_XSP16, literal(-6)))
        CFI ?RET_LOW load(1, XDATA, add(CFA_XSP16, literal(-5)))
        CFI ?RET_HIGH load(1, XDATA, add(CFA_XSP16, literal(-4)))
        CFI ?BRET_EXT load(1, XDATA, add(CFA_XSP16, literal(-3)))
        CFI DPL0 load(1, XDATA, add(CFA_XSP16, literal(-2)))
        CFI DPH0 load(1, XDATA, add(CFA_XSP16, literal(-1)))
        CFI CFA_SP SP+0
        CFI CFA_XSP16 add(XSP16, 10)
        CFI Block cfiCond144 Using cfiCommon0
        CFI (cfiCond144) NoFunction
        CFI (cfiCond144) Conditional ??CrossCallReturnLabel_54
        CFI (cfiCond144) R6 load(1, XDATA, add(CFA_XSP16, literal(-10)))
        CFI (cfiCond144) VB load(1, XDATA, add(CFA_XSP16, literal(-9)))
        CFI (cfiCond144) V0 load(1, XDATA, add(CFA_XSP16, literal(-8)))
        CFI (cfiCond144) V1 load(1, XDATA, add(CFA_XSP16, literal(-7)))
        CFI (cfiCond144) R7 load(1, XDATA, add(CFA_XSP16, literal(-6)))
        CFI (cfiCond144) ?RET_LOW load(1, XDATA, add(CFA_XSP16, literal(-5)))
        CFI (cfiCond144) ?RET_HIGH load(1, XDATA, add(CFA_XSP16, literal(-4)))
        CFI (cfiCond144) ?BRET_EXT load(1, XDATA, add(CFA_XSP16, literal(-3)))
        CFI (cfiCond144) DPL0 load(1, XDATA, add(CFA_XSP16, literal(-2)))
        CFI (cfiCond144) DPH0 load(1, XDATA, add(CFA_XSP16, literal(-1)))
        CFI (cfiCond144) CFA_SP SP+0
        CFI (cfiCond144) CFA_XSP16 add(XSP16, 10)
        CFI Block cfiCond145 Using cfiCommon0
        CFI (cfiCond145) NoFunction
        CFI (cfiCond145) Conditional ??CrossCallReturnLabel_55
        CFI (cfiCond145) R6 load(1, XDATA, add(CFA_XSP16, literal(-10)))
        CFI (cfiCond145) VB load(1, XDATA, add(CFA_XSP16, literal(-9)))
        CFI (cfiCond145) V0 load(1, XDATA, add(CFA_XSP16, literal(-8)))
        CFI (cfiCond145) V1 load(1, XDATA, add(CFA_XSP16, literal(-7)))
        CFI (cfiCond145) R7 load(1, XDATA, add(CFA_XSP16, literal(-6)))
        CFI (cfiCond145) ?RET_LOW load(1, XDATA, add(CFA_XSP16, literal(-5)))
        CFI (cfiCond145) ?RET_HIGH load(1, XDATA, add(CFA_XSP16, literal(-4)))
        CFI (cfiCond145) ?BRET_EXT load(1, XDATA, add(CFA_XSP16, literal(-3)))
        CFI (cfiCond145) DPL0 load(1, XDATA, add(CFA_XSP16, literal(-2)))
        CFI (cfiCond145) DPH0 load(1, XDATA, add(CFA_XSP16, literal(-1)))
        CFI (cfiCond145) CFA_SP SP+0
        CFI (cfiCond145) CFA_XSP16 add(XSP16, 10)
        CFI Block cfiPicker146 Using cfiCommon1
        CFI (cfiPicker146) NoFunction
        CFI (cfiPicker146) Picker
        LCALL   ??HalLcdWriteString?relay
        ; Setup parameters for call to function HalLcdWriteString
        ; Setup parameters for call to function HalLcdWriteString
        ; Setup parameters for call to function HalLcdWriteString
        MOV     R1,#0x2
        MOV     R2,#`?<Constant " ">` & 0xff
        MOV     R3,#(`?<Constant " ">` >> 8) & 0xff
        LCALL   ??HalLcdWriteString?relay
        ; Setup parameters for call to function HalLcdWriteString
        ; Setup parameters for call to function HalLcdWriteString
        ; Setup parameters for call to function HalLcdWriteString
        MOV     R1,#0x3
        MOV     R2,#`?<Constant " ">` & 0xff
        MOV     R3,#(`?<Constant " ">` >> 8) & 0xff
        LCALL   ??HalLcdWriteString?relay
        RET
        CFI EndBlock cfiCond143
        CFI EndBlock cfiCond144
        CFI EndBlock cfiCond145
        CFI EndBlock cfiPicker146

        RSEG BANKED_CODE:CODE:NOROOT(0)
?Subroutine16:
        CFI Block cfiCond147 Using cfiCommon0
        CFI NoFunction
        CFI Conditional ??CrossCallReturnLabel_40
        CFI R6 load(1, XDATA, add(CFA_XSP16, literal(-10)))
        CFI VB load(1, XDATA, add(CFA_XSP16, literal(-9)))
        CFI V0 load(1, XDATA, add(CFA_XSP16, literal(-8)))
        CFI V1 load(1, XDATA, add(CFA_XSP16, literal(-7)))
        CFI R7 load(1, XDATA, add(CFA_XSP16, literal(-6)))
        CFI ?RET_LOW load(1, XDATA, add(CFA_XSP16, literal(-5)))
        CFI ?RET_HIGH load(1, XDATA, add(CFA_XSP16, literal(-4)))
        CFI ?BRET_EXT load(1, XDATA, add(CFA_XSP16, literal(-3)))
        CFI DPL0 load(1, XDATA, add(CFA_XSP16, literal(-2)))
        CFI DPH0 load(1, XDATA, add(CFA_XSP16, literal(-1)))
        CFI CFA_SP SP+0
        CFI CFA_XSP16 add(XSP16, 10)
        CFI Block cfiCond148 Using cfiCommon0
        CFI (cfiCond148) NoFunction
        CFI (cfiCond148) Conditional ??CrossCallReturnLabel_41
        CFI (cfiCond148) R6 load(1, XDATA, add(CFA_XSP16, literal(-10)))
        CFI (cfiCond148) VB load(1, XDATA, add(CFA_XSP16, literal(-9)))
        CFI (cfiCond148) V0 load(1, XDATA, add(CFA_XSP16, literal(-8)))
        CFI (cfiCond148) V1 load(1, XDATA, add(CFA_XSP16, literal(-7)))
        CFI (cfiCond148) R7 load(1, XDATA, add(CFA_XSP16, literal(-6)))
        CFI (cfiCond148) ?RET_LOW load(1, XDATA, add(CFA_XSP16, literal(-5)))
        CFI (cfiCond148) ?RET_HIGH load(1, XDATA, add(CFA_XSP16, literal(-4)))
        CFI (cfiCond148) ?BRET_EXT load(1, XDATA, add(CFA_XSP16, literal(-3)))
        CFI (cfiCond148) DPL0 load(1, XDATA, add(CFA_XSP16, literal(-2)))
        CFI (cfiCond148) DPH0 load(1, XDATA, add(CFA_XSP16, literal(-1)))
        CFI (cfiCond148) CFA_SP SP+0
        CFI (cfiCond148) CFA_XSP16 add(XSP16, 10)
        CFI Block cfiCond149 Using cfiCommon0
        CFI (cfiCond149) NoFunction
        CFI (cfiCond149) Conditional ??CrossCallReturnLabel_42
        CFI (cfiCond149) R6 load(1, XDATA, add(CFA_XSP16, literal(-10)))
        CFI (cfiCond149) VB load(1, XDATA, add(CFA_XSP16, literal(-9)))
        CFI (cfiCond149) V0 load(1, XDATA, add(CFA_XSP16, literal(-8)))
        CFI (cfiCond149) V1 load(1, XDATA, add(CFA_XSP16, literal(-7)))
        CFI (cfiCond149) R7 load(1, XDATA, add(CFA_XSP16, literal(-6)))
        CFI (cfiCond149) ?RET_LOW load(1, XDATA, add(CFA_XSP16, literal(-5)))
        CFI (cfiCond149) ?RET_HIGH load(1, XDATA, add(CFA_XSP16, literal(-4)))
        CFI (cfiCond149) ?BRET_EXT load(1, XDATA, add(CFA_XSP16, literal(-3)))
        CFI (cfiCond149) DPL0 load(1, XDATA, add(CFA_XSP16, literal(-2)))
        CFI (cfiCond149) DPH0 load(1, XDATA, add(CFA_XSP16, literal(-1)))
        CFI (cfiCond149) CFA_SP SP+0
        CFI (cfiCond149) CFA_XSP16 add(XSP16, 10)
        CFI Block cfiPicker150 Using cfiCommon1
        CFI (cfiPicker150) NoFunction
        CFI (cfiPicker150) Picker
        MOVX    A,@DPTR
        MOV     R2,A
        INC     DPTR
        MOVX    A,@DPTR
        MOV     R3,A
        LCALL   ??osal_msg_deallocate?relay
        RET
        CFI EndBlock cfiCond147
        CFI EndBlock cfiCond148
        CFI EndBlock cfiCond149
        CFI EndBlock cfiPicker150

        RSEG BANKED_CODE:CODE:NOROOT(0)
?Subroutine13:
        CFI Block cfiCond151 Using cfiCommon0
        CFI NoFunction
        CFI Conditional ??CrossCallReturnLabel_87
        CFI R6 load(1, XDATA, add(CFA_XSP16, literal(-9)))
        CFI VB load(1, XDATA, add(CFA_XSP16, literal(-8)))
        CFI V0 load(1, XDATA, add(CFA_XSP16, literal(-7)))
        CFI R7 load(1, XDATA, add(CFA_XSP16, literal(-6)))
        CFI ?RET_LOW load(1, XDATA, add(CFA_XSP16, literal(-5)))
        CFI ?RET_HIGH load(1, XDATA, add(CFA_XSP16, literal(-4)))
        CFI ?BRET_EXT load(1, XDATA, add(CFA_XSP16, literal(-3)))
        CFI DPL0 load(1, XDATA, add(CFA_XSP16, literal(-2)))
        CFI DPH0 load(1, XDATA, add(CFA_XSP16, literal(-1)))
        CFI CFA_SP SP+0
        CFI CFA_XSP16 add(XSP16, 40)
        CFI Block cfiCond152 Using cfiCommon0
        CFI (cfiCond152) NoFunction
        CFI (cfiCond152) Conditional ??CrossCallReturnLabel_88
        CFI (cfiCond152) R6 load(1, XDATA, add(CFA_XSP16, literal(-9)))
        CFI (cfiCond152) VB load(1, XDATA, add(CFA_XSP16, literal(-8)))
        CFI (cfiCond152) V0 load(1, XDATA, add(CFA_XSP16, literal(-7)))
        CFI (cfiCond152) R7 load(1, XDATA, add(CFA_XSP16, literal(-6)))
        CFI (cfiCond152) ?RET_LOW load(1, XDATA, add(CFA_XSP16, literal(-5)))
        CFI (cfiCond152) ?RET_HIGH load(1, XDATA, add(CFA_XSP16, literal(-4)))
        CFI (cfiCond152) ?BRET_EXT load(1, XDATA, add(CFA_XSP16, literal(-3)))
        CFI (cfiCond152) DPL0 load(1, XDATA, add(CFA_XSP16, literal(-2)))
        CFI (cfiCond152) DPH0 load(1, XDATA, add(CFA_XSP16, literal(-1)))
        CFI (cfiCond152) CFA_SP SP+0
        CFI (cfiCond152) CFA_XSP16 add(XSP16, 40)
        CFI Block cfiPicker153 Using cfiCommon1
        CFI (cfiPicker153) NoFunction
        CFI (cfiPicker153) Picker
        MOV     A,#-0x80
        CFI EndBlock cfiCond151
        CFI EndBlock cfiCond152
        CFI EndBlock cfiPicker153
        REQUIRE ??Subroutine35_0
        ; // Fall through to label ??Subroutine35_0

        RSEG BANKED_CODE:CODE:NOROOT(0)
??Subroutine35_0:
        CFI Block cfiCond154 Using cfiCommon0
        CFI NoFunction
        CFI Conditional ??CrossCallReturnLabel_84
        CFI R6 load(1, XDATA, add(CFA_XSP16, literal(-9)))
        CFI VB load(1, XDATA, add(CFA_XSP16, literal(-8)))
        CFI V0 load(1, XDATA, add(CFA_XSP16, literal(-7)))
        CFI R7 load(1, XDATA, add(CFA_XSP16, literal(-6)))
        CFI ?RET_LOW load(1, XDATA, add(CFA_XSP16, literal(-5)))
        CFI ?RET_HIGH load(1, XDATA, add(CFA_XSP16, literal(-4)))
        CFI ?BRET_EXT load(1, XDATA, add(CFA_XSP16, literal(-3)))
        CFI DPL0 load(1, XDATA, add(CFA_XSP16, literal(-2)))
        CFI DPH0 load(1, XDATA, add(CFA_XSP16, literal(-1)))
        CFI CFA_SP SP+0
        CFI CFA_XSP16 add(XSP16, 40)
        CFI Block cfiCond155 Using cfiCommon0
        CFI (cfiCond155) NoFunction
        CFI (cfiCond155) Conditional ??CrossCallReturnLabel_83
        CFI (cfiCond155) R6 load(1, XDATA, add(CFA_XSP16, literal(-9)))
        CFI (cfiCond155) VB load(1, XDATA, add(CFA_XSP16, literal(-8)))
        CFI (cfiCond155) V0 load(1, XDATA, add(CFA_XSP16, literal(-7)))
        CFI (cfiCond155) R7 load(1, XDATA, add(CFA_XSP16, literal(-6)))
        CFI (cfiCond155) ?RET_LOW load(1, XDATA, add(CFA_XSP16, literal(-5)))
        CFI (cfiCond155) ?RET_HIGH load(1, XDATA, add(CFA_XSP16, literal(-4)))
        CFI (cfiCond155) ?BRET_EXT load(1, XDATA, add(CFA_XSP16, literal(-3)))
        CFI (cfiCond155) DPL0 load(1, XDATA, add(CFA_XSP16, literal(-2)))
        CFI (cfiCond155) DPH0 load(1, XDATA, add(CFA_XSP16, literal(-1)))
        CFI (cfiCond155) CFA_SP SP+0
        CFI (cfiCond155) CFA_XSP16 add(XSP16, 40)
        CFI Block cfiCond156 Using cfiCommon0
        CFI (cfiCond156) NoFunction
        CFI (cfiCond156) Conditional ??CrossCallReturnLabel_85
        CFI (cfiCond156) R6 load(1, XDATA, add(CFA_XSP16, literal(-9)))
        CFI (cfiCond156) VB load(1, XDATA, add(CFA_XSP16, literal(-8)))
        CFI (cfiCond156) V0 load(1, XDATA, add(CFA_XSP16, literal(-7)))
        CFI (cfiCond156) R7 load(1, XDATA, add(CFA_XSP16, literal(-6)))
        CFI (cfiCond156) ?RET_LOW load(1, XDATA, add(CFA_XSP16, literal(-5)))
        CFI (cfiCond156) ?RET_HIGH load(1, XDATA, add(CFA_XSP16, literal(-4)))
        CFI (cfiCond156) ?BRET_EXT load(1, XDATA, add(CFA_XSP16, literal(-3)))
        CFI (cfiCond156) DPL0 load(1, XDATA, add(CFA_XSP16, literal(-2)))
        CFI (cfiCond156) DPH0 load(1, XDATA, add(CFA_XSP16, literal(-1)))
        CFI (cfiCond156) CFA_SP SP+0
        CFI (cfiCond156) CFA_XSP16 add(XSP16, 40)
        CFI Block cfiCond157 Using cfiCommon0
        CFI (cfiCond157) NoFunction
        CFI (cfiCond157) Conditional ??CrossCallReturnLabel_86
        CFI (cfiCond157) R6 load(1, XDATA, add(CFA_XSP16, literal(-10)))
        CFI (cfiCond157) VB load(1, XDATA, add(CFA_XSP16, literal(-9)))
        CFI (cfiCond157) V0 load(1, XDATA, add(CFA_XSP16, literal(-8)))
        CFI (cfiCond157) V1 load(1, XDATA, add(CFA_XSP16, literal(-7)))
        CFI (cfiCond157) R7 load(1, XDATA, add(CFA_XSP16, literal(-6)))
        CFI (cfiCond157) ?RET_LOW load(1, XDATA, add(CFA_XSP16, literal(-5)))
        CFI (cfiCond157) ?RET_HIGH load(1, XDATA, add(CFA_XSP16, literal(-4)))
        CFI (cfiCond157) ?BRET_EXT load(1, XDATA, add(CFA_XSP16, literal(-3)))
        CFI (cfiCond157) DPL0 load(1, XDATA, add(CFA_XSP16, literal(-2)))
        CFI (cfiCond157) DPH0 load(1, XDATA, add(CFA_XSP16, literal(-1)))
        CFI (cfiCond157) CFA_SP SP+0
        CFI (cfiCond157) CFA_XSP16 add(XSP16, 10)
        CFI Block cfiCond158 Using cfiCommon0
        CFI (cfiCond158) NoFunction
        CFI (cfiCond158) Conditional ??CrossCallReturnLabel_87
        CFI (cfiCond158) R6 load(1, XDATA, add(CFA_XSP16, literal(-9)))
        CFI (cfiCond158) VB load(1, XDATA, add(CFA_XSP16, literal(-8)))
        CFI (cfiCond158) V0 load(1, XDATA, add(CFA_XSP16, literal(-7)))
        CFI (cfiCond158) R7 load(1, XDATA, add(CFA_XSP16, literal(-6)))
        CFI (cfiCond158) ?RET_LOW load(1, XDATA, add(CFA_XSP16, literal(-5)))
        CFI (cfiCond158) ?RET_HIGH load(1, XDATA, add(CFA_XSP16, literal(-4)))
        CFI (cfiCond158) ?BRET_EXT load(1, XDATA, add(CFA_XSP16, literal(-3)))
        CFI (cfiCond158) DPL0 load(1, XDATA, add(CFA_XSP16, literal(-2)))
        CFI (cfiCond158) DPH0 load(1, XDATA, add(CFA_XSP16, literal(-1)))
        CFI (cfiCond158) CFA_SP SP+0
        CFI (cfiCond158) CFA_XSP16 add(XSP16, 40)
        CFI Block cfiCond159 Using cfiCommon0
        CFI (cfiCond159) NoFunction
        CFI (cfiCond159) Conditional ??CrossCallReturnLabel_88
        CFI (cfiCond159) R6 load(1, XDATA, add(CFA_XSP16, literal(-9)))
        CFI (cfiCond159) VB load(1, XDATA, add(CFA_XSP16, literal(-8)))
        CFI (cfiCond159) V0 load(1, XDATA, add(CFA_XSP16, literal(-7)))
        CFI (cfiCond159) R7 load(1, XDATA, add(CFA_XSP16, literal(-6)))
        CFI (cfiCond159) ?RET_LOW load(1, XDATA, add(CFA_XSP16, literal(-5)))
        CFI (cfiCond159) ?RET_HIGH load(1, XDATA, add(CFA_XSP16, literal(-4)))
        CFI (cfiCond159) ?BRET_EXT load(1, XDATA, add(CFA_XSP16, literal(-3)))
        CFI (cfiCond159) DPL0 load(1, XDATA, add(CFA_XSP16, literal(-2)))
        CFI (cfiCond159) DPH0 load(1, XDATA, add(CFA_XSP16, literal(-1)))
        CFI (cfiCond159) CFA_SP SP+0
        CFI (cfiCond159) CFA_XSP16 add(XSP16, 40)
        CFI Block cfiPicker160 Using cfiCommon1
        CFI (cfiPicker160) NoFunction
        CFI (cfiPicker160) Picker
        MOVX    @DPTR,A
        INC     DPTR
        CLR     A
        MOVX    @DPTR,A
        RET
        CFI EndBlock cfiCond154
        CFI EndBlock cfiCond155
        CFI EndBlock cfiCond156
        CFI EndBlock cfiCond157
        CFI EndBlock cfiCond158
        CFI EndBlock cfiCond159
        CFI EndBlock cfiPicker160

        RSEG BANKED_CODE:CODE:NOROOT(0)
?Subroutine11:
        CFI Block cfiCond161 Using cfiCommon0
        CFI NoFunction
        CFI Conditional ??CrossCallReturnLabel_24
        CFI R6 load(1, XDATA, add(CFA_XSP16, literal(-10)))
        CFI VB load(1, XDATA, add(CFA_XSP16, literal(-9)))
        CFI V0 load(1, XDATA, add(CFA_XSP16, literal(-8)))
        CFI V1 load(1, XDATA, add(CFA_XSP16, literal(-7)))
        CFI R7 load(1, XDATA, add(CFA_XSP16, literal(-6)))
        CFI ?RET_LOW load(1, XDATA, add(CFA_XSP16, literal(-5)))
        CFI ?RET_HIGH load(1, XDATA, add(CFA_XSP16, literal(-4)))
        CFI ?BRET_EXT load(1, XDATA, add(CFA_XSP16, literal(-3)))
        CFI DPL0 load(1, XDATA, add(CFA_XSP16, literal(-2)))
        CFI DPH0 load(1, XDATA, add(CFA_XSP16, literal(-1)))
        CFI CFA_SP SP+0
        CFI CFA_XSP16 add(XSP16, 10)
        CFI Block cfiCond162 Using cfiCommon0
        CFI (cfiCond162) NoFunction
        CFI (cfiCond162) Conditional ??CrossCallReturnLabel_25
        CFI (cfiCond162) R6 load(1, XDATA, add(CFA_XSP16, literal(-10)))
        CFI (cfiCond162) VB load(1, XDATA, add(CFA_XSP16, literal(-9)))
        CFI (cfiCond162) V0 load(1, XDATA, add(CFA_XSP16, literal(-8)))
        CFI (cfiCond162) V1 load(1, XDATA, add(CFA_XSP16, literal(-7)))
        CFI (cfiCond162) R7 load(1, XDATA, add(CFA_XSP16, literal(-6)))
        CFI (cfiCond162) ?RET_LOW load(1, XDATA, add(CFA_XSP16, literal(-5)))
        CFI (cfiCond162) ?RET_HIGH load(1, XDATA, add(CFA_XSP16, literal(-4)))
        CFI (cfiCond162) ?BRET_EXT load(1, XDATA, add(CFA_XSP16, literal(-3)))
        CFI (cfiCond162) DPL0 load(1, XDATA, add(CFA_XSP16, literal(-2)))
        CFI (cfiCond162) DPH0 load(1, XDATA, add(CFA_XSP16, literal(-1)))
        CFI (cfiCond162) CFA_SP SP+0
        CFI (cfiCond162) CFA_XSP16 add(XSP16, 10)
        CFI Block cfiPicker163 Using cfiCommon1
        CFI (cfiPicker163) NoFunction
        CFI (cfiPicker163) Picker
        MOVX    @DPTR,A
        ; Setup parameters for call to function HalLcdDisplayPercentBar
        ; Setup parameters for call to function HalLcdDisplayPercentBar
        MOV     R1,A
        MOV     R2,#`?<Constant "">` & 0xff
        MOV     R3,#(`?<Constant "">` >> 8) & 0xff
        LCALL   ??HalLcdDisplayPercentBar?relay
        RET
        CFI EndBlock cfiCond161
        CFI EndBlock cfiCond162
        CFI EndBlock cfiPicker163

        RSEG XDATA_Z:XDATA:NOROOT(0)
        DATA8
??percent:
        DS 1
        REQUIRE __INIT_XDATA_Z

        RSEG XDATA_Z:XDATA:NOROOT(0)
        DATA16
??Light:
        DS 2
        REQUIRE __INIT_XDATA_Z

        RSEG XDATA_Z:XDATA:NOROOT(0)
        DATA8
??lightmp:
        DS 1
        REQUIRE __INIT_XDATA_Z

        RSEG XDATA_Z:XDATA:NOROOT(0)
        DATA16
??Data1:
        DS 2
        REQUIRE __INIT_XDATA_Z

        RSEG XDATA_Z:XDATA:NOROOT(0)
        DATA16
??Data2:
        DS 2
        REQUIRE __INIT_XDATA_Z

        RSEG BANK_RELAYS:CODE:REORDER:NOROOT(0)
??Smart_home_Init?relay:
        LCALL   ?BDISPATCH
        DATA
        DC24    Smart_home_Init

        RSEG BANK_RELAYS:CODE:REORDER:NOROOT(0)
??Smart_home_ProcessEvent?relay:
        LCALL   ?BDISPATCH
        DATA
        DC24    Smart_home_ProcessEvent

        RSEG BANK_RELAYS:CODE:REORDER:NOROOT(0)
??Smart_home_ProcessZDOMsgs?relay:
        LCALL   ?BDISPATCH
        DATA
        DC24    Smart_home_ProcessZDOMsgs

        RSEG BANK_RELAYS:CODE:REORDER:NOROOT(0)
??Smart_home_Motor_cmd?relay:
        LCALL   ?BDISPATCH
        DATA
        DC24    Smart_home_Motor_cmd

        RSEG BANK_RELAYS:CODE:REORDER:NOROOT(0)
??Smart_home_HandleKeys?relay:
        LCALL   ?BDISPATCH
        DATA
        DC24    Smart_home_HandleKeys

        RSEG BANK_RELAYS:CODE:REORDER:NOROOT(0)
??Smart_home_MessageMSGCB?relay:
        LCALL   ?BDISPATCH
        DATA
        DC24    Smart_home_MessageMSGCB

        RSEG BANK_RELAYS:CODE:REORDER:NOROOT(0)
??Device_check?relay:
        LCALL   ?BDISPATCH
        DATA
        DC24    Device_check

        RSEG BANK_RELAYS:CODE:REORDER:NOROOT(0)
??Smart_home_Device_check?relay:
        LCALL   ?BDISPATCH
        DATA
        DC24    Smart_home_Device_check

        RSEG BANK_RELAYS:CODE:REORDER:NOROOT(0)
??Smart_home_SendToRelayMSG?relay:
        LCALL   ?BDISPATCH
        DATA
        DC24    Smart_home_SendToRelayMSG

        RSEG BANK_RELAYS:CODE:REORDER:NOROOT(0)
??Smart_home_SendToMotorMSG?relay:
        LCALL   ?BDISPATCH
        DATA
        DC24    Smart_home_SendToMotorMSG

        RSEG BANK_RELAYS:CODE:REORDER:NOROOT(0)
??TransmitAPP_CallBack?relay:
        LCALL   ?BDISPATCH
        DATA
        DC24    TransmitAPP_CallBack

        RSEG BANK_RELAYS:CODE:REORDER:NOROOT(0)
??Smart_home_Display?relay:
        LCALL   ?BDISPATCH
        DATA
        DC24    Smart_home_Display

        RSEG XDATA_ROM_C:CONST:REORDER:NOROOT(0)
        DATA8
`?<Constant "Smart_home">`:
        DB "Smart_home"

        RSEG XDATA_ROM_C:CONST:REORDER:NOROOT(0)
        DATA8
`?<Constant "init success!\\n">`:
        DB "init success!\012"

        RSEG XDATA_ROM_C:CONST:REORDER:NOROOT(0)
        DATA8
`?<Constant "Motor max Speed">`:
        DB "Motor max Speed"

        RSEG XDATA_ROM_C:CONST:REORDER:NOROOT(0)
        DATA8
`?<Constant "Motor min Speed">`:
        DB "Motor min Speed"

        RSEG XDATA_ROM_C:CONST:REORDER:NOROOT(0)
        DATA8
`?<Constant "Allow networking">`:
        DB "Allow networking"

        RSEG XDATA_ROM_C:CONST:REORDER:NOROOT(0)
        DATA8
`?<Constant "Ban   networking">`:
        DB "Ban   networking"

        RSEG XDATA_ROM_C:CONST:REORDER:NOROOT(0)
        DATA16
`?<Constant "1">`:
        DB "1"

        RSEG XDATA_ROM_C:CONST:REORDER:NOROOT(0)
        DATA16
`?<Constant "2">`:
        DB "2"

        RSEG XDATA_ROM_C:CONST:REORDER:NOROOT(0)
        DATA16
`?<Constant "3">`:
        DB "3"

        RSEG XDATA_ROM_C:CONST:REORDER:NOROOT(0)
        DATA16
`?<Constant "4">`:
        DB "4"

        RSEG XDATA_ROM_C:CONST:REORDER:NOROOT(0)
        DATA16
`?<Constant "7">`:
        DB "7"

        RSEG XDATA_ROM_C:CONST:REORDER:NOROOT(0)
        DATA16
`?<Constant "8">`:
        DB "8"

        RSEG XDATA_ROM_C:CONST:REORDER:NOROOT(0)
        DATA8
`?<Constant "      Menu      ">`:
        DB "      Menu      "

        RSEG XDATA_ROM_C:CONST:REORDER:NOROOT(0)
        DATA16
`?<Constant " ">`:
        DB " "

        RSEG XDATA_ROM_C:CONST:REORDER:NOROOT(0)
        DATA8
`?<Constant "Hum:">`:
        DB "Hum:"

        RSEG XDATA_ROM_C:CONST:REORDER:NOROOT(0)
        DATA8
`?<Constant "% T_1:">`:
        DB "% T_1:"

        RSEG XDATA_ROM_C:CONST:REORDER:NOROOT(0)
        DATA8
`?<Constant "Hum:OFF T_1:OFF">`:
        DB "Hum:OFF T_1:OFF"

        RSEG XDATA_ROM_C:CONST:REORDER:NOROOT(0)
        DATA8
`?<Constant "Sound: Voice">`:
        DB "Sound: Voice"

        RSEG XDATA_ROM_C:CONST:REORDER:NOROOT(0)
        DATA8
        DB "Sound: Vibration"

        RSEG XDATA_ROM_C:CONST:REORDER:NOROOT(0)
        DATA8
        DB "Sound: All"

        RSEG XDATA_ROM_C:CONST:REORDER:NOROOT(0)
        DATA8
`?<Constant "Sound: None">`:
        DB "Sound: None"

        RSEG XDATA_ROM_C:CONST:REORDER:NOROOT(0)
        DATA8
`?<Constant "Sound:OFFLINE">`:
        DB "Sound:OFFLINE"

        RSEG XDATA_ROM_C:CONST:REORDER:NOROOT(0)
        DATA8
`?<Constant "">`:
        DB ""

        RSEG XDATA_ROM_C:CONST:REORDER:NOROOT(0)
        DATA8
`?<Constant "Temper_2:">`:
        DB "Temper_2:"

        RSEG XDATA_ROM_C:CONST:REORDER:NOROOT(0)
        DATA16
`?<Constant ".">`:
        DB "."

        RSEG XDATA_ROM_C:CONST:REORDER:NOROOT(0)
        DATA8
`?<Constant "Light:">`:
        DB "Light:"

        RSEG XDATA_ROM_C:CONST:REORDER:NOROOT(0)
        DATA8
`?<Constant "Temper_2:OFF">`:
        DB "Temper_2:OFF"

        RSEG XDATA_ROM_C:CONST:REORDER:NOROOT(0)
        DATA8
`?<Constant "Light:OFF">`:
        DB "Light:OFF"

        RSEG XDATA_ROM_C:CONST:REORDER:NOROOT(0)
        DATA8
`?<Constant "MFOne-S50">`:
        DB "MFOne-S50"

        RSEG XDATA_ROM_C:CONST:REORDER:NOROOT(0)
        DATA8
`?<Constant "MFOne-S70">`:
        DB "MFOne-S70"

        RSEG XDATA_ROM_C:CONST:REORDER:NOROOT(0)
        DATA8
`?<Constant "MF-UltraLight">`:
        DB "MF-UltraLight"

        RSEG XDATA_ROM_C:CONST:REORDER:NOROOT(0)
        DATA8
`?<Constant "MF-Pro">`:
        DB "MF-Pro"

        RSEG XDATA_ROM_C:CONST:REORDER:NOROOT(0)
        DATA8
`?<Constant "MF-DesFire">`:
        DB "MF-DesFire"

        RSEG XDATA_ROM_C:CONST:REORDER:NOROOT(0)
        DATA8
`?<Constant "No Card">`:
        DB "No Card"

        RSEG XDATA_ROM_C:CONST:REORDER:NOROOT(0)
        DATA8
`?<Constant "ID: ">`:
        DB "ID: "

        RSEG XDATA_ROM_C:CONST:REORDER:NOROOT(0)
        DATA16
`?<Constant "-">`:
        DB "-"

        RSEG XDATA_ROM_C:CONST:REORDER:NOROOT(0)
        DATA8
`?<Constant "GasFlame: Flame">`:
        DB "GasFlame: Flame"

        RSEG XDATA_ROM_C:CONST:REORDER:NOROOT(0)
        DATA8
        DB "GasFlame: Gas"

        RSEG XDATA_ROM_C:CONST:REORDER:NOROOT(0)
        DATA8
        DB "GasFlame: All"

        RSEG XDATA_ROM_C:CONST:REORDER:NOROOT(0)
        DATA8
`?<Constant "GasFlame: None">`:
        DB "GasFlame: None"

        RSEG XDATA_ROM_C:CONST:REORDER:NOROOT(0)
        DATA8
`?<Constant "GasFlame: OFF">`:
        DB "GasFlame: OFF"

        RSEG XDATA_ROM_C:CONST:REORDER:NOROOT(0)
        DATA8
`?<Constant "Infrared: Human">`:
        DB "Infrared: Human"

        RSEG XDATA_ROM_C:CONST:REORDER:NOROOT(0)
        DATA8
`?<Constant "Infrared: NoHuman">`:
        DB "Infrared: NoHuman"

        RSEG XDATA_ROM_C:CONST:REORDER:NOROOT(0)
        DATA8
`?<Constant "Infrared: OFF">`:
        DB "Infrared: OFF"

        RSEG XDATA_ROM_C:CONST:REORDER:NOROOT(0)
        DATA8
`?<Constant "Relay Contrling">`:
        DB "Relay Contrling"

        RSEG XDATA_ROM_C:CONST:REORDER:NOROOT(0)
        DATA8
`?<Constant "Relay Offline">`:
        DB "Relay Offline"

        RSEG XDATA_ROM_C:CONST:REORDER:NOROOT(0)
        DATA8
`?<Constant "Relay Online">`:
        DB "Relay Online"

        RSEG XDATA_ROM_C:CONST:REORDER:NOROOT(0)
        DATA8
`?<Constant "K1:ON">`:
        DB "K1:ON"

        RSEG XDATA_ROM_C:CONST:REORDER:NOROOT(0)
        DATA8
`?<Constant "K1:OFF">`:
        DB "K1:OFF"

        RSEG XDATA_ROM_C:CONST:REORDER:NOROOT(0)
        DATA8
`?<Constant "K2:ON">`:
        DB "K2:ON"

        RSEG XDATA_ROM_C:CONST:REORDER:NOROOT(0)
        DATA8
`?<Constant "K2:OFF">`:
        DB "K2:OFF"

        RSEG XDATA_ROM_C:CONST:REORDER:NOROOT(0)
        DATA8
`?<Constant "Motor Contrling">`:
        DB "Motor Contrling"

        RSEG XDATA_ROM_C:CONST:REORDER:NOROOT(0)
        DATA8
`?<Constant "Motor Offline">`:
        DB "Motor Offline"

        RSEG XDATA_ROM_C:CONST:REORDER:NOROOT(0)
        DATA8
`?<Constant "Motor Online">`:
        DB "Motor Online"

        RSEG XDATA_ROM_C:CONST:REORDER:NOROOT(0)
        DATA8
`?<Constant "Status: STOP">`:
        DB "Status: STOP"

        RSEG XDATA_ROM_C:CONST:REORDER:NOROOT(0)
        DATA8
`?<Constant "Status: FORWARD">`:
        DB "Status: FORWARD"

        RSEG XDATA_ROM_C:CONST:REORDER:NOROOT(0)
        DATA8
`?<Constant "Status: BACKWARD">`:
        DB "Status: BACKWARD"

        RSEG XDATA_ROM_C:CONST:REORDER:NOROOT(0)
        DATA8
`?<Constant "Speed:">`:
        DB "Speed:"

        END
// 1242 
// 
// 2 770 bytes in segment BANKED_CODE
//    72 bytes in segment BANK_RELAYS
//   650 bytes in segment XDATA_ROM_C
//   219 bytes in segment XDATA_Z
// 
// 2 842 bytes of CODE  memory
//   650 bytes of CONST memory
//   219 bytes of XDATA memory
//
//Errors: none
//Warnings: none
