///////////////////////////////////////////////////////////////////////////////
//                                                                            /
// IAR C/C++ Compiler V8.10.1.40194/W32 for 8051        04/Jan/2021  21:01:44 /
// Copyright 2004-2011 IAR Systems AB.                                        /
//                                                                            /
//    Core               =  plain                                             /
//    Code model         =  banked                                            /
//    Data model         =  large                                             /
//    Calling convention =  xdata reentrant                                   /
//    Constant location  =  data_rom                                          /
//    Dptr setup         =  1,16                                              /
//    Source file        =  D:\Projects_IAR\IAR_C8051\WSN-CC2530\ZStack-CC253 /
//                          0-2.5.1a_EB\Projects\zstack\MY_BOARD\Exp4\Source\ /
//                          TransmitAppRouter.c                               /
//    Command line       =  -f D:\Projects_IAR\IAR_C8051\WSN-CC2530\ZStack-CC /
//                          2530-2.5.1a_EB\Projects\zstack\MY_BOARD\Exp4\CC25 /
//                          30DB\..\..\..\Tools\CC2530DB\f8wRouter.cfg        /
//                          (-DCPU32MHZ -DROOT=__near_func                    /
//                          -DMAC_CFG_APP_PENDING_QUEUE=TRUE                  /
//                          -DMAC_CFG_TX_DATA_MAX=5 -DMAC_CFG_TX_MAX=8        /
//                          -DMAC_CFG_RX_MAX=5 -DRTR_NWK) -f                  /
//                          D:\Projects_IAR\IAR_C8051\WSN-CC2530\ZStack-CC253 /
//                          0-2.5.1a_EB\Projects\zstack\MY_BOARD\Exp4\CC2530D /
//                          B\..\..\..\Tools\CC2530DB\f8wConfig.cfg           /
//                          (-DZIGBEEPRO -DSECURE=0 -DZG_SECURE_DYNAMIC=0     /
//                          -DREFLECTOR -DDEFAULT_CHANLIST=0x02000000         /
//                          -DZDAPP_CONFIG_PAN_ID=0x1001                      /
//                          -DNWK_START_DELAY=100 -DEXTENDED_JOINING_RANDOM_M /
//                          ASK=0x007F -DBEACON_REQUEST_DELAY=100             /
//                          -DBEACON_REQ_DELAY_MASK=0x00FF                    /
//                          -DLINK_STATUS_JITTER_MASK=0x007F                  /
//                          -DROUTE_EXPIRY_TIME=30 -DAPSC_ACK_WAIT_DURATION_P /
//                          OLLED=3000 -DNWK_INDIRECT_MSG_TIMEOUT=7           /
//                          -DMAX_RREQ_ENTRIES=8 -DAPSC_MAX_FRAME_RETRIES=3   /
//                          -DNWK_MAX_DATA_RETRIES=2                          /
//                          -DMAX_POLL_FAILURE_RETRIES=2 -DMAX_BCAST=9        /
//                          -DAPS_MAX_GROUPS=16 -DMAX_RTG_ENTRIES=40          /
//                          -DNWK_MAX_BINDING_ENTRIES=4                       /
//                          -DMAX_BINDING_CLUSTER_IDS=4                       /
//                          "-DDEFAULT_KEY={0x01, 0x03, 0x05, 0x07, 0x09,     /
//                          0x0B, 0x0D, 0x0F, 0x00, 0x02, 0x04, 0x06, 0x08,   /
//                          0x0A, 0x0C, 0x0D}" -DMAC_MAX_FRAME_SIZE=116       /
//                          -DZDNWKMGR_MIN_TRANSMISSIONS=20 "-DCONST=const    /
//                          __code" -DGENERIC=__generic                       /
//                          -DRFD_RCVC_ALWAYS_ON=FALSE -DPOLL_RATE=1000       /
//                          -DQUEUED_POLL_RATE=100 -DRESPONSE_POLL_RATE=100)  /
//                          -DREJOIN_POLL_RATE=440 D:\Projects_IAR\IAR_C8051\ /
//                          WSN-CC2530\ZStack-CC2530-2.5.1a_EB\Projects\zstac /
//                          k\MY_BOARD\Exp4\Source\TransmitAppRouter.c -D     /
//                          xHAL_UART=TRUE -D xHAL_UART_TEST -D MT_SYS_FUNC   /
//                          -D ZTOOL_P1 -D MT_TASK -D xMT_APP_FUNC -D         /
//                          MT_ZDO_FUNC -lC D:\Projects_IAR\IAR_C8051\WSN-CC2 /
//                          530\ZStack-CC2530-2.5.1a_EB\Projects\zstack\MY_BO /
//                          ARD\Exp4\CC2530DB\RouterSB\List\ -lA              /
//                          D:\Projects_IAR\IAR_C8051\WSN-CC2530\ZStack-CC253 /
//                          0-2.5.1a_EB\Projects\zstack\MY_BOARD\Exp4\CC2530D /
//                          B\RouterSB\List\ --diag_suppress Pe001,Pa010 -o   /
//                          D:\Projects_IAR\IAR_C8051\WSN-CC2530\ZStack-CC253 /
//                          0-2.5.1a_EB\Projects\zstack\MY_BOARD\Exp4\CC2530D /
//                          B\RouterSB\Obj\ -e --no_code_motion --debug       /
//                          --core=plain --dptr=16,1 --data_model=large       /
//                          --code_model=banked --calling_convention=xdata_re /
//                          entrant --place_constants=data_rom                /
//                          --nr_virtual_regs 16 -I                           /
//                          D:\Projects_IAR\IAR_C8051\WSN-CC2530\ZStack-CC253 /
//                          0-2.5.1a_EB\Projects\zstack\MY_BOARD\Exp4\CC2530D /
//                          B\ -I D:\Projects_IAR\IAR_C8051\WSN-CC2530\ZStack /
//                          -CC2530-2.5.1a_EB\Projects\zstack\MY_BOARD\Exp4\C /
//                          C2530DB\..\Source\ -I D:\Projects_IAR\IAR_C8051\W /
//                          SN-CC2530\ZStack-CC2530-2.5.1a_EB\Projects\zstack /
//                          \MY_BOARD\Exp4\CC2530DB\..\..\..\ZMain\TI2530DB\  /
//                          -I D:\Projects_IAR\IAR_C8051\WSN-CC2530\ZStack-CC /
//                          2530-2.5.1a_EB\Projects\zstack\MY_BOARD\Exp4\CC25 /
//                          30DB\..\..\..\..\..\Components\hal\include\ -I    /
//                          D:\Projects_IAR\IAR_C8051\WSN-CC2530\ZStack-CC253 /
//                          0-2.5.1a_EB\Projects\zstack\MY_BOARD\Exp4\CC2530D /
//                          B\..\..\..\..\..\Components\hal\target\CC2530SB\  /
//                          -I D:\Projects_IAR\IAR_C8051\WSN-CC2530\ZStack-CC /
//                          2530-2.5.1a_EB\Projects\zstack\MY_BOARD\Exp4\CC25 /
//                          30DB\..\..\..\..\..\Components\mac\include\ -I    /
//                          D:\Projects_IAR\IAR_C8051\WSN-CC2530\ZStack-CC253 /
//                          0-2.5.1a_EB\Projects\zstack\MY_BOARD\Exp4\CC2530D /
//                          B\..\..\..\..\..\Components\mac\high_level\ -I    /
//                          D:\Projects_IAR\IAR_C8051\WSN-CC2530\ZStack-CC253 /
//                          0-2.5.1a_EB\Projects\zstack\MY_BOARD\Exp4\CC2530D /
//                          B\..\..\..\..\..\Components\mac\low_level\srf04\  /
//                          -I D:\Projects_IAR\IAR_C8051\WSN-CC2530\ZStack-CC /
//                          2530-2.5.1a_EB\Projects\zstack\MY_BOARD\Exp4\CC25 /
//                          30DB\..\..\..\..\..\Components\mac\low_level\srf0 /
//                          4\single_chip\ -I D:\Projects_IAR\IAR_C8051\WSN-C /
//                          C2530\ZStack-CC2530-2.5.1a_EB\Projects\zstack\MY_ /
//                          BOARD\Exp4\CC2530DB\..\..\..\..\..\Components\mt\ /
//                           -I D:\Projects_IAR\IAR_C8051\WSN-CC2530\ZStack-C /
//                          C2530-2.5.1a_EB\Projects\zstack\MY_BOARD\Exp4\CC2 /
//                          530DB\..\..\..\..\..\Components\osal\include\ -I  /
//                          D:\Projects_IAR\IAR_C8051\WSN-CC2530\ZStack-CC253 /
//                          0-2.5.1a_EB\Projects\zstack\MY_BOARD\Exp4\CC2530D /
//                          B\..\..\..\..\..\Components\services\saddr\ -I    /
//                          D:\Projects_IAR\IAR_C8051\WSN-CC2530\ZStack-CC253 /
//                          0-2.5.1a_EB\Projects\zstack\MY_BOARD\Exp4\CC2530D /
//                          B\..\..\..\..\..\Components\services\sdata\ -I    /
//                          D:\Projects_IAR\IAR_C8051\WSN-CC2530\ZStack-CC253 /
//                          0-2.5.1a_EB\Projects\zstack\MY_BOARD\Exp4\CC2530D /
//                          B\..\..\..\..\..\Components\stack\af\ -I          /
//                          D:\Projects_IAR\IAR_C8051\WSN-CC2530\ZStack-CC253 /
//                          0-2.5.1a_EB\Projects\zstack\MY_BOARD\Exp4\CC2530D /
//                          B\..\..\..\..\..\Components\stack\nwk\ -I         /
//                          D:\Projects_IAR\IAR_C8051\WSN-CC2530\ZStack-CC253 /
//                          0-2.5.1a_EB\Projects\zstack\MY_BOARD\Exp4\CC2530D /
//                          B\..\..\..\..\..\Components\stack\sapi\ -I        /
//                          D:\Projects_IAR\IAR_C8051\WSN-CC2530\ZStack-CC253 /
//                          0-2.5.1a_EB\Projects\zstack\MY_BOARD\Exp4\CC2530D /
//                          B\..\..\..\..\..\Components\stack\sec\ -I         /
//                          D:\Projects_IAR\IAR_C8051\WSN-CC2530\ZStack-CC253 /
//                          0-2.5.1a_EB\Projects\zstack\MY_BOARD\Exp4\CC2530D /
//                          B\..\..\..\..\..\Components\stack\sys\ -I         /
//                          D:\Projects_IAR\IAR_C8051\WSN-CC2530\ZStack-CC253 /
//                          0-2.5.1a_EB\Projects\zstack\MY_BOARD\Exp4\CC2530D /
//                          B\..\..\..\..\..\Components\stack\zdo\ -I         /
//                          D:\Projects_IAR\IAR_C8051\WSN-CC2530\ZStack-CC253 /
//                          0-2.5.1a_EB\Projects\zstack\MY_BOARD\Exp4\CC2530D /
//                          B\..\..\..\..\..\Components\zmac\ -I              /
//                          D:\Projects_IAR\IAR_C8051\WSN-CC2530\ZStack-CC253 /
//                          0-2.5.1a_EB\Projects\zstack\MY_BOARD\Exp4\CC2530D /
//                          B\..\..\..\..\..\Components\zmac\f8w\ -Ohz        /
//    List file          =  D:\Projects_IAR\IAR_C8051\WSN-CC2530\ZStack-CC253 /
//                          0-2.5.1a_EB\Projects\zstack\MY_BOARD\Exp4\CC2530D /
//                          B\RouterSB\List\TransmitAppRouter.s51             /
//                                                                            /
//                                                                            /
///////////////////////////////////////////////////////////////////////////////

        NAME TransmitAppRouter

        RTMODEL "__SystemLibrary", "CLib"
        RTMODEL "__calling_convention", "xdata_reentrant"
        RTMODEL "__code_model", "banked"
        RTMODEL "__core", "plain"
        RTMODEL "__data_model", "large"
        RTMODEL "__dptr_size", "16"
        RTMODEL "__extended_stack", "disabled"
        RTMODEL "__location_for_constants", "data"
        RTMODEL "__number_of_dptrs", "1"
        RTMODEL "__rt_version", "1"

        RSEG DOVERLAY:DATA:NOROOT(0)
        RSEG IOVERLAY:IDATA:NOROOT(0)
        RSEG ISTACK:IDATA:NOROOT(0)
        RSEG PSTACK:XDATA:NOROOT(0)
        RSEG XSTACK:XDATA:NOROOT(0)

        EXTERN ?ALLOC_XSTACK8
        EXTERN ?BANKED_ENTER_XDATA
        EXTERN ?BANKED_LEAVE_XDATA
        EXTERN ?BDISPATCH
        EXTERN ?BRET
        EXTERN ?DEALLOC_XSTACK8
        EXTERN ?V0
        EXTERN ?XSP
        EXTERN ?XSTACK_DISP0_8
        EXTERN __INIT_XDATA_Z

        FUNCTION ??TransmitAPP_CallBack?relay,0203H
        PUBLIC ??TransmitApp_HandleKeys?relay
        FUNCTION ??TransmitApp_HandleKeys?relay,0203H
        PUBLIC ??TransmitApp_Init?relay
        FUNCTION ??TransmitApp_Init?relay,0203H
        PUBLIC ??TransmitApp_MessageMSGCB?relay
        FUNCTION ??TransmitApp_MessageMSGCB?relay,0203H
        PUBLIC ??TransmitApp_ProcessEvent?relay
        FUNCTION ??TransmitApp_ProcessEvent?relay,0203H
        PUBLIC ??TransmitApp_ProcessZDOMsgs?relay
        FUNCTION ??TransmitApp_ProcessZDOMsgs?relay,0203H
        PUBLIC ??TransmitApp_SendTheMessage?relay
        FUNCTION ??TransmitApp_SendTheMessage?relay,0203H
        FUNCTION TransmitAPP_CallBack,0603H
        ARGFRAME XSTACK, 0, STACK
        PUBLIC TransmitApp_HandleKeys
        FUNCTION TransmitApp_HandleKeys,021203H
        ARGFRAME XSTACK, 12, STACK
        ARGFRAME IOVERLAY, 0, STATIC
        ARGFRAME DOVERLAY, 0, STATIC
        LOCFRAME XSTACK, 9, STACK
        PUBLIC TransmitApp_Init
        FUNCTION TransmitApp_Init,021203H
        ARGFRAME XSTACK, 0, STACK
        LOCFRAME XSTACK, 38, STACK
        PUBLIC TransmitApp_MessageMSGCB
        FUNCTION TransmitApp_MessageMSGCB,0203H
        ARGFRAME XSTACK, 0, STACK
        PUBLIC TransmitApp_ProcessEvent
        FUNCTION TransmitApp_ProcessEvent,021203H
        ARGFRAME XSTACK, 0, STACK
        LOCFRAME XSTACK, 12, STACK
        PUBLIC TransmitApp_ProcessZDOMsgs
        FUNCTION TransmitApp_ProcessZDOMsgs,021203H
        ARGFRAME XSTACK, 12, STACK
        ARGFRAME IOVERLAY, 0, STATIC
        ARGFRAME DOVERLAY, 0, STATIC
        LOCFRAME XSTACK, 10, STACK
        PUBLIC TransmitApp_SendTheMessage
        FUNCTION TransmitApp_SendTheMessage,0203H
        ARGFRAME XSTACK, 0, STACK
        PUBLIC TransmitApp_TaskID
        
        CFI Names cfiNames0
        CFI StackFrame CFA_SP SP IDATA
        CFI StackFrame CFA_PSP16 PSP16 XDATA
        CFI StackFrame CFA_XSP16 XSP16 XDATA
        CFI StaticOverlayFrame CFA_IOVERLAY IOVERLAY
        CFI StaticOverlayFrame CFA_DOVERLAY DOVERLAY
        CFI Resource `PSW.CY`:1, `B.BR0`:1, `B.BR1`:1, `B.BR2`:1, `B.BR3`:1
        CFI Resource `B.BR4`:1, `B.BR5`:1, `B.BR6`:1, `B.BR7`:1, `VB.BR8`:1
        CFI Resource `VB.BR9`:1, `VB.BR10`:1, `VB.BR11`:1, `VB.BR12`:1
        CFI Resource `VB.BR13`:1, `VB.BR14`:1, `VB.BR15`:1, VB:8, B:8, A:8
        CFI Resource PSW:8, DPL0:8, DPH0:8, R0:8, R1:8, R2:8, R3:8, R4:8, R5:8
        CFI Resource R6:8, R7:8, V0:8, V1:8, V2:8, V3:8, V4:8, V5:8, V6:8, V7:8
        CFI Resource V8:8, V9:8, V10:8, V11:8, V12:8, V13:8, V14:8, V15:8, SP:8
        CFI Resource PSPH:8, PSPL:8, PSP16:16, XSPH:8, XSPL:8, XSP16:16
        CFI VirtualResource ?RET:24
        CFI Resource ?BRET_EXT:8
        CFI VirtualResource ?RET_HIGH:8, ?RET_LOW:8
        CFI ResourceParts PSP16 PSPH, PSPL
        CFI ResourceParts XSP16 XSPH, XSPL
        CFI ResourceParts ?RET ?BRET_EXT, ?RET_HIGH, ?RET_LOW
        CFI EndNames cfiNames0
        
        CFI Common cfiCommon0 Using cfiNames0
        CFI CodeAlign 1
        CFI DataAlign -1
        CFI ReturnAddress ?RET CODE
        CFI CFA_DOVERLAY Used
        CFI CFA_IOVERLAY Used
        CFI CFA_SP SP+-3
        CFI CFA_PSP16 PSP16+0
        CFI CFA_XSP16 XSP16+0
        CFI `PSW.CY` SameValue
        CFI `B.BR0` SameValue
        CFI `B.BR1` SameValue
        CFI `B.BR2` SameValue
        CFI `B.BR3` SameValue
        CFI `B.BR4` SameValue
        CFI `B.BR5` SameValue
        CFI `B.BR6` SameValue
        CFI `B.BR7` SameValue
        CFI `VB.BR8` SameValue
        CFI `VB.BR9` SameValue
        CFI `VB.BR10` SameValue
        CFI `VB.BR11` SameValue
        CFI `VB.BR12` SameValue
        CFI `VB.BR13` SameValue
        CFI `VB.BR14` SameValue
        CFI `VB.BR15` SameValue
        CFI VB SameValue
        CFI B Undefined
        CFI A Undefined
        CFI PSW SameValue
        CFI DPL0 SameValue
        CFI DPH0 SameValue
        CFI R0 Undefined
        CFI R1 Undefined
        CFI R2 Undefined
        CFI R3 Undefined
        CFI R4 Undefined
        CFI R5 Undefined
        CFI R6 SameValue
        CFI R7 SameValue
        CFI V0 SameValue
        CFI V1 SameValue
        CFI V2 SameValue
        CFI V3 SameValue
        CFI V4 SameValue
        CFI V5 SameValue
        CFI V6 SameValue
        CFI V7 SameValue
        CFI V8 SameValue
        CFI V9 SameValue
        CFI V10 SameValue
        CFI V11 SameValue
        CFI V12 SameValue
        CFI V13 SameValue
        CFI V14 SameValue
        CFI V15 SameValue
        CFI PSPH Undefined
        CFI PSPL Undefined
        CFI XSPH Undefined
        CFI XSPL Undefined
        CFI ?RET Concat
        CFI ?BRET_EXT Frame(CFA_SP, 3)
        CFI ?RET_HIGH Frame(CFA_SP, 2)
        CFI ?RET_LOW Frame(CFA_SP, 1)
        CFI EndCommon cfiCommon0
        
HalUARTOpen         SYMBOL "HalUARTOpen"
RegisterForKeys     SYMBOL "RegisterForKeys"
osal_msg_receive    SYMBOL "osal_msg_receive"
osal_msg_deallocate SYMBOL "osal_msg_deallocate"
ZDO_ParseEPListRsp  SYMBOL "ZDO_ParseEPListRsp"
osal_mem_free       SYMBOL "osal_mem_free"
NLME_PermitJoiningRequest SYMBOL "NLME_PermitJoiningRequest"
HalLedSet           SYMBOL "HalLedSet"
??HalLedSet?relay   SYMBOL "?relay", HalLedSet
??HalUARTOpen?relay SYMBOL "?relay", HalUARTOpen
??NLME_PermitJoiningRequest?relay SYMBOL "?relay", NLME_PermitJoiningRequest
??RegisterForKeys?relay SYMBOL "?relay", RegisterForKeys
??ZDO_ParseEPListRsp?relay SYMBOL "?relay", ZDO_ParseEPListRsp
??osal_mem_free?relay SYMBOL "?relay", osal_mem_free
??osal_msg_deallocate?relay SYMBOL "?relay", osal_msg_deallocate
??osal_msg_receive?relay SYMBOL "?relay", osal_msg_receive
TransmitApp_HandleKeys SYMBOL "TransmitApp_HandleKeys"
??TransmitApp_HandleKeys?relay SYMBOL "?relay", TransmitApp_HandleKeys
TransmitApp_Init    SYMBOL "TransmitApp_Init"
??TransmitApp_Init?relay SYMBOL "?relay", TransmitApp_Init
TransmitApp_MessageMSGCB SYMBOL "TransmitApp_MessageMSGCB"
??TransmitApp_MessageMSGCB?relay SYMBOL "?relay", TransmitApp_MessageMSGCB
TransmitApp_ProcessEvent SYMBOL "TransmitApp_ProcessEvent"
??TransmitApp_ProcessEvent?relay SYMBOL "?relay", TransmitApp_ProcessEvent
TransmitApp_ProcessZDOMsgs SYMBOL "TransmitApp_ProcessZDOMsgs"
??TransmitApp_ProcessZDOMsgs?relay SYMBOL "?relay", TransmitApp_ProcessZDOMsgs
TransmitApp_SendTheMessage SYMBOL "TransmitApp_SendTheMessage"
??TransmitApp_SendTheMessage?relay SYMBOL "?relay", TransmitApp_SendTheMessage

        EXTERN HalUARTOpen
        FUNCTION HalUARTOpen,0202H
        ARGFRAME ISTACK, 0, STACK
        ARGFRAME PSTACK, 0, STACK
        ARGFRAME XSTACK, 38, STACK
        ARGFRAME IOVERLAY, 0, STATIC
        ARGFRAME DOVERLAY, 0, STATIC
        EXTERN RegisterForKeys
        FUNCTION RegisterForKeys,0202H
        ARGFRAME ISTACK, 0, STACK
        ARGFRAME PSTACK, 0, STACK
        ARGFRAME XSTACK, 38, STACK
        ARGFRAME IOVERLAY, 0, STATIC
        ARGFRAME DOVERLAY, 0, STATIC
        EXTERN osal_msg_receive
        FUNCTION osal_msg_receive,0202H
        ARGFRAME ISTACK, 0, STACK
        ARGFRAME PSTACK, 0, STACK
        ARGFRAME XSTACK, 12, STACK
        ARGFRAME IOVERLAY, 0, STATIC
        ARGFRAME DOVERLAY, 0, STATIC
        EXTERN osal_msg_deallocate
        FUNCTION osal_msg_deallocate,0202H
        ARGFRAME ISTACK, 0, STACK
        ARGFRAME PSTACK, 0, STACK
        ARGFRAME XSTACK, 12, STACK
        ARGFRAME IOVERLAY, 0, STATIC
        ARGFRAME DOVERLAY, 0, STATIC
        EXTERN ZDO_ParseEPListRsp
        FUNCTION ZDO_ParseEPListRsp,0202H
        ARGFRAME ISTACK, 0, STACK
        ARGFRAME PSTACK, 0, STACK
        ARGFRAME XSTACK, 10, STACK
        ARGFRAME IOVERLAY, 0, STATIC
        ARGFRAME DOVERLAY, 0, STATIC
        EXTERN osal_mem_free
        FUNCTION osal_mem_free,0202H
        ARGFRAME ISTACK, 0, STACK
        ARGFRAME PSTACK, 0, STACK
        ARGFRAME XSTACK, 10, STACK
        ARGFRAME IOVERLAY, 0, STATIC
        ARGFRAME DOVERLAY, 0, STATIC
        EXTERN NLME_PermitJoiningRequest
        FUNCTION NLME_PermitJoiningRequest,0202H
        ARGFRAME ISTACK, 0, STACK
        ARGFRAME PSTACK, 0, STACK
        ARGFRAME XSTACK, 9, STACK
        ARGFRAME IOVERLAY, 0, STATIC
        ARGFRAME DOVERLAY, 0, STATIC
        EXTERN HalLedSet
        FUNCTION HalLedSet,0202H
        ARGFRAME ISTACK, 0, STACK
        ARGFRAME PSTACK, 0, STACK
        ARGFRAME XSTACK, 9, STACK
        ARGFRAME IOVERLAY, 0, STATIC
        ARGFRAME DOVERLAY, 0, STATIC
        EXTERN ??HalLedSet?relay
        FUNCTION ??HalLedSet?relay,00H
        EXTERN ??HalUARTOpen?relay
        FUNCTION ??HalUARTOpen?relay,00H
        EXTERN ??NLME_PermitJoiningRequest?relay
        FUNCTION ??NLME_PermitJoiningRequest?relay,00H
        EXTERN ??RegisterForKeys?relay
        FUNCTION ??RegisterForKeys?relay,00H
        EXTERN ??ZDO_ParseEPListRsp?relay
        FUNCTION ??ZDO_ParseEPListRsp?relay,00H
        EXTERN ??osal_mem_free?relay
        FUNCTION ??osal_mem_free?relay,00H
        EXTERN ??osal_msg_deallocate?relay
        FUNCTION ??osal_msg_deallocate?relay,00H
        EXTERN ??osal_msg_receive?relay
        FUNCTION ??osal_msg_receive?relay,00H

// D:\Projects_IAR\IAR_C8051\WSN-CC2530\ZStack-CC2530-2.5.1a_EB\Projects\zstack\MY_BOARD\Exp4\Source\TransmitAppRouter.c
//    1 /*******************************************************************************
//    2   文 件 名：TransmitAppRouter.c
//    3   作    者：南京安宸博研电子科技有限公司
//    4   创建时间：2013.9.20
//    5   修改时间：2020.12.22
//    6   IAR 版本：IAR for 8051 V8.10.1
//    7   测试平台：MotherBoard V2.1
//    8 
//    9   说    明：
//   10             (1)路由器的主要功能提供组网服务，当协调器组建好网络后，路由设备加入，
//   11                并接手维持网络的任务。此时，如果协调器离网，不会导致终端设备离线；
//   12                如果协调器需要回到原来的网络中，协调器端必须打开NV编译选项。
//   13             (2)按键(SW5)可打开或关闭组网功能，同时控制LED灯。
//   14                LED灯亮表示可以组网，灯灭表示不支持组网。
//   15 *******************************************************************************/
//   16 
//   17 /*******************************************************************************
//   18  * INCLUDES
//   19  */
//   20 #include "OSAL.h"
//   21 #include "AF.h"
//   22 #include "ZDObject.h"
//   23 #include "ZDProfile.h"
//   24 
//   25 #include "TransmitApp.h"
//   26 #include "OnBoard.h"
//   27 
//   28 #include "DebugTrace.h"
//   29 
//   30 
//   31 #include <string.h>
//   32 
//   33 /* HAL */
//   34 #include "hal_led.h"
//   35 #include "hal_key.h"
//   36 #include "hal_uart.h"
//   37 
//   38 /*******************************************************************************
//   39  * MACROS
//   40  */
//   41 
//   42 // This is the Cluster ID List and should be filled with Application
//   43 // specific cluster IDs.
//   44 
//   45 // This is the Endpoint/Interface description.  It is defined here, but
//   46 // filled-in in TransmitApp_Init().  Another way to go would be to fill
//   47 // in the structure here and make it a "const" (in code space).  The
//   48 // way it's defined in this sample app it is define in RAM.
//   49 
//   50 /*******************************************************************************
//   51  * LOCAL VARIABLES
//   52  */
//   53 #if !defined( SERIAL_APP_PORT )
//   54 #define SERIAL_APP_PORT     0
//   55 #endif
//   56 
//   57 #if !defined( SERIAL_APP_BAUD )
//   58 #define SERIAL_APP_BAUD  HAL_UART_BR_38400
//   59 #endif
//   60 
//   61 // When the Rx buf space is less than this threshold, invoke the Rx callback.
//   62 #if !defined( SERIAL_APP_THRESH )
//   63 #define SERIAL_APP_THRESH   64
//   64 #endif
//   65 
//   66 #if !defined( SERIAL_APP_RX_SZ )
//   67 #define SERIAL_APP_RX_SZ    128
//   68 #endif
//   69 
//   70 #if !defined( SERIAL_APP_TX_SZ )
//   71 #define SERIAL_APP_TX_SZ    128
//   72 #endif
//   73 
//   74 // Millisecs of idle time after a byte is received before invoking Rx callback.
//   75 #if !defined( SERIAL_APP_IDLE )
//   76 #define SERIAL_APP_IDLE     6
//   77 #endif
//   78 
//   79 // Loopback Rx bytes to Tx for throughput testing.
//   80 #if !defined( SERIAL_APP_LOOPBACK )
//   81 #define SERIAL_APP_LOOPBACK  FALSE
//   82 #endif
//   83 
//   84 // This is the max byte count per OTA message.
//   85 #if !defined( SERIAL_APP_TX_MAX )
//   86 #define SERIAL_APP_TX_MAX   80
//   87 #endif
//   88 
//   89 #define SERIAL_APP_RSP_CNT  4
//   90 
//   91 // Task ID for event processing - received when TransmitApp_Init() is called.

        RSEG XDATA_Z:XDATA:NOROOT(0)
        DATA8
//   92 byte TransmitApp_TaskID;
TransmitApp_TaskID:
        DS 1
        REQUIRE __INIT_XDATA_Z
//   93 
//   94 /*******************************************************************************
//   95  * LOCAL FUNCTIONS
//   96  */
//   97 void TransmitApp_ProcessZDOMsgs( zdoIncomingMsg_t *inMsg );
//   98 void TransmitApp_HandleKeys( byte shift, byte keys );
//   99 void TransmitApp_MessageMSGCB( afIncomingMSGPacket_t *pckt );
//  100 void TransmitApp_SendTheMessage( void );
//  101 void TransmitApp_ChangeState( void );
//  102 void TransmitAPP_CallBack(uint8 port, uint8 event);
//  103 
//  104 /*******************************************************************************
//  105  * @fn      TransmitApp_Init
//  106  *
//  107  * @brief   Initialization function for the Generic App Task.
//  108  *          This is called during initialization and should contain
//  109  *          any application specific initialization (ie. hardware
//  110  *          initialization/setup, table initialization, power up
//  111  *          notificaiton ... ).
//  112  *
//  113  * @param   task_id - the ID assigned by OSAL.  This ID should be
//  114  *                    used to send messages and set timers.
//  115  *
//  116  * @return  none
//  117  */

        RSEG BANKED_CODE:CODE:NOROOT(0)
//  118 void TransmitApp_Init( byte task_id )
TransmitApp_Init:
        CFI Block cfiBlock0 Using cfiCommon0
        CFI Function TransmitApp_Init
        CODE
//  119 {
        FUNCALL TransmitApp_Init, HalUARTOpen
        LOCFRAME ISTACK, 0, STACK
        LOCFRAME PSTACK, 0, STACK
        LOCFRAME XSTACK, 38, STACK
        LOCFRAME IOVERLAY, 0, STATIC
        LOCFRAME DOVERLAY, 0, STATIC
        ARGFRAME ISTACK, 0, STACK
        ARGFRAME PSTACK, 0, STACK
        ARGFRAME XSTACK, 38, STACK
        ARGFRAME IOVERLAY, 0, STATIC
        ARGFRAME DOVERLAY, 0, STATIC
        FUNCALL TransmitApp_Init, RegisterForKeys
        LOCFRAME ISTACK, 0, STACK
        LOCFRAME PSTACK, 0, STACK
        LOCFRAME XSTACK, 38, STACK
        LOCFRAME IOVERLAY, 0, STATIC
        LOCFRAME DOVERLAY, 0, STATIC
        ARGFRAME ISTACK, 0, STACK
        ARGFRAME PSTACK, 0, STACK
        ARGFRAME XSTACK, 38, STACK
        ARGFRAME IOVERLAY, 0, STATIC
        ARGFRAME DOVERLAY, 0, STATIC
        MOV     A,#-0x9
        LCALL   ?BANKED_ENTER_XDATA
        CFI DPH0 load(1, XDATA, add(CFA_XSP16, literal(-1)))
        CFI DPL0 load(1, XDATA, add(CFA_XSP16, literal(-2)))
        CFI ?BRET_EXT load(1, XDATA, add(CFA_XSP16, literal(-3)))
        CFI ?RET_HIGH load(1, XDATA, add(CFA_XSP16, literal(-4)))
        CFI ?RET_LOW load(1, XDATA, add(CFA_XSP16, literal(-5)))
        CFI R7 load(1, XDATA, add(CFA_XSP16, literal(-6)))
        CFI V0 load(1, XDATA, add(CFA_XSP16, literal(-7)))
        CFI VB load(1, XDATA, add(CFA_XSP16, literal(-8)))
        CFI R6 load(1, XDATA, add(CFA_XSP16, literal(-9)))
        CFI CFA_SP SP+0
        CFI CFA_XSP16 add(XSP16, 9)
        ; Saved register size: 9
        ; Auto size: 29
        MOV     A,#-0x1d
        LCALL   ?ALLOC_XSTACK8
        CFI CFA_XSP16 add(XSP16, 38)
        MOV     A,R1
        MOV     R6,A
//  120 #if (HAL_UART==TRUE)
//  121   halUARTCfg_t uartConfig;
//  122   
//  123   uartConfig.configured           = TRUE;               // 2x30 don't care - see uart driver.
        MOV     DPL,?XSP + 0
        MOV     DPH,?XSP + 1
        MOV     A,#0x1
        MOVX    @DPTR,A
//  124   uartConfig.baudRate             = SERIAL_APP_BAUD;
        LCALL   ?XSTACK_DISP0_8
        MOV     A,#0x2
        MOVX    @DPTR,A
//  125   uartConfig.flowControl          = FALSE;
        LCALL   ?XSTACK_DISP0_8
        CLR     A
        MOVX    @DPTR,A
//  126   uartConfig.flowControlThreshold = SERIAL_APP_THRESH;  // 2x30 don't care - see uart driver.
        MOV     A,#0x3
        LCALL   ?XSTACK_DISP0_8
        MOV     A,#0x40
        MOVX    @DPTR,A
        INC     DPTR
        CLR     A
        MOVX    @DPTR,A
//  127   uartConfig.rx.maxBufSize        = SERIAL_APP_RX_SZ;   // 2x30 don't care - see uart driver.
        MOV     A,#0xa
        LCALL   ?XSTACK_DISP0_8
        MOV     A,#-0x80
        MOVX    @DPTR,A
        INC     DPTR
        CLR     A
        MOVX    @DPTR,A
//  128   uartConfig.tx.maxBufSize        = SERIAL_APP_TX_SZ;   // 2x30 don't care - see uart driver.
        MOV     A,#0x12
        LCALL   ?XSTACK_DISP0_8
        MOV     A,#-0x80
        MOVX    @DPTR,A
        INC     DPTR
        CLR     A
        MOVX    @DPTR,A
//  129   uartConfig.idleTimeout          = SERIAL_APP_IDLE;    // 2x30 don't care - see uart driver.
        MOV     A,#0x5
        LCALL   ?XSTACK_DISP0_8
        MOV     A,#0x6
        MOVX    @DPTR,A
//  130   uartConfig.intEnable            = FALSE;              // 2x30 don't care - see uart driver.
        MOV     A,#0x16
        LCALL   ?XSTACK_DISP0_8
        CLR     A
        MOVX    @DPTR,A
//  131   uartConfig.callBackFunc         = TransmitAPP_CallBack;
        MOV     A,#0x1b
        LCALL   ?XSTACK_DISP0_8
        MOV     A,#??TransmitAPP_CallBack?relay & 0xff
        MOVX    @DPTR,A
        INC     DPTR
        MOV     A,#(??TransmitAPP_CallBack?relay >> 8) & 0xff
        MOVX    @DPTR,A
//  132   HalUARTOpen (HAL_UART_PORT_0, &uartConfig);
        ; Setup parameters for call to function HalUARTOpen
        MOV     DPL,?XSP + 0
        MOV     DPH,?XSP + 1
        MOV     R2,DPL
        MOV     R3,DPH
        MOV     R1,#0x0
        LCALL   ??HalUARTOpen?relay
//  133 #endif
//  134   
//  135   TransmitApp_TaskID = task_id;
        MOV     A,R6
        MOV     DPTR,#TransmitApp_TaskID
        MOVX    @DPTR,A
//  136   RegisterForKeys( TransmitApp_TaskID );    
        ; Setup parameters for call to function RegisterForKeys
        MOV     R1,A
        LCALL   ??RegisterForKeys?relay
//  137 }
        MOV     A,#0x1d
        LCALL   ?DEALLOC_XSTACK8
        CFI EndBlock cfiBlock0
        REQUIRE ?Subroutine0
        ; // Fall through to label ?Subroutine0

        RSEG BANKED_CODE:CODE:NOROOT(0)
?Subroutine0:
        CFI Block cfiBlock1 Using cfiCommon0
        CFI NoFunction
        CFI CFA_SP SP+0
        CFI CFA_XSP16 add(XSP16, 9)
        CFI VB load(1, XDATA, add(CFA_XSP16, literal(-8)))
        CFI DPL0 load(1, XDATA, add(CFA_XSP16, literal(-2)))
        CFI DPH0 load(1, XDATA, add(CFA_XSP16, literal(-1)))
        CFI R6 load(1, XDATA, add(CFA_XSP16, literal(-9)))
        CFI R7 load(1, XDATA, add(CFA_XSP16, literal(-6)))
        CFI V0 load(1, XDATA, add(CFA_XSP16, literal(-7)))
        CFI ?BRET_EXT load(1, XDATA, add(CFA_XSP16, literal(-3)))
        CFI ?RET_HIGH load(1, XDATA, add(CFA_XSP16, literal(-4)))
        CFI ?RET_LOW load(1, XDATA, add(CFA_XSP16, literal(-5)))
        MOV     R7,#0x1
        LJMP    ?BANKED_LEAVE_XDATA
        CFI EndBlock cfiBlock1
//  138 
//  139 /*******************************************************************************
//  140  * @fn      TransmitApp_ProcessEvent
//  141  *
//  142  * @brief   Generic Application Task event processor.  This function
//  143  *          is called to process all events for the task.  Events
//  144  *          include timers, messages and any other user defined events.
//  145  *
//  146  * @param   task_id  - The OSAL assigned task ID.
//  147  * @param   events - events to process.  This is a bit map and can
//  148  *                   contain more than one event.
//  149  *
//  150  * @return  none
//  151  */

        RSEG BANKED_CODE:CODE:NOROOT(0)
//  152 UINT16 TransmitApp_ProcessEvent( byte task_id, UINT16 events )
TransmitApp_ProcessEvent:
        CFI Block cfiBlock2 Using cfiCommon0
        CFI Function TransmitApp_ProcessEvent
        CODE
//  153 {
        FUNCALL TransmitApp_ProcessEvent, osal_msg_receive
        LOCFRAME ISTACK, 0, STACK
        LOCFRAME PSTACK, 0, STACK
        LOCFRAME XSTACK, 12, STACK
        LOCFRAME IOVERLAY, 0, STATIC
        LOCFRAME DOVERLAY, 0, STATIC
        ARGFRAME ISTACK, 0, STACK
        ARGFRAME PSTACK, 0, STACK
        ARGFRAME XSTACK, 12, STACK
        ARGFRAME IOVERLAY, 0, STATIC
        ARGFRAME DOVERLAY, 0, STATIC
        FUNCALL TransmitApp_ProcessEvent, TransmitApp_HandleKeys
        LOCFRAME ISTACK, 0, STACK
        LOCFRAME PSTACK, 0, STACK
        LOCFRAME XSTACK, 12, STACK
        LOCFRAME IOVERLAY, 0, STATIC
        LOCFRAME DOVERLAY, 0, STATIC
        ARGFRAME ISTACK, 0, STACK
        ARGFRAME PSTACK, 0, STACK
        ARGFRAME XSTACK, 12, STACK
        ARGFRAME IOVERLAY, 0, STATIC
        ARGFRAME DOVERLAY, 0, STATIC
        FUNCALL TransmitApp_ProcessEvent, osal_msg_deallocate
        LOCFRAME ISTACK, 0, STACK
        LOCFRAME PSTACK, 0, STACK
        LOCFRAME XSTACK, 12, STACK
        LOCFRAME IOVERLAY, 0, STATIC
        LOCFRAME DOVERLAY, 0, STATIC
        ARGFRAME ISTACK, 0, STACK
        ARGFRAME PSTACK, 0, STACK
        ARGFRAME XSTACK, 12, STACK
        ARGFRAME IOVERLAY, 0, STATIC
        ARGFRAME DOVERLAY, 0, STATIC
        FUNCALL TransmitApp_ProcessEvent, osal_msg_receive
        LOCFRAME ISTACK, 0, STACK
        LOCFRAME PSTACK, 0, STACK
        LOCFRAME XSTACK, 12, STACK
        LOCFRAME IOVERLAY, 0, STATIC
        LOCFRAME DOVERLAY, 0, STATIC
        ARGFRAME ISTACK, 0, STACK
        ARGFRAME PSTACK, 0, STACK
        ARGFRAME XSTACK, 12, STACK
        ARGFRAME IOVERLAY, 0, STATIC
        ARGFRAME DOVERLAY, 0, STATIC
        FUNCALL TransmitApp_ProcessEvent, TransmitApp_ProcessZDOMsgs
        LOCFRAME ISTACK, 0, STACK
        LOCFRAME PSTACK, 0, STACK
        LOCFRAME XSTACK, 12, STACK
        LOCFRAME IOVERLAY, 0, STATIC
        LOCFRAME DOVERLAY, 0, STATIC
        ARGFRAME ISTACK, 0, STACK
        ARGFRAME PSTACK, 0, STACK
        ARGFRAME XSTACK, 12, STACK
        ARGFRAME IOVERLAY, 0, STATIC
        ARGFRAME DOVERLAY, 0, STATIC
        MOV     A,#-0xc
        LCALL   ?BANKED_ENTER_XDATA
        CFI DPH0 load(1, XDATA, add(CFA_XSP16, literal(-1)))
        CFI DPL0 load(1, XDATA, add(CFA_XSP16, literal(-2)))
        CFI ?BRET_EXT load(1, XDATA, add(CFA_XSP16, literal(-3)))
        CFI ?RET_HIGH load(1, XDATA, add(CFA_XSP16, literal(-4)))
        CFI ?RET_LOW load(1, XDATA, add(CFA_XSP16, literal(-5)))
        CFI R7 load(1, XDATA, add(CFA_XSP16, literal(-6)))
        CFI V3 load(1, XDATA, add(CFA_XSP16, literal(-7)))
        CFI V2 load(1, XDATA, add(CFA_XSP16, literal(-8)))
        CFI V1 load(1, XDATA, add(CFA_XSP16, literal(-9)))
        CFI V0 load(1, XDATA, add(CFA_XSP16, literal(-10)))
        CFI VB load(1, XDATA, add(CFA_XSP16, literal(-11)))
        CFI R6 load(1, XDATA, add(CFA_XSP16, literal(-12)))
        CFI CFA_SP SP+0
        CFI CFA_XSP16 add(XSP16, 12)
        ; Saved register size: 12
        ; Auto size: 0
        MOV     ?V0 + 0,R2
        MOV     ?V0 + 1,R3
//  154   afIncomingMSGPacket_t *MSGpkt;
//  155   afDataConfirm_t *afDataConfirm;
//  156   (void)task_id;  // Intentionally unreferenced parameter
//  157 
//  158   // Data Confirmation message fields
//  159   ZStatus_t sentStatus;
//  160   byte sentEP;
//  161 
//  162   if ( events & SYS_EVENT_MSG )
        MOV     A,R3
        ANL     A,#0x80
        JZ      ??TransmitApp_ProcessEvent_0
//  163   {
//  164     MSGpkt = (afIncomingMSGPacket_t *)osal_msg_receive( TransmitApp_TaskID );
        ; Setup parameters for call to function osal_msg_receive
        SJMP    ??TransmitApp_ProcessEvent_1
//  165     while ( MSGpkt )
//  166     {
//  167       switch ( MSGpkt->hdr.event )
//  168       {
//  169         case ZDO_CB_MSG:
//  170           TransmitApp_ProcessZDOMsgs( (zdoIncomingMsg_t *)MSGpkt );
//  171           break;
//  172 
//  173         case KEY_CHANGE:
//  174           TransmitApp_HandleKeys( ((keyChange_t *)MSGpkt)->state, ((keyChange_t *)MSGpkt)->keys );
??TransmitApp_ProcessEvent_2:
        ; Setup parameters for call to function TransmitApp_HandleKeys
        INC     DPTR
        INC     DPTR
        INC     DPTR
        MOVX    A,@DPTR
        MOV     R2,A
        MOV     DPL,R6
        MOV     DPH,R7
        INC     DPTR
        INC     DPTR
        MOVX    A,@DPTR
        MOV     R1,A
        LCALL   ??TransmitApp_HandleKeys?relay
//  175           break;
//  176 
//  177         case AF_DATA_CONFIRM_CMD:
//  178           // This message is received as a confirmation of a data packet sent.
//  179           // The status is of ZStatus_t type [defined in ZComDef.h]
//  180           // The message fields are defined in AF.h
//  181           afDataConfirm = (afDataConfirm_t *)MSGpkt;
//  182           sentEP = afDataConfirm->endpoint;
//  183           sentStatus = afDataConfirm->hdr.status;
//  184           break;
//  185 
//  186         case AF_INCOMING_MSG_CMD:
//  187           TransmitApp_MessageMSGCB( MSGpkt );
//  188           break;
//  189 
//  190         case ZDO_STATE_CHANGE:
//  191           break;
//  192 
//  193         default:
//  194           break;
//  195       }
//  196 
//  197       // Release the memory
//  198       osal_msg_deallocate( (uint8 *)MSGpkt );
??TransmitApp_ProcessEvent_3:
        ; Setup parameters for call to function osal_msg_deallocate
        MOV     A,R6
        MOV     R2,A
        MOV     A,R7
        MOV     R3,A
        LCALL   ??osal_msg_deallocate?relay
//  199 
//  200       // Next
//  201       MSGpkt = (afIncomingMSGPacket_t *)osal_msg_receive( TransmitApp_TaskID );
        ; Setup parameters for call to function osal_msg_receive
??TransmitApp_ProcessEvent_1:
        MOV     DPTR,#TransmitApp_TaskID
        MOVX    A,@DPTR
        MOV     R1,A
        LCALL   ??osal_msg_receive?relay
        MOV     ?V0 + 2,R2
        MOV     ?V0 + 3,R3
        MOV     R6,?V0 + 2
        MOV     R7,?V0 + 3
        MOV     A,R6
        ORL     A,R7
        JZ      ??TransmitApp_ProcessEvent_4
        MOV     DPL,R6
        MOV     DPH,R7
        MOVX    A,@DPTR
        ADD     A,#0x40
        JZ      ??TransmitApp_ProcessEvent_2
        ADD     A,#-0x13
        JNZ     ??TransmitApp_ProcessEvent_3
        ; Setup parameters for call to function TransmitApp_ProcessZDOMsgs
        MOV     A,R6
        MOV     R2,A
        MOV     A,R7
        MOV     R3,A
        LCALL   ??TransmitApp_ProcessZDOMsgs?relay
        SJMP    ??TransmitApp_ProcessEvent_3
//  202     }
//  203 
//  204     // Squash compiler warnings until values are used.
//  205     (void)sentStatus;
//  206     (void)sentEP;
//  207 
//  208     // Return unprocessed events
//  209     return (events ^ SYS_EVENT_MSG);
??TransmitApp_ProcessEvent_4:
        MOV     R2,?V0 + 0
        MOV     A,?V0 + 1
        XRL     A,#0x80
        MOV     R3,A
        SJMP    ??TransmitApp_ProcessEvent_5
//  210   }
//  211 
//  212   // Discard unknown events
//  213   return 0;
??TransmitApp_ProcessEvent_0:
        MOV     R2,#0x0
        MOV     R3,#0x0
??TransmitApp_ProcessEvent_5:
        MOV     R7,#0x4
        LJMP    ?BANKED_LEAVE_XDATA
        CFI EndBlock cfiBlock2
//  214 }
//  215 
//  216 /*********************************************************************
//  217  * Event Generation Functions
//  218  */
//  219 /*********************************************************************
//  220  * @fn      TransmitApp_ProcessZDOMsgs()
//  221  *
//  222  * @brief   Process response messages
//  223  *
//  224  * @param   none
//  225  *
//  226  * @return  none
//  227  */

        RSEG BANKED_CODE:CODE:NOROOT(0)
//  228 void TransmitApp_ProcessZDOMsgs( zdoIncomingMsg_t *inMsg )
TransmitApp_ProcessZDOMsgs:
        CFI Block cfiBlock3 Using cfiCommon0
        CFI Function TransmitApp_ProcessZDOMsgs
        CODE
//  229 {
        FUNCALL TransmitApp_ProcessZDOMsgs, ZDO_ParseEPListRsp
        LOCFRAME ISTACK, 0, STACK
        LOCFRAME PSTACK, 0, STACK
        LOCFRAME XSTACK, 10, STACK
        LOCFRAME IOVERLAY, 0, STATIC
        LOCFRAME DOVERLAY, 0, STATIC
        ARGFRAME ISTACK, 0, STACK
        ARGFRAME PSTACK, 0, STACK
        ARGFRAME XSTACK, 10, STACK
        ARGFRAME IOVERLAY, 0, STATIC
        ARGFRAME DOVERLAY, 0, STATIC
        FUNCALL TransmitApp_ProcessZDOMsgs, osal_mem_free
        LOCFRAME ISTACK, 0, STACK
        LOCFRAME PSTACK, 0, STACK
        LOCFRAME XSTACK, 10, STACK
        LOCFRAME IOVERLAY, 0, STATIC
        LOCFRAME DOVERLAY, 0, STATIC
        ARGFRAME ISTACK, 0, STACK
        ARGFRAME PSTACK, 0, STACK
        ARGFRAME XSTACK, 10, STACK
        ARGFRAME IOVERLAY, 0, STATIC
        ARGFRAME DOVERLAY, 0, STATIC
        MOV     A,#-0xa
        LCALL   ?BANKED_ENTER_XDATA
        CFI DPH0 load(1, XDATA, add(CFA_XSP16, literal(-1)))
        CFI DPL0 load(1, XDATA, add(CFA_XSP16, literal(-2)))
        CFI ?BRET_EXT load(1, XDATA, add(CFA_XSP16, literal(-3)))
        CFI ?RET_HIGH load(1, XDATA, add(CFA_XSP16, literal(-4)))
        CFI ?RET_LOW load(1, XDATA, add(CFA_XSP16, literal(-5)))
        CFI R7 load(1, XDATA, add(CFA_XSP16, literal(-6)))
        CFI V1 load(1, XDATA, add(CFA_XSP16, literal(-7)))
        CFI V0 load(1, XDATA, add(CFA_XSP16, literal(-8)))
        CFI VB load(1, XDATA, add(CFA_XSP16, literal(-9)))
        CFI R6 load(1, XDATA, add(CFA_XSP16, literal(-10)))
        CFI CFA_SP SP+0
        CFI CFA_XSP16 add(XSP16, 10)
        ; Saved register size: 10
        ; Auto size: 0
//  230   switch ( inMsg->clusterID )
        MOV     A,R2
        ADD     A,#0xc
        MOV     DPL,A
        MOV     A,R3
        ADDC    A,#0x0
        MOV     DPH,A
        MOVX    A,@DPTR
        XRL     A,#0x6
        JNZ     ??TransmitApp_ProcessZDOMsgs_0
        INC     DPTR
        MOVX    A,@DPTR
        XRL     A,#0x80
??TransmitApp_ProcessZDOMsgs_0:
        JNZ     ??TransmitApp_ProcessZDOMsgs_1
//  231   {
//  232     case End_Device_Bind_rsp:
//  233       if ( ZDO_ParseBindRsp( inMsg ) == ZSuccess )
//  234       {
//  235       }
//  236       break;
//  237 
//  238     case Match_Desc_rsp:
//  239       ZDO_ActiveEndpointRsp_t *pRsp = ZDO_ParseEPListRsp( inMsg );
        ; Setup parameters for call to function ZDO_ParseEPListRsp
        LCALL   ??ZDO_ParseEPListRsp?relay
//  240       if ( pRsp )
        MOV     A,R2
        ORL     A,R3
        JZ      ??TransmitApp_ProcessZDOMsgs_1
//  241       {
//  242           if ( pRsp->status == ZSuccess && pRsp->cnt )
//  243           {
//  244           }
//  245           else
//  246           {
//  247           }
//  248           osal_mem_free( pRsp );
        ; Setup parameters for call to function osal_mem_free
        LCALL   ??osal_mem_free?relay
//  249       }
//  250       break;
//  251 
//  252     default:
//  253       break;
//  254   }
//  255 }
??TransmitApp_ProcessZDOMsgs_1:
        MOV     R7,#0x2
        LJMP    ?BANKED_LEAVE_XDATA
        CFI EndBlock cfiBlock3
//  256 
//  257 /*******************************************************************************
//  258  * @fn      TransmitApp_HandleKeys
//  259  *
//  260  * @brief   Handles all key events for this device.
//  261  *
//  262  * @param   shift - true if in shift/alt.
//  263  * @param   keys - bit field for key events. 
//  264  *
//  265  * @return  none
//  266  */

        RSEG BANKED_CODE:CODE:NOROOT(0)
//  267 void TransmitApp_HandleKeys( byte shift, byte keys )
TransmitApp_HandleKeys:
        CFI Block cfiBlock4 Using cfiCommon0
        CFI Function TransmitApp_HandleKeys
        CODE
//  268 {
        FUNCALL TransmitApp_HandleKeys, NLME_PermitJoiningRequest
        LOCFRAME ISTACK, 0, STACK
        LOCFRAME PSTACK, 0, STACK
        LOCFRAME XSTACK, 9, STACK
        LOCFRAME IOVERLAY, 0, STATIC
        LOCFRAME DOVERLAY, 0, STATIC
        ARGFRAME ISTACK, 0, STACK
        ARGFRAME PSTACK, 0, STACK
        ARGFRAME XSTACK, 9, STACK
        ARGFRAME IOVERLAY, 0, STATIC
        ARGFRAME DOVERLAY, 0, STATIC
        FUNCALL TransmitApp_HandleKeys, HalLedSet
        LOCFRAME ISTACK, 0, STACK
        LOCFRAME PSTACK, 0, STACK
        LOCFRAME XSTACK, 9, STACK
        LOCFRAME IOVERLAY, 0, STATIC
        LOCFRAME DOVERLAY, 0, STATIC
        ARGFRAME ISTACK, 0, STACK
        ARGFRAME PSTACK, 0, STACK
        ARGFRAME XSTACK, 9, STACK
        ARGFRAME IOVERLAY, 0, STATIC
        ARGFRAME DOVERLAY, 0, STATIC
        FUNCALL TransmitApp_HandleKeys, NLME_PermitJoiningRequest
        LOCFRAME ISTACK, 0, STACK
        LOCFRAME PSTACK, 0, STACK
        LOCFRAME XSTACK, 9, STACK
        LOCFRAME IOVERLAY, 0, STATIC
        LOCFRAME DOVERLAY, 0, STATIC
        ARGFRAME ISTACK, 0, STACK
        ARGFRAME PSTACK, 0, STACK
        ARGFRAME XSTACK, 9, STACK
        ARGFRAME IOVERLAY, 0, STATIC
        ARGFRAME DOVERLAY, 0, STATIC
        FUNCALL TransmitApp_HandleKeys, HalLedSet
        LOCFRAME ISTACK, 0, STACK
        LOCFRAME PSTACK, 0, STACK
        LOCFRAME XSTACK, 9, STACK
        LOCFRAME IOVERLAY, 0, STATIC
        LOCFRAME DOVERLAY, 0, STATIC
        ARGFRAME ISTACK, 0, STACK
        ARGFRAME PSTACK, 0, STACK
        ARGFRAME XSTACK, 9, STACK
        ARGFRAME IOVERLAY, 0, STATIC
        ARGFRAME DOVERLAY, 0, STATIC
        MOV     A,#-0x9
        LCALL   ?BANKED_ENTER_XDATA
        CFI DPH0 load(1, XDATA, add(CFA_XSP16, literal(-1)))
        CFI DPL0 load(1, XDATA, add(CFA_XSP16, literal(-2)))
        CFI ?BRET_EXT load(1, XDATA, add(CFA_XSP16, literal(-3)))
        CFI ?RET_HIGH load(1, XDATA, add(CFA_XSP16, literal(-4)))
        CFI ?RET_LOW load(1, XDATA, add(CFA_XSP16, literal(-5)))
        CFI R7 load(1, XDATA, add(CFA_XSP16, literal(-6)))
        CFI V0 load(1, XDATA, add(CFA_XSP16, literal(-7)))
        CFI VB load(1, XDATA, add(CFA_XSP16, literal(-8)))
        CFI R6 load(1, XDATA, add(CFA_XSP16, literal(-9)))
        CFI CFA_SP SP+0
        CFI CFA_XSP16 add(XSP16, 9)
        ; Saved register size: 9
        ; Auto size: 0
        MOV     A,R2
//  269   static uint8 networkPermitEn;           // 组网功能开关标志
//  270   
//  271   if ( keys & HAL_KEY_SW_5 )
        MOV     C,0xE0 /* A   */.2
        JNC     ??TransmitApp_HandleKeys_0
//  272   { 
//  273     networkPermitEn++;
//  274     networkPermitEn = networkPermitEn % 2;
        MOV     DPTR,#??networkPermitEn
        MOVX    A,@DPTR
        MOV     C,0xE0 /* A   */.0
        CLR     A
        RLC     A
        INC     A
        ANL     A,#0x1
        MOVX    @DPTR,A
//  275     
//  276     if (networkPermitEn == 0)
        MOV     C,0xE0 /* A   */.0
        JC      ??TransmitApp_HandleKeys_1
//  277     {
//  278       NLME_PermitJoiningRequest(0x00);    // 不允许组网
        ; Setup parameters for call to function NLME_PermitJoiningRequest
        MOV     R1,#0x0
        LCALL   ??NLME_PermitJoiningRequest?relay
//  279       HalLedSet(HAL_LED_1, HAL_LED_MODE_OFF);
        ; Setup parameters for call to function HalLedSet
        MOV     R2,#0x0
        SJMP    ??TransmitApp_HandleKeys_2
//  280     }
//  281     else if (networkPermitEn == 1)
//  282     {
//  283       NLME_PermitJoiningRequest(0xFF);    // 允许组网
??TransmitApp_HandleKeys_1:
        ; Setup parameters for call to function NLME_PermitJoiningRequest
        MOV     R1,#-0x1
        LCALL   ??NLME_PermitJoiningRequest?relay
//  284       HalLedSet(HAL_LED_1, HAL_LED_MODE_ON);
        ; Setup parameters for call to function HalLedSet
        MOV     R2,#0x1
??TransmitApp_HandleKeys_2:
        MOV     R1,#0x1
        LCALL   ??HalLedSet?relay
//  285     }
//  286   }
//  287 }
??TransmitApp_HandleKeys_0:
        LJMP    ?Subroutine0 & 0xFFFF
        CFI EndBlock cfiBlock4

        RSEG XDATA_Z:XDATA:NOROOT(0)
        DATA8
??networkPermitEn:
        DS 1
        REQUIRE __INIT_XDATA_Z
//  288 
//  289 /*******************************************************************************
//  290  * @fn      TransmitApp_MessageMSGCB
//  291  *
//  292  * @brief   Data message processor callback.  This function processes
//  293  *          any incoming data - probably from other devices.  So, based
//  294  *          on cluster ID, perform the intended action.
//  295  *
//  296  * @param   none
//  297  *
//  298  * @return  none
//  299  */

        RSEG BANKED_CODE:CODE:NOROOT(0)
//  300 void TransmitApp_MessageMSGCB( afIncomingMSGPacket_t *pkt )
TransmitApp_MessageMSGCB:
        CFI Block cfiBlock5 Using cfiCommon0
        CFI Function TransmitApp_MessageMSGCB
        CODE
//  301 {
        ; Saved register size: 0
        ; Auto size: 0
//  302   switch ( pkt->clusterId )
//  303   {
//  304     // Could receive control messages in the future.
//  305     default:
//  306       break;
//  307   }
//  308 }
        LJMP    ?BRET
        CFI EndBlock cfiBlock5
//  309 
//  310 /*******************************************************************************
//  311  * @fn      TransmitApp_SendTheMessage
//  312  *
//  313  * @brief   Send "the" message.
//  314  *
//  315  * @param   none
//  316  *
//  317  * @return  none
//  318  */

        RSEG BANKED_CODE:CODE:NOROOT(0)
//  319 void TransmitApp_SendTheMessage( void )
TransmitApp_SendTheMessage:
        CFI Block cfiBlock6 Using cfiCommon0
        CFI Function TransmitApp_SendTheMessage
        CODE
//  320 {
        ; Saved register size: 0
        ; Auto size: 0
//  321 }
        LJMP    ?BRET
        CFI EndBlock cfiBlock6
//  322 
//  323 /*******************************************************************************
//  324  * @fn      TransmitAPP_CallBack
//  325  *
//  326  * @brief   Send data OTA.
//  327  *
//  328  * @param   port - UART port.
//  329  * @param   event - the UART port event flag.
//  330  *
//  331  * @return  none
//  332  */

        RSEG BANKED_CODE:CODE:NOROOT(0)
//  333 static void TransmitAPP_CallBack(uint8 port, uint8 event)
TransmitAPP_CallBack:
        CFI Block cfiBlock7 Using cfiCommon0
        CFI Function TransmitAPP_CallBack
        CODE
//  334 {
        ; Saved register size: 0
        ; Auto size: 0
//  335 }
        LJMP    ?BRET
        CFI EndBlock cfiBlock7

        RSEG BANK_RELAYS:CODE:REORDER:NOROOT(0)
??TransmitApp_Init?relay:
        LCALL   ?BDISPATCH
        DATA
        DC24    TransmitApp_Init

        RSEG BANK_RELAYS:CODE:REORDER:NOROOT(0)
??TransmitApp_ProcessEvent?relay:
        LCALL   ?BDISPATCH
        DATA
        DC24    TransmitApp_ProcessEvent

        RSEG BANK_RELAYS:CODE:REORDER:NOROOT(0)
??TransmitApp_ProcessZDOMsgs?relay:
        LCALL   ?BDISPATCH
        DATA
        DC24    TransmitApp_ProcessZDOMsgs

        RSEG BANK_RELAYS:CODE:REORDER:NOROOT(0)
??TransmitApp_HandleKeys?relay:
        LCALL   ?BDISPATCH
        DATA
        DC24    TransmitApp_HandleKeys

        RSEG BANK_RELAYS:CODE:REORDER:NOROOT(0)
??TransmitApp_MessageMSGCB?relay:
        LCALL   ?BDISPATCH
        DATA
        DC24    TransmitApp_MessageMSGCB

        RSEG BANK_RELAYS:CODE:REORDER:NOROOT(0)
??TransmitApp_SendTheMessage?relay:
        LCALL   ?BDISPATCH
        DATA
        DC24    TransmitApp_SendTheMessage

        RSEG BANK_RELAYS:CODE:REORDER:NOROOT(0)
??TransmitAPP_CallBack?relay:
        LCALL   ?BDISPATCH
        DATA
        DC24    TransmitAPP_CallBack

        END
//  336 
// 
// 325 bytes in segment BANKED_CODE
//  42 bytes in segment BANK_RELAYS
//   2 bytes in segment XDATA_Z
// 
// 367 bytes of CODE  memory
//   2 bytes of XDATA memory
//
//Errors: none
//Warnings: 2
