///////////////////////////////////////////////////////////////////////////////
//                                                                            /
// IAR C/C++ Compiler V8.10.1.10194/W32 for 8051        14/Apr/2021  19:08:33 /
// Copyright 2004-2011 IAR Systems AB.                                        /
//                                                                            /
//    Core               =  plain                                             /
//    Code model         =  banked                                            /
//    Data model         =  large                                             /
//    Calling convention =  xdata reentrant                                   /
//    Constant location  =  data_rom                                          /
//    Dptr setup         =  1,16                                              /
//    Source file        =  D:\毕设\CC2530-smart_home\Components\hal\target\C /
//                          C2530SB\hal_lcd.c                                 /
//    Command line       =  -f D:\毕设\CC2530-smart_home\Projects\zstack\Util /
//                          ities\Smart_home\CC2530DB\..\..\..\Tools\CC2530DB /
//                          \f8wEndev.cfg (-DCPU32MHZ -DROOT=__near_func      /
//                          -DMAC_CFG_TX_DATA_MAX=3 -DMAC_CFG_TX_MAX=6        /
//                          -DMAC_CFG_RX_MAX=3) -f D:\毕设\CC2530-smart_home\ /
//                          Projects\zstack\Utilities\Smart_home\CC2530DB\..\ /
//                          ..\..\Tools\CC2530DB\f8wConfig.cfg (-DZIGBEEPRO   /
//                          -DSECURE=0 -DZG_SECURE_DYNAMIC=0 -DREFLECTOR      /
//                          -DDEFAULT_CHANLIST=0x00000800                     /
//                          -DZDAPP_CONFIG_PAN_ID=0x1003                      /
//                          -DNWK_START_DELAY=100 -DEXTENDED_JOINING_RANDOM_M /
//                          ASK=0x007F -DBEACON_REQUEST_DELAY=100             /
//                          -DBEACON_REQ_DELAY_MASK=0x00FF                    /
//                          -DLINK_STATUS_JITTER_MASK=0x007F                  /
//                          -DROUTE_EXPIRY_TIME=30 -DAPSC_ACK_WAIT_DURATION_P /
//                          OLLED=3000 -DNWK_INDIRECT_MSG_TIMEOUT=7           /
//                          -DMAX_RREQ_ENTRIES=8 -DAPSC_MAX_FRAME_RETRIES=3   /
//                          -DNWK_MAX_DATA_RETRIES=2                          /
//                          -DMAX_POLL_FAILURE_RETRIES=2 -DMAX_BCAST=9        /
//                          -DAPS_MAX_GROUPS=16 -DMAX_RTG_ENTRIES=40          /
//                          -DNWK_MAX_BINDING_ENTRIES=4                       /
//                          -DMAX_BINDING_CLUSTER_IDS=4                       /
//                          "-DDEFAULT_KEY={0x01, 0x03, 0x05, 0x07, 0x09,     /
//                          0x0B, 0x0D, 0x0F, 0x00, 0x02, 0x04, 0x06, 0x08,   /
//                          0x0A, 0x0C, 0x0D}" -DMAC_MAX_FRAME_SIZE=116       /
//                          -DZDNWKMGR_MIN_TRANSMISSIONS=20 "-DCONST=const    /
//                          __code" -DGENERIC=__generic                       /
//                          -DRFD_RCVC_ALWAYS_ON=FALSE -DPOLL_RATE=1000       /
//                          -DQUEUED_POLL_RATE=100 -DRESPONSE_POLL_RATE=100)  /
//                          -DREJOIN_POLL_RATE=440 D:\毕设\CC2530-smart_home\ /
//                          Components\hal\target\CC2530SB\hal_lcd.c -D       /
//                          HAL_UART=TRUE -D HAL_UART_TEST -D xPOWER_SAVING   /
//                          -lC D:\毕设\CC2530-smart_home\Projects\zstack\Uti /
//                          lities\Smart_home\CC2530DB\EndDeviceSBTempLight\L /
//                          ist\ -lA D:\毕设\CC2530-smart_home\Projects\zstac /
//                          k\Utilities\Smart_home\CC2530DB\EndDeviceSBTempLi /
//                          ght\List\ --diag_suppress Pe001,Pa010 -o          /
//                          D:\毕设\CC2530-smart_home\Projects\zstack\Utiliti /
//                          es\Smart_home\CC2530DB\EndDeviceSBTempLight\Obj\  /
//                          -e --no_code_motion --debug --core=plain          /
//                          --dptr=16,1 --data_model=large                    /
//                          --code_model=banked --calling_convention=xdata_re /
//                          entrant --place_constants=data_rom                /
//                          --nr_virtual_regs 16 -I                           /
//                          D:\毕设\CC2530-smart_home\Projects\zstack\Utiliti /
//                          es\Smart_home\CC2530DB\ -I                        /
//                          D:\毕设\CC2530-smart_home\Projects\zstack\Utiliti /
//                          es\Smart_home\CC2530DB\..\Source\ -I              /
//                          D:\毕设\CC2530-smart_home\Projects\zstack\Utiliti /
//                          es\Smart_home\CC2530DB\..\..\..\ZMain\TI2530DB\   /
//                          -I D:\毕设\CC2530-smart_home\Projects\zstack\Util /
//                          ities\Smart_home\CC2530DB\..\..\..\..\..\Componen /
//                          ts\hal\include\ -I D:\毕设\CC2530-smart_home\Proj /
//                          ects\zstack\Utilities\Smart_home\CC2530DB\..\..\. /
//                          .\..\..\Components\hal\target\CC2530SB\ -I        /
//                          D:\毕设\CC2530-smart_home\Projects\zstack\Utiliti /
//                          es\Smart_home\CC2530DB\..\..\..\..\..\Components\ /
//                          mac\include\ -I D:\毕设\CC2530-smart_home\Project /
//                          s\zstack\Utilities\Smart_home\CC2530DB\..\..\..\. /
//                          .\..\Components\mac\high_level\ -I                /
//                          D:\毕设\CC2530-smart_home\Projects\zstack\Utiliti /
//                          es\Smart_home\CC2530DB\..\..\..\..\..\Components\ /
//                          mac\low_level\srf04\ -I                           /
//                          D:\毕设\CC2530-smart_home\Projects\zstack\Utiliti /
//                          es\Smart_home\CC2530DB\..\..\..\..\..\Components\ /
//                          mac\low_level\srf04\single_chip\ -I               /
//                          D:\毕设\CC2530-smart_home\Projects\zstack\Utiliti /
//                          es\Smart_home\CC2530DB\..\..\..\..\..\Components\ /
//                          mt\ -I D:\毕设\CC2530-smart_home\Projects\zstack\ /
//                          Utilities\Smart_home\CC2530DB\..\..\..\..\..\Comp /
//                          onents\osal\include\ -I                           /
//                          D:\毕设\CC2530-smart_home\Projects\zstack\Utiliti /
//                          es\Smart_home\CC2530DB\..\..\..\..\..\Components\ /
//                          services\saddr\ -I D:\毕设\CC2530-smart_home\Proj /
//                          ects\zstack\Utilities\Smart_home\CC2530DB\..\..\. /
//                          .\..\..\Components\services\sdata\ -I             /
//                          D:\毕设\CC2530-smart_home\Projects\zstack\Utiliti /
//                          es\Smart_home\CC2530DB\..\..\..\..\..\Components\ /
//                          stack\af\ -I D:\毕设\CC2530-smart_home\Projects\z /
//                          stack\Utilities\Smart_home\CC2530DB\..\..\..\..\. /
//                          .\Components\stack\nwk\ -I                        /
//                          D:\毕设\CC2530-smart_home\Projects\zstack\Utiliti /
//                          es\Smart_home\CC2530DB\..\..\..\..\..\Components\ /
//                          stack\sapi\ -I D:\毕设\CC2530-smart_home\Projects /
//                          \zstack\Utilities\Smart_home\CC2530DB\..\..\..\.. /
//                          \..\Components\stack\sec\ -I                      /
//                          D:\毕设\CC2530-smart_home\Projects\zstack\Utiliti /
//                          es\Smart_home\CC2530DB\..\..\..\..\..\Components\ /
//                          stack\sys\ -I D:\毕设\CC2530-smart_home\Projects\ /
//                          zstack\Utilities\Smart_home\CC2530DB\..\..\..\..\ /
//                          ..\Components\stack\zdo\ -I                       /
//                          D:\毕设\CC2530-smart_home\Projects\zstack\Utiliti /
//                          es\Smart_home\CC2530DB\..\..\..\..\..\Components\ /
//                          zmac\ -I D:\毕设\CC2530-smart_home\Projects\zstac /
//                          k\Utilities\Smart_home\CC2530DB\..\..\..\..\..\Co /
//                          mponents\zmac\f8w\ -Ohz                           /
//    List file          =  D:\毕设\CC2530-smart_home\Projects\zstack\Utiliti /
//                          es\Smart_home\CC2530DB\EndDeviceSBTempLight\List\ /
//                          hal_lcd.s51                                       /
//                                                                            /
//                                                                            /
///////////////////////////////////////////////////////////////////////////////

        NAME hal_lcd

        RTMODEL "__SystemLibrary", "CLib"
        RTMODEL "__calling_convention", "xdata_reentrant"
        RTMODEL "__code_model", "banked"
        RTMODEL "__core", "plain"
        RTMODEL "__data_model", "large"
        RTMODEL "__dptr_size", "16"
        RTMODEL "__extended_stack", "disabled"
        RTMODEL "__location_for_constants", "data"
        RTMODEL "__number_of_dptrs", "1"
        RTMODEL "__rt_version", "1"

        RSEG DOVERLAY:DATA:NOROOT(0)
        RSEG IOVERLAY:IDATA:NOROOT(0)
        RSEG ISTACK:IDATA:NOROOT(0)
        RSEG PSTACK:XDATA:NOROOT(0)
        RSEG XSTACK:XDATA:NOROOT(0)

        EXTERN ?BDISPATCH
        EXTERN ?BRET

        PUBLIC ??HalLcdDisplayPercentBar?relay
        FUNCTION ??HalLcdDisplayPercentBar?relay,0203H
        PUBLIC ??HalLcdInit?relay
        FUNCTION ??HalLcdInit?relay,0203H
        PUBLIC ??HalLcdWriteScreen?relay
        FUNCTION ??HalLcdWriteScreen?relay,0203H
        PUBLIC ??HalLcdWriteString?relay
        FUNCTION ??HalLcdWriteString?relay,0203H
        PUBLIC ??HalLcdWriteStringValue?relay
        FUNCTION ??HalLcdWriteStringValue?relay,0203H
        PUBLIC ??HalLcdWriteStringValueValue?relay
        FUNCTION ??HalLcdWriteStringValueValue?relay,0203H
        PUBLIC ??HalLcdWriteValue?relay
        FUNCTION ??HalLcdWriteValue?relay,0203H
        PUBLIC HalLcdDisplayPercentBar
        FUNCTION HalLcdDisplayPercentBar,0203H
        ARGFRAME XSTACK, 0, STACK
        PUBLIC HalLcdInit
        FUNCTION HalLcdInit,0203H
        ARGFRAME XSTACK, 0, STACK
        PUBLIC HalLcdWriteScreen
        FUNCTION HalLcdWriteScreen,0203H
        ARGFRAME XSTACK, 0, STACK
        PUBLIC HalLcdWriteString
        FUNCTION HalLcdWriteString,0203H
        ARGFRAME XSTACK, 0, STACK
        PUBLIC HalLcdWriteStringValue
        FUNCTION HalLcdWriteStringValue,0203H
        ARGFRAME XSTACK, 1, STACK
        PUBLIC HalLcdWriteStringValueValue
        FUNCTION HalLcdWriteStringValueValue,0203H
        ARGFRAME XSTACK, 6, STACK
        PUBLIC HalLcdWriteValue
        FUNCTION HalLcdWriteValue,0203H
        ARGFRAME XSTACK, 1, STACK
        PUBLIC ascii_table_8x16
        
        CFI Names cfiNames0
        CFI StackFrame CFA_SP SP IDATA
        CFI StackFrame CFA_PSP16 PSP16 XDATA
        CFI StackFrame CFA_XSP16 XSP16 XDATA
        CFI StaticOverlayFrame CFA_IOVERLAY IOVERLAY
        CFI StaticOverlayFrame CFA_DOVERLAY DOVERLAY
        CFI Resource `PSW.CY`:1, `B.BR0`:1, `B.BR1`:1, `B.BR2`:1, `B.BR3`:1
        CFI Resource `B.BR4`:1, `B.BR5`:1, `B.BR6`:1, `B.BR7`:1, `VB.BR8`:1
        CFI Resource `VB.BR9`:1, `VB.BR10`:1, `VB.BR11`:1, `VB.BR12`:1
        CFI Resource `VB.BR13`:1, `VB.BR14`:1, `VB.BR15`:1, VB:8, B:8, A:8
        CFI Resource PSW:8, DPL0:8, DPH0:8, R0:8, R1:8, R2:8, R3:8, R4:8, R5:8
        CFI Resource R6:8, R7:8, V0:8, V1:8, V2:8, V3:8, V4:8, V5:8, V6:8, V7:8
        CFI Resource V8:8, V9:8, V10:8, V11:8, V12:8, V13:8, V14:8, V15:8, SP:8
        CFI Resource PSPH:8, PSPL:8, PSP16:16, XSPH:8, XSPL:8, XSP16:16
        CFI VirtualResource ?RET:24
        CFI Resource ?BRET_EXT:8
        CFI VirtualResource ?RET_HIGH:8, ?RET_LOW:8
        CFI ResourceParts PSP16 PSPH, PSPL
        CFI ResourceParts XSP16 XSPH, XSPL
        CFI ResourceParts ?RET ?BRET_EXT, ?RET_HIGH, ?RET_LOW
        CFI EndNames cfiNames0
        
        CFI Common cfiCommon0 Using cfiNames0
        CFI CodeAlign 1
        CFI DataAlign -1
        CFI ReturnAddress ?RET CODE
        CFI CFA_DOVERLAY Used
        CFI CFA_IOVERLAY Used
        CFI CFA_SP SP+-3
        CFI CFA_PSP16 PSP16+0
        CFI CFA_XSP16 XSP16+0
        CFI `PSW.CY` SameValue
        CFI `B.BR0` SameValue
        CFI `B.BR1` SameValue
        CFI `B.BR2` SameValue
        CFI `B.BR3` SameValue
        CFI `B.BR4` SameValue
        CFI `B.BR5` SameValue
        CFI `B.BR6` SameValue
        CFI `B.BR7` SameValue
        CFI `VB.BR8` SameValue
        CFI `VB.BR9` SameValue
        CFI `VB.BR10` SameValue
        CFI `VB.BR11` SameValue
        CFI `VB.BR12` SameValue
        CFI `VB.BR13` SameValue
        CFI `VB.BR14` SameValue
        CFI `VB.BR15` SameValue
        CFI VB SameValue
        CFI B Undefined
        CFI A Undefined
        CFI PSW SameValue
        CFI DPL0 SameValue
        CFI DPH0 SameValue
        CFI R0 Undefined
        CFI R1 Undefined
        CFI R2 Undefined
        CFI R3 Undefined
        CFI R4 Undefined
        CFI R5 Undefined
        CFI R6 SameValue
        CFI R7 SameValue
        CFI V0 SameValue
        CFI V1 SameValue
        CFI V2 SameValue
        CFI V3 SameValue
        CFI V4 SameValue
        CFI V5 SameValue
        CFI V6 SameValue
        CFI V7 SameValue
        CFI V8 SameValue
        CFI V9 SameValue
        CFI V10 SameValue
        CFI V11 SameValue
        CFI V12 SameValue
        CFI V13 SameValue
        CFI V14 SameValue
        CFI V15 SameValue
        CFI PSPH Undefined
        CFI PSPL Undefined
        CFI XSPH Undefined
        CFI XSPL Undefined
        CFI ?RET Concat
        CFI ?BRET_EXT Frame(CFA_SP, 3)
        CFI ?RET_HIGH Frame(CFA_SP, 2)
        CFI ?RET_LOW Frame(CFA_SP, 1)
        CFI EndCommon cfiCommon0
        
HalLcdDisplayPercentBar SYMBOL "HalLcdDisplayPercentBar"
??HalLcdDisplayPercentBar?relay SYMBOL "?relay", HalLcdDisplayPercentBar
HalLcdInit          SYMBOL "HalLcdInit"
??HalLcdInit?relay  SYMBOL "?relay", HalLcdInit
HalLcdWriteScreen   SYMBOL "HalLcdWriteScreen"
??HalLcdWriteScreen?relay SYMBOL "?relay", HalLcdWriteScreen
HalLcdWriteString   SYMBOL "HalLcdWriteString"
??HalLcdWriteString?relay SYMBOL "?relay", HalLcdWriteString
HalLcdWriteStringValue SYMBOL "HalLcdWriteStringValue"
??HalLcdWriteStringValue?relay SYMBOL "?relay", HalLcdWriteStringValue
HalLcdWriteStringValueValue SYMBOL "HalLcdWriteStringValueValue"
??HalLcdWriteStringValueValue?relay SYMBOL "?relay", HalLcdWriteStringValueValue
HalLcdWriteValue    SYMBOL "HalLcdWriteValue"
??HalLcdWriteValue?relay SYMBOL "?relay", HalLcdWriteValue

// D:\毕设\CC2530-smart_home\Components\hal\target\CC2530SB\hal_lcd.c
//    1 /****************************************************************************************
//    2   Filename:       hal_lcd.c
//    3   Revised:        $Date: 2019-03-16 $
//    4   
//    5   Description:    
//    6   This file contains the interface to the HAL LCD Service.
//    7 
//    8 
//    9   Copyright 2007-2019 Texas Instruments Incorporated. All rights reserved.
//   10 
//   11   IMPORTANT: Your use of this Software is limited to those specific rights
//   12   granted under the terms of a software license agreement between the user
//   13   who downloaded the software, his/her employer (which must be your employer)
//   14   and Texas Instruments Incorporated (the "License").  You may not use this
//   15   Software unless you agree to abide by the terms of the License. The License
//   16   limits your use, and you acknowledge, that the Software may not be modified,
//   17   copied or distributed unless embedded on a Texas Instruments microcontroller
//   18   or used solely and exclusively in conjunction with a Texas Instruments radio
//   19   frequency transceiver, which is integrated into your product.  Other than for
//   20   the foregoing purpose, you may not use, reproduce, copy, prepare derivative
//   21   works of, modify, distribute, perform, display or sell this Software and/or
//   22   its documentation for any purpose.
//   23 
//   24   YOU FURTHER ACKNOWLEDGE AND AGREE THAT THE SOFTWARE AND DOCUMENTATION ARE
//   25   PROVIDED AS IS?WITHOUT WARRANTY OF ANY KIND, EITHER EXPRESS OR IMPLIED,
//   26   INCLUDING WITHOUT LIMITATION, ANY WARRANTY OF MERCHANTABILITY, TITLE,
//   27   NON-INFRINGEMENT AND FITNESS FOR A PARTICULAR PURPOSE. IN NO EVENT SHALL
//   28   TEXAS INSTRUMENTS OR ITS LICENSORS BE LIABLE OR OBLIGATED UNDER CONTRACT,
//   29   NEGLIGENCE, STRICT LIABILITY, CONTRIBUTION, BREACH OF WARRANTY, OR OTHER
//   30   LEGAL EQUITABLE THEORY ANY DIRECT OR INDIRECT DAMAGES OR EXPENSES
//   31   INCLUDING BUT NOT LIMITED TO ANY INCIDENTAL, SPECIAL, INDIRECT, PUNITIVE
//   32   OR CONSEQUENTIAL DAMAGES, LOST PROFITS OR LOST DATA, COST OF PROCUREMENT
//   33   OF SUBSTITUTE GOODS, TECHNOLOGY, SERVICES, OR ANY CLAIMS BY THIRD PARTIES
//   34   (INCLUDING BUT NOT LIMITED TO ANY DEFENSE THEREOF), OR OTHER SIMILAR COSTS.
//   35 
//   36   Should you have any questions regarding your right to use this Software,
//   37   contact Texas Instruments Incorporated at www.TI.com.
//   38 **************************************************************************************************/
//   39 
//   40 /**************************************************************************************************
//   41  *                                           INCLUDES
//   42  **************************************************************************************************/
//   43 //#include <ioCC2530.h>
//   44 #include "hal_types.h"
//   45 #include "hal_lcd.h"
//   46 #include "OSAL.h"
//   47 #include "OnBoard.h"
//   48 #include "hal_assert.h"
//   49 #include "hal_defs.h"
//   50 #include "font.h"

        RSEG XDATA_ROM_C:CONST:REORDER:NOROOT(0)
        DATA8
// unsigned char const __xdata_rom ascii_table_8x16[95][16]
ascii_table_8x16:
        DB 0
        DB 0
        DB 0
        DB 0
        DB 0
        DB 0
        DB 0
        DB 0
        DB 0
        DB 0
        DB 0
        DB 0
        DB 0
        DB 0
        DB 0
        DB 0
        DB 0
        DB 0
        DB 0
        DB 248
        DB 0
        DB 0
        DB 0
        DB 0
        DB 0
        DB 0
        DB 0
        DB 51
        DB 48
        DB 0
        DB 0
        DB 0
        DB 0
        DB 16
        DB 12
        DB 6
        DB 16
        DB 12
        DB 6
        DB 0
        DB 0
        DB 0
        DB 0
        DB 0
        DB 0
        DB 0
        DB 0
        DB 0
        DB 64
        DB 192
        DB 120
        DB 64
        DB 192
        DB 120
        DB 64
        DB 0
        DB 4
        DB 63
        DB 4
        DB 4
        DB 63
        DB 4
        DB 4
        DB 0
        DB 0
        DB 112
        DB 136
        DB 252
        DB 8
        DB 48
        DB 0
        DB 0
        DB 0
        DB 24
        DB 32
        DB 255
        DB 33
        DB 30
        DB 0
        DB 0
        DB 240
        DB 8
        DB 240
        DB 0
        DB 224
        DB 24
        DB 0
        DB 0
        DB 0
        DB 33
        DB 28
        DB 3
        DB 30
        DB 33
        DB 30
        DB 0
        DB 0
        DB 240
        DB 8
        DB 136
        DB 112
        DB 0
        DB 0
        DB 0
        DB 30
        DB 33
        DB 35
        DB 36
        DB 25
        DB 39
        DB 33
        DB 16
        DB 16
        DB 22
        DB 14
        DB 0
        DB 0
        DB 0
        DB 0
        DB 0
        DB 0
        DB 0
        DB 0
        DB 0
        DB 0
        DB 0
        DB 0
        DB 0
        DB 0
        DB 0
        DB 0
        DB 224
        DB 24
        DB 4
        DB 2
        DB 0
        DB 0
        DB 0
        DB 0
        DB 7
        DB 24
        DB 32
        DB 64
        DB 0
        DB 0
        DB 2
        DB 4
        DB 24
        DB 224
        DB 0
        DB 0
        DB 0
        DB 0
        DB 64
        DB 32
        DB 24
        DB 7
        DB 0
        DB 0
        DB 0
        DB 64
        DB 64
        DB 128
        DB 240
        DB 128
        DB 64
        DB 64
        DB 0
        DB 2
        DB 2
        DB 1
        DB 15
        DB 1
        DB 2
        DB 2
        DB 0
        DB 0
        DB 0
        DB 0
        DB 240
        DB 0
        DB 0
        DB 0
        DB 0
        DB 1
        DB 1
        DB 1
        DB 31
        DB 1
        DB 1
        DB 1
        DB 0
        DB 0
        DB 0
        DB 0
        DB 0
        DB 0
        DB 0
        DB 0
        DB 0
        DB 128
        DB 176
        DB 112
        DB 0
        DB 0
        DB 0
        DB 0
        DB 0
        DB 0
        DB 0
        DB 0
        DB 0
        DB 0
        DB 0
        DB 0
        DB 0
        DB 0
        DB 1
        DB 1
        DB 1
        DB 1
        DB 1
        DB 1
        DB 1
        DB 0
        DB 0
        DB 0
        DB 0
        DB 0
        DB 0
        DB 0
        DB 0
        DB 0
        DB 48
        DB 48
        DB 0
        DB 0
        DB 0
        DB 0
        DB 0
        DB 0
        DB 0
        DB 0
        DB 0
        DB 128
        DB 96
        DB 24
        DB 4
        DB 0
        DB 96
        DB 24
        DB 6
        DB 1
        DB 0
        DB 0
        DB 0
        DB 0
        DB 224
        DB 16
        DB 8
        DB 8
        DB 16
        DB 224
        DB 0
        DB 0
        DB 15
        DB 16
        DB 32
        DB 32
        DB 16
        DB 15
        DB 0
        DB 0
        DB 16
        DB 16
        DB 248
        DB 0
        DB 0
        DB 0
        DB 0
        DB 0
        DB 32
        DB 32
        DB 63
        DB 32
        DB 32
        DB 0
        DB 0
        DB 0
        DB 112
        DB 8
        DB 8
        DB 8
        DB 136
        DB 112
        DB 0
        DB 0
        DB 48
        DB 40
        DB 36
        DB 34
        DB 33
        DB 48
        DB 0
        DB 0
        DB 48
        DB 8
        DB 136
        DB 136
        DB 72
        DB 48
        DB 0
        DB 0
        DB 24
        DB 32
        DB 32
        DB 32
        DB 17
        DB 14
        DB 0
        DB 0
        DB 0
        DB 192
        DB 32
        DB 16
        DB 248
        DB 0
        DB 0
        DB 0
        DB 7
        DB 4
        DB 36
        DB 36
        DB 63
        DB 36
        DB 0
        DB 0
        DB 248
        DB 8
        DB 136
        DB 136
        DB 8
        DB 8
        DB 0
        DB 0
        DB 25
        DB 33
        DB 32
        DB 32
        DB 17
        DB 14
        DB 0
        DB 0
        DB 224
        DB 16
        DB 136
        DB 136
        DB 24
        DB 0
        DB 0
        DB 0
        DB 15
        DB 17
        DB 32
        DB 32
        DB 17
        DB 14
        DB 0
        DB 0
        DB 56
        DB 8
        DB 8
        DB 200
        DB 56
        DB 8
        DB 0
        DB 0
        DB 0
        DB 0
        DB 63
        DB 0
        DB 0
        DB 0
        DB 0
        DB 0
        DB 112
        DB 136
        DB 8
        DB 8
        DB 136
        DB 112
        DB 0
        DB 0
        DB 28
        DB 34
        DB 33
        DB 33
        DB 34
        DB 28
        DB 0
        DB 0
        DB 224
        DB 16
        DB 8
        DB 8
        DB 16
        DB 224
        DB 0
        DB 0
        DB 0
        DB 49
        DB 34
        DB 34
        DB 17
        DB 15
        DB 0
        DB 0
        DB 0
        DB 0
        DB 192
        DB 192
        DB 0
        DB 0
        DB 0
        DB 0
        DB 0
        DB 0
        DB 48
        DB 48
        DB 0
        DB 0
        DB 0
        DB 0
        DB 0
        DB 0
        DB 128
        DB 0
        DB 0
        DB 0
        DB 0
        DB 0
        DB 0
        DB 128
        DB 96
        DB 0
        DB 0
        DB 0
        DB 0
        DB 0
        DB 0
        DB 128
        DB 64
        DB 32
        DB 16
        DB 8
        DB 0
        DB 0
        DB 1
        DB 2
        DB 4
        DB 8
        DB 16
        DB 32
        DB 0
        DB 64
        DB 64
        DB 64
        DB 64
        DB 64
        DB 64
        DB 64
        DB 0
        DB 4
        DB 4
        DB 4
        DB 4
        DB 4
        DB 4
        DB 4
        DB 0
        DB 0
        DB 8
        DB 16
        DB 32
        DB 64
        DB 128
        DB 0
        DB 0
        DB 0
        DB 32
        DB 16
        DB 8
        DB 4
        DB 2
        DB 1
        DB 0
        DB 0
        DB 112
        DB 72
        DB 8
        DB 8
        DB 8
        DB 240
        DB 0
        DB 0
        DB 0
        DB 0
        DB 48
        DB 54
        DB 1
        DB 0
        DB 0
        DB 192
        DB 48
        DB 200
        DB 40
        DB 232
        DB 16
        DB 224
        DB 0
        DB 7
        DB 24
        DB 39
        DB 36
        DB 35
        DB 20
        DB 11
        DB 0
        DB 0
        DB 0
        DB 192
        DB 56
        DB 224
        DB 0
        DB 0
        DB 0
        DB 32
        DB 60
        DB 35
        DB 2
        DB 2
        DB 39
        DB 56
        DB 32
        DB 8
        DB 248
        DB 136
        DB 136
        DB 136
        DB 112
        DB 0
        DB 0
        DB 32
        DB 63
        DB 32
        DB 32
        DB 32
        DB 17
        DB 14
        DB 0
        DB 192
        DB 48
        DB 8
        DB 8
        DB 8
        DB 8
        DB 56
        DB 0
        DB 7
        DB 24
        DB 32
        DB 32
        DB 32
        DB 16
        DB 8
        DB 0
        DB 8
        DB 248
        DB 8
        DB 8
        DB 8
        DB 16
        DB 224
        DB 0
        DB 32
        DB 63
        DB 32
        DB 32
        DB 32
        DB 16
        DB 15
        DB 0
        DB 8
        DB 248
        DB 136
        DB 136
        DB 232
        DB 8
        DB 16
        DB 0
        DB 32
        DB 63
        DB 32
        DB 32
        DB 35
        DB 32
        DB 24
        DB 0
        DB 8
        DB 248
        DB 136
        DB 136
        DB 232
        DB 8
        DB 16
        DB 0
        DB 32
        DB 63
        DB 32
        DB 0
        DB 3
        DB 0
        DB 0
        DB 0
        DB 192
        DB 48
        DB 8
        DB 8
        DB 8
        DB 56
        DB 0
        DB 0
        DB 7
        DB 24
        DB 32
        DB 32
        DB 34
        DB 30
        DB 2
        DB 0
        DB 8
        DB 248
        DB 8
        DB 0
        DB 0
        DB 8
        DB 248
        DB 8
        DB 32
        DB 63
        DB 33
        DB 1
        DB 1
        DB 33
        DB 63
        DB 32
        DB 0
        DB 8
        DB 8
        DB 248
        DB 8
        DB 8
        DB 0
        DB 0
        DB 0
        DB 32
        DB 32
        DB 63
        DB 32
        DB 32
        DB 0
        DB 0
        DB 0
        DB 0
        DB 8
        DB 8
        DB 248
        DB 8
        DB 8
        DB 0
        DB 192
        DB 128
        DB 128
        DB 128
        DB 127
        DB 0
        DB 0
        DB 0
        DB 8
        DB 248
        DB 136
        DB 192
        DB 40
        DB 24
        DB 8
        DB 0
        DB 32
        DB 63
        DB 32
        DB 1
        DB 38
        DB 56
        DB 32
        DB 0
        DB 8
        DB 248
        DB 8
        DB 0
        DB 0
        DB 0
        DB 0
        DB 0
        DB 32
        DB 63
        DB 32
        DB 32
        DB 32
        DB 32
        DB 48
        DB 0
        DB 8
        DB 248
        DB 248
        DB 0
        DB 248
        DB 248
        DB 8
        DB 0
        DB 32
        DB 63
        DB 0
        DB 63
        DB 0
        DB 63
        DB 32
        DB 0
        DB 8
        DB 248
        DB 48
        DB 192
        DB 0
        DB 8
        DB 248
        DB 8
        DB 32
        DB 63
        DB 32
        DB 0
        DB 7
        DB 24
        DB 63
        DB 0
        DB 224
        DB 16
        DB 8
        DB 8
        DB 8
        DB 16
        DB 224
        DB 0
        DB 15
        DB 16
        DB 32
        DB 32
        DB 32
        DB 16
        DB 15
        DB 0
        DB 8
        DB 248
        DB 8
        DB 8
        DB 8
        DB 8
        DB 240
        DB 0
        DB 32
        DB 63
        DB 33
        DB 1
        DB 1
        DB 1
        DB 0
        DB 0
        DB 224
        DB 16
        DB 8
        DB 8
        DB 8
        DB 16
        DB 224
        DB 0
        DB 15
        DB 24
        DB 36
        DB 36
        DB 56
        DB 80
        DB 79
        DB 0
        DB 8
        DB 248
        DB 136
        DB 136
        DB 136
        DB 136
        DB 112
        DB 0
        DB 32
        DB 63
        DB 32
        DB 0
        DB 3
        DB 12
        DB 48
        DB 32
        DB 0
        DB 112
        DB 136
        DB 8
        DB 8
        DB 8
        DB 56
        DB 0
        DB 0
        DB 56
        DB 32
        DB 33
        DB 33
        DB 34
        DB 28
        DB 0
        DB 24
        DB 8
        DB 8
        DB 248
        DB 8
        DB 8
        DB 24
        DB 0
        DB 0
        DB 0
        DB 32
        DB 63
        DB 32
        DB 0
        DB 0
        DB 0
        DB 8
        DB 248
        DB 8
        DB 0
        DB 0
        DB 8
        DB 248
        DB 8
        DB 0
        DB 31
        DB 32
        DB 32
        DB 32
        DB 32
        DB 31
        DB 0
        DB 8
        DB 120
        DB 136
        DB 0
        DB 0
        DB 200
        DB 56
        DB 8
        DB 0
        DB 0
        DB 7
        DB 56
        DB 14
        DB 1
        DB 0
        DB 0
        DB 248
        DB 8
        DB 0
        DB 248
        DB 0
        DB 8
        DB 248
        DB 0
        DB 3
        DB 60
        DB 7
        DB 0
        DB 7
        DB 60
        DB 3
        DB 0
        DB 8
        DB 24
        DB 104
        DB 128
        DB 128
        DB 104
        DB 24
        DB 8
        DB 32
        DB 48
        DB 44
        DB 3
        DB 3
        DB 44
        DB 48
        DB 32
        DB 8
        DB 56
        DB 200
        DB 0
        DB 200
        DB 56
        DB 8
        DB 0
        DB 0
        DB 0
        DB 32
        DB 63
        DB 32
        DB 0
        DB 0
        DB 0
        DB 16
        DB 8
        DB 8
        DB 8
        DB 200
        DB 56
        DB 8
        DB 0
        DB 32
        DB 56
        DB 38
        DB 33
        DB 32
        DB 32
        DB 24
        DB 0
        DB 0
        DB 0
        DB 0
        DB 254
        DB 2
        DB 2
        DB 2
        DB 0
        DB 0
        DB 0
        DB 0
        DB 127
        DB 64
        DB 64
        DB 64
        DB 0
        DB 0
        DB 12
        DB 48
        DB 192
        DB 0
        DB 0
        DB 0
        DB 0
        DB 0
        DB 0
        DB 0
        DB 1
        DB 6
        DB 56
        DB 192
        DB 0
        DB 0
        DB 2
        DB 2
        DB 2
        DB 254
        DB 0
        DB 0
        DB 0
        DB 0
        DB 64
        DB 64
        DB 64
        DB 127
        DB 0
        DB 0
        DB 0
        DB 0
        DB 0
        DB 4
        DB 2
        DB 2
        DB 2
        DB 4
        DB 0
        DB 0
        DB 0
        DB 0
        DB 0
        DB 0
        DB 0
        DB 0
        DB 0
        DB 0
        DB 0
        DB 0
        DB 0
        DB 0
        DB 0
        DB 0
        DB 0
        DB 128
        DB 128
        DB 128
        DB 128
        DB 128
        DB 128
        DB 128
        DB 128
        DB 0
        DB 2
        DB 2
        DB 4
        DB 0
        DB 0
        DB 0
        DB 0
        DB 0
        DB 0
        DB 0
        DB 0
        DB 0
        DB 0
        DB 0
        DB 0
        DB 0
        DB 0
        DB 128
        DB 128
        DB 128
        DB 128
        DB 0
        DB 0
        DB 0
        DB 25
        DB 36
        DB 34
        DB 34
        DB 34
        DB 63
        DB 32
        DB 8
        DB 248
        DB 0
        DB 128
        DB 128
        DB 0
        DB 0
        DB 0
        DB 0
        DB 63
        DB 17
        DB 32
        DB 32
        DB 17
        DB 14
        DB 0
        DB 0
        DB 0
        DB 0
        DB 128
        DB 128
        DB 128
        DB 0
        DB 0
        DB 0
        DB 14
        DB 17
        DB 32
        DB 32
        DB 32
        DB 17
        DB 0
        DB 0
        DB 0
        DB 0
        DB 128
        DB 128
        DB 136
        DB 248
        DB 0
        DB 0
        DB 14
        DB 17
        DB 32
        DB 32
        DB 16
        DB 63
        DB 32
        DB 0
        DB 0
        DB 128
        DB 128
        DB 128
        DB 128
        DB 0
        DB 0
        DB 0
        DB 31
        DB 34
        DB 34
        DB 34
        DB 34
        DB 19
        DB 0
        DB 0
        DB 128
        DB 128
        DB 240
        DB 136
        DB 136
        DB 136
        DB 24
        DB 0
        DB 32
        DB 32
        DB 63
        DB 32
        DB 32
        DB 0
        DB 0
        DB 0
        DB 0
        DB 128
        DB 128
        DB 128
        DB 128
        DB 128
        DB 0
        DB 0
        DB 107
        DB 148
        DB 148
        DB 148
        DB 147
        DB 96
        DB 0
        DB 8
        DB 248
        DB 0
        DB 128
        DB 128
        DB 128
        DB 0
        DB 0
        DB 32
        DB 63
        DB 33
        DB 0
        DB 0
        DB 32
        DB 63
        DB 32
        DB 0
        DB 128
        DB 152
        DB 152
        DB 0
        DB 0
        DB 0
        DB 0
        DB 0
        DB 32
        DB 32
        DB 63
        DB 32
        DB 32
        DB 0
        DB 0
        DB 0
        DB 0
        DB 0
        DB 128
        DB 152
        DB 152
        DB 0
        DB 0
        DB 0
        DB 192
        DB 128
        DB 128
        DB 128
        DB 127
        DB 0
        DB 0
        DB 8
        DB 248
        DB 0
        DB 0
        DB 128
        DB 128
        DB 128
        DB 0
        DB 32
        DB 63
        DB 36
        DB 2
        DB 45
        DB 48
        DB 32
        DB 0
        DB 0
        DB 8
        DB 8
        DB 248
        DB 0
        DB 0
        DB 0
        DB 0
        DB 0
        DB 32
        DB 32
        DB 63
        DB 32
        DB 32
        DB 0
        DB 0
        DB 128
        DB 128
        DB 128
        DB 128
        DB 128
        DB 128
        DB 128
        DB 0
        DB 32
        DB 63
        DB 32
        DB 0
        DB 63
        DB 32
        DB 0
        DB 63
        DB 128
        DB 128
        DB 0
        DB 128
        DB 128
        DB 128
        DB 0
        DB 0
        DB 32
        DB 63
        DB 33
        DB 0
        DB 0
        DB 32
        DB 63
        DB 32
        DB 0
        DB 0
        DB 128
        DB 128
        DB 128
        DB 128
        DB 0
        DB 0
        DB 0
        DB 31
        DB 32
        DB 32
        DB 32
        DB 32
        DB 31
        DB 0
        DB 128
        DB 128
        DB 0
        DB 128
        DB 128
        DB 0
        DB 0
        DB 0
        DB 128
        DB 255
        DB 161
        DB 32
        DB 32
        DB 17
        DB 14
        DB 0
        DB 0
        DB 0
        DB 0
        DB 128
        DB 128
        DB 128
        DB 128
        DB 0
        DB 0
        DB 14
        DB 17
        DB 32
        DB 32
        DB 160
        DB 255
        DB 128
        DB 128
        DB 128
        DB 128
        DB 0
        DB 128
        DB 128
        DB 128
        DB 0
        DB 32
        DB 32
        DB 63
        DB 33
        DB 32
        DB 0
        DB 1
        DB 0
        DB 0
        DB 0
        DB 128
        DB 128
        DB 128
        DB 128
        DB 128
        DB 0
        DB 0
        DB 51
        DB 36
        DB 36
        DB 36
        DB 36
        DB 25
        DB 0
        DB 0
        DB 128
        DB 128
        DB 224
        DB 128
        DB 128
        DB 0
        DB 0
        DB 0
        DB 0
        DB 0
        DB 31
        DB 32
        DB 32
        DB 0
        DB 0
        DB 128
        DB 128
        DB 0
        DB 0
        DB 0
        DB 128
        DB 128
        DB 0
        DB 0
        DB 31
        DB 32
        DB 32
        DB 32
        DB 16
        DB 63
        DB 32
        DB 128
        DB 128
        DB 128
        DB 0
        DB 0
        DB 128
        DB 128
        DB 128
        DB 0
        DB 1
        DB 14
        DB 48
        DB 8
        DB 6
        DB 1
        DB 0
        DB 128
        DB 128
        DB 0
        DB 128
        DB 0
        DB 128
        DB 128
        DB 128
        DB 15
        DB 48
        DB 12
        DB 3
        DB 12
        DB 48
        DB 15
        DB 0
        DB 0
        DB 128
        DB 128
        DB 0
        DB 128
        DB 128
        DB 128
        DB 0
        DB 0
        DB 32
        DB 49
        DB 46
        DB 14
        DB 49
        DB 32
        DB 0
        DB 128
        DB 128
        DB 128
        DB 0
        DB 0
        DB 128
        DB 128
        DB 128
        DB 128
        DB 129
        DB 142
        DB 112
        DB 24
        DB 6
        DB 1
        DB 0
        DB 0
        DB 128
        DB 128
        DB 128
        DB 128
        DB 128
        DB 128
        DB 0
        DB 0
        DB 33
        DB 48
        DB 44
        DB 34
        DB 33
        DB 48
        DB 0
        DB 0
        DB 0
        DB 0
        DB 0
        DB 128
        DB 124
        DB 2
        DB 2
        DB 0
        DB 0
        DB 0
        DB 0
        DB 0
        DB 63
        DB 64
        DB 64
        DB 0
        DB 0
        DB 0
        DB 0
        DB 255
        DB 0
        DB 0
        DB 0
        DB 0
        DB 0
        DB 0
        DB 0
        DB 255
        DB 0
        DB 0
        DB 0
        DB 0
        DB 2
        DB 2
        DB 124
        DB 128
        DB 0
        DB 0
        DB 0
        DB 0
        DB 64
        DB 64
        DB 63
        DB 0
        DB 0
        DB 0
        DB 0
        DB 0
        DB 6
        DB 1
        DB 1
        DB 2
        DB 2
        DB 4
        DB 4
        DB 0
        DB 0
        DB 0
        DB 0
        DB 0
        DB 0
        DB 0
        DB 0
//   51 
//   52 #if defined (ZTOOL_P1) || defined (ZTOOL_P2)
//   53     #include "DebugTrace.h"
//   54 #endif
//   55 
//   56 /**************************************************************************************************
//   57  *                                          CONSTANTS
//   58  **************************************************************************************************/
//   59 /*
//   60     LCD pins
//   61     // control
//   62     P1.1 - LCD_BACKLIGHT
//   63     P2.0 - LCD_RESET
//   64     
//   65     // spi
//   66     P1.7 - LCD_CS
//   67     P1.5 - RS
//   68     P1.4 - SCLK
//   69     P1.6 - SDA
//   70 */
//   71 
//   72 /* LCD Control lines */
//   73 // control
//   74 #define HAL_LCD_BACKLIGHT_PORT 1
//   75 #define HAL_LCD_BACKLIGHT_PIN  1
//   76 
//   77 #define HAL_LCD_RESET_PORT 2
//   78 #define HAL_LCD_RESET_PIN  0
//   79 
//   80 // spi
//   81 #define HAL_LCD_CS_PORT 1
//   82 #define HAL_LCD_CS_PIN  7
//   83 
//   84 #define HAL_LCD_RS_PORT 1
//   85 #define HAL_LCD_RS_PIN  5
//   86 
//   87 #define HAL_LCD_SCLK_PORT 1
//   88 #define HAL_LCD_SCLK_PIN  4
//   89 
//   90 #define HAL_LCD_SDA_PORT 1
//   91 #define HAL_LCD_SDA_PIN  6
//   92 
//   93 /* LCD Parameters */
//   94 #define LCD_MAX_LINE_COUNT              4
//   95 #define LCD_MAX_LINE_LENGTH             16
//   96 #define LCD_MAX_BUF                     25
//   97 
//   98 /* Defines for HW LCD */
//   99 
//  100 /* Bias control */
//  101 #define BIAS_1_7                        0x01
//  102 #define BIAS_1_9                        0x00
//  103 #define SET_BIAS_CTRL(bias)             HalLcd_HW_Control(0xA2 | (bias))
//  104 
//  105 /* Power control */
//  106 #define LCD_POWER_CONTROL_1             0x04
//  107 #define LCD_POWER_CONTROL_2             0x06
//  108 #define LCD_POWER_CONTROL_3             0x07
//  109 #define LCD_POWER_CONTROL(options)      HalLcd_HW_Control(0x28 + options)
//  110 
//  111 /* LCD commands */
//  112 #define LCD_SOFT_RESET                  0xE2
//  113 #define LCD_CMD_SET_CONTRAST            0x20
//  114 
//  115 
//  116 /**************************************************************************************************
//  117  *                                           MACROS
//  118  **************************************************************************************************/
//  119 
//  120 #define HAL_IO_SET(port, pin, val)                HAL_IO_SET_PREP(port, pin, val)
//  121 #define HAL_IO_SET_PREP(port, pin, val)           st( P##port##_##pin = val; )
//  122 
//  123 #define HAL_CONFIG_IO_OUTPUT(port, pin, val)      HAL_CONFIG_IO_OUTPUT_PREP(port, pin, val)
//  124 #define HAL_CONFIG_IO_OUTPUT_PREP(port, pin, val) st( P##port##SEL &= ~BV(pin); \ 
//  125                                                       P##port##_##pin = val; \ 
//  126                                                       P##port##DIR |= BV(pin); )
//  127 
//  128 #define HAL_CONFIG_IO_PERIPHERAL(port, pin)       HAL_CONFIG_IO_PERIPHERAL_PREP(port, pin)
//  129 #define HAL_CONFIG_IO_PERIPHERAL_PREP(port, pin)  st( P##port##SEL |= BV(pin); )
//  130 
//  131 
//  132 /* Control macros */
//  133 #define LCD_BACKLIGHT_OFF()     HAL_IO_SET(HAL_LCD_BACKLIGHT_PORT, HAL_LCD_BACKLIGHT_PIN, 1);
//  134 #define LCD_BACKLIGHT_ON()      HAL_IO_SET(HAL_LCD_BACKLIGHT_PORT, HAL_LCD_BACKLIGHT_PIN, 0);
//  135 
//  136 #define LCD_SCLK_H              HAL_IO_SET(HAL_LCD_SCLK_PORT, HAL_LCD_SCLK_PIN, 1);
//  137 #define LCD_SCLK_L              HAL_IO_SET(HAL_LCD_SCLK_PORT, HAL_LCD_SCLK_PIN, 0);
//  138 
//  139 #define LCD_SDA_H               HAL_IO_SET(HAL_LCD_SDA_PORT, HAL_LCD_SDA_PIN, 1);
//  140 #define LCD_SDA_L               HAL_IO_SET(HAL_LCD_SDA_PORT, HAL_LCD_SDA_PIN, 0);
//  141 
//  142 #define LCD_ACTIVATE_CS()       HAL_IO_SET(HAL_LCD_CS_PORT, HAL_LCD_CS_PIN, 0);
//  143 #define LCD_RELEASE_CS()        HAL_IO_SET(HAL_LCD_CS_PORT, HAL_LCD_CS_PIN, 1);
//  144 
//  145 #define LCD_RS_CMD()            HAL_IO_SET(HAL_LCD_RS_PORT, HAL_LCD_RS_PIN, 0);
//  146 #define LCD_RS_DATA()           HAL_IO_SET(HAL_LCD_RS_PORT, HAL_LCD_RS_PIN, 1);
//  147 
//  148 #define LCD_ACTIVATE_RESET()    HAL_IO_SET(HAL_LCD_RESET_PORT, HAL_LCD_RESET_PIN, 0);//低电平复位
//  149 #define LCD_RELEASE_RESET()     HAL_IO_SET(HAL_LCD_RESET_PORT, HAL_LCD_RESET_PIN, 1);
//  150 
//  151 #if (HAL_LCD == TRUE)
//  152 /**************************************************************************************************
//  153  *                                       LOCAL VARIABLES
//  154  **************************************************************************************************/
//  155 
//  156 static uint8 *Lcd_Line1;
//  157 
//  158 /**************************************************************************************************
//  159  *                                       FUNCTIONS - API
//  160  **************************************************************************************************/
//  161 
//  162 void HalLcd_HW_Init(void);
//  163 void HalLcd_HW_WaitUs(uint16 i);
//  164 void HalLcd_HW_SET_DDRAM_ADDR(uint8 page, uint8 column);
//  165 void HalLcd_HW_Clear(void);
//  166 void HalLcd_HW_Control(uint8 cmd);
//  167 void HalLcd_HW_Write(uint8 data);
//  168 void HalLcd_HW_SetContrast(uint8 value);
//  169 void HalLcd_HW_SetVoltage(uint8 value);
//  170 void HalLcd_HW_WriteChar(uint8 line, uint8 col, char text);
//  171 void HalLcd_HW_WriteLine(uint8 line, const char *pText);
//  172 #endif //LCD
//  173 
//  174 /**************************************************************************************************
//  175  * @fn      HalLcdInit
//  176  *
//  177  * @brief   Initilize LCD Service
//  178  *
//  179  * @param   init - pointer to void that contains the initialized value
//  180  *
//  181  * @return  None
//  182  **************************************************************************************************/

        RSEG BANKED_CODE:CODE:NOROOT(0)
//  183 void HalLcdInit(void)
HalLcdInit:
        CFI Block cfiBlock0 Using cfiCommon0
        CFI Function HalLcdInit
        CODE
//  184 {
        ; Saved register size: 0
        ; Auto size: 0
//  185 #if (HAL_LCD == TRUE)
//  186     Lcd_Line1 = NULL;
//  187     HalLcd_HW_Init();
//  188 #endif
//  189 }
        LJMP    ?BRET
        CFI EndBlock cfiBlock0
//  190 
//  191 /*************************************************************************************************
//  192  *                    LCD EMULATION FUNCTIONS
//  193  *
//  194  * Some evaluation boards are equipped with Liquid Crystal Displays
//  195  * (LCD) which may be used to display diagnostic information. These
//  196  * functions provide LCD emulation, sending the diagnostic strings
//  197  * to Z-Tool via the RS232 serial port. These functions are enabled
//  198  * when the "LCD_SUPPORTED" compiler flag is placed in the makefile.
//  199  *
//  200  * Most applications update both lines (1 and 2) of the LCD whenever
//  201  * text is posted to the device. This emulator assumes that line 1 is
//  202  * updated first (saved locally) and the formatting and send operation
//  203  * is triggered by receipt of line 2. Nothing will be transmitted if
//  204  * only line 1 is updated.
//  205  *
//  206  *************************************************************************************************/
//  207 
//  208 /**************************************************************************************************
//  209  * @fn      HalLcdWriteString
//  210  *
//  211  * @brief   Write a string to the LCD
//  212  *
//  213  * @param   str    - pointer to the string that will be displayed
//  214  *          option - display options
//  215  *
//  216  * @return  None
//  217  **************************************************************************************************/

        RSEG BANKED_CODE:CODE:NOROOT(0)
//  218 void HalLcdWriteString ( char *str, uint8 option)
HalLcdWriteString:
        CFI Block cfiBlock1 Using cfiCommon0
        CFI Function HalLcdWriteString
        CODE
//  219 {
        ; Saved register size: 0
        ; Auto size: 0
//  220 #if (HAL_LCD == TRUE)
//  221     uint8 strLen = 0;
//  222     uint8 totalLen = 0;
//  223     uint8 *buf;
//  224     uint8 tmpLen;
//  225   
//  226     if ( Lcd_Line1 == NULL )
//  227     {
//  228         Lcd_Line1 = osal_mem_alloc( HAL_LCD_MAX_CHARS+1 );
//  229         HalLcdWriteString( "TexasInstruments", 1 );
//  230     }
//  231   
//  232     strLen = (uint8)osal_strlen( (char*)str );
//  233   
//  234     /* Check boundries */
//  235     if ( strLen > HAL_LCD_MAX_CHARS )
//  236         strLen = HAL_LCD_MAX_CHARS;
//  237   
//  238     if ( option == HAL_LCD_LINE_1 )
//  239     {
//  240         /* Line 1 gets saved for later */
//  241         osal_memcpy( Lcd_Line1, str, strLen );
//  242         Lcd_Line1[strLen] = '\0';
//  243     }
//  244     else
//  245     {
//  246         /* Line 2 triggers action */
//  247         tmpLen = (uint8)osal_strlen( (char*)Lcd_Line1 );
//  248         totalLen =  tmpLen + 1 + strLen + 1;
//  249         buf = osal_mem_alloc( totalLen );
//  250         if ( buf != NULL )
//  251         {
//  252             /* Concatenate strings */
//  253             osal_memcpy( buf, Lcd_Line1, tmpLen );
//  254             buf[tmpLen++] = ' ';
//  255             osal_memcpy( &buf[tmpLen], str, strLen );
//  256             buf[tmpLen+strLen] = '\0';
//  257   
//  258             /* Send it out */
//  259 #if defined (ZTOOL_P1) || defined (ZTOOL_P2)
//  260 #if defined(SERIAL_DEBUG_SUPPORTED)
//  261             debug_str( (uint8*)buf );
//  262 #endif //LCD_SUPPORTED
//  263 #endif //ZTOOL_P1
//  264             /* Free mem */
//  265             osal_mem_free( buf );
//  266         }
//  267     }
//  268   
//  269     /* Display the string */
//  270     HalLcd_HW_WriteLine (option, str);
//  271 #endif //HAL_LCD
//  272 }
        LJMP    ?BRET
        CFI EndBlock cfiBlock1
//  273 
//  274 /**************************************************************************************************
//  275  * @fn      HalLcdWriteValue
//  276  *
//  277  * @brief   Write a value to the LCD
//  278  *
//  279  * @param   value  - value that will be displayed
//  280  *          radix  - 8, 10, 16(进制)
//  281  *          option - display options
//  282  *
//  283  * @return  None
//  284  **************************************************************************************************/

        RSEG BANKED_CODE:CODE:NOROOT(0)
//  285 void HalLcdWriteValue ( uint32 value, const uint8 radix, uint8 option)
HalLcdWriteValue:
        CFI Block cfiBlock2 Using cfiCommon0
        CFI Function HalLcdWriteValue
        CODE
//  286 {
        ; Saved register size: 0
        ; Auto size: 0
//  287 #if (HAL_LCD == TRUE)
//  288     uint8 buf[LCD_MAX_BUF];
//  289 
//  290     // 将value按照radix的进制转换存到buf中
//  291     _ltoa( value, &buf[0], radix ); 
//  292     HalLcdWriteString( (char*)buf, option );
//  293 #endif
//  294 }
        LJMP    ?BRET
        CFI EndBlock cfiBlock2
//  295 
//  296 /**************************************************************************************************
//  297  * @fn      HalLcdWriteScreen
//  298  *
//  299  * @brief   Write a value to the LCD
//  300  *
//  301  * @param   line1  - string that will be displayed on line 1
//  302  *          line2  - string that will be displayed on line 2
//  303  *
//  304  * @return  None
//  305  **************************************************************************************************/

        RSEG BANKED_CODE:CODE:NOROOT(0)
//  306 void HalLcdWriteScreen( char *line1, char *line2 )
HalLcdWriteScreen:
        CFI Block cfiBlock3 Using cfiCommon0
        CFI Function HalLcdWriteScreen
        CODE
//  307 {
        ; Saved register size: 0
        ; Auto size: 0
//  308 #if (HAL_LCD == TRUE)
//  309     HalLcdWriteString( line1, 1 );
//  310     HalLcdWriteString( line2, 2 );
//  311 #endif
//  312 }
        LJMP    ?BRET
        CFI EndBlock cfiBlock3
//  313 
//  314 /**************************************************************************************************
//  315  * @fn      HalLcdWriteStringValue
//  316  *
//  317  * @brief   Write a string followed by a value to the LCD
//  318  *
//  319  * @param   title  - Title that will be displayed before the value
//  320  *          value  - value
//  321  *          format - redix
//  322  *          line   - line number
//  323  *
//  324  * @return  None
//  325  **************************************************************************************************/

        RSEG BANKED_CODE:CODE:NOROOT(0)
//  326 void HalLcdWriteStringValue( char *title, uint16 value, uint8 format, uint8 line )
HalLcdWriteStringValue:
        CFI Block cfiBlock4 Using cfiCommon0
        CFI Function HalLcdWriteStringValue
        CODE
//  327 {
        ; Saved register size: 0
        ; Auto size: 0
//  328 #if (HAL_LCD == TRUE)
//  329     uint8 tmpLen;
//  330     uint8 buf[LCD_MAX_BUF];
//  331     uint32 err;
//  332   
//  333     tmpLen = (uint8)osal_strlen( (char*)title );
//  334     osal_memcpy( buf, title, tmpLen );
//  335     buf[tmpLen] = ' ';
//  336     err = (uint32)(value);
//  337     _ltoa( err, &buf[tmpLen+1], format );
//  338     HalLcdWriteString( (char*)buf, line );		
//  339 #endif
//  340 }
        LJMP    ?BRET
        CFI EndBlock cfiBlock4
//  341 
//  342 /**************************************************************************************************
//  343  * @fn      HalLcdWriteStringValueValue
//  344  *
//  345  * @brief   Write a string followed by a value to the LCD
//  346  *
//  347  * @param   title   - Title that will be displayed before the value
//  348  *          value1  - value #1
//  349  *          format1 - redix of value #1
//  350  *          value2  - value #2
//  351  *          format2 - redix of value #2
//  352  *          line    - line number
//  353  *
//  354  * @return  None
//  355  * 修改为显示两个title + 2个Value
//  356  **************************************************************************************************/

        RSEG BANKED_CODE:CODE:NOROOT(0)
//  357 void HalLcdWriteStringValueValue( char *title1, uint16 value1, uint8 format1,
HalLcdWriteStringValueValue:
        CFI Block cfiBlock5 Using cfiCommon0
        CFI Function HalLcdWriteStringValueValue
        CODE
//  358                                   char *title2,uint16 value2, uint8 format2, uint8 line )
//  359 {
        ; Saved register size: 0
        ; Auto size: 0
//  360 #if (HAL_LCD == TRUE)
//  361     uint8 tmpLen;
//  362     uint8 buf[LCD_MAX_BUF];
//  363     uint32 err;
//  364   
//  365     tmpLen = (uint8)osal_strlen( (char*)title1 );
//  366     if ( tmpLen )
//  367     {
//  368         osal_memcpy( buf, title1, tmpLen );
//  369     }
//  370   
//  371     err = (uint32)(value1);
//  372     _ltoa( err, &buf[tmpLen], format1 );
//  373     tmpLen = (uint8)osal_strlen( (char*)buf );
//  374   
//  375     tmpLen += (uint8)osal_strlen( (char*)title2 );
//  376     if ( tmpLen )
//  377     {
//  378         strcat( buf, title2);
//  379     }
//  380     
//  381     err = (uint32)(value2);
//  382     _ltoa( err, &buf[tmpLen], format2 );
//  383   
//  384     HalLcdWriteString( (char *)buf, line );		
//  385 #endif
//  386 }
        LJMP    ?BRET
        CFI EndBlock cfiBlock5
//  387 
//  388 /**************************************************************************************************
//  389  * @fn      HalLcdDisplayPercentBar
//  390  *
//  391  * @brief   Display percentage bar on the LCD
//  392  *
//  393  * @param   title   -
//  394  *          value   -
//  395  *
//  396  * @return  None
//  397  **************************************************************************************************/

        RSEG BANKED_CODE:CODE:NOROOT(0)
//  398 void HalLcdDisplayPercentBar( char *title, uint8 value )
HalLcdDisplayPercentBar:
        CFI Block cfiBlock6 Using cfiCommon0
        CFI Function HalLcdDisplayPercentBar
        CODE
//  399 {
        ; Saved register size: 0
        ; Auto size: 0
//  400 #if (HAL_LCD == TRUE)
//  401     uint8 percent;
//  402     uint8 leftOver;
//  403     uint8 buf[17];
//  404     uint32 err;
//  405     uint8 x;
//  406   
//  407     /* Write the title: */
//  408     HalLcdWriteString( title, HAL_LCD_LINE_1 );
//  409   
//  410     if ( value > 100 )
//  411       value = 100;
//  412   
//  413     /* convert to blocks */
//  414     percent = (uint8)(value / 10);
//  415     leftOver = (uint8)(value % 10);
//  416   
//  417     /* Make window */
//  418     osal_memcpy( buf, "[          ]  ", 15 );
//  419   
//  420     for ( x = 0; x < percent; x ++ )
//  421     {
//  422         buf[1+x] = '>';
//  423     }
//  424   
//  425     if ( leftOver >= 5 )
//  426       buf[1+x] = '+';
//  427   
//  428     err = (uint32)value;
//  429     _ltoa( err, (uint8*)&buf[13], 10 );
//  430   
//  431     HalLcdWriteString( (char*)buf, HAL_LCD_LINE_2 );
//  432 #endif
//  433 }                     
        LJMP    ?BRET
        CFI EndBlock cfiBlock6

        RSEG BANK_RELAYS:CODE:REORDER:NOROOT(0)
??HalLcdInit?relay:
        LCALL   ?BDISPATCH
        DATA
        DC24    HalLcdInit

        RSEG BANK_RELAYS:CODE:REORDER:NOROOT(0)
??HalLcdWriteString?relay:
        LCALL   ?BDISPATCH
        DATA
        DC24    HalLcdWriteString

        RSEG BANK_RELAYS:CODE:REORDER:NOROOT(0)
??HalLcdWriteValue?relay:
        LCALL   ?BDISPATCH
        DATA
        DC24    HalLcdWriteValue

        RSEG BANK_RELAYS:CODE:REORDER:NOROOT(0)
??HalLcdWriteScreen?relay:
        LCALL   ?BDISPATCH
        DATA
        DC24    HalLcdWriteScreen

        RSEG BANK_RELAYS:CODE:REORDER:NOROOT(0)
??HalLcdWriteStringValue?relay:
        LCALL   ?BDISPATCH
        DATA
        DC24    HalLcdWriteStringValue

        RSEG BANK_RELAYS:CODE:REORDER:NOROOT(0)
??HalLcdWriteStringValueValue?relay:
        LCALL   ?BDISPATCH
        DATA
        DC24    HalLcdWriteStringValueValue

        RSEG BANK_RELAYS:CODE:REORDER:NOROOT(0)
??HalLcdDisplayPercentBar?relay:
        LCALL   ?BDISPATCH
        DATA
        DC24    HalLcdDisplayPercentBar

        END
//  434 
//  435 
//  436 #if (HAL_LCD == TRUE)
//  437 /**************************************************************************************************
//  438  *                                    HARDWARE LCD
//  439  **************************************************************************************************/
//  440 
//  441 /**************************************************************************************************
//  442  * @fn      halLcd_ConfigIO
//  443  *
//  444  * @brief   Configure IO lines needed for LCD control.
//  445  *
//  446  * @param   None
//  447  *
//  448  * @return  None
//  449  **************************************************************************************************/
//  450 static void halLcd_ConfigIO(void)
//  451 {
//  452     /* GPIO configuration */
//  453     HAL_CONFIG_IO_OUTPUT(HAL_LCD_BACKLIGHT_PORT, HAL_LCD_BACKLIGHT_PIN, 1);
//  454     HAL_CONFIG_IO_OUTPUT(HAL_LCD_RESET_PORT,     HAL_LCD_RESET_PIN,     1);
//  455     HAL_CONFIG_IO_OUTPUT(HAL_LCD_CS_PORT,        HAL_LCD_CS_PIN,        1);
//  456     HAL_CONFIG_IO_OUTPUT(HAL_LCD_SCLK_PORT,      HAL_LCD_SCLK_PIN,      1);
//  457     HAL_CONFIG_IO_OUTPUT(HAL_LCD_RS_PORT,        HAL_LCD_RS_PIN,        1);
//  458     HAL_CONFIG_IO_OUTPUT(HAL_LCD_SDA_PORT,       HAL_LCD_SDA_PIN,       1);
//  459 }
//  460 
//  461 /**************************************************************************************************
//  462  * @fn      HalLcd_HW_SET_DDRAM_ADDR
//  463  *
//  464  * @brief   Set DDRAM address, 一共128列，8页(每页8行)
//  465  *
//  466  * @param   uint8 page, uint8 column
//  467  *
//  468  * @return  None
//  469  **************************************************************************************************/
//  470 void HalLcd_HW_SET_DDRAM_ADDR(uint8 page, uint8 column)
//  471 {
//  472     LCD_ACTIVATE_CS();
//  473     page   -= 1; 
//  474     column -= 1;
//  475     HalLcd_HW_Control(0xb0 + page);
//  476     HalLcd_HW_Control(((column >> 4) & 0x0F) + 0x10);
//  477     HalLcd_HW_Control(column & 0x0F);
//  478     // LCD_RELEASE_CS();
//  479 }
//  480 
//  481 /**************************************************************************************************
//  482  * @fn      HalLcd_HW_Control
//  483  *
//  484  * @brief   Write 1 command to the LCD
//  485  *
//  486  * @param   uint8 cmd - command to be written to the LCD
//  487  *
//  488  * @return  None
//  489  **************************************************************************************************/
//  490 void HalLcd_HW_Control(uint8 cmd)
//  491 {
//  492     uint8 i;
//  493     
//  494     LCD_ACTIVATE_CS();
//  495     LCD_RS_CMD();
//  496     
//  497     for (i = 0; i < 8; i++) 
//  498     { 
//  499         LCD_SCLK_L; 
//  500         if (cmd & 0x80) 
//  501         {
//  502             LCD_SDA_H;
//  503         }
//  504         else 
//  505         {
//  506             LCD_SDA_L;
//  507         }
//  508         
//  509         LCD_SCLK_H; 
//  510         cmd <<= 1; 
//  511     }
//  512     // LCD_RELEASE_CS();
//  513 }
//  514 
//  515 /**************************************************************************************************
//  516  * @fn      HalLcd_HW_Write
//  517  *
//  518  * @brief   Write 1 byte to the LCD
//  519  *
//  520  * @param   uint8 data - data to be written to the LCD
//  521  *
//  522  * @return  None
//  523  **************************************************************************************************/
//  524 void HalLcd_HW_Write(uint8 data)
//  525 {
//  526     uint8 i; 
//  527     
//  528     LCD_ACTIVATE_CS();
//  529     LCD_RS_DATA(); 
//  530     
//  531     for (i = 0; i < 8; i++) 
//  532     { 
//  533         LCD_SCLK_L; 
//  534         if (data & 0x80) 
//  535         {
//  536             LCD_SDA_H;
//  537         }
//  538         else 
//  539         {
//  540             LCD_SDA_L;
//  541         }
//  542         
//  543         LCD_SCLK_H; 
//  544         data <<= 1; 
//  545     }
//  546     // LCD_RELEASE_CS();
//  547 }
//  548 
//  549 /**************************************************************************************************
//  550  * @fn          HalLcd_HW_SetContrast
//  551  *
//  552  * @brief       Set display contrast
//  553  *
//  554  * @param       uint8 value - contrast value: 0~7;
//  555  *
//  556  * @return      none
//  557  **************************************************************************************************/
//  558 void HalLcd_HW_SetContrast(uint8 value)
//  559 {
//  560     if (value <= 7)
//  561     {
//  562         // 粗调对比度，可设置范围 0x20～0x27
//  563         HalLcd_HW_Control(LCD_CMD_SET_CONTRAST + value);  
//  564     }
//  565     else 
//  566     {
//  567         // 输入数值溢出，默认3  
//  568         HalLcd_HW_Control(LCD_CMD_SET_CONTRAST + 3); 
//  569     }
//  570 }
//  571 
//  572 /**************************************************************************************************
//  573  * @fn          HalLcd_HW_SetVoltage
//  574  *
//  575  * @brief       Set LCD Voltage
//  576  *
//  577  * @param       uint8 value - voltage value: 0x00~0x3F;
//  578  *
//  579  * @return      none
//  580  **************************************************************************************************/
//  581 void HalLcd_HW_SetVoltage(uint8 value)
//  582 {
//  583     HalLcd_HW_Control(0x81); 
//  584     if (value <= 0x3F)
//  585     {
//  586         // 0x1a,微调对比度的值，可设置范围 0x00～0x3f   
//  587         HalLcd_HW_Control(value);  
//  588     }
//  589     else
//  590     {
//  591         // 数据溢出，默认0x28;  
//  592         HalLcd_HW_Control(0x28);   
//  593     }
//  594 }
//  595 
//  596 /**************************************************************************************************
//  597  * @fn      HalLcd_HW_Clear
//  598  *
//  599  * @brief   Clear the HW LCD
//  600  *
//  601  * @param   None
//  602  *
//  603  * @return  None
//  604  **************************************************************************************************/
//  605 void HalLcd_HW_Clear(void)
//  606 {
//  607     LCD_ACTIVATE_CS();
//  608     uint8 i,j;
//  609     
//  610     for (i = 0; i < 9; i++) 
//  611     { 
//  612         HalLcd_HW_SET_DDRAM_ADDR((i + 1), 1); // 第一页，第一列
//  613         for( j = 0; j < 132; j++) 
//  614         { 
//  615             HalLcd_HW_Write(0x00); 
//  616         } 
//  617     }
//  618     // LCD_RELEASE_CS();
//  619 }
//  620 
//  621 /**************************************************************************************************
//  622  * @fn      HalLcd_HW_Init
//  623  *
//  624  * @brief   Initilize HW LCD Driver.
//  625  *
//  626  * @param   None
//  627  *
//  628  * @return  None
//  629  **************************************************************************************************/
//  630 void HalLcd_HW_Init(void)
//  631 {
//  632     /* Initialize LCD IO lines */
//  633     halLcd_ConfigIO();
//  634     
//  635     LCD_ACTIVATE_CS();
//  636     
//  637     LCD_BACKLIGHT_ON(); // 打开LCD背光灯
//  638   
//  639     /* Perform reset */
//  640     LCD_ACTIVATE_RESET();
//  641     HalLcd_HW_WaitUs(1500); // >1ms
//  642     LCD_RELEASE_RESET();
//  643     HalLcd_HW_WaitUs(5000); // >5ms
//  644   
//  645     HalLcd_HW_Control(LCD_SOFT_RESET);
//  646     HalLcd_HW_WaitUs(500);  
//  647 
//  648     /* Perform the Power initialization sequence */
//  649     LCD_POWER_CONTROL(LCD_POWER_CONTROL_1);
//  650     HalLcd_HW_WaitUs(500);   
//  651     LCD_POWER_CONTROL(LCD_POWER_CONTROL_2);
//  652     HalLcd_HW_WaitUs(500); 
//  653     LCD_POWER_CONTROL(LCD_POWER_CONTROL_3);  
//  654     HalLcd_HW_WaitUs(500); 
//  655    
//  656     /* Set contrast 对比度*/
//  657     HalLcd_HW_SetContrast(3);
//  658 
//  659     /* Set power */
//  660     //内部电阻微调
//  661     HalLcd_HW_SetVoltage(0x28);
//  662     
//  663     SET_BIAS_CTRL(BIAS_1_9);
//  664     HalLcd_HW_WaitUs(1000);  // 1 ms
//  665     
//  666     HalLcd_HW_Control(0xc8); // 行扫描顺序：从上到下 
//  667     HalLcd_HW_Control(0xa0); // 列扫描顺序：从左到右 
//  668     HalLcd_HW_Control(0x40); // 起始行：第一行开始
//  669     HalLcd_HW_Control(0xaf); // 打开显示 
//  670 
//  671     /* Clear the display */
//  672     HalLcd_HW_Clear();
//  673 
//  674     LCD_RELEASE_CS();
//  675 }
//  676 
//  677 /**************************************************************************************************
//  678  * @fn      HalLcd_HW_WriteChar
//  679  *
//  680  * @brief   Write one char to the display
//  681  *
//  682  * @param   uint8 line - line number that the char will be displayed
//  683  *          uint8 col - colum where the char will be displayed
//  684  *
//  685  * @return  None
//  686  **************************************************************************************************/
//  687 void HalLcd_HW_WriteChar(uint8 line, uint8 col, char text)
//  688 {
//  689     uint8 j, k, n;
//  690     
//  691     if (col <= LCD_MAX_LINE_LENGTH)
//  692     {   
//  693         //字符大小：16(行)x8(列)
//  694         if ((text >= 0x20) && (text <= 0x7e)) 
//  695         { 
//  696             j = text - 0x20; 
//  697             for (n = 0; n < 2; n++) // 两页
//  698             {    
//  699                 HalLcd_HW_SET_DDRAM_ADDR((line * 2 - 1 + n), ((col - 1) * 8 + 1)); // 页和列 
//  700                 for (k = 0; k < 8; k++) 
//  701                 { 
//  702                     // j为字符对应的，
//  703                     // 写数据到 LCD, 每写一次(即写一个 8 位的数据)后列地址自动加 1
//  704                     HalLcd_HW_Write(ascii_table_8x16[j][k + 8 * n]);
//  705                 } 
//  706             }  
//  707         } 
//  708     }
//  709     else
//  710     {
//  711         return;
//  712     }
//  713 }
//  714 
//  715 /**************************************************************************************************
//  716  * @fn          halLcdWriteLine
//  717  *
//  718  * @brief       Write one line on display
//  719  *
//  720  * @param       uint8 line - display line
//  721  *              char *pText - text buffer to write
//  722  *
//  723  * @return      none
//  724  **************************************************************************************************/
//  725 void HalLcd_HW_WriteLine(uint8 line, const char *pText)
//  726 {
//  727     uint8 count;
//  728     uint8 totalLength = (uint8)osal_strlen( (char *)pText );
//  729   
//  730     /* Write the content first */
//  731     for (count = 0; count < totalLength; count++)
//  732     {
//  733         HalLcd_HW_WriteChar(line, (count + 1), (*(pText++)));
//  734     }
//  735   
//  736     /* Write blank spaces to rest of the line */
//  737     for (count = totalLength; count < LCD_MAX_LINE_LENGTH; count++)
//  738     {
//  739        HalLcd_HW_WriteChar(line, (count + 1), ' ');
//  740     }
//  741 }
//  742 
//  743 /**************************************************************************************************
//  744  * @fn      HalLcd_HW_WaitUs
//  745  *
//  746  * @brief   wait for x us. @ 32MHz MCU clock it takes 32 "nop"s for 1 us delay.
//  747  *
//  748  * @param   x us. range[0-65536]
//  749  *
//  750  * @return  None
//  751  **************************************************************************************************/
//  752 void HalLcd_HW_WaitUs(uint16 microSecs)
//  753 {
//  754     while(microSecs--)
//  755     {
//  756         // 32 NOPs == 1 usecs
//  757         asm("nop"); asm("nop"); asm("nop"); asm("nop"); asm("nop");
//  758         asm("nop"); asm("nop"); asm("nop"); asm("nop"); asm("nop");
//  759         asm("nop"); asm("nop"); asm("nop"); asm("nop"); asm("nop");
//  760         asm("nop"); asm("nop"); asm("nop"); asm("nop"); asm("nop");
//  761         asm("nop"); asm("nop"); asm("nop"); asm("nop"); asm("nop");
//  762         asm("nop"); asm("nop"); asm("nop"); asm("nop"); asm("nop");
//  763         asm("nop"); asm("nop");
//  764     }
//  765 }
//  766 #endif
// 
//    21 bytes in segment BANKED_CODE
//    42 bytes in segment BANK_RELAYS
// 1 520 bytes in segment XDATA_ROM_C
// 
//    63 bytes of CODE  memory
// 1 520 bytes of CONST memory
//
//Errors: none
//Warnings: none
