///////////////////////////////////////////////////////////////////////////////
//                                                                            /
// IAR C/C++ Compiler V8.10.1.40194/W32 for 8051        03/Jan/2021  22:17:28 /
// Copyright 2004-2011 IAR Systems AB.                                        /
//                                                                            /
//    Core               =  plain                                             /
//    Code model         =  banked                                            /
//    Data model         =  large                                             /
//    Calling convention =  xdata reentrant                                   /
//    Constant location  =  data_rom                                          /
//    Dptr setup         =  1,16                                              /
//    Source file        =  D:\Projects_IAR\IAR_C8051\WSN-CC2530\ZStack-CC253 /
//                          0-2.5.1a_EB\Projects\zstack\MY_BOARD\Exp4\Source\ /
//                          TransmitAppTempLight.c                            /
//    Command line       =  -f D:\Projects_IAR\IAR_C8051\WSN-CC2530\ZStack-CC /
//                          2530-2.5.1a_EB\Projects\zstack\MY_BOARD\Exp4\CC25 /
//                          30DB\..\..\..\Tools\CC2530DB\f8wEndev.cfg         /
//                          (-DCPU32MHZ -DROOT=__near_func                    /
//                          -DMAC_CFG_TX_DATA_MAX=3 -DMAC_CFG_TX_MAX=6        /
//                          -DMAC_CFG_RX_MAX=3) -f D:\Projects_IAR\IAR_C8051\ /
//                          WSN-CC2530\ZStack-CC2530-2.5.1a_EB\Projects\zstac /
//                          k\MY_BOARD\Exp4\CC2530DB\..\..\..\Tools\CC2530DB\ /
//                          f8wConfig.cfg (-DZIGBEEPRO -DSECURE=0             /
//                          -DZG_SECURE_DYNAMIC=0 -DREFLECTOR                 /
//                          -DDEFAULT_CHANLIST=0x02000000                     /
//                          -DZDAPP_CONFIG_PAN_ID=0x1001                      /
//                          -DNWK_START_DELAY=100 -DEXTENDED_JOINING_RANDOM_M /
//                          ASK=0x007F -DBEACON_REQUEST_DELAY=100             /
//                          -DBEACON_REQ_DELAY_MASK=0x00FF                    /
//                          -DLINK_STATUS_JITTER_MASK=0x007F                  /
//                          -DROUTE_EXPIRY_TIME=30 -DAPSC_ACK_WAIT_DURATION_P /
//                          OLLED=3000 -DNWK_INDIRECT_MSG_TIMEOUT=7           /
//                          -DMAX_RREQ_ENTRIES=8 -DAPSC_MAX_FRAME_RETRIES=3   /
//                          -DNWK_MAX_DATA_RETRIES=2                          /
//                          -DMAX_POLL_FAILURE_RETRIES=2 -DMAX_BCAST=9        /
//                          -DAPS_MAX_GROUPS=16 -DMAX_RTG_ENTRIES=40          /
//                          -DNWK_MAX_BINDING_ENTRIES=4                       /
//                          -DMAX_BINDING_CLUSTER_IDS=4                       /
//                          "-DDEFAULT_KEY={0x01, 0x03, 0x05, 0x07, 0x09,     /
//                          0x0B, 0x0D, 0x0F, 0x00, 0x02, 0x04, 0x06, 0x08,   /
//                          0x0A, 0x0C, 0x0D}" -DMAC_MAX_FRAME_SIZE=116       /
//                          -DZDNWKMGR_MIN_TRANSMISSIONS=20 "-DCONST=const    /
//                          __code" -DGENERIC=__generic                       /
//                          -DRFD_RCVC_ALWAYS_ON=FALSE -DPOLL_RATE=1000       /
//                          -DQUEUED_POLL_RATE=100 -DRESPONSE_POLL_RATE=100)  /
//                          -DREJOIN_POLL_RATE=440 D:\Projects_IAR\IAR_C8051\ /
//                          WSN-CC2530\ZStack-CC2530-2.5.1a_EB\Projects\zstac /
//                          k\MY_BOARD\Exp4\Source\TransmitAppTempLight.c -D  /
//                          HAL_UART=TRUE -D HAL_UART_TEST -D xPOWER_SAVING   /
//                          -lC D:\Projects_IAR\IAR_C8051\WSN-CC2530\ZStack-C /
//                          C2530-2.5.1a_EB\Projects\zstack\MY_BOARD\Exp4\CC2 /
//                          530DB\EndDeviceSBTempLight\List\ -lA              /
//                          D:\Projects_IAR\IAR_C8051\WSN-CC2530\ZStack-CC253 /
//                          0-2.5.1a_EB\Projects\zstack\MY_BOARD\Exp4\CC2530D /
//                          B\EndDeviceSBTempLight\List\ --diag_suppress      /
//                          Pe001,Pa010 -o D:\Projects_IAR\IAR_C8051\WSN-CC25 /
//                          30\ZStack-CC2530-2.5.1a_EB\Projects\zstack\MY_BOA /
//                          RD\Exp4\CC2530DB\EndDeviceSBTempLight\Obj\ -e     /
//                          --no_code_motion --debug --core=plain             /
//                          --dptr=16,1 --data_model=large                    /
//                          --code_model=banked --calling_convention=xdata_re /
//                          entrant --place_constants=data_rom                /
//                          --nr_virtual_regs 16 -I                           /
//                          D:\Projects_IAR\IAR_C8051\WSN-CC2530\ZStack-CC253 /
//                          0-2.5.1a_EB\Projects\zstack\MY_BOARD\Exp4\CC2530D /
//                          B\ -I D:\Projects_IAR\IAR_C8051\WSN-CC2530\ZStack /
//                          -CC2530-2.5.1a_EB\Projects\zstack\MY_BOARD\Exp4\C /
//                          C2530DB\..\Source\ -I D:\Projects_IAR\IAR_C8051\W /
//                          SN-CC2530\ZStack-CC2530-2.5.1a_EB\Projects\zstack /
//                          \MY_BOARD\Exp4\CC2530DB\..\..\..\ZMain\TI2530DB\  /
//                          -I D:\Projects_IAR\IAR_C8051\WSN-CC2530\ZStack-CC /
//                          2530-2.5.1a_EB\Projects\zstack\MY_BOARD\Exp4\CC25 /
//                          30DB\..\..\..\..\..\Components\hal\include\ -I    /
//                          D:\Projects_IAR\IAR_C8051\WSN-CC2530\ZStack-CC253 /
//                          0-2.5.1a_EB\Projects\zstack\MY_BOARD\Exp4\CC2530D /
//                          B\..\..\..\..\..\Components\hal\target\CC2530SB\  /
//                          -I D:\Projects_IAR\IAR_C8051\WSN-CC2530\ZStack-CC /
//                          2530-2.5.1a_EB\Projects\zstack\MY_BOARD\Exp4\CC25 /
//                          30DB\..\..\..\..\..\Components\mac\include\ -I    /
//                          D:\Projects_IAR\IAR_C8051\WSN-CC2530\ZStack-CC253 /
//                          0-2.5.1a_EB\Projects\zstack\MY_BOARD\Exp4\CC2530D /
//                          B\..\..\..\..\..\Components\mac\high_level\ -I    /
//                          D:\Projects_IAR\IAR_C8051\WSN-CC2530\ZStack-CC253 /
//                          0-2.5.1a_EB\Projects\zstack\MY_BOARD\Exp4\CC2530D /
//                          B\..\..\..\..\..\Components\mac\low_level\srf04\  /
//                          -I D:\Projects_IAR\IAR_C8051\WSN-CC2530\ZStack-CC /
//                          2530-2.5.1a_EB\Projects\zstack\MY_BOARD\Exp4\CC25 /
//                          30DB\..\..\..\..\..\Components\mac\low_level\srf0 /
//                          4\single_chip\ -I D:\Projects_IAR\IAR_C8051\WSN-C /
//                          C2530\ZStack-CC2530-2.5.1a_EB\Projects\zstack\MY_ /
//                          BOARD\Exp4\CC2530DB\..\..\..\..\..\Components\mt\ /
//                           -I D:\Projects_IAR\IAR_C8051\WSN-CC2530\ZStack-C /
//                          C2530-2.5.1a_EB\Projects\zstack\MY_BOARD\Exp4\CC2 /
//                          530DB\..\..\..\..\..\Components\osal\include\ -I  /
//                          D:\Projects_IAR\IAR_C8051\WSN-CC2530\ZStack-CC253 /
//                          0-2.5.1a_EB\Projects\zstack\MY_BOARD\Exp4\CC2530D /
//                          B\..\..\..\..\..\Components\services\saddr\ -I    /
//                          D:\Projects_IAR\IAR_C8051\WSN-CC2530\ZStack-CC253 /
//                          0-2.5.1a_EB\Projects\zstack\MY_BOARD\Exp4\CC2530D /
//                          B\..\..\..\..\..\Components\services\sdata\ -I    /
//                          D:\Projects_IAR\IAR_C8051\WSN-CC2530\ZStack-CC253 /
//                          0-2.5.1a_EB\Projects\zstack\MY_BOARD\Exp4\CC2530D /
//                          B\..\..\..\..\..\Components\stack\af\ -I          /
//                          D:\Projects_IAR\IAR_C8051\WSN-CC2530\ZStack-CC253 /
//                          0-2.5.1a_EB\Projects\zstack\MY_BOARD\Exp4\CC2530D /
//                          B\..\..\..\..\..\Components\stack\nwk\ -I         /
//                          D:\Projects_IAR\IAR_C8051\WSN-CC2530\ZStack-CC253 /
//                          0-2.5.1a_EB\Projects\zstack\MY_BOARD\Exp4\CC2530D /
//                          B\..\..\..\..\..\Components\stack\sapi\ -I        /
//                          D:\Projects_IAR\IAR_C8051\WSN-CC2530\ZStack-CC253 /
//                          0-2.5.1a_EB\Projects\zstack\MY_BOARD\Exp4\CC2530D /
//                          B\..\..\..\..\..\Components\stack\sec\ -I         /
//                          D:\Projects_IAR\IAR_C8051\WSN-CC2530\ZStack-CC253 /
//                          0-2.5.1a_EB\Projects\zstack\MY_BOARD\Exp4\CC2530D /
//                          B\..\..\..\..\..\Components\stack\sys\ -I         /
//                          D:\Projects_IAR\IAR_C8051\WSN-CC2530\ZStack-CC253 /
//                          0-2.5.1a_EB\Projects\zstack\MY_BOARD\Exp4\CC2530D /
//                          B\..\..\..\..\..\Components\stack\zdo\ -I         /
//                          D:\Projects_IAR\IAR_C8051\WSN-CC2530\ZStack-CC253 /
//                          0-2.5.1a_EB\Projects\zstack\MY_BOARD\Exp4\CC2530D /
//                          B\..\..\..\..\..\Components\zmac\ -I              /
//                          D:\Projects_IAR\IAR_C8051\WSN-CC2530\ZStack-CC253 /
//                          0-2.5.1a_EB\Projects\zstack\MY_BOARD\Exp4\CC2530D /
//                          B\..\..\..\..\..\Components\zmac\f8w\ -Ohz        /
//    List file          =  D:\Projects_IAR\IAR_C8051\WSN-CC2530\ZStack-CC253 /
//                          0-2.5.1a_EB\Projects\zstack\MY_BOARD\Exp4\CC2530D /
//                          B\EndDeviceSBTempLight\List\TransmitAppTempLight. /
//                          s51                                               /
//                                                                            /
//                                                                            /
///////////////////////////////////////////////////////////////////////////////

        NAME TransmitAppTempLight

        RTMODEL "__SystemLibrary", "CLib"
        RTMODEL "__calling_convention", "xdata_reentrant"
        RTMODEL "__code_model", "banked"
        RTMODEL "__core", "plain"
        RTMODEL "__data_model", "large"
        RTMODEL "__dptr_size", "16"
        RTMODEL "__extended_stack", "disabled"
        RTMODEL "__location_for_constants", "data"
        RTMODEL "__number_of_dptrs", "1"
        RTMODEL "__rt_version", "1"

        RSEG DOVERLAY:DATA:NOROOT(0)
        RSEG IOVERLAY:IDATA:NOROOT(0)
        RSEG ISTACK:IDATA:NOROOT(0)
        RSEG PSTACK:XDATA:NOROOT(0)
        RSEG XSTACK:XDATA:NOROOT(0)

        EXTERN ?ALLOC_XSTACK8
        EXTERN ?BANKED_ENTER_XDATA
        EXTERN ?BANKED_LEAVE_XDATA
        EXTERN ?BDISPATCH
        EXTERN ?BRET
        EXTERN ?DEALLOC_XSTACK8
        EXTERN ?FLT_MUL
        EXTERN ?FLT_TO_L
        EXTERN ?L_MOV_X
        EXTERN ?PUSH_XSTACK_I_ONE
        EXTERN ?PUSH_XSTACK_I_TWO
        EXTERN ?UL_TO_FLT
        EXTERN ?US_SHR
        EXTERN ?V0
        EXTERN ?XSP
        EXTERN ?XSTACK_DISP0_8
        EXTERN __INIT_XDATA_Z

        FUNCTION ??TransmitAPP_CallBack?relay,0203H
        PUBLIC ??TransmitApp_ChangeState?relay
        FUNCTION ??TransmitApp_ChangeState?relay,0203H
        PUBLIC ??TransmitApp_DisplayResults?relay
        FUNCTION ??TransmitApp_DisplayResults?relay,0203H
        PUBLIC ??TransmitApp_HandleKeys?relay
        FUNCTION ??TransmitApp_HandleKeys?relay,0203H
        PUBLIC ??TransmitApp_Init?relay
        FUNCTION ??TransmitApp_Init?relay,0203H
        PUBLIC ??TransmitApp_MessageMSGCB?relay
        FUNCTION ??TransmitApp_MessageMSGCB?relay,0203H
        PUBLIC ??TransmitApp_ProcessEvent?relay
        FUNCTION ??TransmitApp_ProcessEvent?relay,0203H
        PUBLIC ??TransmitApp_ProcessZDOMsgs?relay
        FUNCTION ??TransmitApp_ProcessZDOMsgs?relay,0203H
        PUBLIC ??TransmitApp_SendTheMessage?relay
        FUNCTION ??TransmitApp_SendTheMessage?relay,0203H
        PUBLIC ??TransmitApp_SetSendEvt?relay
        FUNCTION ??TransmitApp_SetSendEvt?relay,0203H
        FUNCTION TransmitAPP_CallBack,0603H
        ARGFRAME XSTACK, 0, STACK
        PUBLIC TransmitApp_ChangeState
        FUNCTION TransmitApp_ChangeState,0203H
        ARGFRAME XSTACK, 0, STACK
        PUBLIC TransmitApp_DisplayResults
        FUNCTION TransmitApp_DisplayResults,0203H
        ARGFRAME XSTACK, 0, STACK
        PUBLIC TransmitApp_DstAddr
        PUBLIC TransmitApp_HandleKeys
        FUNCTION TransmitApp_HandleKeys,0203H
        ARGFRAME XSTACK, 0, STACK
        PUBLIC TransmitApp_InClusterList
        PUBLIC TransmitApp_Init
        FUNCTION TransmitApp_Init,021203H
        ARGFRAME XSTACK, 0, STACK
        LOCFRAME XSTACK, 38, STACK
        PUBLIC TransmitApp_MessageMSGCB
        FUNCTION TransmitApp_MessageMSGCB,0203H
        ARGFRAME XSTACK, 0, STACK
        PUBLIC TransmitApp_Msg
        PUBLIC TransmitApp_NwkState
        PUBLIC TransmitApp_OutClusterList
        PUBLIC TransmitApp_ProcessEvent
        FUNCTION TransmitApp_ProcessEvent,021203H
        ARGFRAME XSTACK, 0, STACK
        LOCFRAME XSTACK, 29, STACK
        PUBLIC TransmitApp_ProcessZDOMsgs
        FUNCTION TransmitApp_ProcessZDOMsgs,021203H
        ARGFRAME XSTACK, 21, STACK
        ARGFRAME IOVERLAY, 0, STATIC
        ARGFRAME DOVERLAY, 0, STATIC
        LOCFRAME XSTACK, 10, STACK
        PUBLIC TransmitApp_SendTheMessage
        FUNCTION TransmitApp_SendTheMessage,021203H
        ARGFRAME XSTACK, 21, STACK
        ARGFRAME IOVERLAY, 0, STATIC
        ARGFRAME DOVERLAY, 0, STATIC
        LOCFRAME XSTACK, 38, STACK
        PUBLIC TransmitApp_SetSendEvt
        FUNCTION TransmitApp_SetSendEvt,0203H
        ARGFRAME XSTACK, 0, STACK
        PUBLIC TransmitApp_SimpleDesc
        PUBLIC TransmitApp_TaskID
        PUBLIC TransmitApp_epDesc
        PUBWEAK __Constant_427a0000
        
        CFI Names cfiNames0
        CFI StackFrame CFA_SP SP IDATA
        CFI StackFrame CFA_PSP16 PSP16 XDATA
        CFI StackFrame CFA_XSP16 XSP16 XDATA
        CFI StaticOverlayFrame CFA_IOVERLAY IOVERLAY
        CFI StaticOverlayFrame CFA_DOVERLAY DOVERLAY
        CFI Resource `PSW.CY`:1, `B.BR0`:1, `B.BR1`:1, `B.BR2`:1, `B.BR3`:1
        CFI Resource `B.BR4`:1, `B.BR5`:1, `B.BR6`:1, `B.BR7`:1, `VB.BR8`:1
        CFI Resource `VB.BR9`:1, `VB.BR10`:1, `VB.BR11`:1, `VB.BR12`:1
        CFI Resource `VB.BR13`:1, `VB.BR14`:1, `VB.BR15`:1, VB:8, B:8, A:8
        CFI Resource PSW:8, DPL0:8, DPH0:8, R0:8, R1:8, R2:8, R3:8, R4:8, R5:8
        CFI Resource R6:8, R7:8, V0:8, V1:8, V2:8, V3:8, V4:8, V5:8, V6:8, V7:8
        CFI Resource V8:8, V9:8, V10:8, V11:8, V12:8, V13:8, V14:8, V15:8, SP:8
        CFI Resource PSPH:8, PSPL:8, PSP16:16, XSPH:8, XSPL:8, XSP16:16
        CFI VirtualResource ?RET:24
        CFI Resource ?BRET_EXT:8
        CFI VirtualResource ?RET_HIGH:8, ?RET_LOW:8
        CFI ResourceParts PSP16 PSPH, PSPL
        CFI ResourceParts XSP16 XSPH, XSPL
        CFI ResourceParts ?RET ?BRET_EXT, ?RET_HIGH, ?RET_LOW
        CFI EndNames cfiNames0
        
        CFI Common cfiCommon0 Using cfiNames0
        CFI CodeAlign 1
        CFI DataAlign -1
        CFI ReturnAddress ?RET CODE
        CFI CFA_DOVERLAY Used
        CFI CFA_IOVERLAY Used
        CFI CFA_SP SP+-3
        CFI CFA_PSP16 PSP16+0
        CFI CFA_XSP16 XSP16+0
        CFI `PSW.CY` SameValue
        CFI `B.BR0` SameValue
        CFI `B.BR1` SameValue
        CFI `B.BR2` SameValue
        CFI `B.BR3` SameValue
        CFI `B.BR4` SameValue
        CFI `B.BR5` SameValue
        CFI `B.BR6` SameValue
        CFI `B.BR7` SameValue
        CFI `VB.BR8` SameValue
        CFI `VB.BR9` SameValue
        CFI `VB.BR10` SameValue
        CFI `VB.BR11` SameValue
        CFI `VB.BR12` SameValue
        CFI `VB.BR13` SameValue
        CFI `VB.BR14` SameValue
        CFI `VB.BR15` SameValue
        CFI VB SameValue
        CFI B Undefined
        CFI A Undefined
        CFI PSW SameValue
        CFI DPL0 SameValue
        CFI DPH0 SameValue
        CFI R0 Undefined
        CFI R1 Undefined
        CFI R2 Undefined
        CFI R3 Undefined
        CFI R4 Undefined
        CFI R5 Undefined
        CFI R6 SameValue
        CFI R7 SameValue
        CFI V0 SameValue
        CFI V1 SameValue
        CFI V2 SameValue
        CFI V3 SameValue
        CFI V4 SameValue
        CFI V5 SameValue
        CFI V6 SameValue
        CFI V7 SameValue
        CFI V8 SameValue
        CFI V9 SameValue
        CFI V10 SameValue
        CFI V11 SameValue
        CFI V12 SameValue
        CFI V13 SameValue
        CFI V14 SameValue
        CFI V15 SameValue
        CFI PSPH Undefined
        CFI PSPL Undefined
        CFI XSPH Undefined
        CFI XSPL Undefined
        CFI ?RET Concat
        CFI ?BRET_EXT Frame(CFA_SP, 3)
        CFI ?RET_HIGH Frame(CFA_SP, 2)
        CFI ?RET_LOW Frame(CFA_SP, 1)
        CFI EndCommon cfiCommon0
        
        
        CFI Common cfiCommon1 Using cfiNames0
        CFI CodeAlign 1
        CFI DataAlign -1
        CFI ReturnAddress ?RET CODE
        CFI CFA_DOVERLAY Used
        CFI CFA_IOVERLAY Used
        CFI CFA_SP SP+-2
        CFI CFA_PSP16 PSP16+0
        CFI CFA_XSP16 XSP16+0
        CFI `PSW.CY` SameValue
        CFI `B.BR0` SameValue
        CFI `B.BR1` SameValue
        CFI `B.BR2` SameValue
        CFI `B.BR3` SameValue
        CFI `B.BR4` SameValue
        CFI `B.BR5` SameValue
        CFI `B.BR6` SameValue
        CFI `B.BR7` SameValue
        CFI `VB.BR8` SameValue
        CFI `VB.BR9` SameValue
        CFI `VB.BR10` SameValue
        CFI `VB.BR11` SameValue
        CFI `VB.BR12` SameValue
        CFI `VB.BR13` SameValue
        CFI `VB.BR14` SameValue
        CFI `VB.BR15` SameValue
        CFI VB SameValue
        CFI B SameValue
        CFI A SameValue
        CFI PSW SameValue
        CFI DPL0 SameValue
        CFI DPH0 SameValue
        CFI R0 SameValue
        CFI R1 SameValue
        CFI R2 SameValue
        CFI R3 SameValue
        CFI R4 SameValue
        CFI R5 SameValue
        CFI R6 SameValue
        CFI R7 SameValue
        CFI V0 SameValue
        CFI V1 SameValue
        CFI V2 SameValue
        CFI V3 SameValue
        CFI V4 SameValue
        CFI V5 SameValue
        CFI V6 SameValue
        CFI V7 SameValue
        CFI V8 SameValue
        CFI V9 SameValue
        CFI V10 SameValue
        CFI V11 SameValue
        CFI V12 SameValue
        CFI V13 SameValue
        CFI V14 SameValue
        CFI V15 SameValue
        CFI PSPH Undefined
        CFI PSPL Undefined
        CFI XSPH Undefined
        CFI XSPL Undefined
        CFI ?RET Concat
        CFI ?BRET_EXT SameValue
        CFI ?RET_HIGH Frame(CFA_SP, 2)
        CFI ?RET_LOW Frame(CFA_SP, 1)
        CFI EndCommon cfiCommon1
        
HalUARTOpen         SYMBOL "HalUARTOpen"
afRegister          SYMBOL "afRegister"
RegisterForKeys     SYMBOL "RegisterForKeys"
ZDO_RegisterForZDOMsg SYMBOL "ZDO_RegisterForZDOMsg"
osal_start_reload_timer SYMBOL "osal_start_reload_timer"
osal_msg_receive    SYMBOL "osal_msg_receive"
osal_msg_deallocate SYMBOL "osal_msg_deallocate"
ZDP_MatchDescReq    SYMBOL "ZDP_MatchDescReq"
ZDO_ParseEPListRsp  SYMBOL "ZDO_ParseEPListRsp"
osal_stop_timerEx   SYMBOL "osal_stop_timerEx"
HalUARTWrite        SYMBOL "HalUARTWrite"
osal_mem_free       SYMBOL "osal_mem_free"
BH1750_ConvertLight SYMBOL "BH1750_ConvertLight"
DS18B20_ConvertTemp SYMBOL "DS18B20_ConvertTemp"
_ltoa               SYMBOL "_ltoa"
strlen              SYMBOL "strlen"
AF_DataRequest      SYMBOL "AF_DataRequest"
??AF_DataRequest?relay SYMBOL "?relay", AF_DataRequest
??BH1750_ConvertLight?relay SYMBOL "?relay", BH1750_ConvertLight
??DS18B20_ConvertTemp?relay SYMBOL "?relay", DS18B20_ConvertTemp
??HalUARTOpen?relay SYMBOL "?relay", HalUARTOpen
??HalUARTWrite?relay SYMBOL "?relay", HalUARTWrite
??RegisterForKeys?relay SYMBOL "?relay", RegisterForKeys
??ZDO_ParseEPListRsp?relay SYMBOL "?relay", ZDO_ParseEPListRsp
??ZDO_RegisterForZDOMsg?relay SYMBOL "?relay", ZDO_RegisterForZDOMsg
??ZDP_MatchDescReq?relay SYMBOL "?relay", ZDP_MatchDescReq
??_ltoa?relay       SYMBOL "?relay", _ltoa
??afRegister?relay  SYMBOL "?relay", afRegister
??osal_mem_free?relay SYMBOL "?relay", osal_mem_free
??osal_msg_deallocate?relay SYMBOL "?relay", osal_msg_deallocate
??osal_msg_receive?relay SYMBOL "?relay", osal_msg_receive
??osal_start_reload_timer?relay SYMBOL "?relay", osal_start_reload_timer
??osal_stop_timerEx?relay SYMBOL "?relay", osal_stop_timerEx
??strlen?relay      SYMBOL "?relay", strlen
TransmitApp_ChangeState SYMBOL "TransmitApp_ChangeState"
??TransmitApp_ChangeState?relay SYMBOL "?relay", TransmitApp_ChangeState
TransmitApp_DisplayResults SYMBOL "TransmitApp_DisplayResults"
??TransmitApp_DisplayResults?relay SYMBOL "?relay", TransmitApp_DisplayResults
TransmitApp_HandleKeys SYMBOL "TransmitApp_HandleKeys"
??TransmitApp_HandleKeys?relay SYMBOL "?relay", TransmitApp_HandleKeys
TransmitApp_Init    SYMBOL "TransmitApp_Init"
??TransmitApp_Init?relay SYMBOL "?relay", TransmitApp_Init
TransmitApp_MessageMSGCB SYMBOL "TransmitApp_MessageMSGCB"
??TransmitApp_MessageMSGCB?relay SYMBOL "?relay", TransmitApp_MessageMSGCB
TransmitApp_ProcessEvent SYMBOL "TransmitApp_ProcessEvent"
??TransmitApp_ProcessEvent?relay SYMBOL "?relay", TransmitApp_ProcessEvent
TransmitApp_ProcessZDOMsgs SYMBOL "TransmitApp_ProcessZDOMsgs"
??TransmitApp_ProcessZDOMsgs?relay SYMBOL "?relay", TransmitApp_ProcessZDOMsgs
TransmitApp_SendTheMessage SYMBOL "TransmitApp_SendTheMessage"
??TransmitApp_SendTheMessage?relay SYMBOL "?relay", TransmitApp_SendTheMessage
TransmitApp_SetSendEvt SYMBOL "TransmitApp_SetSendEvt"
??TransmitApp_SetSendEvt?relay SYMBOL "?relay", TransmitApp_SetSendEvt

        EXTERN HalUARTOpen
        FUNCTION HalUARTOpen,0202H
        ARGFRAME ISTACK, 0, STACK
        ARGFRAME PSTACK, 0, STACK
        ARGFRAME XSTACK, 38, STACK
        ARGFRAME IOVERLAY, 0, STATIC
        ARGFRAME DOVERLAY, 0, STATIC
        EXTERN afRegister
        FUNCTION afRegister,0202H
        ARGFRAME ISTACK, 0, STACK
        ARGFRAME PSTACK, 0, STACK
        ARGFRAME XSTACK, 38, STACK
        ARGFRAME IOVERLAY, 0, STATIC
        ARGFRAME DOVERLAY, 0, STATIC
        EXTERN RegisterForKeys
        FUNCTION RegisterForKeys,0202H
        ARGFRAME ISTACK, 0, STACK
        ARGFRAME PSTACK, 0, STACK
        ARGFRAME XSTACK, 38, STACK
        ARGFRAME IOVERLAY, 0, STATIC
        ARGFRAME DOVERLAY, 0, STATIC
        EXTERN ZDO_RegisterForZDOMsg
        FUNCTION ZDO_RegisterForZDOMsg,0202H
        ARGFRAME ISTACK, 0, STACK
        ARGFRAME PSTACK, 0, STACK
        ARGFRAME XSTACK, 38, STACK
        ARGFRAME IOVERLAY, 0, STATIC
        ARGFRAME DOVERLAY, 0, STATIC
        EXTERN osal_start_reload_timer
        FUNCTION osal_start_reload_timer,0202H
        ARGFRAME ISTACK, 0, STACK
        ARGFRAME PSTACK, 0, STACK
        ARGFRAME XSTACK, 38, STACK
        ARGFRAME IOVERLAY, 0, STATIC
        ARGFRAME DOVERLAY, 0, STATIC
        EXTERN osal_msg_receive
        FUNCTION osal_msg_receive,0202H
        ARGFRAME ISTACK, 0, STACK
        ARGFRAME PSTACK, 0, STACK
        ARGFRAME XSTACK, 21, STACK
        ARGFRAME IOVERLAY, 0, STATIC
        ARGFRAME DOVERLAY, 0, STATIC
        EXTERN osal_msg_deallocate
        FUNCTION osal_msg_deallocate,0202H
        ARGFRAME ISTACK, 0, STACK
        ARGFRAME PSTACK, 0, STACK
        ARGFRAME XSTACK, 21, STACK
        ARGFRAME IOVERLAY, 0, STATIC
        ARGFRAME DOVERLAY, 0, STATIC
        EXTERN ZDP_MatchDescReq
        FUNCTION ZDP_MatchDescReq,0202H
        ARGFRAME ISTACK, 0, STACK
        ARGFRAME PSTACK, 0, STACK
        ARGFRAME XSTACK, 29, STACK
        ARGFRAME IOVERLAY, 0, STATIC
        ARGFRAME DOVERLAY, 0, STATIC
        EXTERN ZDO_ParseEPListRsp
        FUNCTION ZDO_ParseEPListRsp,0202H
        ARGFRAME ISTACK, 0, STACK
        ARGFRAME PSTACK, 0, STACK
        ARGFRAME XSTACK, 10, STACK
        ARGFRAME IOVERLAY, 0, STATIC
        ARGFRAME DOVERLAY, 0, STATIC
        EXTERN osal_stop_timerEx
        FUNCTION osal_stop_timerEx,0202H
        ARGFRAME ISTACK, 0, STACK
        ARGFRAME PSTACK, 0, STACK
        ARGFRAME XSTACK, 10, STACK
        ARGFRAME IOVERLAY, 0, STATIC
        ARGFRAME DOVERLAY, 0, STATIC
        EXTERN HalUARTWrite
        FUNCTION HalUARTWrite,0202H
        ARGFRAME ISTACK, 0, STACK
        ARGFRAME PSTACK, 0, STACK
        ARGFRAME XSTACK, 29, STACK
        ARGFRAME IOVERLAY, 0, STATIC
        ARGFRAME DOVERLAY, 0, STATIC
        EXTERN osal_mem_free
        FUNCTION osal_mem_free,0202H
        ARGFRAME ISTACK, 0, STACK
        ARGFRAME PSTACK, 0, STACK
        ARGFRAME XSTACK, 10, STACK
        ARGFRAME IOVERLAY, 0, STATIC
        ARGFRAME DOVERLAY, 0, STATIC
        EXTERN BH1750_ConvertLight
        FUNCTION BH1750_ConvertLight,0202H
        ARGFRAME ISTACK, 0, STACK
        ARGFRAME PSTACK, 0, STACK
        ARGFRAME XSTACK, 29, STACK
        ARGFRAME IOVERLAY, 0, STATIC
        ARGFRAME DOVERLAY, 0, STATIC
        EXTERN DS18B20_ConvertTemp
        FUNCTION DS18B20_ConvertTemp,0202H
        ARGFRAME ISTACK, 0, STACK
        ARGFRAME PSTACK, 0, STACK
        ARGFRAME XSTACK, 29, STACK
        ARGFRAME IOVERLAY, 0, STATIC
        ARGFRAME DOVERLAY, 0, STATIC
        EXTERN _ltoa
        FUNCTION _ltoa,0202H
        ARGFRAME ISTACK, 0, STACK
        ARGFRAME PSTACK, 0, STACK
        ARGFRAME XSTACK, 31, STACK
        ARGFRAME IOVERLAY, 0, STATIC
        ARGFRAME DOVERLAY, 0, STATIC
        EXTERN strlen
        FUNCTION strlen,010202H
        ARGFRAME ISTACK, 0, STACK
        ARGFRAME PSTACK, 0, STACK
        ARGFRAME XSTACK, 29, STACK
        ARGFRAME IOVERLAY, 0, STATIC
        ARGFRAME DOVERLAY, 0, STATIC
        EXTERN AF_DataRequest
        FUNCTION AF_DataRequest,0202H
        ARGFRAME ISTACK, 0, STACK
        ARGFRAME PSTACK, 0, STACK
        ARGFRAME XSTACK, 38, STACK
        ARGFRAME IOVERLAY, 0, STATIC
        ARGFRAME DOVERLAY, 0, STATIC
        EXTERN ??AF_DataRequest?relay
        FUNCTION ??AF_DataRequest?relay,00H
        EXTERN ??BH1750_ConvertLight?relay
        FUNCTION ??BH1750_ConvertLight?relay,00H
        EXTERN ??DS18B20_ConvertTemp?relay
        FUNCTION ??DS18B20_ConvertTemp?relay,00H
        EXTERN ??HalUARTOpen?relay
        FUNCTION ??HalUARTOpen?relay,00H
        EXTERN ??HalUARTWrite?relay
        FUNCTION ??HalUARTWrite?relay,00H
        EXTERN ??RegisterForKeys?relay
        FUNCTION ??RegisterForKeys?relay,00H
        EXTERN ??ZDO_ParseEPListRsp?relay
        FUNCTION ??ZDO_ParseEPListRsp?relay,00H
        EXTERN ??ZDO_RegisterForZDOMsg?relay
        FUNCTION ??ZDO_RegisterForZDOMsg?relay,00H
        EXTERN ??ZDP_MatchDescReq?relay
        FUNCTION ??ZDP_MatchDescReq?relay,00H
        EXTERN ??_ltoa?relay
        FUNCTION ??_ltoa?relay,00H
        EXTERN ??afRegister?relay
        FUNCTION ??afRegister?relay,00H
        EXTERN ??osal_mem_free?relay
        FUNCTION ??osal_mem_free?relay,00H
        EXTERN ??osal_msg_deallocate?relay
        FUNCTION ??osal_msg_deallocate?relay,00H
        EXTERN ??osal_msg_receive?relay
        FUNCTION ??osal_msg_receive?relay,00H
        EXTERN ??osal_start_reload_timer?relay
        FUNCTION ??osal_start_reload_timer?relay,00H
        EXTERN ??osal_stop_timerEx?relay
        FUNCTION ??osal_stop_timerEx?relay,00H
        EXTERN ??strlen?relay
        FUNCTION ??strlen?relay,00H

// D:\Projects_IAR\IAR_C8051\WSN-CC2530\ZStack-CC2530-2.5.1a_EB\Projects\zstack\MY_BOARD\Exp4\Source\TransmitAppTempLight.c
//    1 /*******************************************************************************
//    2   文 件 名：TransmitTempLight.c
//    3   作    者：南京安宸博研电子科技有限公司
//    4   创建时间：2013.9.20
//    5   修改时间：2020.12.22
//    6   IAR 版本：IAR for 8051 V8.10.1
//    7   测试平台：MotherBoard V2.1
//    8 
//    9   说    明：
//   10   1、这个应用主要用来采集温度(DS18B20)和光照(BH1750)信息，每秒采集一次并直接发送
//   11      给协调器；程序的驱动文件在hal_ds18b20.c、hal_bh1750.c。
//   12 
//   13   2、本部分的程序使用了以下的编译选项：
//   14      HAL_UART=TRUE
//   15      HAL_UART_TEST
//   16      xPOWER_SAVING (该选项没有打开)
//   17      
//   18      HAL_UART_TEST是为用户增加的编译选项，该选项主要是为了解决在没有LCD的设备上
//   19      观察Z-Stack输出的显示数据。在有LCD的设备上打开LCD_SUPPORTED可以观察网络ID等
//   20      一些基本的信息，打开这个编译选项，有类似的效果。可借助串口显示一些原本在LCD
//   21      上显示的信息，如果串口有其他用途，可通过关闭此编译选项来关闭串口输出的数据。
//   22      
//   23      xPOWER_SAVING选项是终端设备(EndDevice)可以打开的编译选项。
//   24 
//   25   3、程序使用了以下两个事件：
//   26      TRANSMITAPP_SEND_MSG_EVT(发送数据)
//   27      TRANSMITAPP_MATCHRSP_EVT(描述符匹配)
//   28 
//   29   4、按键处理函数在TransmitApp_HandleKeys( byte shift, byte keys )，在本应用中没
//   30      有使用按键SW5，即按键功能预留。
//   31 
//   32   5、设备自动加入网络，通过描述符匹配事件对目标设备的网络地址进行查询，当匹配成
//   33      功后，关闭该事件的定时器，保存目标设备的网络地址，接着打开发送数据事件，周
//   34      期性地发送数据。发送数据的时间间隔由宏定义TRANSMITAPP_SEND_DELAY设置，修改
//   35      此宏定义即可修改设备发送数据的周期。
//   36      注意：设备发送数据的周期与协调器的离线检测功能是关联的，如果此处的发送间隔
//   37      时间过长(大于6s)，那么协调器就会认定设备离线。因此，修改时间间隔需要与协调
//   38      器的离线检测功能协调一致。
//   39 *******************************************************************************/
//   40 
//   41 /*******************************************************************************
//   42  * INCLUDES
//   43  */
//   44 #include "OSAL.h"
//   45 #include "AF.h"
//   46 #include "ZDObject.h"
//   47 #include "ZDProfile.h"
//   48 
//   49 #include "TransmitApp.h"
//   50 #include "OnBoard.h"
//   51 
//   52 #include "DebugTrace.h"
//   53 
//   54 #include <string.h>
//   55 
//   56 /* HAL */
//   57 #include "hal_led.h"
//   58 #include "hal_key.h"
//   59 #include "hal_uart.h"
//   60 #include "hal_ds18b20.h"
//   61 #include "hal_bh1750.h"
//   62 
//   63 /*******************************************************************************
//   64  * MACROS
//   65  */
//   66 #define TRANSMITAPP_STATE_WAITING   0
//   67 #define TRANSMITAPP_STATE_SENDING   1
//   68 
//   69 #define TRANSMITAPP_SEND_DELAY      1000
//   70 
//   71 // Send with or without APS ACKs
//   72 #define TRANSMITAPP_TX_OPTIONS    AF_DISCV_ROUTE
//   73 
//   74 #define TRANSMITAPP_MATCH_DELAY     1000
//   75 
//   76 /*******************************************************************************
//   77  * TYPEDEFS
//   78  */
//   79 
//   80 /*******************************************************************************
//   81  * GLOBAL VARIABLES
//   82  */
//   83 
//   84 // This is the buffer that is sent out as data.

        RSEG XDATA_Z:XDATA:NOROOT(0)
        DATA8
//   85 byte TransmitApp_Msg[ TRANSMITAPP_TEMPLIGHT_DATA_LEN ];
TransmitApp_Msg:
        DS 8
        REQUIRE __INIT_XDATA_Z
//   86 
//   87 // This is the Cluster ID List and should be filled with Application
//   88 // specific cluster IDs.

        RSEG XDATA_ROM_C:CONST:REORDER:NOROOT(0)
        DATA16
//   89 const cId_t TransmitApp_InClusterList[1] =
TransmitApp_InClusterList:
        DW 9
//   90 {
//   91   TRANSMITAPP_CLUSTERID_TESTMSG       // MSG Cluster ID
//   92 };
//   93 

        RSEG XDATA_ROM_C:CONST:REORDER:NOROOT(0)
        DATA16
//   94 const cId_t TransmitApp_OutClusterList[1] =
TransmitApp_OutClusterList:
        DW 2
//   95 {
//   96   TRANSMITAPP_CLUSTERID_TEMPLIGHTMSG  // MSG Cluster ID
//   97 };
//   98 

        RSEG XDATA_ROM_C:CONST:REORDER:NOROOT(0)
        DATA8
//   99 const SimpleDescriptionFormat_t TransmitApp_SimpleDesc =
TransmitApp_SimpleDesc:
        DB 1
        DATA16
        DW 3845
        DW 1
        DATA8
        DB 0
        DB 8
        DATA16
        DW TransmitApp_InClusterList
        DATA8
        DB 3
        DATA16
        DW TransmitApp_OutClusterList
//  100 {
//  101   TRANSMITAPP_ENDPOINT,                 //  int    Endpoint;
//  102   TRANSMITAPP_PROFID,                   //  uint16 AppProfId[2];
//  103   TRANSMITAPP_DEVICEID,                 //  uint16 AppDeviceId[2];
//  104   TRANSMITAPP_DEVICE_VERSION,           //  int    AppDevVer:4;
//  105   TRANSMITAPP_FLAGS,                    //  int    AppFlags:4;
//  106   TRANSMITAPP_MAX_INCLUSTERS,           //  byte   AppNumInClusters;
//  107   (cId_t *)TransmitApp_InClusterList,   //  byte   *pAppInClusterList;
//  108   TRANSMITAPP_MAX_OUTCLUSTERS,          //  byte   AppNumOutClusters;
//  109   (cId_t *)TransmitApp_OutClusterList   //  byte   *pAppOutClusterList;
//  110 };
//  111 
//  112 // This is the Endpoint/Interface description.  It is defined here, but
//  113 // filled-in in TransmitApp_Init().  Another way to go would be to fill
//  114 // in the structure here and make it a "const" (in code space).  The
//  115 // way it's defined in this sample app it is define in RAM.

        RSEG XDATA_Z:XDATA:NOROOT(0)
        DATA8
//  116 endPointDesc_t TransmitApp_epDesc;
TransmitApp_epDesc:
        DS 6
        REQUIRE __INIT_XDATA_Z
//  117 
//  118 /*******************************************************************************
//  119  * EXTERNAL VARIABLES
//  120  */
//  121 
//  122 /*******************************************************************************
//  123  * EXTERNAL FUNCTIONS
//  124  */
//  125 
//  126 /*******************************************************************************
//  127  * LOCAL VARIABLES
//  128  */
//  129 #if !defined( SERIAL_APP_PORT )
//  130 #define SERIAL_APP_PORT  0
//  131 #endif
//  132 
//  133 #if !defined( SERIAL_APP_BAUD )
//  134 #define SERIAL_APP_BAUD  HAL_UART_BR_38400
//  135 #endif
//  136 
//  137 // When the Rx buf space is less than this threshold, invoke the Rx callback.
//  138 #if !defined( SERIAL_APP_THRESH )
//  139 #define SERIAL_APP_THRESH  64
//  140 #endif
//  141 
//  142 #if !defined( SERIAL_APP_RX_SZ )
//  143 #define SERIAL_APP_RX_SZ  128
//  144 #endif
//  145 
//  146 #if !defined( SERIAL_APP_TX_SZ )
//  147 #define SERIAL_APP_TX_SZ  128
//  148 #endif
//  149 
//  150 // Millisecs of idle time after a byte is received before invoking Rx callback.
//  151 #if !defined( SERIAL_APP_IDLE )
//  152 #define SERIAL_APP_IDLE  6
//  153 #endif
//  154 
//  155 // Loopback Rx bytes to Tx for throughput testing.
//  156 #if !defined( SERIAL_APP_LOOPBACK )
//  157 #define SERIAL_APP_LOOPBACK  FALSE
//  158 #endif
//  159 
//  160 // This is the max byte count per OTA message.
//  161 #if !defined( SERIAL_APP_TX_MAX )
//  162 #define SERIAL_APP_TX_MAX  80
//  163 #endif
//  164 
//  165 #define SERIAL_APP_RSP_CNT  4
//  166 
//  167 // Task ID for event processing - received when TransmitApp_Init() is called.

        RSEG XDATA_Z:XDATA:NOROOT(0)
        DATA8
//  168 byte TransmitApp_TaskID;
TransmitApp_TaskID:
        DS 1
        REQUIRE __INIT_XDATA_Z
//  169 

        RSEG XDATA_Z:XDATA:NOROOT(0)
        DATA8
//  170 devStates_t TransmitApp_NwkState;
TransmitApp_NwkState:
        DS 1
        REQUIRE __INIT_XDATA_Z
//  171 

        RSEG XDATA_Z:XDATA:NOROOT(0)
        DATA8
//  172 static byte TransmitApp_TransID;  // This is the unique message ID (counter)
TransmitApp_TransID:
        DS 1
        REQUIRE __INIT_XDATA_Z
//  173 

        RSEG XDATA_Z:XDATA:NOROOT(0)
        DATA8
//  174 afAddrType_t TransmitApp_DstAddr;
TransmitApp_DstAddr:
        DS 12
        REQUIRE __INIT_XDATA_Z
//  175 
//  176 
//  177 /*******************************************************************************
//  178  * LOCAL FUNCTIONS
//  179  */
//  180 void TransmitApp_ProcessZDOMsgs( zdoIncomingMsg_t *inMsg );
//  181 void TransmitApp_HandleKeys( byte shift, byte keys );
//  182 void TransmitApp_MessageMSGCB( afIncomingMSGPacket_t *pckt );
//  183 void TransmitApp_SendTheMessage( void );
//  184 void TransmitApp_ChangeState( void );
//  185 static void TransmitAPP_CallBack(uint8 port, uint8 event);
//  186 
//  187 /*******************************************************************************
//  188  * NETWORK LAYER CALLBACKS
//  189  */
//  190 
//  191 /*******************************************************************************
//  192  * PUBLIC FUNCTIONS
//  193  */
//  194 void TransmitApp_DisplayResults( void );
//  195 
//  196 /*******************************************************************************
//  197  * @fn      TransmitApp_Init
//  198  *
//  199  * @brief   Initialization function for the Generic App Task.
//  200  *          This is called during initialization and should contain
//  201  *          any application specific initialization (ie. hardware
//  202  *          initialization/setup, table initialization, power up
//  203  *          notificaiton ... ).
//  204  *
//  205  * @param   task_id - the ID assigned by OSAL.  This ID should be
//  206  *                    used to send messages and set timers.
//  207  *
//  208  * @return  none
//  209  */

        RSEG BANKED_CODE:CODE:NOROOT(0)
//  210 void TransmitApp_Init( byte task_id )
TransmitApp_Init:
        CFI Block cfiBlock0 Using cfiCommon0
        CFI Function TransmitApp_Init
        CODE
//  211 {
        FUNCALL TransmitApp_Init, HalUARTOpen
        LOCFRAME ISTACK, 0, STACK
        LOCFRAME PSTACK, 0, STACK
        LOCFRAME XSTACK, 38, STACK
        LOCFRAME IOVERLAY, 0, STATIC
        LOCFRAME DOVERLAY, 0, STATIC
        ARGFRAME ISTACK, 0, STACK
        ARGFRAME PSTACK, 0, STACK
        ARGFRAME XSTACK, 38, STACK
        ARGFRAME IOVERLAY, 0, STATIC
        ARGFRAME DOVERLAY, 0, STATIC
        FUNCALL TransmitApp_Init, afRegister
        LOCFRAME ISTACK, 0, STACK
        LOCFRAME PSTACK, 0, STACK
        LOCFRAME XSTACK, 38, STACK
        LOCFRAME IOVERLAY, 0, STATIC
        LOCFRAME DOVERLAY, 0, STATIC
        ARGFRAME ISTACK, 0, STACK
        ARGFRAME PSTACK, 0, STACK
        ARGFRAME XSTACK, 38, STACK
        ARGFRAME IOVERLAY, 0, STATIC
        ARGFRAME DOVERLAY, 0, STATIC
        FUNCALL TransmitApp_Init, RegisterForKeys
        LOCFRAME ISTACK, 0, STACK
        LOCFRAME PSTACK, 0, STACK
        LOCFRAME XSTACK, 38, STACK
        LOCFRAME IOVERLAY, 0, STATIC
        LOCFRAME DOVERLAY, 0, STATIC
        ARGFRAME ISTACK, 0, STACK
        ARGFRAME PSTACK, 0, STACK
        ARGFRAME XSTACK, 38, STACK
        ARGFRAME IOVERLAY, 0, STATIC
        ARGFRAME DOVERLAY, 0, STATIC
        FUNCALL TransmitApp_Init, ZDO_RegisterForZDOMsg
        LOCFRAME ISTACK, 0, STACK
        LOCFRAME PSTACK, 0, STACK
        LOCFRAME XSTACK, 38, STACK
        LOCFRAME IOVERLAY, 0, STATIC
        LOCFRAME DOVERLAY, 0, STATIC
        ARGFRAME ISTACK, 0, STACK
        ARGFRAME PSTACK, 0, STACK
        ARGFRAME XSTACK, 38, STACK
        ARGFRAME IOVERLAY, 0, STATIC
        ARGFRAME DOVERLAY, 0, STATIC
        FUNCALL TransmitApp_Init, ZDO_RegisterForZDOMsg
        LOCFRAME ISTACK, 0, STACK
        LOCFRAME PSTACK, 0, STACK
        LOCFRAME XSTACK, 38, STACK
        LOCFRAME IOVERLAY, 0, STATIC
        LOCFRAME DOVERLAY, 0, STATIC
        ARGFRAME ISTACK, 0, STACK
        ARGFRAME PSTACK, 0, STACK
        ARGFRAME XSTACK, 38, STACK
        ARGFRAME IOVERLAY, 0, STATIC
        ARGFRAME DOVERLAY, 0, STATIC
        FUNCALL TransmitApp_Init, osal_start_reload_timer
        LOCFRAME ISTACK, 0, STACK
        LOCFRAME PSTACK, 0, STACK
        LOCFRAME XSTACK, 38, STACK
        LOCFRAME IOVERLAY, 0, STATIC
        LOCFRAME DOVERLAY, 0, STATIC
        ARGFRAME ISTACK, 0, STACK
        ARGFRAME PSTACK, 0, STACK
        ARGFRAME XSTACK, 38, STACK
        ARGFRAME IOVERLAY, 0, STATIC
        ARGFRAME DOVERLAY, 0, STATIC
        MOV     A,#-0x9
        LCALL   ?BANKED_ENTER_XDATA
        CFI DPH0 load(1, XDATA, add(CFA_XSP16, literal(-1)))
        CFI DPL0 load(1, XDATA, add(CFA_XSP16, literal(-2)))
        CFI ?BRET_EXT load(1, XDATA, add(CFA_XSP16, literal(-3)))
        CFI ?RET_HIGH load(1, XDATA, add(CFA_XSP16, literal(-4)))
        CFI ?RET_LOW load(1, XDATA, add(CFA_XSP16, literal(-5)))
        CFI R7 load(1, XDATA, add(CFA_XSP16, literal(-6)))
        CFI V0 load(1, XDATA, add(CFA_XSP16, literal(-7)))
        CFI VB load(1, XDATA, add(CFA_XSP16, literal(-8)))
        CFI R6 load(1, XDATA, add(CFA_XSP16, literal(-9)))
        CFI CFA_SP SP+0
        CFI CFA_XSP16 add(XSP16, 9)
        ; Saved register size: 9
        ; Auto size: 29
        MOV     A,#-0x1d
        LCALL   ?ALLOC_XSTACK8
        CFI CFA_XSP16 add(XSP16, 38)
        MOV     A,R1
        MOV     R6,A
//  212   uint16 i;
//  213   
//  214 #if HAL_UART==TRUE
//  215   halUARTCfg_t uartConfig;
//  216   
//  217   uartConfig.configured           = TRUE;              // 2x30 don't care - see uart driver.
        MOV     DPL,?XSP + 0
        MOV     DPH,?XSP + 1
        MOV     A,#0x1
        MOVX    @DPTR,A
//  218   uartConfig.baudRate             = SERIAL_APP_BAUD;
        LCALL   ?XSTACK_DISP0_8
        MOV     A,#0x2
        MOVX    @DPTR,A
//  219   uartConfig.flowControl          = FALSE;
        LCALL   ?XSTACK_DISP0_8
        CLR     A
        MOVX    @DPTR,A
//  220   uartConfig.flowControlThreshold = SERIAL_APP_THRESH; // 2x30 don't care - see uart driver.
        MOV     A,#0x3
        LCALL   ?XSTACK_DISP0_8
        MOV     A,#0x40
        MOVX    @DPTR,A
        INC     DPTR
        CLR     A
        MOVX    @DPTR,A
//  221   uartConfig.rx.maxBufSize        = SERIAL_APP_RX_SZ;  // 2x30 don't care - see uart driver.
        MOV     A,#0xa
        LCALL   ?XSTACK_DISP0_8
        MOV     A,#-0x80
        MOVX    @DPTR,A
        INC     DPTR
        CLR     A
        MOVX    @DPTR,A
//  222   uartConfig.tx.maxBufSize        = SERIAL_APP_TX_SZ;  // 2x30 don't care - see uart driver.
        MOV     A,#0x12
        LCALL   ?XSTACK_DISP0_8
        MOV     A,#-0x80
        MOVX    @DPTR,A
        INC     DPTR
        CLR     A
        MOVX    @DPTR,A
//  223   uartConfig.idleTimeout          = SERIAL_APP_IDLE;   // 2x30 don't care - see uart driver.
        MOV     A,#0x5
        LCALL   ?XSTACK_DISP0_8
        MOV     A,#0x6
        MOVX    @DPTR,A
//  224   uartConfig.intEnable            = FALSE;             // 2x30 don't care - see uart driver.
        MOV     A,#0x16
        LCALL   ?XSTACK_DISP0_8
        CLR     A
        MOVX    @DPTR,A
//  225   uartConfig.callBackFunc         = TransmitAPP_CallBack;
        MOV     A,#0x1b
        LCALL   ?XSTACK_DISP0_8
        MOV     A,#??TransmitAPP_CallBack?relay & 0xff
        MOVX    @DPTR,A
        INC     DPTR
        MOV     A,#(??TransmitAPP_CallBack?relay >> 8) & 0xff
        MOVX    @DPTR,A
//  226   HalUARTOpen (HAL_UART_PORT_0, &uartConfig);
        ; Setup parameters for call to function HalUARTOpen
        MOV     DPL,?XSP + 0
        MOV     DPH,?XSP + 1
        MOV     R2,DPL
        MOV     R3,DPH
        MOV     R1,#0x0
        LCALL   ??HalUARTOpen?relay
//  227 #endif
//  228 
//  229   TransmitApp_TaskID = task_id;
        MOV     A,R6
        MOV     DPTR,#TransmitApp_TaskID
        MOVX    @DPTR,A
//  230   TransmitApp_NwkState = DEV_INIT;
        MOV     DPTR,#TransmitApp_NwkState
        MOV     A,#0x1
        MOVX    @DPTR,A
//  231   TransmitApp_TransID = 0;
        MOV     DPTR,#TransmitApp_TransID
        CLR     A
        MOVX    @DPTR,A
//  232     
//  233   // Device hardware initialization can be added here or in main() (Zmain.c).
//  234   // If the hardware is application specific - add it here.
//  235   // If the hardware is other parts of the device add it in main().
//  236   TransmitApp_DstAddr.addrMode = (afAddrMode_t)AddrNotPresent;
        MOV     DPTR,#TransmitApp_DstAddr + 8
        MOVX    @DPTR,A
//  237   TransmitApp_DstAddr.endPoint = 0;
        INC     DPTR
        MOVX    @DPTR,A
//  238   TransmitApp_DstAddr.addr.shortAddr = 0;
        MOV     DPTR,#TransmitApp_DstAddr
        MOVX    @DPTR,A
        INC     DPTR
        MOVX    @DPTR,A
//  239   
//  240   // Fill out the endpoint description.
//  241   TransmitApp_epDesc.endPoint = TRANSMITAPP_ENDPOINT;
        MOV     DPTR,#TransmitApp_epDesc
        INC     A
        MOVX    @DPTR,A
//  242   TransmitApp_epDesc.task_id = &TransmitApp_TaskID;
        INC     DPTR
        MOV     A,#TransmitApp_TaskID & 0xff
        MOVX    @DPTR,A
        INC     DPTR
        MOV     A,#(TransmitApp_TaskID >> 8) & 0xff
        MOVX    @DPTR,A
//  243   TransmitApp_epDesc.simpleDesc
//  244           = (SimpleDescriptionFormat_t *)&TransmitApp_SimpleDesc;
        INC     DPTR
        MOV     A,#TransmitApp_SimpleDesc & 0xff
        MOVX    @DPTR,A
        INC     DPTR
        MOV     A,#(TransmitApp_SimpleDesc >> 8) & 0xff
        MOVX    @DPTR,A
//  245   TransmitApp_epDesc.latencyReq = noLatencyReqs;
        INC     DPTR
        CLR     A
        MOVX    @DPTR,A
//  246   
//  247   // Register the endpoint/interface description with the AF
//  248   afRegister( &TransmitApp_epDesc );
        ; Setup parameters for call to function afRegister
        MOV     R2,#TransmitApp_epDesc & 0xff
        MOV     R3,#(TransmitApp_epDesc >> 8) & 0xff
        LCALL   ??afRegister?relay
//  249   
//  250   // Register for all key events - This app will handle all key events
//  251   RegisterForKeys( TransmitApp_TaskID );
        ; Setup parameters for call to function RegisterForKeys
        MOV     DPTR,#TransmitApp_TaskID
        MOVX    A,@DPTR
        MOV     R1,A
        LCALL   ??RegisterForKeys?relay
//  252     
//  253   // Generate the data
//  254   for (i = 0; i < TRANSMITAPP_TEMPLIGHT_DATA_LEN; i++)
//  255   {
//  256     TransmitApp_Msg[i] = 0;
        CLR     A
        MOV     DPTR,#TransmitApp_Msg
        MOV     R0,#0x8
??TransmitApp_Init_0:
        MOVX    @DPTR,A
        INC     DPTR
        DJNZ    R0,??TransmitApp_Init_0
//  257   }
//  258   
//  259   ZDO_RegisterForZDOMsg( TransmitApp_TaskID, End_Device_Bind_rsp );
        ; Setup parameters for call to function ZDO_RegisterForZDOMsg
        MOV     R2,#0x20
        MOV     R3,#-0x80
        MOV     DPTR,#TransmitApp_TaskID
        MOVX    A,@DPTR
        MOV     R1,A
        LCALL   ??ZDO_RegisterForZDOMsg?relay
//  260   ZDO_RegisterForZDOMsg( TransmitApp_TaskID, Match_Desc_rsp );
        ; Setup parameters for call to function ZDO_RegisterForZDOMsg
        MOV     R2,#0x6
        MOV     R3,#-0x80
        MOV     DPTR,#TransmitApp_TaskID
        MOVX    A,@DPTR
        MOV     R1,A
        LCALL   ??ZDO_RegisterForZDOMsg?relay
//  261   
//  262   osal_start_reload_timer( TransmitApp_TaskID, TRANSMITAPP_MATCHRSP_EVT, 
//  263                                                TRANSMITAPP_MATCH_DELAY );
        ; Setup parameters for call to function osal_start_reload_timer
        MOV     R4,#-0x18
        MOV     R5,#0x3
        MOV     R2,#0x8
        MOV     R3,#0x0
        MOV     DPTR,#TransmitApp_TaskID
        MOVX    A,@DPTR
        MOV     R1,A
        LCALL   ??osal_start_reload_timer?relay
//  264 }
        MOV     A,#0x1d
        LCALL   ?DEALLOC_XSTACK8
        CFI CFA_XSP16 add(XSP16, 9)
        MOV     R7,#0x1
        LJMP    ?BANKED_LEAVE_XDATA
        CFI EndBlock cfiBlock0
//  265 
//  266 /*******************************************************************************
//  267  * @fn      TransmitApp_ProcessEvent
//  268  *
//  269  * @brief   Generic Application Task event processor.  This function
//  270  *          is called to process all events for the task.  Events
//  271  *          include timers, messages and any other user defined events.
//  272  *
//  273  * @param   task_id  - The OSAL assigned task ID.
//  274  * @param   events - events to process.  This is a bit map and can
//  275  *                   contain more than one event.
//  276  *
//  277  * @return  none
//  278  */

        RSEG BANKED_CODE:CODE:NOROOT(0)
//  279 UINT16 TransmitApp_ProcessEvent( byte task_id, UINT16 events )
TransmitApp_ProcessEvent:
        CFI Block cfiBlock1 Using cfiCommon0
        CFI Function TransmitApp_ProcessEvent
        CODE
//  280 {
        FUNCALL TransmitApp_ProcessEvent, osal_msg_receive
        LOCFRAME ISTACK, 0, STACK
        LOCFRAME PSTACK, 0, STACK
        LOCFRAME XSTACK, 21, STACK
        LOCFRAME IOVERLAY, 0, STATIC
        LOCFRAME DOVERLAY, 0, STATIC
        ARGFRAME ISTACK, 0, STACK
        ARGFRAME PSTACK, 0, STACK
        ARGFRAME XSTACK, 21, STACK
        ARGFRAME IOVERLAY, 0, STATIC
        ARGFRAME DOVERLAY, 0, STATIC
        FUNCALL TransmitApp_ProcessEvent, osal_msg_deallocate
        LOCFRAME ISTACK, 0, STACK
        LOCFRAME PSTACK, 0, STACK
        LOCFRAME XSTACK, 21, STACK
        LOCFRAME IOVERLAY, 0, STATIC
        LOCFRAME DOVERLAY, 0, STATIC
        ARGFRAME ISTACK, 0, STACK
        ARGFRAME PSTACK, 0, STACK
        ARGFRAME XSTACK, 21, STACK
        ARGFRAME IOVERLAY, 0, STATIC
        ARGFRAME DOVERLAY, 0, STATIC
        FUNCALL TransmitApp_ProcessEvent, osal_msg_receive
        LOCFRAME ISTACK, 0, STACK
        LOCFRAME PSTACK, 0, STACK
        LOCFRAME XSTACK, 21, STACK
        LOCFRAME IOVERLAY, 0, STATIC
        LOCFRAME DOVERLAY, 0, STATIC
        ARGFRAME ISTACK, 0, STACK
        ARGFRAME PSTACK, 0, STACK
        ARGFRAME XSTACK, 21, STACK
        ARGFRAME IOVERLAY, 0, STATIC
        ARGFRAME DOVERLAY, 0, STATIC
        FUNCALL TransmitApp_ProcessEvent, TransmitApp_ProcessZDOMsgs
        LOCFRAME ISTACK, 0, STACK
        LOCFRAME PSTACK, 0, STACK
        LOCFRAME XSTACK, 21, STACK
        LOCFRAME IOVERLAY, 0, STATIC
        LOCFRAME DOVERLAY, 0, STATIC
        ARGFRAME ISTACK, 0, STACK
        ARGFRAME PSTACK, 0, STACK
        ARGFRAME XSTACK, 21, STACK
        ARGFRAME IOVERLAY, 0, STATIC
        ARGFRAME DOVERLAY, 0, STATIC
        FUNCALL TransmitApp_ProcessEvent, TransmitApp_SendTheMessage
        LOCFRAME ISTACK, 0, STACK
        LOCFRAME PSTACK, 0, STACK
        LOCFRAME XSTACK, 21, STACK
        LOCFRAME IOVERLAY, 0, STATIC
        LOCFRAME DOVERLAY, 0, STATIC
        ARGFRAME ISTACK, 0, STACK
        ARGFRAME PSTACK, 0, STACK
        ARGFRAME XSTACK, 21, STACK
        ARGFRAME IOVERLAY, 0, STATIC
        ARGFRAME DOVERLAY, 0, STATIC
        FUNCALL TransmitApp_ProcessEvent, ZDP_MatchDescReq
        LOCFRAME ISTACK, 0, STACK
        LOCFRAME PSTACK, 0, STACK
        LOCFRAME XSTACK, 29, STACK
        LOCFRAME IOVERLAY, 0, STATIC
        LOCFRAME DOVERLAY, 0, STATIC
        ARGFRAME ISTACK, 0, STACK
        ARGFRAME PSTACK, 0, STACK
        ARGFRAME XSTACK, 29, STACK
        ARGFRAME IOVERLAY, 0, STATIC
        ARGFRAME DOVERLAY, 0, STATIC
        MOV     A,#-0xc
        LCALL   ?BANKED_ENTER_XDATA
        CFI DPH0 load(1, XDATA, add(CFA_XSP16, literal(-1)))
        CFI DPL0 load(1, XDATA, add(CFA_XSP16, literal(-2)))
        CFI ?BRET_EXT load(1, XDATA, add(CFA_XSP16, literal(-3)))
        CFI ?RET_HIGH load(1, XDATA, add(CFA_XSP16, literal(-4)))
        CFI ?RET_LOW load(1, XDATA, add(CFA_XSP16, literal(-5)))
        CFI R7 load(1, XDATA, add(CFA_XSP16, literal(-6)))
        CFI V3 load(1, XDATA, add(CFA_XSP16, literal(-7)))
        CFI V2 load(1, XDATA, add(CFA_XSP16, literal(-8)))
        CFI V1 load(1, XDATA, add(CFA_XSP16, literal(-9)))
        CFI V0 load(1, XDATA, add(CFA_XSP16, literal(-10)))
        CFI VB load(1, XDATA, add(CFA_XSP16, literal(-11)))
        CFI R6 load(1, XDATA, add(CFA_XSP16, literal(-12)))
        CFI CFA_SP SP+0
        CFI CFA_XSP16 add(XSP16, 12)
        ; Saved register size: 12
        ; Auto size: 9
        MOV     A,#-0x9
        LCALL   ?ALLOC_XSTACK8
        CFI CFA_XSP16 add(XSP16, 21)
        MOV     A,R2
        MOV     R6,A
        MOV     A,R3
        MOV     R7,A
//  281   afIncomingMSGPacket_t *MSGpkt;
//  282   afDataConfirm_t *afDataConfirm;
//  283   (void)task_id;  // Intentionally unreferenced parameter
//  284 
//  285   // Data Confirmation message fields
//  286   ZStatus_t sentStatus;
//  287   byte sentEP;
//  288 
//  289   if ( events & SYS_EVENT_MSG )
        ANL     A,#0x80
        JZ      ??TransmitApp_ProcessEvent_0
//  290   {
//  291     MSGpkt = (afIncomingMSGPacket_t *)osal_msg_receive( TransmitApp_TaskID );
        ; Setup parameters for call to function osal_msg_receive
        SJMP    ??TransmitApp_ProcessEvent_1
//  292     while ( MSGpkt )
//  293     {
//  294       switch ( MSGpkt->hdr.event )
//  295       {
//  296         case ZDO_CB_MSG:
//  297           TransmitApp_ProcessZDOMsgs( (zdoIncomingMsg_t *)MSGpkt );
//  298           break;
//  299 
//  300         case KEY_CHANGE:
//  301           TransmitApp_HandleKeys( ((keyChange_t *)MSGpkt)->state, ((keyChange_t *)MSGpkt)->keys );
//  302           break;
//  303 
//  304         case AF_DATA_CONFIRM_CMD:
//  305           // This message is received as a confirmation of a data packet sent.
//  306           // The status is of ZStatus_t type [defined in ZComDef.h]
//  307           // The message fields are defined in AF.h
//  308           afDataConfirm = (afDataConfirm_t *)MSGpkt;
//  309           sentEP = afDataConfirm->endpoint;
//  310           sentStatus = afDataConfirm->hdr.status;
//  311 
//  312           if ( (ZSuccess == sentStatus) && (TransmitApp_epDesc.endPoint == sentEP) )
//  313           {
//  314           }
//  315 
//  316           // Action taken when confirmation is received: Send the next message.
//  317           TransmitApp_SetSendEvt();
//  318           break;
//  319 
//  320         case AF_INCOMING_MSG_CMD:
//  321           TransmitApp_MessageMSGCB( MSGpkt );
//  322           break;
//  323 
//  324         case ZDO_STATE_CHANGE:
//  325           TransmitApp_NwkState = (devStates_t)(MSGpkt->hdr.status);
??TransmitApp_ProcessEvent_2:
        INC     DPTR
        MOVX    A,@DPTR
        MOV     DPTR,#TransmitApp_NwkState
        MOVX    @DPTR,A
//  326           break;
//  327 
//  328         default:
//  329           break;
//  330       }
//  331 
//  332       // Release the memory
//  333       osal_msg_deallocate( (uint8 *)MSGpkt );
??TransmitApp_ProcessEvent_3:
        ; Setup parameters for call to function osal_msg_deallocate
        MOV     R2,?V0 + 0
        MOV     R3,?V0 + 1
        LCALL   ??osal_msg_deallocate?relay
//  334 
//  335       // Next
//  336       MSGpkt = (afIncomingMSGPacket_t *)osal_msg_receive( TransmitApp_TaskID );
        ; Setup parameters for call to function osal_msg_receive
??TransmitApp_ProcessEvent_1:
        MOV     DPTR,#TransmitApp_TaskID
        MOVX    A,@DPTR
        MOV     R1,A
        LCALL   ??osal_msg_receive?relay
        MOV     ?V0 + 0,R2
        MOV     ?V0 + 1,R3
        MOV     A,?V0 + 0
        ORL     A,?V0 + 1
        JZ      ??TransmitApp_ProcessEvent_4
        MOV     DPL,?V0 + 0
        MOV     DPH,?V0 + 1
        MOVX    A,@DPTR
        ADD     A,#0x2f
        JZ      ??TransmitApp_ProcessEvent_2
        ADD     A,#-0x2
        JNZ     ??TransmitApp_ProcessEvent_3
        ; Setup parameters for call to function TransmitApp_ProcessZDOMsgs
        MOV     R2,?V0 + 0
        MOV     R3,?V0 + 1
        LCALL   ??TransmitApp_ProcessZDOMsgs?relay
        SJMP    ??TransmitApp_ProcessEvent_3
//  337     }
//  338 
//  339     // Squash compiler warnings until values are used.
//  340     (void)sentStatus;
//  341     (void)sentEP;
//  342 
//  343     // Return unprocessed events
//  344     return (events ^ SYS_EVENT_MSG);
??TransmitApp_ProcessEvent_4:
        MOV     A,R6
        MOV     R2,A
        MOV     A,R7
        XRL     A,#0x80
??TransmitApp_ProcessEvent_5:
        MOV     R3,A
        LJMP    ??TransmitApp_ProcessEvent_6 & 0xFFFF
//  345   }
//  346 
//  347   // Send a message out
//  348   if ( events & TRANSMITAPP_SEND_MSG_EVT )
??TransmitApp_ProcessEvent_0:
        MOV     A,R6
        MOV     C,0xE0 /* A   */.0
        JNC     ??TransmitApp_ProcessEvent_7
//  349   {
//  350       TransmitApp_SendTheMessage();
        ; Setup parameters for call to function TransmitApp_SendTheMessage
        LCALL   ??TransmitApp_SendTheMessage?relay
//  351 
//  352     // Return unprocessed events
//  353     return (events ^ TRANSMITAPP_SEND_MSG_EVT);
        MOV     A,R6
        XRL     A,#0x1
??TransmitApp_ProcessEvent_8:
        MOV     R2,A
        MOV     A,R7
        SJMP    ??TransmitApp_ProcessEvent_5
//  354   }
//  355   
//  356   if ( events & TRANSMITAPP_MATCHRSP_EVT )
??TransmitApp_ProcessEvent_7:
        ANL     A,#0x8
        JZ      ??TransmitApp_ProcessEvent_9
//  357   {
//  358      zAddrType_t dstAddr;
//  359      dstAddr.addrMode = AddrBroadcast;
        MOV     A,#0x8
        LCALL   ?XSTACK_DISP0_8
        MOV     A,#0xf
        MOVX    @DPTR,A
//  360      dstAddr.addr.shortAddr = NWK_BROADCAST_SHORTADDR;
        MOV     DPL,?XSP + 0
        MOV     DPH,?XSP + 1
        MOV     A,#-0x1
        MOVX    @DPTR,A
        INC     DPTR
        MOVX    @DPTR,A
//  361      ZDP_MatchDescReq( &dstAddr, 
//  362                         NWK_BROADCAST_SHORTADDR,
//  363                         TRANSMITAPP_PROFID,
//  364                         TRANSMITAPP_MAX_OUTCLUSTERS, 
//  365                         (cId_t *)TransmitApp_OutClusterList,
//  366                         TRANSMITAPP_MAX_INCLUSTERS, 
//  367                         (cId_t *)TransmitApp_InClusterList,
//  368                         FALSE );
        ; Setup parameters for call to function ZDP_MatchDescReq
        MOV     ?V0 + 0,#0x0
        MOV     R0,#?V0 + 0
        LCALL   ?PUSH_XSTACK_I_ONE
        CFI CFA_XSP16 add(XSP16, 22)
        MOV     ?V0 + 0,#TransmitApp_InClusterList & 0xff
        MOV     ?V0 + 1,#(TransmitApp_InClusterList >> 8) & 0xff
        MOV     R0,#?V0 + 0
        LCALL   ?PUSH_XSTACK_I_TWO
        CFI CFA_XSP16 add(XSP16, 24)
        MOV     ?V0 + 0,#0x8
        MOV     R0,#?V0 + 0
        LCALL   ?PUSH_XSTACK_I_ONE
        CFI CFA_XSP16 add(XSP16, 25)
        MOV     ?V0 + 0,#TransmitApp_OutClusterList & 0xff
        MOV     ?V0 + 1,#(TransmitApp_OutClusterList >> 8) & 0xff
        MOV     R0,#?V0 + 0
        LCALL   ?PUSH_XSTACK_I_TWO
        CFI CFA_XSP16 add(XSP16, 27)
        MOV     ?V0 + 0,#0x5
        MOV     ?V0 + 1,#0xf
        MOV     R0,#?V0 + 0
        LCALL   ?PUSH_XSTACK_I_TWO
        CFI CFA_XSP16 add(XSP16, 29)
        MOV     R1,#0x3
        MOV     R4,#-0x1
        MOV     R5,#-0x1
        MOV     A,#0x8
        LCALL   ?XSTACK_DISP0_8
        MOV     R2,DPL
        MOV     R3,DPH
        LCALL   ??ZDP_MatchDescReq?relay
        MOV     A,#0x8
        LCALL   ?DEALLOC_XSTACK8
        CFI CFA_XSP16 add(XSP16, 21)
//  369 
//  370     // Return unprocessed events
//  371     return (events ^ TRANSMITAPP_MATCHRSP_EVT);
        MOV     A,R6
        XRL     A,#0x8
        SJMP    ??TransmitApp_ProcessEvent_8
//  372   }
//  373 
//  374   // Timed wait from error
//  375   if ( events & TRANSMITAPP_SEND_ERR_EVT )
??TransmitApp_ProcessEvent_9:
        MOV     A,R6
        ANL     A,#0x4
        JZ      ??TransmitApp_ProcessEvent_10
//  376   {
//  377     TransmitApp_SetSendEvt();
//  378 
//  379     // Return unprocessed events
//  380     return (events ^ TRANSMITAPP_SEND_ERR_EVT);
        MOV     A,R6
        XRL     A,#0x4
        MOV     R2,A
        SJMP    ??TransmitApp_ProcessEvent_6
//  381   }
//  382 
//  383   // Discard unknown events
//  384   return 0;
??TransmitApp_ProcessEvent_10:
        MOV     R2,#0x0
        MOV     R3,#0x0
??TransmitApp_ProcessEvent_6:
        MOV     A,#0x9
        LCALL   ?DEALLOC_XSTACK8
        CFI CFA_XSP16 add(XSP16, 12)
        MOV     R7,#0x4
        LJMP    ?BANKED_LEAVE_XDATA
        CFI EndBlock cfiBlock1
//  385 }
//  386 
//  387 /*******************************************************************************
//  388  * @fn      TransmitApp_ProcessZDOMsgs()
//  389  *
//  390  * @brief   Process response messages
//  391  *
//  392  * @param   none
//  393  *
//  394  * @return  none
//  395  */

        RSEG BANKED_CODE:CODE:NOROOT(0)
//  396 void TransmitApp_ProcessZDOMsgs( zdoIncomingMsg_t *inMsg )
TransmitApp_ProcessZDOMsgs:
        CFI Block cfiBlock2 Using cfiCommon0
        CFI Function TransmitApp_ProcessZDOMsgs
        CODE
//  397 {
        FUNCALL TransmitApp_ProcessZDOMsgs, ZDO_ParseEPListRsp
        LOCFRAME ISTACK, 0, STACK
        LOCFRAME PSTACK, 0, STACK
        LOCFRAME XSTACK, 10, STACK
        LOCFRAME IOVERLAY, 0, STATIC
        LOCFRAME DOVERLAY, 0, STATIC
        ARGFRAME ISTACK, 0, STACK
        ARGFRAME PSTACK, 0, STACK
        ARGFRAME XSTACK, 10, STACK
        ARGFRAME IOVERLAY, 0, STATIC
        ARGFRAME DOVERLAY, 0, STATIC
        FUNCALL TransmitApp_ProcessZDOMsgs, osal_stop_timerEx
        LOCFRAME ISTACK, 0, STACK
        LOCFRAME PSTACK, 0, STACK
        LOCFRAME XSTACK, 10, STACK
        LOCFRAME IOVERLAY, 0, STATIC
        LOCFRAME DOVERLAY, 0, STATIC
        ARGFRAME ISTACK, 0, STACK
        ARGFRAME PSTACK, 0, STACK
        ARGFRAME XSTACK, 10, STACK
        ARGFRAME IOVERLAY, 0, STATIC
        ARGFRAME DOVERLAY, 0, STATIC
        FUNCALL TransmitApp_ProcessZDOMsgs, HalUARTWrite
        LOCFRAME ISTACK, 0, STACK
        LOCFRAME PSTACK, 0, STACK
        LOCFRAME XSTACK, 10, STACK
        LOCFRAME IOVERLAY, 0, STATIC
        LOCFRAME DOVERLAY, 0, STATIC
        ARGFRAME ISTACK, 0, STACK
        ARGFRAME PSTACK, 0, STACK
        ARGFRAME XSTACK, 10, STACK
        ARGFRAME IOVERLAY, 0, STATIC
        ARGFRAME DOVERLAY, 0, STATIC
        FUNCALL TransmitApp_ProcessZDOMsgs, osal_start_reload_timer
        LOCFRAME ISTACK, 0, STACK
        LOCFRAME PSTACK, 0, STACK
        LOCFRAME XSTACK, 10, STACK
        LOCFRAME IOVERLAY, 0, STATIC
        LOCFRAME DOVERLAY, 0, STATIC
        ARGFRAME ISTACK, 0, STACK
        ARGFRAME PSTACK, 0, STACK
        ARGFRAME XSTACK, 10, STACK
        ARGFRAME IOVERLAY, 0, STATIC
        ARGFRAME DOVERLAY, 0, STATIC
        FUNCALL TransmitApp_ProcessZDOMsgs, osal_mem_free
        LOCFRAME ISTACK, 0, STACK
        LOCFRAME PSTACK, 0, STACK
        LOCFRAME XSTACK, 10, STACK
        LOCFRAME IOVERLAY, 0, STATIC
        LOCFRAME DOVERLAY, 0, STATIC
        ARGFRAME ISTACK, 0, STACK
        ARGFRAME PSTACK, 0, STACK
        ARGFRAME XSTACK, 10, STACK
        ARGFRAME IOVERLAY, 0, STATIC
        ARGFRAME DOVERLAY, 0, STATIC
        MOV     A,#-0xa
        LCALL   ?BANKED_ENTER_XDATA
        CFI DPH0 load(1, XDATA, add(CFA_XSP16, literal(-1)))
        CFI DPL0 load(1, XDATA, add(CFA_XSP16, literal(-2)))
        CFI ?BRET_EXT load(1, XDATA, add(CFA_XSP16, literal(-3)))
        CFI ?RET_HIGH load(1, XDATA, add(CFA_XSP16, literal(-4)))
        CFI ?RET_LOW load(1, XDATA, add(CFA_XSP16, literal(-5)))
        CFI R7 load(1, XDATA, add(CFA_XSP16, literal(-6)))
        CFI V1 load(1, XDATA, add(CFA_XSP16, literal(-7)))
        CFI V0 load(1, XDATA, add(CFA_XSP16, literal(-8)))
        CFI VB load(1, XDATA, add(CFA_XSP16, literal(-9)))
        CFI R6 load(1, XDATA, add(CFA_XSP16, literal(-10)))
        CFI CFA_SP SP+0
        CFI CFA_XSP16 add(XSP16, 10)
        ; Saved register size: 10
        ; Auto size: 0
//  398   switch ( inMsg->clusterID )
        MOV     A,R2
        ADD     A,#0xc
        MOV     DPL,A
        MOV     A,R3
        ADDC    A,#0x0
        MOV     DPH,A
        MOVX    A,@DPTR
        XRL     A,#0x6
        JNZ     ??TransmitApp_ProcessZDOMsgs_0
        INC     DPTR
        MOVX    A,@DPTR
        XRL     A,#0x80
??TransmitApp_ProcessZDOMsgs_0:
        JNZ     ??TransmitApp_ProcessZDOMsgs_1
//  399   {
//  400     case End_Device_Bind_rsp:
//  401       if ( ZDO_ParseBindRsp( inMsg ) == ZSuccess )
//  402       {
//  403       }
//  404       break;
//  405 
//  406     case Match_Desc_rsp:
//  407       ZDO_ActiveEndpointRsp_t *pRsp = ZDO_ParseEPListRsp( inMsg );
        ; Setup parameters for call to function ZDO_ParseEPListRsp
        LCALL   ??ZDO_ParseEPListRsp?relay
        MOV     ?V0 + 0,R2
        MOV     ?V0 + 1,R3
        MOV     R6,?V0 + 0
        MOV     R7,?V0 + 1
//  408       if ( pRsp )
        MOV     A,R6
        ORL     A,R7
        JZ      ??TransmitApp_ProcessZDOMsgs_1
//  409       {
//  410         if ( pRsp->status == ZSuccess && pRsp->cnt )
        MOV     DPL,R6
        MOV     DPH,R7
        MOVX    A,@DPTR
        JNZ     ??TransmitApp_ProcessZDOMsgs_2
        INC     DPTR
        INC     DPTR
        INC     DPTR
        MOVX    A,@DPTR
        JZ      ??TransmitApp_ProcessZDOMsgs_2
//  411         {
//  412           // 此处存储绑定对方的地址信息用于发送
//  413           TransmitApp_DstAddr.addrMode = (afAddrMode_t)Addr16Bit;
        MOV     DPTR,#TransmitApp_DstAddr + 8
        MOV     A,#0x2
        MOVX    @DPTR,A
//  414           TransmitApp_DstAddr.addr.shortAddr = pRsp->nwkAddr;
        MOV     DPL,R6
        MOV     DPH,R7
        INC     DPTR
        MOVX    A,@DPTR
        MOV     R0,A
        INC     DPTR
        MOVX    A,@DPTR
        MOV     R1,A
        MOV     DPTR,#TransmitApp_DstAddr
        MOV     A,R0
        MOVX    @DPTR,A
        INC     DPTR
        MOV     A,R1
        MOVX    @DPTR,A
//  415           // Take the first endpoint, Can be changed to search through endpoints
//  416           TransmitApp_DstAddr.endPoint = pRsp->epList[0];
        MOV     DPL,R6
        MOV     DPH,R7
        INC     DPTR
        INC     DPTR
        INC     DPTR
        INC     DPTR
        MOVX    A,@DPTR
        MOV     DPTR,#TransmitApp_DstAddr + 9
        MOVX    @DPTR,A
//  417           osal_stop_timerEx( TransmitApp_TaskID, TRANSMITAPP_MATCHRSP_EVT );
        ; Setup parameters for call to function osal_stop_timerEx
        MOV     R2,#0x8
        MOV     R3,#0x0
        MOV     DPTR,#TransmitApp_TaskID
        MOVX    A,@DPTR
        MOV     R1,A
        LCALL   ??osal_stop_timerEx?relay
//  418 #if HAL_UART==TRUE
//  419           HalUARTWrite(HAL_UART_PORT_0, "Match Success!\n",   strlen("Match Success!\n"));
        ; Setup parameters for call to function HalUARTWrite
        MOV     R4,#0xf
        MOV     R5,#0x0
        MOV     R2,#`?<Constant "Match Success!\\n">` & 0xff
        MOV     R3,#(`?<Constant "Match Success!\\n">` >> 8) & 0xff
        MOV     R1,#0x0
        LCALL   ??HalUARTWrite?relay
//  420 #endif
//  421           osal_start_reload_timer( TransmitApp_TaskID, TRANSMITAPP_SEND_MSG_EVT, 
//  422                                    TRANSMITAPP_SEND_DELAY );
        ; Setup parameters for call to function osal_start_reload_timer
        MOV     R4,#-0x18
        MOV     R5,#0x3
        MOV     R2,#0x1
        MOV     R3,#0x0
        MOV     DPTR,#TransmitApp_TaskID
        MOVX    A,@DPTR
        MOV     R1,A
        LCALL   ??osal_start_reload_timer?relay
//  423         }
//  424 
//  425         osal_mem_free( pRsp );
??TransmitApp_ProcessZDOMsgs_2:
        ; Setup parameters for call to function osal_mem_free
        MOV     A,R6
        MOV     R2,A
        MOV     A,R7
        MOV     R3,A
        LCALL   ??osal_mem_free?relay
//  426       }
//  427       break;
//  428       
//  429     default:
//  430       break;
//  431   }
//  432 }
??TransmitApp_ProcessZDOMsgs_1:
        MOV     R7,#0x2
        LJMP    ?BANKED_LEAVE_XDATA
        CFI EndBlock cfiBlock2
//  433 
//  434 /*******************************************************************************
//  435  * @fn      TransmitApp_HandleKeys
//  436  *
//  437  * @brief   Handles all key events for this device.
//  438  *
//  439  *
//  440  * @return  none
//  441  */

        RSEG BANKED_CODE:CODE:NOROOT(0)
//  442 void TransmitApp_HandleKeys( byte shift, byte keys )
TransmitApp_HandleKeys:
        CFI Block cfiBlock3 Using cfiCommon0
        CFI Function TransmitApp_HandleKeys
        CODE
//  443 {
        ; Saved register size: 0
        ; Auto size: 0
//  444   if ( keys & HAL_KEY_SW_5 )
//  445   {
//  446   }
//  447 }
        LJMP    ?BRET
        CFI EndBlock cfiBlock3
//  448 
//  449 /*******************************************************************************
//  450  * @fn      TransmitApp_MessageMSGCB
//  451  *
//  452  * @brief   Data message processor callback.  This function processes
//  453  *          any incoming data - probably from other devices.  So, based
//  454  *          on cluster ID, perform the intended action.
//  455  *
//  456  * @param   none
//  457  *
//  458  * @return  none
//  459  */

        RSEG BANKED_CODE:CODE:NOROOT(0)
//  460 void TransmitApp_MessageMSGCB( afIncomingMSGPacket_t *pkt )
TransmitApp_MessageMSGCB:
        CFI Block cfiBlock4 Using cfiCommon0
        CFI Function TransmitApp_MessageMSGCB
        CODE
//  461 {
        ; Saved register size: 0
        ; Auto size: 0
//  462   switch ( pkt->clusterId )
//  463   {
//  464     case TRANSMITAPP_CLUSTERID_TESTMSG:
//  465       break;
//  466 
//  467     // Could receive control messages in the future.
//  468     default:
//  469       break;
//  470   }
//  471 }
        LJMP    ?BRET
        CFI EndBlock cfiBlock4
//  472 
//  473 /*******************************************************************************
//  474  * @fn      TransmitApp_SendTheMessage
//  475  *
//  476  * @brief   Send "the" message.
//  477  *
//  478  * @param   none
//  479  *
//  480  * @return  none
//  481  */

        RSEG BANKED_CODE:CODE:NOROOT(0)
//  482 void TransmitApp_SendTheMessage( void )
TransmitApp_SendTheMessage:
        CFI Block cfiBlock5 Using cfiCommon0
        CFI Function TransmitApp_SendTheMessage
        CODE
//  483 {
        FUNCALL TransmitApp_SendTheMessage, BH1750_ConvertLight
        LOCFRAME ISTACK, 0, STACK
        LOCFRAME PSTACK, 0, STACK
        LOCFRAME XSTACK, 29, STACK
        LOCFRAME IOVERLAY, 0, STATIC
        LOCFRAME DOVERLAY, 0, STATIC
        ARGFRAME ISTACK, 0, STACK
        ARGFRAME PSTACK, 0, STACK
        ARGFRAME XSTACK, 29, STACK
        ARGFRAME IOVERLAY, 0, STATIC
        ARGFRAME DOVERLAY, 0, STATIC
        FUNCALL TransmitApp_SendTheMessage, DS18B20_ConvertTemp
        LOCFRAME ISTACK, 0, STACK
        LOCFRAME PSTACK, 0, STACK
        LOCFRAME XSTACK, 29, STACK
        LOCFRAME IOVERLAY, 0, STATIC
        LOCFRAME DOVERLAY, 0, STATIC
        ARGFRAME ISTACK, 0, STACK
        ARGFRAME PSTACK, 0, STACK
        ARGFRAME XSTACK, 29, STACK
        ARGFRAME IOVERLAY, 0, STATIC
        ARGFRAME DOVERLAY, 0, STATIC
        FUNCALL TransmitApp_SendTheMessage, _ltoa
        LOCFRAME ISTACK, 0, STACK
        LOCFRAME PSTACK, 0, STACK
        LOCFRAME XSTACK, 31, STACK
        LOCFRAME IOVERLAY, 0, STATIC
        LOCFRAME DOVERLAY, 0, STATIC
        ARGFRAME ISTACK, 0, STACK
        ARGFRAME PSTACK, 0, STACK
        ARGFRAME XSTACK, 31, STACK
        ARGFRAME IOVERLAY, 0, STATIC
        ARGFRAME DOVERLAY, 0, STATIC
        FUNCALL TransmitApp_SendTheMessage, strlen
        LOCFRAME ISTACK, 0, STACK
        LOCFRAME PSTACK, 0, STACK
        LOCFRAME XSTACK, 29, STACK
        LOCFRAME IOVERLAY, 0, STATIC
        LOCFRAME DOVERLAY, 0, STATIC
        ARGFRAME ISTACK, 0, STACK
        ARGFRAME PSTACK, 0, STACK
        ARGFRAME XSTACK, 29, STACK
        ARGFRAME IOVERLAY, 0, STATIC
        ARGFRAME DOVERLAY, 0, STATIC
        FUNCALL TransmitApp_SendTheMessage, HalUARTWrite
        LOCFRAME ISTACK, 0, STACK
        LOCFRAME PSTACK, 0, STACK
        LOCFRAME XSTACK, 29, STACK
        LOCFRAME IOVERLAY, 0, STATIC
        LOCFRAME DOVERLAY, 0, STATIC
        ARGFRAME ISTACK, 0, STACK
        ARGFRAME PSTACK, 0, STACK
        ARGFRAME XSTACK, 29, STACK
        ARGFRAME IOVERLAY, 0, STATIC
        ARGFRAME DOVERLAY, 0, STATIC
        FUNCALL TransmitApp_SendTheMessage, HalUARTWrite
        LOCFRAME ISTACK, 0, STACK
        LOCFRAME PSTACK, 0, STACK
        LOCFRAME XSTACK, 29, STACK
        LOCFRAME IOVERLAY, 0, STATIC
        LOCFRAME DOVERLAY, 0, STATIC
        ARGFRAME ISTACK, 0, STACK
        ARGFRAME PSTACK, 0, STACK
        ARGFRAME XSTACK, 29, STACK
        ARGFRAME IOVERLAY, 0, STATIC
        ARGFRAME DOVERLAY, 0, STATIC
        FUNCALL TransmitApp_SendTheMessage, _ltoa
        LOCFRAME ISTACK, 0, STACK
        LOCFRAME PSTACK, 0, STACK
        LOCFRAME XSTACK, 31, STACK
        LOCFRAME IOVERLAY, 0, STATIC
        LOCFRAME DOVERLAY, 0, STATIC
        ARGFRAME ISTACK, 0, STACK
        ARGFRAME PSTACK, 0, STACK
        ARGFRAME XSTACK, 31, STACK
        ARGFRAME IOVERLAY, 0, STATIC
        ARGFRAME DOVERLAY, 0, STATIC
        FUNCALL TransmitApp_SendTheMessage, strlen
        LOCFRAME ISTACK, 0, STACK
        LOCFRAME PSTACK, 0, STACK
        LOCFRAME XSTACK, 29, STACK
        LOCFRAME IOVERLAY, 0, STATIC
        LOCFRAME DOVERLAY, 0, STATIC
        ARGFRAME ISTACK, 0, STACK
        ARGFRAME PSTACK, 0, STACK
        ARGFRAME XSTACK, 29, STACK
        ARGFRAME IOVERLAY, 0, STATIC
        ARGFRAME DOVERLAY, 0, STATIC
        FUNCALL TransmitApp_SendTheMessage, HalUARTWrite
        LOCFRAME ISTACK, 0, STACK
        LOCFRAME PSTACK, 0, STACK
        LOCFRAME XSTACK, 29, STACK
        LOCFRAME IOVERLAY, 0, STATIC
        LOCFRAME DOVERLAY, 0, STATIC
        ARGFRAME ISTACK, 0, STACK
        ARGFRAME PSTACK, 0, STACK
        ARGFRAME XSTACK, 29, STACK
        ARGFRAME IOVERLAY, 0, STATIC
        ARGFRAME DOVERLAY, 0, STATIC
        FUNCALL TransmitApp_SendTheMessage, HalUARTWrite
        LOCFRAME ISTACK, 0, STACK
        LOCFRAME PSTACK, 0, STACK
        LOCFRAME XSTACK, 29, STACK
        LOCFRAME IOVERLAY, 0, STATIC
        LOCFRAME DOVERLAY, 0, STATIC
        ARGFRAME ISTACK, 0, STACK
        ARGFRAME PSTACK, 0, STACK
        ARGFRAME XSTACK, 29, STACK
        ARGFRAME IOVERLAY, 0, STATIC
        ARGFRAME DOVERLAY, 0, STATIC
        FUNCALL TransmitApp_SendTheMessage, _ltoa
        LOCFRAME ISTACK, 0, STACK
        LOCFRAME PSTACK, 0, STACK
        LOCFRAME XSTACK, 31, STACK
        LOCFRAME IOVERLAY, 0, STATIC
        LOCFRAME DOVERLAY, 0, STATIC
        ARGFRAME ISTACK, 0, STACK
        ARGFRAME PSTACK, 0, STACK
        ARGFRAME XSTACK, 31, STACK
        ARGFRAME IOVERLAY, 0, STATIC
        ARGFRAME DOVERLAY, 0, STATIC
        FUNCALL TransmitApp_SendTheMessage, strlen
        LOCFRAME ISTACK, 0, STACK
        LOCFRAME PSTACK, 0, STACK
        LOCFRAME XSTACK, 29, STACK
        LOCFRAME IOVERLAY, 0, STATIC
        LOCFRAME DOVERLAY, 0, STATIC
        ARGFRAME ISTACK, 0, STACK
        ARGFRAME PSTACK, 0, STACK
        ARGFRAME XSTACK, 29, STACK
        ARGFRAME IOVERLAY, 0, STATIC
        ARGFRAME DOVERLAY, 0, STATIC
        FUNCALL TransmitApp_SendTheMessage, HalUARTWrite
        LOCFRAME ISTACK, 0, STACK
        LOCFRAME PSTACK, 0, STACK
        LOCFRAME XSTACK, 29, STACK
        LOCFRAME IOVERLAY, 0, STATIC
        LOCFRAME DOVERLAY, 0, STATIC
        ARGFRAME ISTACK, 0, STACK
        ARGFRAME PSTACK, 0, STACK
        ARGFRAME XSTACK, 29, STACK
        ARGFRAME IOVERLAY, 0, STATIC
        ARGFRAME DOVERLAY, 0, STATIC
        FUNCALL TransmitApp_SendTheMessage, HalUARTWrite
        LOCFRAME ISTACK, 0, STACK
        LOCFRAME PSTACK, 0, STACK
        LOCFRAME XSTACK, 29, STACK
        LOCFRAME IOVERLAY, 0, STATIC
        LOCFRAME DOVERLAY, 0, STATIC
        ARGFRAME ISTACK, 0, STACK
        ARGFRAME PSTACK, 0, STACK
        ARGFRAME XSTACK, 29, STACK
        ARGFRAME IOVERLAY, 0, STATIC
        ARGFRAME DOVERLAY, 0, STATIC
        FUNCALL TransmitApp_SendTheMessage, AF_DataRequest
        LOCFRAME ISTACK, 0, STACK
        LOCFRAME PSTACK, 0, STACK
        LOCFRAME XSTACK, 38, STACK
        LOCFRAME IOVERLAY, 0, STATIC
        LOCFRAME DOVERLAY, 0, STATIC
        ARGFRAME ISTACK, 0, STACK
        ARGFRAME PSTACK, 0, STACK
        ARGFRAME XSTACK, 38, STACK
        ARGFRAME IOVERLAY, 0, STATIC
        ARGFRAME DOVERLAY, 0, STATIC
        MOV     A,#-0x10
        LCALL   ?BANKED_ENTER_XDATA
        CFI DPH0 load(1, XDATA, add(CFA_XSP16, literal(-1)))
        CFI DPL0 load(1, XDATA, add(CFA_XSP16, literal(-2)))
        CFI ?BRET_EXT load(1, XDATA, add(CFA_XSP16, literal(-3)))
        CFI ?RET_HIGH load(1, XDATA, add(CFA_XSP16, literal(-4)))
        CFI ?RET_LOW load(1, XDATA, add(CFA_XSP16, literal(-5)))
        CFI R7 load(1, XDATA, add(CFA_XSP16, literal(-6)))
        CFI V7 load(1, XDATA, add(CFA_XSP16, literal(-7)))
        CFI V6 load(1, XDATA, add(CFA_XSP16, literal(-8)))
        CFI V5 load(1, XDATA, add(CFA_XSP16, literal(-9)))
        CFI V4 load(1, XDATA, add(CFA_XSP16, literal(-10)))
        CFI V3 load(1, XDATA, add(CFA_XSP16, literal(-11)))
        CFI V2 load(1, XDATA, add(CFA_XSP16, literal(-12)))
        CFI V1 load(1, XDATA, add(CFA_XSP16, literal(-13)))
        CFI V0 load(1, XDATA, add(CFA_XSP16, literal(-14)))
        CFI VB load(1, XDATA, add(CFA_XSP16, literal(-15)))
        CFI R6 load(1, XDATA, add(CFA_XSP16, literal(-16)))
        CFI CFA_SP SP+0
        CFI CFA_XSP16 add(XSP16, 16)
        ; Saved register size: 16
        ; Auto size: 13
        MOV     A,#-0xd
        LCALL   ?ALLOC_XSTACK8
        CFI CFA_XSP16 add(XSP16, 29)
//  484   uint8 tmp;
//  485   static uint8 dataNewBuf[4];
//  486   
//  487   uint16 light, temp;
//  488   uint8 TxData[8];
//  489   char buf[5];
//  490 
//  491   light = BH1750_ConvertLight();
        ; Setup parameters for call to function BH1750_ConvertLight
        LCALL   ??BH1750_ConvertLight?relay
        MOV     ?V0 + 2,R2
        MOV     ?V0 + 3,R3
//  492   temp  = DS18B20_ConvertTemp();
        ; Setup parameters for call to function DS18B20_ConvertTemp
        LCALL   ??DS18B20_ConvertTemp?relay
        MOV     ?V0 + 4,R2
        MOV     ?V0 + 5,R3
        MOV     ?V0 + 0,R2
//  493   dataNewBuf[0] = (uint8)((temp >> 4) & 0x007F);// 温度的整数部分
        MOV     A,#0x4
        MOV     R0,#?V0 + 4
        LCALL   ?US_SHR
        MOV     R6,?V0 + 4
        MOV     A,R6
        ANL     A,#0x7f
        MOV     DPTR,#??dataNewBuf
        MOVX    @DPTR,A
//  494   dataNewBuf[1] = (uint8)(temp & 0x000F);       // 温度的小数部分
        MOV     A,R2
        ANL     A,#0xf
        INC     DPTR
        MOVX    @DPTR,A
//  495   dataNewBuf[2] = (uint8)(light >> 8);          // 光照度的高8位
        MOV     A,?V0 + 3
        INC     DPTR
        MOVX    @DPTR,A
//  496   dataNewBuf[3] = (uint8)(light & 0xFF);        // 光照度的低8位
        MOV     A,?V0 + 2
        INC     DPTR
        MOVX    @DPTR,A
//  497         
//  498 #if HAL_UART==TRUE
//  499   _ltoa(light, (uint8 *)buf, 10);
        ; Setup parameters for call to function _ltoa
        MOV     A,#0x8
        LCALL   ?XSTACK_DISP0_8
        MOV     ?V0 + 4,DPL
        MOV     ?V0 + 5,DPH
        MOV     R0,#?V0 + 4
        LCALL   ?PUSH_XSTACK_I_TWO
        CFI CFA_XSP16 add(XSP16, 31)
        MOV     R1,#0xa
        MOV     R2,?V0 + 2
        MOV     R3,?V0 + 3
        CLR     A
        MOV     R4,A
        MOV     R5,A
        LCALL   ??_ltoa?relay
        MOV     A,#0x2
        LCALL   ?DEALLOC_XSTACK8
        CFI CFA_XSP16 add(XSP16, 29)
//  500   HalUARTWrite(HAL_UART_PORT_0, (uint8 *)buf, strlen(buf));
        ; Setup parameters for call to function HalUARTWrite
        ; Setup parameters for call to function strlen
        MOV     A,#0x8
        LCALL   ?XSTACK_DISP0_8
        MOV     R2,DPL
        MOV     R3,DPH
        LCALL   ??strlen?relay
        MOV     A,R2
        MOV     R4,A
        MOV     A,R3
        MOV     R5,A
        MOV     A,#0x8
        LCALL   ?XSTACK_DISP0_8
        MOV     R2,DPL
        MOV     R3,DPH
        MOV     R1,#0x0
        LCALL   ??HalUARTWrite?relay
//  501   HalUARTWrite(HAL_UART_PORT_0, "L\n", strlen("L\n"));
        ; Setup parameters for call to function HalUARTWrite
        MOV     R4,#0x2
        MOV     R5,#0x0
        MOV     R2,#`?<Constant "L\\n">` & 0xff
        MOV     R3,#(`?<Constant "L\\n">` >> 8) & 0xff
        MOV     R1,#0x0
        LCALL   ??HalUARTWrite?relay
//  502 
//  503   _ltoa(((temp >> 4) & 0x007F), TxData, 10); // 整数部分
        ; Setup parameters for call to function _ltoa
        MOV     DPL,?XSP + 0
        MOV     DPH,?XSP + 1
        MOV     ?V0 + 2,DPL
        MOV     ?V0 + 3,DPH
        MOV     R0,#?V0 + 2
        LCALL   ?PUSH_XSTACK_I_TWO
        CFI CFA_XSP16 add(XSP16, 31)
        MOV     R1,#0xa
        MOV     A,R6
        ANL     A,#0x7f
        MOV     ?V0 + 2,A
        CLR     A
        MOV     R2,?V0 + 2
        MOV     R3,A
        MOV     R4,A
        MOV     R5,A
        LCALL   ??_ltoa?relay
        MOV     A,#0x2
        LCALL   ?DEALLOC_XSTACK8
        CFI CFA_XSP16 add(XSP16, 29)
//  504   HalUARTWrite(HAL_UART_PORT_0, TxData, strlen((char *)TxData));
        ; Setup parameters for call to function HalUARTWrite
        ; Setup parameters for call to function strlen
        LCALL   ?Subroutine0 & 0xFFFF
//  505   HalUARTWrite(HAL_UART_PORT_0, ".", strlen("."));
??CrossCallReturnLabel_0:
        ; Setup parameters for call to function HalUARTWrite
        MOV     R4,#0x1
        MOV     R5,#0x0
        MOV     R2,#`?<Constant ".">` & 0xff
        MOV     R3,#(`?<Constant ".">` >> 8) & 0xff
        MOV     R1,#0x0
        LCALL   ??HalUARTWrite?relay
//  506   _ltoa((long)((float)(temp & 0x000F) * 62.5), TxData, 10);  // 小数部分
        ; Setup parameters for call to function _ltoa
        MOV     DPL,?XSP + 0
        MOV     ?V0 + 2,DPL
        MOV     R0,#?V0 + 2
        LCALL   ?PUSH_XSTACK_I_TWO
        CFI CFA_XSP16 add(XSP16, 31)
        MOV     A,?V0 + 0
        ANL     A,#0xf
        MOV     ?V0 + 0,A
        CLR     A
        MOV     ?V0 + 1,A
        MOV     ?V0 + 2,A
        MOV     ?V0 + 3,A
        MOV     R0,#?V0 + 0
        LCALL   ?UL_TO_FLT
        MOV     DPTR,#__Constant_427a0000
        MOV     R0,#?V0 + 4
        LCALL   ?L_MOV_X
        MOV     R0,#?V0 + 0
        MOV     R1,#?V0 + 4
        LCALL   ?FLT_MUL
        MOV     R0,#?V0 + 0
        LCALL   ?FLT_TO_L
        MOV     R2,?V0 + 0
        MOV     R3,?V0 + 1
        MOV     R4,?V0 + 2
        MOV     R5,?V0 + 3
        MOV     A,#0xa
        MOV     R1,A
        LCALL   ??_ltoa?relay
        MOV     A,#0x2
        LCALL   ?DEALLOC_XSTACK8
        CFI CFA_XSP16 add(XSP16, 29)
//  507   HalUARTWrite(HAL_UART_PORT_0, TxData, strlen((char *)TxData));
        ; Setup parameters for call to function HalUARTWrite
        ; Setup parameters for call to function strlen
        LCALL   ?Subroutine0 & 0xFFFF
//  508   HalUARTWrite(HAL_UART_PORT_0, "C\n", strlen("C\n"));
??CrossCallReturnLabel_1:
        ; Setup parameters for call to function HalUARTWrite
        MOV     R4,#0x2
        MOV     R5,#0x0
        MOV     R2,#`?<Constant "C\\n">` & 0xff
        MOV     R3,#(`?<Constant "C\\n">` >> 8) & 0xff
        MOV     R1,#0x0
        LCALL   ??HalUARTWrite?relay
//  509 #endif  
//  510     
//  511   do {
//  512       // put the sequence number in the message
//  513       tmp = HI_UINT8( TransmitApp_TransID );
??TransmitApp_SendTheMessage_0:
        MOV     DPTR,#TransmitApp_TransID
        MOVX    A,@DPTR
        SWAP    A
        ANL     A,#0xf
        MOV     R2,A
//  514       tmp += (tmp <= 9) ? ('0') : ('A' - 0x0A);
        CLR     C
        SUBB    A,#0xa
        JNC     ??TransmitApp_SendTheMessage_1
        MOV     R0,#0x30
        SJMP    ??TransmitApp_SendTheMessage_2
??TransmitApp_SendTheMessage_1:
        MOV     R0,#0x37
//  515       TransmitApp_Msg[2] = tmp;
??TransmitApp_SendTheMessage_2:
        MOV     A,R0
        ADD     A,R2
        MOV     DPTR,#TransmitApp_Msg + 2
        MOVX    @DPTR,A
//  516       tmp = LO_UINT8( TransmitApp_TransID );
        MOV     DPTR,#TransmitApp_TransID
        MOVX    A,@DPTR
        ANL     A,#0xf
        MOV     R2,A
//  517       tmp += (tmp <= 9) ? ('0') : ('A' - 0x0A);
        CLR     C
        SUBB    A,#0xa
        JNC     ??TransmitApp_SendTheMessage_3
        MOV     R0,#0x30
        SJMP    ??TransmitApp_SendTheMessage_4
??TransmitApp_SendTheMessage_3:
        MOV     R0,#0x37
//  518       TransmitApp_Msg[3] = tmp;
??TransmitApp_SendTheMessage_4:
        MOV     A,R0
        ADD     A,R2
        MOV     DPTR,#TransmitApp_Msg + 3
        MOVX    @DPTR,A
//  519       TransmitApp_Msg[4] = dataNewBuf[0];
        MOV     DPTR,#??dataNewBuf
        MOVX    A,@DPTR
        MOV     DPTR,#TransmitApp_Msg + 4
        MOVX    @DPTR,A
//  520       TransmitApp_Msg[5] = dataNewBuf[1];
        MOV     DPTR,#??dataNewBuf + 1
        MOVX    A,@DPTR
        MOV     DPTR,#TransmitApp_Msg + 5
        MOVX    @DPTR,A
//  521       TransmitApp_Msg[6] = dataNewBuf[2];
        MOV     DPTR,#??dataNewBuf + 2
        MOVX    A,@DPTR
        MOV     DPTR,#TransmitApp_Msg + 6
        MOVX    @DPTR,A
//  522       TransmitApp_Msg[7] = dataNewBuf[3];
        MOV     DPTR,#??dataNewBuf + 3
        MOVX    A,@DPTR
        MOV     DPTR,#TransmitApp_Msg + 7
        MOVX    @DPTR,A
//  523       
//  524       tmp = AF_DataRequest( &TransmitApp_DstAddr, 
//  525                             &TransmitApp_epDesc,
//  526                              TRANSMITAPP_CLUSTERID_TEMPLIGHTMSG,
//  527                              TRANSMITAPP_TEMPLIGHT_DATA_LEN, 
//  528                              TransmitApp_Msg,
//  529                             &TransmitApp_TransID,
//  530                              TRANSMITAPP_TX_OPTIONS,
//  531                              AF_DEFAULT_RADIUS );
//  532 
//  533   } while (afStatus_SUCCESS == tmp);
        ; Setup parameters for call to function AF_DataRequest
        MOV     ?V0 + 0,#0x1e
        MOV     R0,#?V0 + 0
        LCALL   ?PUSH_XSTACK_I_ONE
        CFI CFA_XSP16 add(XSP16, 30)
        MOV     ?V0 + 0,#TransmitApp_TransID & 0xff
        MOV     ?V0 + 1,#(TransmitApp_TransID >> 8) & 0xff
        MOV     R0,#?V0 + 0
        LCALL   ?PUSH_XSTACK_I_TWO
        CFI CFA_XSP16 add(XSP16, 32)
        MOV     ?V0 + 0,#TransmitApp_Msg & 0xff
        MOV     ?V0 + 1,#(TransmitApp_Msg >> 8) & 0xff
        MOV     R0,#?V0 + 0
        LCALL   ?PUSH_XSTACK_I_TWO
        CFI CFA_XSP16 add(XSP16, 34)
        MOV     ?V0 + 0,#0x8
        MOV     ?V0 + 1,#0x0
        MOV     R0,#?V0 + 0
        LCALL   ?PUSH_XSTACK_I_TWO
        CFI CFA_XSP16 add(XSP16, 36)
        MOV     ?V0 + 0,#0x2
        MOV     R0,#?V0 + 0
        LCALL   ?PUSH_XSTACK_I_TWO
        CFI CFA_XSP16 add(XSP16, 38)
        MOV     R1,#0x20
        MOV     R4,#TransmitApp_epDesc & 0xff
        MOV     R5,#(TransmitApp_epDesc >> 8) & 0xff
        MOV     R2,#TransmitApp_DstAddr & 0xff
        MOV     R3,#(TransmitApp_DstAddr >> 8) & 0xff
        LCALL   ??AF_DataRequest?relay
        MOV     A,#0x9
        LCALL   ?DEALLOC_XSTACK8
        CFI CFA_XSP16 add(XSP16, 29)
        MOV     A,R1
        JNZ     $+5
        LJMP    ??TransmitApp_SendTheMessage_0 & 0xFFFF
//  534 
//  535 }
        MOV     A,#0xd
        LCALL   ?DEALLOC_XSTACK8
        CFI CFA_XSP16 add(XSP16, 16)
        MOV     R7,#0x8
        LJMP    ?BANKED_LEAVE_XDATA
        CFI EndBlock cfiBlock5

        RSEG BANKED_CODE:CODE:NOROOT(0)
?Subroutine0:
        CFI Block cfiCond6 Using cfiCommon0
        CFI NoFunction
        CFI Conditional ??CrossCallReturnLabel_0
        CFI R6 load(1, XDATA, add(CFA_XSP16, literal(-16)))
        CFI VB load(1, XDATA, add(CFA_XSP16, literal(-15)))
        CFI V0 load(1, XDATA, add(CFA_XSP16, literal(-14)))
        CFI V1 load(1, XDATA, add(CFA_XSP16, literal(-13)))
        CFI V2 load(1, XDATA, add(CFA_XSP16, literal(-12)))
        CFI V3 load(1, XDATA, add(CFA_XSP16, literal(-11)))
        CFI V4 load(1, XDATA, add(CFA_XSP16, literal(-10)))
        CFI V5 load(1, XDATA, add(CFA_XSP16, literal(-9)))
        CFI V6 load(1, XDATA, add(CFA_XSP16, literal(-8)))
        CFI V7 load(1, XDATA, add(CFA_XSP16, literal(-7)))
        CFI R7 load(1, XDATA, add(CFA_XSP16, literal(-6)))
        CFI ?RET_LOW load(1, XDATA, add(CFA_XSP16, literal(-5)))
        CFI ?RET_HIGH load(1, XDATA, add(CFA_XSP16, literal(-4)))
        CFI ?BRET_EXT load(1, XDATA, add(CFA_XSP16, literal(-3)))
        CFI DPL0 load(1, XDATA, add(CFA_XSP16, literal(-2)))
        CFI DPH0 load(1, XDATA, add(CFA_XSP16, literal(-1)))
        CFI CFA_SP SP+0
        CFI CFA_XSP16 add(XSP16, 29)
        CFI Block cfiCond7 Using cfiCommon0
        CFI (cfiCond7) NoFunction
        CFI (cfiCond7) Conditional ??CrossCallReturnLabel_1
        CFI (cfiCond7) R6 load(1, XDATA, add(CFA_XSP16, literal(-16)))
        CFI (cfiCond7) VB load(1, XDATA, add(CFA_XSP16, literal(-15)))
        CFI (cfiCond7) V0 load(1, XDATA, add(CFA_XSP16, literal(-14)))
        CFI (cfiCond7) V1 load(1, XDATA, add(CFA_XSP16, literal(-13)))
        CFI (cfiCond7) V2 load(1, XDATA, add(CFA_XSP16, literal(-12)))
        CFI (cfiCond7) V3 load(1, XDATA, add(CFA_XSP16, literal(-11)))
        CFI (cfiCond7) V4 load(1, XDATA, add(CFA_XSP16, literal(-10)))
        CFI (cfiCond7) V5 load(1, XDATA, add(CFA_XSP16, literal(-9)))
        CFI (cfiCond7) V6 load(1, XDATA, add(CFA_XSP16, literal(-8)))
        CFI (cfiCond7) V7 load(1, XDATA, add(CFA_XSP16, literal(-7)))
        CFI (cfiCond7) R7 load(1, XDATA, add(CFA_XSP16, literal(-6)))
        CFI (cfiCond7) ?RET_LOW load(1, XDATA, add(CFA_XSP16, literal(-5)))
        CFI (cfiCond7) ?RET_HIGH load(1, XDATA, add(CFA_XSP16, literal(-4)))
        CFI (cfiCond7) ?BRET_EXT load(1, XDATA, add(CFA_XSP16, literal(-3)))
        CFI (cfiCond7) DPL0 load(1, XDATA, add(CFA_XSP16, literal(-2)))
        CFI (cfiCond7) DPH0 load(1, XDATA, add(CFA_XSP16, literal(-1)))
        CFI (cfiCond7) CFA_SP SP+0
        CFI (cfiCond7) CFA_XSP16 add(XSP16, 29)
        CFI Block cfiPicker8 Using cfiCommon1
        CFI (cfiPicker8) NoFunction
        CFI (cfiPicker8) Picker
        MOV     DPL,?XSP + 0
        MOV     DPH,?XSP + 1
        MOV     R2,DPL
        MOV     R3,DPH
        LCALL   ??strlen?relay
        MOV     A,R2
        MOV     R4,A
        MOV     A,R3
        MOV     R5,A
        MOV     DPL,?XSP + 0
        MOV     DPH,?XSP + 1
        MOV     R2,DPL
        MOV     R3,DPH
        MOV     R1,#0x0
        LCALL   ??HalUARTWrite?relay
        RET
        CFI EndBlock cfiCond6
        CFI EndBlock cfiCond7
        CFI EndBlock cfiPicker8

        RSEG XDATA_Z:XDATA:NOROOT(0)
        DATA32
??dataNewBuf:
        DS 4
        REQUIRE __INIT_XDATA_Z
//  536 
//  537 /*******************************************************************************
//  538  * @fn      TransmitApp_ChangeState
//  539  *
//  540  * @brief   Toggle the Sending/Waiting state flag
//  541  *
//  542  * @param   none
//  543  *
//  544  * @return  none
//  545  */

        RSEG BANKED_CODE:CODE:NOROOT(0)
//  546 void TransmitApp_ChangeState( void )
TransmitApp_ChangeState:
        CFI Block cfiBlock9 Using cfiCommon0
        CFI Function TransmitApp_ChangeState
        CODE
//  547 {
        ; Saved register size: 0
        ; Auto size: 0
//  548 }
        LJMP    ?BRET
        CFI EndBlock cfiBlock9
//  549 
//  550 /*******************************************************************************
//  551  * @fn      TransmitApp_SetSendEvt
//  552  *
//  553  * @brief   Set the event flag
//  554  *
//  555  * @param   none
//  556  *
//  557  * @return  none
//  558  */

        RSEG BANKED_CODE:CODE:NOROOT(0)
//  559 void TransmitApp_SetSendEvt( void )
TransmitApp_SetSendEvt:
        CFI Block cfiBlock10 Using cfiCommon0
        CFI Function TransmitApp_SetSendEvt
        CODE
//  560 {
        ; Saved register size: 0
        ; Auto size: 0
//  561 
//  562 }
        LJMP    ?BRET
        CFI EndBlock cfiBlock10
//  563 
//  564 /*******************************************************************************
//  565  * @fn      TransmitApp_DisplayResults
//  566  *
//  567  * @brief   Display the results and clear the accumulators
//  568  *
//  569  * @param   none
//  570  *
//  571  * @return  none
//  572  */

        RSEG BANKED_CODE:CODE:NOROOT(0)
//  573 void TransmitApp_DisplayResults( void )
TransmitApp_DisplayResults:
        CFI Block cfiBlock11 Using cfiCommon0
        CFI Function TransmitApp_DisplayResults
        CODE
//  574 {
        ; Saved register size: 0
        ; Auto size: 0
//  575 
//  576 }
        LJMP    ?BRET
        CFI EndBlock cfiBlock11
//  577 
//  578 /*******************************************************************************
//  579  * @fn      TransmitAPP_CallBack
//  580  *
//  581  * @brief   Send data OTA.
//  582  *
//  583  * @param   port - UART port.
//  584  * @param   event - the UART port event flag.
//  585  *
//  586  * @return  none
//  587  */

        RSEG BANKED_CODE:CODE:NOROOT(0)
//  588 static void TransmitAPP_CallBack(uint8 port, uint8 event)
TransmitAPP_CallBack:
        CFI Block cfiBlock12 Using cfiCommon0
        CFI Function TransmitAPP_CallBack
        CODE
//  589 {
        ; Saved register size: 0
        ; Auto size: 0
//  590 
//  591 }
        LJMP    ?BRET
        CFI EndBlock cfiBlock12

        RSEG BANK_RELAYS:CODE:REORDER:NOROOT(0)
??TransmitApp_Init?relay:
        LCALL   ?BDISPATCH
        DATA
        DC24    TransmitApp_Init

        RSEG BANK_RELAYS:CODE:REORDER:NOROOT(0)
??TransmitApp_ProcessEvent?relay:
        LCALL   ?BDISPATCH
        DATA
        DC24    TransmitApp_ProcessEvent

        RSEG BANK_RELAYS:CODE:REORDER:NOROOT(0)
??TransmitApp_ProcessZDOMsgs?relay:
        LCALL   ?BDISPATCH
        DATA
        DC24    TransmitApp_ProcessZDOMsgs

        RSEG BANK_RELAYS:CODE:REORDER:NOROOT(0)
??TransmitApp_HandleKeys?relay:
        LCALL   ?BDISPATCH
        DATA
        DC24    TransmitApp_HandleKeys

        RSEG BANK_RELAYS:CODE:REORDER:NOROOT(0)
??TransmitApp_MessageMSGCB?relay:
        LCALL   ?BDISPATCH
        DATA
        DC24    TransmitApp_MessageMSGCB

        RSEG BANK_RELAYS:CODE:REORDER:NOROOT(0)
??TransmitApp_SendTheMessage?relay:
        LCALL   ?BDISPATCH
        DATA
        DC24    TransmitApp_SendTheMessage

        RSEG BANK_RELAYS:CODE:REORDER:NOROOT(0)
??TransmitApp_ChangeState?relay:
        LCALL   ?BDISPATCH
        DATA
        DC24    TransmitApp_ChangeState

        RSEG BANK_RELAYS:CODE:REORDER:NOROOT(0)
??TransmitApp_SetSendEvt?relay:
        LCALL   ?BDISPATCH
        DATA
        DC24    TransmitApp_SetSendEvt

        RSEG BANK_RELAYS:CODE:REORDER:NOROOT(0)
??TransmitApp_DisplayResults?relay:
        LCALL   ?BDISPATCH
        DATA
        DC24    TransmitApp_DisplayResults

        RSEG BANK_RELAYS:CODE:REORDER:NOROOT(0)
??TransmitAPP_CallBack?relay:
        LCALL   ?BDISPATCH
        DATA
        DC24    TransmitAPP_CallBack

        RSEG XDATA_ROM_C:CONST:REORDER:NOROOT(0)
        DATA8
`?<Constant "Match Success!\\n">`:
        DB "Match Success!\012"

        RSEG XDATA_ROM_C:CONST:REORDER:NOROOT(0)
        DATA8
`?<Constant "L\\n">`:
        DB "L\012"

        RSEG XDATA_ROM_C:CONST:REORDER:NOROOT(0)
        DATA16
`?<Constant ".">`:
        DB "."

        RSEG XDATA_ROM_C:CONST:REORDER:NOROOT(0)
        DATA8
`?<Constant "C\\n">`:
        DB "C\012"

        RSEG XDATA_ROM_C:CONST:REORDER:NOROOT(0)
        DATA32
__Constant_427a0000:
        DD 427A0000H

        END
// 
// 1 086 bytes in segment BANKED_CODE
//    60 bytes in segment BANK_RELAYS
//    44 bytes in segment XDATA_ROM_C
//    33 bytes in segment XDATA_Z
// 
// 1 146 bytes of CODE  memory
//    40 bytes of CONST memory (+ 4 bytes shared)
//    33 bytes of XDATA memory
//
//Errors: none
//Warnings: 2
