///////////////////////////////////////////////////////////////////////////////
//                                                                            /
// IAR C/C++ Compiler V8.10.1.40194/W32 for 8051        03/Jan/2021  17:40:24 /
// Copyright 2004-2011 IAR Systems AB.                                        /
//                                                                            /
//    Core               =  plain                                             /
//    Code model         =  banked                                            /
//    Data model         =  large                                             /
//    Calling convention =  xdata reentrant                                   /
//    Constant location  =  data_rom                                          /
//    Dptr setup         =  1,16                                              /
//    Source file        =  D:\Projects_IAR\IAR_C8051\WSN-CC2530\ZStack-CC253 /
//                          0-2.5.1a_EB\Projects\zstack\MY_BOARD\Exp4\Source\ /
//                          TransmitAppMotor.c                                /
//    Command line       =  -f D:\Projects_IAR\IAR_C8051\WSN-CC2530\ZStack-CC /
//                          2530-2.5.1a_EB\Projects\zstack\MY_BOARD\Exp4\CC25 /
//                          30DB\..\..\..\Tools\CC2530DB\f8wEndev.cfg         /
//                          (-DCPU32MHZ -DROOT=__near_func                    /
//                          -DMAC_CFG_TX_DATA_MAX=3 -DMAC_CFG_TX_MAX=6        /
//                          -DMAC_CFG_RX_MAX=3) -f D:\Projects_IAR\IAR_C8051\ /
//                          WSN-CC2530\ZStack-CC2530-2.5.1a_EB\Projects\zstac /
//                          k\MY_BOARD\Exp4\CC2530DB\..\..\..\Tools\CC2530DB\ /
//                          f8wConfig.cfg (-DZIGBEEPRO -DSECURE=0             /
//                          -DZG_SECURE_DYNAMIC=0 -DREFLECTOR                 /
//                          -DDEFAULT_CHANLIST=0x02000000                     /
//                          -DZDAPP_CONFIG_PAN_ID=0x1001                      /
//                          -DNWK_START_DELAY=100 -DEXTENDED_JOINING_RANDOM_M /
//                          ASK=0x007F -DBEACON_REQUEST_DELAY=100             /
//                          -DBEACON_REQ_DELAY_MASK=0x00FF                    /
//                          -DLINK_STATUS_JITTER_MASK=0x007F                  /
//                          -DROUTE_EXPIRY_TIME=30 -DAPSC_ACK_WAIT_DURATION_P /
//                          OLLED=3000 -DNWK_INDIRECT_MSG_TIMEOUT=7           /
//                          -DMAX_RREQ_ENTRIES=8 -DAPSC_MAX_FRAME_RETRIES=3   /
//                          -DNWK_MAX_DATA_RETRIES=2                          /
//                          -DMAX_POLL_FAILURE_RETRIES=2 -DMAX_BCAST=9        /
//                          -DAPS_MAX_GROUPS=16 -DMAX_RTG_ENTRIES=40          /
//                          -DNWK_MAX_BINDING_ENTRIES=4                       /
//                          -DMAX_BINDING_CLUSTER_IDS=4                       /
//                          "-DDEFAULT_KEY={0x01, 0x03, 0x05, 0x07, 0x09,     /
//                          0x0B, 0x0D, 0x0F, 0x00, 0x02, 0x04, 0x06, 0x08,   /
//                          0x0A, 0x0C, 0x0D}" -DMAC_MAX_FRAME_SIZE=116       /
//                          -DZDNWKMGR_MIN_TRANSMISSIONS=20 "-DCONST=const    /
//                          __code" -DGENERIC=__generic                       /
//                          -DRFD_RCVC_ALWAYS_ON=FALSE -DPOLL_RATE=1000       /
//                          -DQUEUED_POLL_RATE=100 -DRESPONSE_POLL_RATE=100)  /
//                          -DREJOIN_POLL_RATE=440 D:\Projects_IAR\IAR_C8051\ /
//                          WSN-CC2530\ZStack-CC2530-2.5.1a_EB\Projects\zstac /
//                          k\MY_BOARD\Exp4\Source\TransmitAppMotor.c -D      /
//                          HAL_UART=TRUE -D HAL_UART_TEST -D xPOWER_SAVING   /
//                          -lC D:\Projects_IAR\IAR_C8051\WSN-CC2530\ZStack-C /
//                          C2530-2.5.1a_EB\Projects\zstack\MY_BOARD\Exp4\CC2 /
//                          530DB\EndDeviceSBMotor\List\ -lA                  /
//                          D:\Projects_IAR\IAR_C8051\WSN-CC2530\ZStack-CC253 /
//                          0-2.5.1a_EB\Projects\zstack\MY_BOARD\Exp4\CC2530D /
//                          B\EndDeviceSBMotor\List\ --diag_suppress          /
//                          Pe001,Pa010 -o D:\Projects_IAR\IAR_C8051\WSN-CC25 /
//                          30\ZStack-CC2530-2.5.1a_EB\Projects\zstack\MY_BOA /
//                          RD\Exp4\CC2530DB\EndDeviceSBMotor\Obj\ -e         /
//                          --no_code_motion --debug --core=plain             /
//                          --dptr=16,1 --data_model=large                    /
//                          --code_model=banked --calling_convention=xdata_re /
//                          entrant --place_constants=data_rom                /
//                          --nr_virtual_regs 16 -I                           /
//                          D:\Projects_IAR\IAR_C8051\WSN-CC2530\ZStack-CC253 /
//                          0-2.5.1a_EB\Projects\zstack\MY_BOARD\Exp4\CC2530D /
//                          B\ -I D:\Projects_IAR\IAR_C8051\WSN-CC2530\ZStack /
//                          -CC2530-2.5.1a_EB\Projects\zstack\MY_BOARD\Exp4\C /
//                          C2530DB\..\Source\ -I D:\Projects_IAR\IAR_C8051\W /
//                          SN-CC2530\ZStack-CC2530-2.5.1a_EB\Projects\zstack /
//                          \MY_BOARD\Exp4\CC2530DB\..\..\..\ZMain\TI2530DB\  /
//                          -I D:\Projects_IAR\IAR_C8051\WSN-CC2530\ZStack-CC /
//                          2530-2.5.1a_EB\Projects\zstack\MY_BOARD\Exp4\CC25 /
//                          30DB\..\..\..\..\..\Components\hal\include\ -I    /
//                          D:\Projects_IAR\IAR_C8051\WSN-CC2530\ZStack-CC253 /
//                          0-2.5.1a_EB\Projects\zstack\MY_BOARD\Exp4\CC2530D /
//                          B\..\..\..\..\..\Components\hal\target\CC2530SB\  /
//                          -I D:\Projects_IAR\IAR_C8051\WSN-CC2530\ZStack-CC /
//                          2530-2.5.1a_EB\Projects\zstack\MY_BOARD\Exp4\CC25 /
//                          30DB\..\..\..\..\..\Components\mac\include\ -I    /
//                          D:\Projects_IAR\IAR_C8051\WSN-CC2530\ZStack-CC253 /
//                          0-2.5.1a_EB\Projects\zstack\MY_BOARD\Exp4\CC2530D /
//                          B\..\..\..\..\..\Components\mac\high_level\ -I    /
//                          D:\Projects_IAR\IAR_C8051\WSN-CC2530\ZStack-CC253 /
//                          0-2.5.1a_EB\Projects\zstack\MY_BOARD\Exp4\CC2530D /
//                          B\..\..\..\..\..\Components\mac\low_level\srf04\  /
//                          -I D:\Projects_IAR\IAR_C8051\WSN-CC2530\ZStack-CC /
//                          2530-2.5.1a_EB\Projects\zstack\MY_BOARD\Exp4\CC25 /
//                          30DB\..\..\..\..\..\Components\mac\low_level\srf0 /
//                          4\single_chip\ -I D:\Projects_IAR\IAR_C8051\WSN-C /
//                          C2530\ZStack-CC2530-2.5.1a_EB\Projects\zstack\MY_ /
//                          BOARD\Exp4\CC2530DB\..\..\..\..\..\Components\mt\ /
//                           -I D:\Projects_IAR\IAR_C8051\WSN-CC2530\ZStack-C /
//                          C2530-2.5.1a_EB\Projects\zstack\MY_BOARD\Exp4\CC2 /
//                          530DB\..\..\..\..\..\Components\osal\include\ -I  /
//                          D:\Projects_IAR\IAR_C8051\WSN-CC2530\ZStack-CC253 /
//                          0-2.5.1a_EB\Projects\zstack\MY_BOARD\Exp4\CC2530D /
//                          B\..\..\..\..\..\Components\services\saddr\ -I    /
//                          D:\Projects_IAR\IAR_C8051\WSN-CC2530\ZStack-CC253 /
//                          0-2.5.1a_EB\Projects\zstack\MY_BOARD\Exp4\CC2530D /
//                          B\..\..\..\..\..\Components\services\sdata\ -I    /
//                          D:\Projects_IAR\IAR_C8051\WSN-CC2530\ZStack-CC253 /
//                          0-2.5.1a_EB\Projects\zstack\MY_BOARD\Exp4\CC2530D /
//                          B\..\..\..\..\..\Components\stack\af\ -I          /
//                          D:\Projects_IAR\IAR_C8051\WSN-CC2530\ZStack-CC253 /
//                          0-2.5.1a_EB\Projects\zstack\MY_BOARD\Exp4\CC2530D /
//                          B\..\..\..\..\..\Components\stack\nwk\ -I         /
//                          D:\Projects_IAR\IAR_C8051\WSN-CC2530\ZStack-CC253 /
//                          0-2.5.1a_EB\Projects\zstack\MY_BOARD\Exp4\CC2530D /
//                          B\..\..\..\..\..\Components\stack\sapi\ -I        /
//                          D:\Projects_IAR\IAR_C8051\WSN-CC2530\ZStack-CC253 /
//                          0-2.5.1a_EB\Projects\zstack\MY_BOARD\Exp4\CC2530D /
//                          B\..\..\..\..\..\Components\stack\sec\ -I         /
//                          D:\Projects_IAR\IAR_C8051\WSN-CC2530\ZStack-CC253 /
//                          0-2.5.1a_EB\Projects\zstack\MY_BOARD\Exp4\CC2530D /
//                          B\..\..\..\..\..\Components\stack\sys\ -I         /
//                          D:\Projects_IAR\IAR_C8051\WSN-CC2530\ZStack-CC253 /
//                          0-2.5.1a_EB\Projects\zstack\MY_BOARD\Exp4\CC2530D /
//                          B\..\..\..\..\..\Components\stack\zdo\ -I         /
//                          D:\Projects_IAR\IAR_C8051\WSN-CC2530\ZStack-CC253 /
//                          0-2.5.1a_EB\Projects\zstack\MY_BOARD\Exp4\CC2530D /
//                          B\..\..\..\..\..\Components\zmac\ -I              /
//                          D:\Projects_IAR\IAR_C8051\WSN-CC2530\ZStack-CC253 /
//                          0-2.5.1a_EB\Projects\zstack\MY_BOARD\Exp4\CC2530D /
//                          B\..\..\..\..\..\Components\zmac\f8w\ -Ohz        /
//    List file          =  D:\Projects_IAR\IAR_C8051\WSN-CC2530\ZStack-CC253 /
//                          0-2.5.1a_EB\Projects\zstack\MY_BOARD\Exp4\CC2530D /
//                          B\EndDeviceSBMotor\List\TransmitAppMotor.s51      /
//                                                                            /
//                                                                            /
///////////////////////////////////////////////////////////////////////////////

        NAME TransmitAppMotor

        RTMODEL "__SystemLibrary", "CLib"
        RTMODEL "__calling_convention", "xdata_reentrant"
        RTMODEL "__code_model", "banked"
        RTMODEL "__core", "plain"
        RTMODEL "__data_model", "large"
        RTMODEL "__dptr_size", "16"
        RTMODEL "__extended_stack", "disabled"
        RTMODEL "__location_for_constants", "data"
        RTMODEL "__number_of_dptrs", "1"
        RTMODEL "__rt_version", "1"

        RSEG DOVERLAY:DATA:NOROOT(0)
        RSEG IOVERLAY:IDATA:NOROOT(0)
        RSEG ISTACK:IDATA:NOROOT(0)
        RSEG PSTACK:XDATA:NOROOT(0)
        RSEG XSTACK:XDATA:NOROOT(0)

        EXTERN ?ALLOC_XSTACK8
        EXTERN ?BANKED_ENTER_XDATA
        EXTERN ?BANKED_LEAVE_XDATA
        EXTERN ?BDISPATCH
        EXTERN ?BRET
        EXTERN ?DEALLOC_XSTACK8
        EXTERN ?PUSH_XSTACK_I_ONE
        EXTERN ?PUSH_XSTACK_I_TWO
        EXTERN ?US_SWITCH_SPARSE
        EXTERN ?V0
        EXTERN ?XSP
        EXTERN ?XSTACK_DISP0_8
        EXTERN __INIT_XDATA_Z

        FUNCTION ??TransmitApp_CallBack?relay,0203H
        PUBLIC ??TransmitApp_HandleKeys?relay
        FUNCTION ??TransmitApp_HandleKeys?relay,0203H
        PUBLIC ??TransmitApp_Init?relay
        FUNCTION ??TransmitApp_Init?relay,0203H
        PUBLIC ??TransmitApp_MessageMSGCB?relay
        FUNCTION ??TransmitApp_MessageMSGCB?relay,0203H
        PUBLIC ??TransmitApp_ProcessEvent?relay
        FUNCTION ??TransmitApp_ProcessEvent?relay,0203H
        PUBLIC ??TransmitApp_ProcessZDOMsgs?relay
        FUNCTION ??TransmitApp_ProcessZDOMsgs?relay,0203H
        PUBLIC ??TransmitApp_SendTheMessage?relay
        FUNCTION ??TransmitApp_SendTheMessage?relay,0203H
        FUNCTION TransmitApp_CallBack,0603H
        ARGFRAME XSTACK, 0, STACK
        PUBLIC TransmitApp_DstAddr
        PUBLIC TransmitApp_HandleKeys
        FUNCTION TransmitApp_HandleKeys,021203H
        ARGFRAME XSTACK, 21, STACK
        ARGFRAME IOVERLAY, 0, STATIC
        ARGFRAME DOVERLAY, 0, STATIC
        LOCFRAME XSTACK, 9, STACK
        PUBLIC TransmitApp_InClusterList
        PUBLIC TransmitApp_Init
        FUNCTION TransmitApp_Init,021203H
        ARGFRAME XSTACK, 0, STACK
        LOCFRAME XSTACK, 38, STACK
        PUBLIC TransmitApp_MessageMSGCB
        FUNCTION TransmitApp_MessageMSGCB,021203H
        ARGFRAME XSTACK, 21, STACK
        ARGFRAME IOVERLAY, 0, STATIC
        ARGFRAME DOVERLAY, 0, STATIC
        LOCFRAME ISTACK, 3, STACK
        LOCFRAME XSTACK, 2, STACK
        PUBLIC TransmitApp_Msg
        PUBLIC TransmitApp_OutClusterList
        PUBLIC TransmitApp_ProcessEvent
        FUNCTION TransmitApp_ProcessEvent,021203H
        ARGFRAME XSTACK, 0, STACK
        LOCFRAME XSTACK, 29, STACK
        PUBLIC TransmitApp_ProcessZDOMsgs
        FUNCTION TransmitApp_ProcessZDOMsgs,0a1203H
        ARGFRAME XSTACK, 21, STACK
        ARGFRAME IOVERLAY, 0, STATIC
        ARGFRAME DOVERLAY, 0, STATIC
        LOCFRAME XSTACK, 10, STACK
        PUBLIC TransmitApp_SendTheMessage
        FUNCTION TransmitApp_SendTheMessage,021203H
        ARGFRAME XSTACK, 21, STACK
        ARGFRAME IOVERLAY, 0, STATIC
        ARGFRAME DOVERLAY, 0, STATIC
        LOCFRAME XSTACK, 19, STACK
        PUBLIC TransmitApp_SimpleDesc
        PUBLIC TransmitApp_TaskID
        PUBLIC TransmitApp_epDesc
        
        CFI Names cfiNames0
        CFI StackFrame CFA_SP SP IDATA
        CFI StackFrame CFA_PSP16 PSP16 XDATA
        CFI StackFrame CFA_XSP16 XSP16 XDATA
        CFI StaticOverlayFrame CFA_IOVERLAY IOVERLAY
        CFI StaticOverlayFrame CFA_DOVERLAY DOVERLAY
        CFI Resource `PSW.CY`:1, `B.BR0`:1, `B.BR1`:1, `B.BR2`:1, `B.BR3`:1
        CFI Resource `B.BR4`:1, `B.BR5`:1, `B.BR6`:1, `B.BR7`:1, `VB.BR8`:1
        CFI Resource `VB.BR9`:1, `VB.BR10`:1, `VB.BR11`:1, `VB.BR12`:1
        CFI Resource `VB.BR13`:1, `VB.BR14`:1, `VB.BR15`:1, VB:8, B:8, A:8
        CFI Resource PSW:8, DPL0:8, DPH0:8, R0:8, R1:8, R2:8, R3:8, R4:8, R5:8
        CFI Resource R6:8, R7:8, V0:8, V1:8, V2:8, V3:8, V4:8, V5:8, V6:8, V7:8
        CFI Resource V8:8, V9:8, V10:8, V11:8, V12:8, V13:8, V14:8, V15:8, SP:8
        CFI Resource PSPH:8, PSPL:8, PSP16:16, XSPH:8, XSPL:8, XSP16:16
        CFI VirtualResource ?RET:24
        CFI Resource ?BRET_EXT:8
        CFI VirtualResource ?RET_HIGH:8, ?RET_LOW:8
        CFI ResourceParts PSP16 PSPH, PSPL
        CFI ResourceParts XSP16 XSPH, XSPL
        CFI ResourceParts ?RET ?BRET_EXT, ?RET_HIGH, ?RET_LOW
        CFI EndNames cfiNames0
        
        CFI Common cfiCommon0 Using cfiNames0
        CFI CodeAlign 1
        CFI DataAlign -1
        CFI ReturnAddress ?RET CODE
        CFI CFA_DOVERLAY Used
        CFI CFA_IOVERLAY Used
        CFI CFA_SP SP+-3
        CFI CFA_PSP16 PSP16+0
        CFI CFA_XSP16 XSP16+0
        CFI `PSW.CY` SameValue
        CFI `B.BR0` SameValue
        CFI `B.BR1` SameValue
        CFI `B.BR2` SameValue
        CFI `B.BR3` SameValue
        CFI `B.BR4` SameValue
        CFI `B.BR5` SameValue
        CFI `B.BR6` SameValue
        CFI `B.BR7` SameValue
        CFI `VB.BR8` SameValue
        CFI `VB.BR9` SameValue
        CFI `VB.BR10` SameValue
        CFI `VB.BR11` SameValue
        CFI `VB.BR12` SameValue
        CFI `VB.BR13` SameValue
        CFI `VB.BR14` SameValue
        CFI `VB.BR15` SameValue
        CFI VB SameValue
        CFI B Undefined
        CFI A Undefined
        CFI PSW SameValue
        CFI DPL0 SameValue
        CFI DPH0 SameValue
        CFI R0 Undefined
        CFI R1 Undefined
        CFI R2 Undefined
        CFI R3 Undefined
        CFI R4 Undefined
        CFI R5 Undefined
        CFI R6 SameValue
        CFI R7 SameValue
        CFI V0 SameValue
        CFI V1 SameValue
        CFI V2 SameValue
        CFI V3 SameValue
        CFI V4 SameValue
        CFI V5 SameValue
        CFI V6 SameValue
        CFI V7 SameValue
        CFI V8 SameValue
        CFI V9 SameValue
        CFI V10 SameValue
        CFI V11 SameValue
        CFI V12 SameValue
        CFI V13 SameValue
        CFI V14 SameValue
        CFI V15 SameValue
        CFI PSPH Undefined
        CFI PSPL Undefined
        CFI XSPH Undefined
        CFI XSPL Undefined
        CFI ?RET Concat
        CFI ?BRET_EXT Frame(CFA_SP, 3)
        CFI ?RET_HIGH Frame(CFA_SP, 2)
        CFI ?RET_LOW Frame(CFA_SP, 1)
        CFI EndCommon cfiCommon0
        
        
        CFI Common cfiCommon1 Using cfiNames0
        CFI CodeAlign 1
        CFI DataAlign -1
        CFI ReturnAddress ?RET CODE
        CFI CFA_DOVERLAY Used
        CFI CFA_IOVERLAY Used
        CFI CFA_SP SP+-2
        CFI CFA_PSP16 PSP16+0
        CFI CFA_XSP16 XSP16+0
        CFI `PSW.CY` SameValue
        CFI `B.BR0` SameValue
        CFI `B.BR1` SameValue
        CFI `B.BR2` SameValue
        CFI `B.BR3` SameValue
        CFI `B.BR4` SameValue
        CFI `B.BR5` SameValue
        CFI `B.BR6` SameValue
        CFI `B.BR7` SameValue
        CFI `VB.BR8` SameValue
        CFI `VB.BR9` SameValue
        CFI `VB.BR10` SameValue
        CFI `VB.BR11` SameValue
        CFI `VB.BR12` SameValue
        CFI `VB.BR13` SameValue
        CFI `VB.BR14` SameValue
        CFI `VB.BR15` SameValue
        CFI VB SameValue
        CFI B SameValue
        CFI A SameValue
        CFI PSW SameValue
        CFI DPL0 SameValue
        CFI DPH0 SameValue
        CFI R0 SameValue
        CFI R1 SameValue
        CFI R2 SameValue
        CFI R3 SameValue
        CFI R4 SameValue
        CFI R5 SameValue
        CFI R6 SameValue
        CFI R7 SameValue
        CFI V0 SameValue
        CFI V1 SameValue
        CFI V2 SameValue
        CFI V3 SameValue
        CFI V4 SameValue
        CFI V5 SameValue
        CFI V6 SameValue
        CFI V7 SameValue
        CFI V8 SameValue
        CFI V9 SameValue
        CFI V10 SameValue
        CFI V11 SameValue
        CFI V12 SameValue
        CFI V13 SameValue
        CFI V14 SameValue
        CFI V15 SameValue
        CFI PSPH Undefined
        CFI PSPL Undefined
        CFI XSPH Undefined
        CFI XSPL Undefined
        CFI ?RET Concat
        CFI ?BRET_EXT SameValue
        CFI ?RET_HIGH Frame(CFA_SP, 2)
        CFI ?RET_LOW Frame(CFA_SP, 1)
        CFI EndCommon cfiCommon1
        
HalUARTOpen         SYMBOL "HalUARTOpen"
afRegister          SYMBOL "afRegister"
RegisterForKeys     SYMBOL "RegisterForKeys"
ZDO_RegisterForZDOMsg SYMBOL "ZDO_RegisterForZDOMsg"
HalMotorInit        SYMBOL "HalMotorInit"
osal_start_reload_timer SYMBOL "osal_start_reload_timer"
osal_msg_receive    SYMBOL "osal_msg_receive"
osal_msg_deallocate SYMBOL "osal_msg_deallocate"
ZDP_MatchDescReq    SYMBOL "ZDP_MatchDescReq"
HalUARTWrite        SYMBOL "HalUARTWrite"
ZDO_ParseEPListRsp  SYMBOL "ZDO_ParseEPListRsp"
osal_stop_timerEx   SYMBOL "osal_stop_timerEx"
osal_mem_free       SYMBOL "osal_mem_free"
HalMotorCtl         SYMBOL "HalMotorCtl"
HalMotorSpeedCheck  SYMBOL "HalMotorSpeedCheck"
HalMotorStatusCheck SYMBOL "HalMotorStatusCheck"
AF_DataRequest      SYMBOL "AF_DataRequest"
??AF_DataRequest?relay SYMBOL "?relay", AF_DataRequest
??HalMotorCtl?relay SYMBOL "?relay", HalMotorCtl
??HalMotorInit?relay SYMBOL "?relay", HalMotorInit
??HalMotorSpeedCheck?relay SYMBOL "?relay", HalMotorSpeedCheck
??HalMotorStatusCheck?relay SYMBOL "?relay", HalMotorStatusCheck
??HalUARTOpen?relay SYMBOL "?relay", HalUARTOpen
??HalUARTWrite?relay SYMBOL "?relay", HalUARTWrite
??RegisterForKeys?relay SYMBOL "?relay", RegisterForKeys
??ZDO_ParseEPListRsp?relay SYMBOL "?relay", ZDO_ParseEPListRsp
??ZDO_RegisterForZDOMsg?relay SYMBOL "?relay", ZDO_RegisterForZDOMsg
??ZDP_MatchDescReq?relay SYMBOL "?relay", ZDP_MatchDescReq
??afRegister?relay  SYMBOL "?relay", afRegister
??osal_mem_free?relay SYMBOL "?relay", osal_mem_free
??osal_msg_deallocate?relay SYMBOL "?relay", osal_msg_deallocate
??osal_msg_receive?relay SYMBOL "?relay", osal_msg_receive
??osal_start_reload_timer?relay SYMBOL "?relay", osal_start_reload_timer
??osal_stop_timerEx?relay SYMBOL "?relay", osal_stop_timerEx
TransmitApp_HandleKeys SYMBOL "TransmitApp_HandleKeys"
??TransmitApp_HandleKeys?relay SYMBOL "?relay", TransmitApp_HandleKeys
TransmitApp_Init    SYMBOL "TransmitApp_Init"
??TransmitApp_Init?relay SYMBOL "?relay", TransmitApp_Init
TransmitApp_MessageMSGCB SYMBOL "TransmitApp_MessageMSGCB"
??TransmitApp_MessageMSGCB?relay SYMBOL "?relay", TransmitApp_MessageMSGCB
TransmitApp_ProcessEvent SYMBOL "TransmitApp_ProcessEvent"
??TransmitApp_ProcessEvent?relay SYMBOL "?relay", TransmitApp_ProcessEvent
TransmitApp_ProcessZDOMsgs SYMBOL "TransmitApp_ProcessZDOMsgs"
??TransmitApp_ProcessZDOMsgs?relay SYMBOL "?relay", TransmitApp_ProcessZDOMsgs
TransmitApp_SendTheMessage SYMBOL "TransmitApp_SendTheMessage"
??TransmitApp_SendTheMessage?relay SYMBOL "?relay", TransmitApp_SendTheMessage

        EXTERN HalUARTOpen
        FUNCTION HalUARTOpen,0202H
        ARGFRAME ISTACK, 0, STACK
        ARGFRAME PSTACK, 0, STACK
        ARGFRAME XSTACK, 38, STACK
        ARGFRAME IOVERLAY, 0, STATIC
        ARGFRAME DOVERLAY, 0, STATIC
        EXTERN afRegister
        FUNCTION afRegister,0202H
        ARGFRAME ISTACK, 0, STACK
        ARGFRAME PSTACK, 0, STACK
        ARGFRAME XSTACK, 38, STACK
        ARGFRAME IOVERLAY, 0, STATIC
        ARGFRAME DOVERLAY, 0, STATIC
        EXTERN RegisterForKeys
        FUNCTION RegisterForKeys,0202H
        ARGFRAME ISTACK, 0, STACK
        ARGFRAME PSTACK, 0, STACK
        ARGFRAME XSTACK, 38, STACK
        ARGFRAME IOVERLAY, 0, STATIC
        ARGFRAME DOVERLAY, 0, STATIC
        EXTERN ZDO_RegisterForZDOMsg
        FUNCTION ZDO_RegisterForZDOMsg,0202H
        ARGFRAME ISTACK, 0, STACK
        ARGFRAME PSTACK, 0, STACK
        ARGFRAME XSTACK, 38, STACK
        ARGFRAME IOVERLAY, 0, STATIC
        ARGFRAME DOVERLAY, 0, STATIC
        EXTERN HalMotorInit
        FUNCTION HalMotorInit,0202H
        ARGFRAME ISTACK, 0, STACK
        ARGFRAME PSTACK, 0, STACK
        ARGFRAME XSTACK, 38, STACK
        ARGFRAME IOVERLAY, 0, STATIC
        ARGFRAME DOVERLAY, 0, STATIC
        EXTERN osal_start_reload_timer
        FUNCTION osal_start_reload_timer,0202H
        ARGFRAME ISTACK, 0, STACK
        ARGFRAME PSTACK, 0, STACK
        ARGFRAME XSTACK, 38, STACK
        ARGFRAME IOVERLAY, 0, STATIC
        ARGFRAME DOVERLAY, 0, STATIC
        EXTERN osal_msg_receive
        FUNCTION osal_msg_receive,0202H
        ARGFRAME ISTACK, 0, STACK
        ARGFRAME PSTACK, 0, STACK
        ARGFRAME XSTACK, 21, STACK
        ARGFRAME IOVERLAY, 0, STATIC
        ARGFRAME DOVERLAY, 0, STATIC
        EXTERN osal_msg_deallocate
        FUNCTION osal_msg_deallocate,0202H
        ARGFRAME ISTACK, 0, STACK
        ARGFRAME PSTACK, 0, STACK
        ARGFRAME XSTACK, 21, STACK
        ARGFRAME IOVERLAY, 0, STATIC
        ARGFRAME DOVERLAY, 0, STATIC
        EXTERN ZDP_MatchDescReq
        FUNCTION ZDP_MatchDescReq,0202H
        ARGFRAME ISTACK, 0, STACK
        ARGFRAME PSTACK, 0, STACK
        ARGFRAME XSTACK, 29, STACK
        ARGFRAME IOVERLAY, 0, STATIC
        ARGFRAME DOVERLAY, 0, STATIC
        EXTERN HalUARTWrite
        FUNCTION HalUARTWrite,0202H
        ARGFRAME ISTACK, 2, STACK
        ARGFRAME PSTACK, 0, STACK
        ARGFRAME XSTACK, 10, STACK
        ARGFRAME IOVERLAY, 0, STATIC
        ARGFRAME DOVERLAY, 0, STATIC
        EXTERN ZDO_ParseEPListRsp
        FUNCTION ZDO_ParseEPListRsp,0202H
        ARGFRAME ISTACK, 0, STACK
        ARGFRAME PSTACK, 0, STACK
        ARGFRAME XSTACK, 10, STACK
        ARGFRAME IOVERLAY, 0, STATIC
        ARGFRAME DOVERLAY, 0, STATIC
        EXTERN osal_stop_timerEx
        FUNCTION osal_stop_timerEx,0202H
        ARGFRAME ISTACK, 0, STACK
        ARGFRAME PSTACK, 0, STACK
        ARGFRAME XSTACK, 10, STACK
        ARGFRAME IOVERLAY, 0, STATIC
        ARGFRAME DOVERLAY, 0, STATIC
        EXTERN osal_mem_free
        FUNCTION osal_mem_free,0202H
        ARGFRAME ISTACK, 0, STACK
        ARGFRAME PSTACK, 0, STACK
        ARGFRAME XSTACK, 10, STACK
        ARGFRAME IOVERLAY, 0, STATIC
        ARGFRAME DOVERLAY, 0, STATIC
        EXTERN HalMotorCtl
        FUNCTION HalMotorCtl,0202H
        ARGFRAME ISTACK, 2, STACK
        ARGFRAME PSTACK, 0, STACK
        ARGFRAME XSTACK, 9, STACK
        ARGFRAME IOVERLAY, 0, STATIC
        ARGFRAME DOVERLAY, 0, STATIC
        EXTERN HalMotorSpeedCheck
        FUNCTION HalMotorSpeedCheck,0202H
        ARGFRAME ISTACK, 0, STACK
        ARGFRAME PSTACK, 0, STACK
        ARGFRAME XSTACK, 10, STACK
        ARGFRAME IOVERLAY, 0, STATIC
        ARGFRAME DOVERLAY, 0, STATIC
        EXTERN HalMotorStatusCheck
        FUNCTION HalMotorStatusCheck,0202H
        ARGFRAME ISTACK, 0, STACK
        ARGFRAME PSTACK, 0, STACK
        ARGFRAME XSTACK, 10, STACK
        ARGFRAME IOVERLAY, 0, STATIC
        ARGFRAME DOVERLAY, 0, STATIC
        EXTERN AF_DataRequest
        FUNCTION AF_DataRequest,0202H
        ARGFRAME ISTACK, 0, STACK
        ARGFRAME PSTACK, 0, STACK
        ARGFRAME XSTACK, 19, STACK
        ARGFRAME IOVERLAY, 0, STATIC
        ARGFRAME DOVERLAY, 0, STATIC
        EXTERN ??AF_DataRequest?relay
        FUNCTION ??AF_DataRequest?relay,00H
        EXTERN ??HalMotorCtl?relay
        FUNCTION ??HalMotorCtl?relay,00H
        EXTERN ??HalMotorInit?relay
        FUNCTION ??HalMotorInit?relay,00H
        EXTERN ??HalMotorSpeedCheck?relay
        FUNCTION ??HalMotorSpeedCheck?relay,00H
        EXTERN ??HalMotorStatusCheck?relay
        FUNCTION ??HalMotorStatusCheck?relay,00H
        EXTERN ??HalUARTOpen?relay
        FUNCTION ??HalUARTOpen?relay,00H
        EXTERN ??HalUARTWrite?relay
        FUNCTION ??HalUARTWrite?relay,00H
        EXTERN ??RegisterForKeys?relay
        FUNCTION ??RegisterForKeys?relay,00H
        EXTERN ??ZDO_ParseEPListRsp?relay
        FUNCTION ??ZDO_ParseEPListRsp?relay,00H
        EXTERN ??ZDO_RegisterForZDOMsg?relay
        FUNCTION ??ZDO_RegisterForZDOMsg?relay,00H
        EXTERN ??ZDP_MatchDescReq?relay
        FUNCTION ??ZDP_MatchDescReq?relay,00H
        EXTERN ??afRegister?relay
        FUNCTION ??afRegister?relay,00H
        EXTERN ??osal_mem_free?relay
        FUNCTION ??osal_mem_free?relay,00H
        EXTERN ??osal_msg_deallocate?relay
        FUNCTION ??osal_msg_deallocate?relay,00H
        EXTERN ??osal_msg_receive?relay
        FUNCTION ??osal_msg_receive?relay,00H
        EXTERN ??osal_start_reload_timer?relay
        FUNCTION ??osal_start_reload_timer?relay,00H
        EXTERN ??osal_stop_timerEx?relay
        FUNCTION ??osal_stop_timerEx?relay,00H

// D:\Projects_IAR\IAR_C8051\WSN-CC2530\ZStack-CC2530-2.5.1a_EB\Projects\zstack\MY_BOARD\Exp4\Source\TransmitAppMotor.c
//    1 /*******************************************************************************
//    2   文 件 名：TransmitAppMotor.c
//    3   作    者：南京安宸博研电子科技有限公司
//    4   创建时间：2013.9.20
//    5   修改时间：2020.12.22
//    6   IAR 版本：IAR for 8051 V8.10.1
//    7   测试平台：Sensor MotherBoard V2.3
//    8 
//    9   说    明：
//   10   1、程序的驱动文件为hal_motor。
//   11   
//   12   2、本部分的程序使用了以下的编译选项：
//   13      xHAL_UART=TRUE
//   14      xHAL_UART_TEST
//   15      xPOWER_SAVING (该选项没有打开)
//   16 
//   17      HAL_UART_TEST是为用户增加的编译选项，该选项主要是为了解决在没有LCD的设备上
//   18      观察Z-Stack输出的显示数据。在有LCD的设备上打开LCD_SUPPORTED可以观察网络ID等
//   19      一些基本的信息，打开这个编译选项，有类似的效果。可借助串口显示一些原本在LCD
//   20      上显示的信息，如果串口有其他用途，可通过关闭此编译选项来关闭串口输出的数据。
//   21     
//   22      xPOWER_SAVING选项是终端设备(EndDevice)可以打开的编译选项
//   23 
//   24   3、程序使用了以下两个事件：
//   25      TRANSMITAPP_SEND_MSG_EVT(发送数据)
//   26      TRANSMITAPP_MATCHRSP_EVT(描述符匹配)
//   27 
//   28   4、按键处理函数在TransmitApp_HandleKeys( byte shift, byte keys )，
//   29      本部分程序使用了按键SW5（传感器母板上的用户按键），实现了电机控制的功能。
//   30 
//   31   5、设备自动加入网络，通过描述符匹配事件对目标设备的网络地址进行查询，当匹配成
//   32      功后，关闭该事件的定时器，保存目标设备的网络地址，接着打开发送数据事件，周
//   33      期性地发送数据。发送数据的时间间隔由宏定义TRANSMITAPP_SEND_DELAY设置，修改
//   34      此宏定义即可修改设备发送数据的周期。
//   35      注意：设备发送数据的周期与协调器的离线检测功能是关联的，如果此处的发送间隔
//   36      时间过长(大于6s)，那么协调器就会认定设备离线。因此，修改时间间隔需要与协调
//   37      器的离线检测功能协调一致。
//   38 
//   39   6、(1)直流电机模块功能：启动和停止，转速控制(1~3000RPM)，方向；
//   40      (2)设备启动后开始描述符匹配，匹配成功后开始定时每秒上报一次电机的状态信息
//   41         (方向和启动停止)，以及电机的转速。
//   42      (3)用户按键可以控制电机转速调节和方向上的调整，主要用于不联网情况下的电机
//   43         测试。用户可将UART连接到PC机，借助串口助手之类的软件查看电机的转速和定
//   44         时器数值信息，方便观察转速的调整状况。
//   45         转速调节策略在hal_motor.c文件内，借助定时器T3中断，每秒可以多次调节(具
//   46         体参看hal_motor.c文件)。
//   47 *******************************************************************************/
//   48 
//   49 /*******************************************************************************
//   50  * INCLUDES
//   51  */
//   52 #include "OSAL.h"
//   53 #include "AF.h"
//   54 #include "ZDObject.h"
//   55 #include "ZDProfile.h"
//   56 
//   57 #include "TransmitApp.h"
//   58 #include "OnBoard.h"
//   59 
//   60 #include "DebugTrace.h"
//   61 
//   62 #include <string.h>
//   63 
//   64 /* HAL */
//   65 #include "hal_led.h"
//   66 #include "hal_key.h"
//   67 #include "hal_uart.h"
//   68 #include "hal_motor.h"
//   69 
//   70 /*******************************************************************************
//   71  * MACROS
//   72  */
//   73 
//   74 /*******************************************************************************
//   75  * CONSTANTS
//   76  */
//   77 
//   78 #define TRANSMITAPP_SEND_DELAY   1000
//   79 #define TRANSMITAPP_MATCH_DELAY  1000
//   80 
//   81 // Send with or without APS ACKs
//   82 #define TRANSMITAPP_TX_OPTIONS    AF_DISCV_ROUTE
//   83 
//   84 #if defined ( TRANSMITAPP_FRAGMENTED )
//   85 #define TRANSMITAPP_MAX_DATA_LEN    225
//   86 #else
//   87 #define TRANSMITAPP_MAX_DATA_LEN    102
//   88 #endif
//   89 
//   90 /*******************************************************************************
//   91  * TYPEDEFS
//   92  */
//   93 
//   94 /*******************************************************************************
//   95  * GLOBAL VARIABLES
//   96  */
//   97 
//   98 // This is the buffer that is sent out as data.

        RSEG XDATA_Z:XDATA:NOROOT(0)
        DATA8
//   99 byte TransmitApp_Msg[ TRANSMITAPP_MAX_DATA_LEN ];
TransmitApp_Msg:
        DS 102
        REQUIRE __INIT_XDATA_Z
//  100 
//  101 // This is the Cluster ID List and should be filled with Application
//  102 // specific cluster IDs.

        RSEG XDATA_ROM_C:CONST:REORDER:NOROOT(0)
        DATA16
//  103 const cId_t TransmitApp_InClusterList[1] =
TransmitApp_InClusterList:
        DW 11
//  104 {
//  105   TRANSMITAPP_CLUSTERID_MOTORCTLMSG
//  106 };
//  107 

        RSEG XDATA_ROM_C:CONST:REORDER:NOROOT(0)
        DATA16
//  108 const cId_t TransmitApp_OutClusterList[1] =
TransmitApp_OutClusterList:
        DW 7
//  109 {
//  110   TRANSMITAPP_CLUSTERID_MOTORSTATUSMSG
//  111 };
//  112 

        RSEG XDATA_ROM_C:CONST:REORDER:NOROOT(0)
        DATA8
//  113 const SimpleDescriptionFormat_t TransmitApp_SimpleDesc =
TransmitApp_SimpleDesc:
        DB 1
        DATA16
        DW 3845
        DW 1
        DATA8
        DB 0
        DB 8
        DATA16
        DW TransmitApp_InClusterList
        DATA8
        DB 3
        DATA16
        DW TransmitApp_OutClusterList
//  114 {
//  115   TRANSMITAPP_ENDPOINT,                //  int    Endpoint;
//  116   TRANSMITAPP_PROFID,                  //  uint16 AppProfId[2];
//  117   TRANSMITAPP_DEVICEID,                //  uint16 AppDeviceId[2];
//  118   TRANSMITAPP_DEVICE_VERSION,          //  int    AppDevVer:4;
//  119   TRANSMITAPP_FLAGS,                   //  int    AppFlags:4;
//  120   TRANSMITAPP_MAX_INCLUSTERS,          //  byte   AppNumInClusters;
//  121   (cId_t *)TransmitApp_InClusterList,  //  byte   *pAppInClusterList;
//  122   TRANSMITAPP_MAX_OUTCLUSTERS,         //  byte   AppNumOutClusters;
//  123   (cId_t *)TransmitApp_OutClusterList  //  byte   *pAppOutClusterList;
//  124 };
//  125 
//  126 // This is the Endpoint/Interface description.  It is defined here, but
//  127 // filled-in in TransmitApp_Init().  Another way to go would be to fill
//  128 // in the structure here and make it a "const" (in code space).  The
//  129 // way it's defined in this sample app it is define in RAM.

        RSEG XDATA_Z:XDATA:NOROOT(0)
        DATA8
//  130 endPointDesc_t TransmitApp_epDesc;
TransmitApp_epDesc:
        DS 6
        REQUIRE __INIT_XDATA_Z
//  131 
//  132 /*******************************************************************************
//  133  * EXTERNAL VARIABLES
//  134  */
//  135 
//  136 /*******************************************************************************
//  137  * EXTERNAL FUNCTIONS
//  138  */
//  139 
//  140 /*******************************************************************************
//  141  * LOCAL VARIABLES
//  142  */
//  143 #if (HAL_UART == TRUE)
//  144 #if !defined( SERIAL_APP_PORT )
//  145 #define SERIAL_APP_PORT  0
//  146 #endif
//  147 
//  148 #if !defined( SERIAL_APP_BAUD )
//  149 #define SERIAL_APP_BAUD  HAL_UART_BR_38400
//  150 #endif
//  151 
//  152 // When the Rx buf space is less than this threshold, invoke the Rx callback.
//  153 #if !defined( SERIAL_APP_THRESH )
//  154 #define SERIAL_APP_THRESH  64
//  155 #endif
//  156 
//  157 #if !defined( SERIAL_APP_RX_SZ )
//  158 #define SERIAL_APP_RX_SZ  128
//  159 #endif
//  160 
//  161 #if !defined( SERIAL_APP_TX_SZ )
//  162 #define SERIAL_APP_TX_SZ  128
//  163 #endif
//  164 
//  165 // Millisecs of idle time after a byte is received before invoking Rx callback.
//  166 #if !defined( SERIAL_APP_IDLE )
//  167 #define SERIAL_APP_IDLE  6
//  168 #endif
//  169 
//  170 // Loopback Rx bytes to Tx for throughput testing.
//  171 #if !defined( SERIAL_APP_LOOPBACK )
//  172 #define SERIAL_APP_LOOPBACK  FALSE
//  173 #endif
//  174 
//  175 // This is the max byte count per OTA message.
//  176 #if !defined( SERIAL_APP_TX_MAX )
//  177 #define SERIAL_APP_TX_MAX  80
//  178 #endif
//  179 #endif // HAL_UART == TURE
//  180 
//  181 // Task ID for event processing - received when TransmitApp_Init() is called.

        RSEG XDATA_Z:XDATA:NOROOT(0)
        DATA8
//  182 byte TransmitApp_TaskID;
TransmitApp_TaskID:
        DS 1
        REQUIRE __INIT_XDATA_Z
//  183 

        RSEG XDATA_Z:XDATA:NOROOT(0)
        DATA8
//  184 static byte TransmitApp_TransID;  // This is the unique message ID (counter)
TransmitApp_TransID:
        DS 1
        REQUIRE __INIT_XDATA_Z
//  185 

        RSEG XDATA_Z:XDATA:NOROOT(0)
        DATA8
//  186 afAddrType_t TransmitApp_DstAddr;
TransmitApp_DstAddr:
        DS 12
        REQUIRE __INIT_XDATA_Z
//  187 
//  188 
//  189 /*******************************************************************************
//  190  * LOCAL FUNCTIONS
//  191  */
//  192 void TransmitApp_ProcessZDOMsgs( zdoIncomingMsg_t *inMsg );
//  193 void TransmitApp_HandleKeys( byte shift, byte keys );
//  194 void TransmitApp_MessageMSGCB( afIncomingMSGPacket_t *pckt );
//  195 void TransmitApp_SendTheMessage( void );
//  196 void TransmitApp_CallBack(uint8 port, uint8 event);
//  197 
//  198 /*******************************************************************************
//  199  * NETWORK LAYER CALLBACKS
//  200  */
//  201 
//  202 /*******************************************************************************
//  203  * PUBLIC FUNCTIONS
//  204  */
//  205 
//  206 /*******************************************************************************
//  207  * @fn      TransmitApp_Init
//  208  *
//  209  * @brief   Initialization function for the Generic App Task.
//  210  *          This is called during initialization and should contain
//  211  *          any application specific initialization (ie. hardware
//  212  *          initialization/setup, table initialization, power up
//  213  *          notificaiton ... ).
//  214  *
//  215  * @param   task_id - the ID assigned by OSAL.  This ID should be
//  216  *                    used to send messages and set timers.
//  217  *
//  218  * @return  none
//  219  */

        RSEG BANKED_CODE:CODE:NOROOT(0)
//  220 void TransmitApp_Init( byte task_id )
TransmitApp_Init:
        CFI Block cfiBlock0 Using cfiCommon0
        CFI Function TransmitApp_Init
        CODE
//  221 {
        FUNCALL TransmitApp_Init, HalUARTOpen
        LOCFRAME ISTACK, 0, STACK
        LOCFRAME PSTACK, 0, STACK
        LOCFRAME XSTACK, 38, STACK
        LOCFRAME IOVERLAY, 0, STATIC
        LOCFRAME DOVERLAY, 0, STATIC
        ARGFRAME ISTACK, 0, STACK
        ARGFRAME PSTACK, 0, STACK
        ARGFRAME XSTACK, 38, STACK
        ARGFRAME IOVERLAY, 0, STATIC
        ARGFRAME DOVERLAY, 0, STATIC
        FUNCALL TransmitApp_Init, afRegister
        LOCFRAME ISTACK, 0, STACK
        LOCFRAME PSTACK, 0, STACK
        LOCFRAME XSTACK, 38, STACK
        LOCFRAME IOVERLAY, 0, STATIC
        LOCFRAME DOVERLAY, 0, STATIC
        ARGFRAME ISTACK, 0, STACK
        ARGFRAME PSTACK, 0, STACK
        ARGFRAME XSTACK, 38, STACK
        ARGFRAME IOVERLAY, 0, STATIC
        ARGFRAME DOVERLAY, 0, STATIC
        FUNCALL TransmitApp_Init, RegisterForKeys
        LOCFRAME ISTACK, 0, STACK
        LOCFRAME PSTACK, 0, STACK
        LOCFRAME XSTACK, 38, STACK
        LOCFRAME IOVERLAY, 0, STATIC
        LOCFRAME DOVERLAY, 0, STATIC
        ARGFRAME ISTACK, 0, STACK
        ARGFRAME PSTACK, 0, STACK
        ARGFRAME XSTACK, 38, STACK
        ARGFRAME IOVERLAY, 0, STATIC
        ARGFRAME DOVERLAY, 0, STATIC
        FUNCALL TransmitApp_Init, ZDO_RegisterForZDOMsg
        LOCFRAME ISTACK, 0, STACK
        LOCFRAME PSTACK, 0, STACK
        LOCFRAME XSTACK, 38, STACK
        LOCFRAME IOVERLAY, 0, STATIC
        LOCFRAME DOVERLAY, 0, STATIC
        ARGFRAME ISTACK, 0, STACK
        ARGFRAME PSTACK, 0, STACK
        ARGFRAME XSTACK, 38, STACK
        ARGFRAME IOVERLAY, 0, STATIC
        ARGFRAME DOVERLAY, 0, STATIC
        FUNCALL TransmitApp_Init, ZDO_RegisterForZDOMsg
        LOCFRAME ISTACK, 0, STACK
        LOCFRAME PSTACK, 0, STACK
        LOCFRAME XSTACK, 38, STACK
        LOCFRAME IOVERLAY, 0, STATIC
        LOCFRAME DOVERLAY, 0, STATIC
        ARGFRAME ISTACK, 0, STACK
        ARGFRAME PSTACK, 0, STACK
        ARGFRAME XSTACK, 38, STACK
        ARGFRAME IOVERLAY, 0, STATIC
        ARGFRAME DOVERLAY, 0, STATIC
        FUNCALL TransmitApp_Init, HalMotorInit
        LOCFRAME ISTACK, 0, STACK
        LOCFRAME PSTACK, 0, STACK
        LOCFRAME XSTACK, 38, STACK
        LOCFRAME IOVERLAY, 0, STATIC
        LOCFRAME DOVERLAY, 0, STATIC
        ARGFRAME ISTACK, 0, STACK
        ARGFRAME PSTACK, 0, STACK
        ARGFRAME XSTACK, 38, STACK
        ARGFRAME IOVERLAY, 0, STATIC
        ARGFRAME DOVERLAY, 0, STATIC
        FUNCALL TransmitApp_Init, osal_start_reload_timer
        LOCFRAME ISTACK, 0, STACK
        LOCFRAME PSTACK, 0, STACK
        LOCFRAME XSTACK, 38, STACK
        LOCFRAME IOVERLAY, 0, STATIC
        LOCFRAME DOVERLAY, 0, STATIC
        ARGFRAME ISTACK, 0, STACK
        ARGFRAME PSTACK, 0, STACK
        ARGFRAME XSTACK, 38, STACK
        ARGFRAME IOVERLAY, 0, STATIC
        ARGFRAME DOVERLAY, 0, STATIC
        MOV     A,#-0x9
        LCALL   ?BANKED_ENTER_XDATA
        CFI DPH0 load(1, XDATA, add(CFA_XSP16, literal(-1)))
        CFI DPL0 load(1, XDATA, add(CFA_XSP16, literal(-2)))
        CFI ?BRET_EXT load(1, XDATA, add(CFA_XSP16, literal(-3)))
        CFI ?RET_HIGH load(1, XDATA, add(CFA_XSP16, literal(-4)))
        CFI ?RET_LOW load(1, XDATA, add(CFA_XSP16, literal(-5)))
        CFI R7 load(1, XDATA, add(CFA_XSP16, literal(-6)))
        CFI V0 load(1, XDATA, add(CFA_XSP16, literal(-7)))
        CFI VB load(1, XDATA, add(CFA_XSP16, literal(-8)))
        CFI R6 load(1, XDATA, add(CFA_XSP16, literal(-9)))
        CFI CFA_SP SP+0
        CFI CFA_XSP16 add(XSP16, 9)
        ; Saved register size: 9
        ; Auto size: 29
        MOV     A,#-0x1d
        LCALL   ?ALLOC_XSTACK8
        CFI CFA_XSP16 add(XSP16, 38)
        MOV     A,R1
        MOV     R6,A
//  222   uint16 i;
//  223   
//  224 #if (HAL_UART == TRUE)
//  225   halUARTCfg_t uartConfig;
//  226   
//  227   uartConfig.configured           = TRUE;              // 2x30 don't care - see uart driver.
        MOV     DPL,?XSP + 0
        MOV     DPH,?XSP + 1
        MOV     A,#0x1
        MOVX    @DPTR,A
//  228   uartConfig.baudRate             = SERIAL_APP_BAUD;
        LCALL   ?XSTACK_DISP0_8
        MOV     A,#0x2
        MOVX    @DPTR,A
//  229   uartConfig.flowControl          = FALSE;
        LCALL   ?XSTACK_DISP0_8
        CLR     A
        MOVX    @DPTR,A
//  230   uartConfig.flowControlThreshold = SERIAL_APP_THRESH; // 2x30 don't care - see uart driver.
        MOV     A,#0x3
        LCALL   ?XSTACK_DISP0_8
        MOV     A,#0x40
        MOVX    @DPTR,A
        INC     DPTR
        CLR     A
        MOVX    @DPTR,A
//  231   uartConfig.rx.maxBufSize        = SERIAL_APP_RX_SZ;  // 2x30 don't care - see uart driver.
        MOV     A,#0xa
        LCALL   ?XSTACK_DISP0_8
        MOV     A,#-0x80
        MOVX    @DPTR,A
        INC     DPTR
        CLR     A
        MOVX    @DPTR,A
//  232   uartConfig.tx.maxBufSize        = SERIAL_APP_TX_SZ;  // 2x30 don't care - see uart driver.
        MOV     A,#0x12
        LCALL   ?XSTACK_DISP0_8
        MOV     A,#-0x80
        MOVX    @DPTR,A
        INC     DPTR
        CLR     A
        MOVX    @DPTR,A
//  233   uartConfig.idleTimeout          = SERIAL_APP_IDLE;   // 2x30 don't care - see uart driver.
        MOV     A,#0x5
        LCALL   ?XSTACK_DISP0_8
        MOV     A,#0x6
        MOVX    @DPTR,A
//  234   uartConfig.intEnable            = FALSE;             // 2x30 don't care - see uart driver.
        MOV     A,#0x16
        LCALL   ?XSTACK_DISP0_8
        CLR     A
        MOVX    @DPTR,A
//  235   uartConfig.callBackFunc         = TransmitApp_CallBack;
        MOV     A,#0x1b
        LCALL   ?XSTACK_DISP0_8
        MOV     A,#??TransmitApp_CallBack?relay & 0xff
        MOVX    @DPTR,A
        INC     DPTR
        MOV     A,#(??TransmitApp_CallBack?relay >> 8) & 0xff
        MOVX    @DPTR,A
//  236   HalUARTOpen (HAL_UART_PORT_0, &uartConfig);
        ; Setup parameters for call to function HalUARTOpen
        MOV     DPL,?XSP + 0
        MOV     DPH,?XSP + 1
        MOV     R2,DPL
        MOV     R3,DPH
        MOV     R1,#0x0
        LCALL   ??HalUARTOpen?relay
//  237 #endif
//  238   
//  239   TransmitApp_TaskID = task_id;
        MOV     A,R6
        MOV     DPTR,#TransmitApp_TaskID
        MOVX    @DPTR,A
//  240   TransmitApp_TransID = 0;
        MOV     DPTR,#TransmitApp_TransID
        CLR     A
        MOVX    @DPTR,A
//  241   
//  242   // Device hardware initialization can be added here or in main() (Zmain.c).
//  243   // If the hardware is application specific - add it here.
//  244   // If the hardware is other parts of the device add it in main().
//  245   
//  246   TransmitApp_DstAddr.addrMode = (afAddrMode_t)AddrNotPresent;
        MOV     DPTR,#TransmitApp_DstAddr + 8
        MOVX    @DPTR,A
//  247   TransmitApp_DstAddr.endPoint = 0;
        INC     DPTR
        MOVX    @DPTR,A
//  248   TransmitApp_DstAddr.addr.shortAddr = 0;
        MOV     DPTR,#TransmitApp_DstAddr
        MOVX    @DPTR,A
        INC     DPTR
        MOVX    @DPTR,A
//  249   
//  250   // Fill out the endpoint description.
//  251   TransmitApp_epDesc.endPoint = TRANSMITAPP_ENDPOINT;
        MOV     DPTR,#TransmitApp_epDesc
        INC     A
        MOVX    @DPTR,A
//  252   TransmitApp_epDesc.task_id = &TransmitApp_TaskID;
        INC     DPTR
        MOV     A,#TransmitApp_TaskID & 0xff
        MOVX    @DPTR,A
        INC     DPTR
        MOV     A,#(TransmitApp_TaskID >> 8) & 0xff
        MOVX    @DPTR,A
//  253   TransmitApp_epDesc.simpleDesc
//  254           = (SimpleDescriptionFormat_t *)&TransmitApp_SimpleDesc;
        INC     DPTR
        MOV     A,#TransmitApp_SimpleDesc & 0xff
        MOVX    @DPTR,A
        INC     DPTR
        MOV     A,#(TransmitApp_SimpleDesc >> 8) & 0xff
        MOVX    @DPTR,A
//  255   TransmitApp_epDesc.latencyReq = noLatencyReqs;
        INC     DPTR
        CLR     A
        MOVX    @DPTR,A
//  256   
//  257   // Register the endpoint/interface description with the AF
//  258   afRegister( &TransmitApp_epDesc );
        ; Setup parameters for call to function afRegister
        MOV     R2,#TransmitApp_epDesc & 0xff
        MOV     R3,#(TransmitApp_epDesc >> 8) & 0xff
        LCALL   ??afRegister?relay
//  259   
//  260   // Register for all key events - This app will handle all key events
//  261   RegisterForKeys( TransmitApp_TaskID );
        ; Setup parameters for call to function RegisterForKeys
        MOV     DPTR,#TransmitApp_TaskID
        MOVX    A,@DPTR
        MOV     R1,A
        LCALL   ??RegisterForKeys?relay
//  262     
//  263   // Generate the data
//  264   for (i = 0; i < TRANSMITAPP_MOTOR_DATA_LEN; i++)
//  265   {
//  266     TransmitApp_Msg[i] = 0;
        CLR     A
        MOV     DPTR,#TransmitApp_Msg
        MOV     R0,#0x6
??TransmitApp_Init_0:
        MOVX    @DPTR,A
        INC     DPTR
        DJNZ    R0,??TransmitApp_Init_0
//  267   }
//  268     
//  269   ZDO_RegisterForZDOMsg( TransmitApp_TaskID, End_Device_Bind_rsp );
        ; Setup parameters for call to function ZDO_RegisterForZDOMsg
        MOV     R2,#0x20
        MOV     R3,#-0x80
        MOV     DPTR,#TransmitApp_TaskID
        MOVX    A,@DPTR
        MOV     R1,A
        LCALL   ??ZDO_RegisterForZDOMsg?relay
//  270   ZDO_RegisterForZDOMsg( TransmitApp_TaskID, Match_Desc_rsp );
        ; Setup parameters for call to function ZDO_RegisterForZDOMsg
        MOV     R2,#0x6
        MOV     R3,#-0x80
        MOV     DPTR,#TransmitApp_TaskID
        MOVX    A,@DPTR
        MOV     R1,A
        LCALL   ??ZDO_RegisterForZDOMsg?relay
//  271   
//  272   // 初始化电机, 电机处于停转状态
//  273   HalMotorInit();
        ; Setup parameters for call to function HalMotorInit
        LCALL   ??HalMotorInit?relay
//  274   
//  275   // 打开定时器，描述符匹配事件
//  276   osal_start_reload_timer( TransmitApp_TaskID, TRANSMITAPP_MATCHRSP_EVT, 
//  277                                                TRANSMITAPP_MATCH_DELAY );
        ; Setup parameters for call to function osal_start_reload_timer
        MOV     R4,#-0x18
        MOV     R5,#0x3
        MOV     R2,#0x8
        MOV     R3,#0x0
        MOV     DPTR,#TransmitApp_TaskID
        MOVX    A,@DPTR
        MOV     R1,A
        LCALL   ??osal_start_reload_timer?relay
//  278 }
        MOV     A,#0x1d
        LCALL   ?DEALLOC_XSTACK8
        CFI EndBlock cfiBlock0
        REQUIRE ?Subroutine0
        ; // Fall through to label ?Subroutine0

        RSEG BANKED_CODE:CODE:NOROOT(0)
?Subroutine0:
        CFI Block cfiBlock1 Using cfiCommon0
        CFI NoFunction
        CFI CFA_SP SP+0
        CFI CFA_XSP16 add(XSP16, 9)
        CFI VB load(1, XDATA, add(CFA_XSP16, literal(-8)))
        CFI DPL0 load(1, XDATA, add(CFA_XSP16, literal(-2)))
        CFI DPH0 load(1, XDATA, add(CFA_XSP16, literal(-1)))
        CFI R6 load(1, XDATA, add(CFA_XSP16, literal(-9)))
        CFI R7 load(1, XDATA, add(CFA_XSP16, literal(-6)))
        CFI V0 load(1, XDATA, add(CFA_XSP16, literal(-7)))
        CFI ?BRET_EXT load(1, XDATA, add(CFA_XSP16, literal(-3)))
        CFI ?RET_HIGH load(1, XDATA, add(CFA_XSP16, literal(-4)))
        CFI ?RET_LOW load(1, XDATA, add(CFA_XSP16, literal(-5)))
        MOV     R7,#0x1
        LJMP    ?BANKED_LEAVE_XDATA
        CFI EndBlock cfiBlock1
//  279 
//  280 /*******************************************************************************
//  281  * @fn      TransmitApp_ProcessEvent
//  282  *
//  283  * @brief   Generic Application Task event processor.  This function
//  284  *          is called to process all events for the task.  Events
//  285  *          include timers, messages and any other user defined events.
//  286  *
//  287  * @param   task_id  - The OSAL assigned task ID.
//  288  * @param   events - events to process.  This is a bit map and can
//  289  *                   contain more than one event.
//  290  *
//  291  * @return  none
//  292  */

        RSEG BANKED_CODE:CODE:NOROOT(0)
//  293 UINT16 TransmitApp_ProcessEvent( byte task_id, UINT16 events )
TransmitApp_ProcessEvent:
        CFI Block cfiBlock2 Using cfiCommon0
        CFI Function TransmitApp_ProcessEvent
        CODE
//  294 {
        FUNCALL TransmitApp_ProcessEvent, osal_msg_receive
        LOCFRAME ISTACK, 0, STACK
        LOCFRAME PSTACK, 0, STACK
        LOCFRAME XSTACK, 21, STACK
        LOCFRAME IOVERLAY, 0, STATIC
        LOCFRAME DOVERLAY, 0, STATIC
        ARGFRAME ISTACK, 0, STACK
        ARGFRAME PSTACK, 0, STACK
        ARGFRAME XSTACK, 21, STACK
        ARGFRAME IOVERLAY, 0, STATIC
        ARGFRAME DOVERLAY, 0, STATIC
        FUNCALL TransmitApp_ProcessEvent, TransmitApp_MessageMSGCB
        LOCFRAME ISTACK, 0, STACK
        LOCFRAME PSTACK, 0, STACK
        LOCFRAME XSTACK, 21, STACK
        LOCFRAME IOVERLAY, 0, STATIC
        LOCFRAME DOVERLAY, 0, STATIC
        ARGFRAME ISTACK, 0, STACK
        ARGFRAME PSTACK, 0, STACK
        ARGFRAME XSTACK, 21, STACK
        ARGFRAME IOVERLAY, 0, STATIC
        ARGFRAME DOVERLAY, 0, STATIC
        FUNCALL TransmitApp_ProcessEvent, osal_msg_deallocate
        LOCFRAME ISTACK, 0, STACK
        LOCFRAME PSTACK, 0, STACK
        LOCFRAME XSTACK, 21, STACK
        LOCFRAME IOVERLAY, 0, STATIC
        LOCFRAME DOVERLAY, 0, STATIC
        ARGFRAME ISTACK, 0, STACK
        ARGFRAME PSTACK, 0, STACK
        ARGFRAME XSTACK, 21, STACK
        ARGFRAME IOVERLAY, 0, STATIC
        ARGFRAME DOVERLAY, 0, STATIC
        FUNCALL TransmitApp_ProcessEvent, osal_msg_receive
        LOCFRAME ISTACK, 0, STACK
        LOCFRAME PSTACK, 0, STACK
        LOCFRAME XSTACK, 21, STACK
        LOCFRAME IOVERLAY, 0, STATIC
        LOCFRAME DOVERLAY, 0, STATIC
        ARGFRAME ISTACK, 0, STACK
        ARGFRAME PSTACK, 0, STACK
        ARGFRAME XSTACK, 21, STACK
        ARGFRAME IOVERLAY, 0, STATIC
        ARGFRAME DOVERLAY, 0, STATIC
        FUNCALL TransmitApp_ProcessEvent, TransmitApp_ProcessZDOMsgs
        LOCFRAME ISTACK, 0, STACK
        LOCFRAME PSTACK, 0, STACK
        LOCFRAME XSTACK, 21, STACK
        LOCFRAME IOVERLAY, 0, STATIC
        LOCFRAME DOVERLAY, 0, STATIC
        ARGFRAME ISTACK, 0, STACK
        ARGFRAME PSTACK, 0, STACK
        ARGFRAME XSTACK, 21, STACK
        ARGFRAME IOVERLAY, 0, STATIC
        ARGFRAME DOVERLAY, 0, STATIC
        FUNCALL TransmitApp_ProcessEvent, TransmitApp_HandleKeys
        LOCFRAME ISTACK, 0, STACK
        LOCFRAME PSTACK, 0, STACK
        LOCFRAME XSTACK, 21, STACK
        LOCFRAME IOVERLAY, 0, STATIC
        LOCFRAME DOVERLAY, 0, STATIC
        ARGFRAME ISTACK, 0, STACK
        ARGFRAME PSTACK, 0, STACK
        ARGFRAME XSTACK, 21, STACK
        ARGFRAME IOVERLAY, 0, STATIC
        ARGFRAME DOVERLAY, 0, STATIC
        FUNCALL TransmitApp_ProcessEvent, TransmitApp_SendTheMessage
        LOCFRAME ISTACK, 0, STACK
        LOCFRAME PSTACK, 0, STACK
        LOCFRAME XSTACK, 21, STACK
        LOCFRAME IOVERLAY, 0, STATIC
        LOCFRAME DOVERLAY, 0, STATIC
        ARGFRAME ISTACK, 0, STACK
        ARGFRAME PSTACK, 0, STACK
        ARGFRAME XSTACK, 21, STACK
        ARGFRAME IOVERLAY, 0, STATIC
        ARGFRAME DOVERLAY, 0, STATIC
        FUNCALL TransmitApp_ProcessEvent, ZDP_MatchDescReq
        LOCFRAME ISTACK, 0, STACK
        LOCFRAME PSTACK, 0, STACK
        LOCFRAME XSTACK, 29, STACK
        LOCFRAME IOVERLAY, 0, STATIC
        LOCFRAME DOVERLAY, 0, STATIC
        ARGFRAME ISTACK, 0, STACK
        ARGFRAME PSTACK, 0, STACK
        ARGFRAME XSTACK, 29, STACK
        ARGFRAME IOVERLAY, 0, STATIC
        ARGFRAME DOVERLAY, 0, STATIC
        MOV     A,#-0xc
        LCALL   ?BANKED_ENTER_XDATA
        CFI DPH0 load(1, XDATA, add(CFA_XSP16, literal(-1)))
        CFI DPL0 load(1, XDATA, add(CFA_XSP16, literal(-2)))
        CFI ?BRET_EXT load(1, XDATA, add(CFA_XSP16, literal(-3)))
        CFI ?RET_HIGH load(1, XDATA, add(CFA_XSP16, literal(-4)))
        CFI ?RET_LOW load(1, XDATA, add(CFA_XSP16, literal(-5)))
        CFI R7 load(1, XDATA, add(CFA_XSP16, literal(-6)))
        CFI V3 load(1, XDATA, add(CFA_XSP16, literal(-7)))
        CFI V2 load(1, XDATA, add(CFA_XSP16, literal(-8)))
        CFI V1 load(1, XDATA, add(CFA_XSP16, literal(-9)))
        CFI V0 load(1, XDATA, add(CFA_XSP16, literal(-10)))
        CFI VB load(1, XDATA, add(CFA_XSP16, literal(-11)))
        CFI R6 load(1, XDATA, add(CFA_XSP16, literal(-12)))
        CFI CFA_SP SP+0
        CFI CFA_XSP16 add(XSP16, 12)
        ; Saved register size: 12
        ; Auto size: 9
        MOV     A,#-0x9
        LCALL   ?ALLOC_XSTACK8
        CFI CFA_XSP16 add(XSP16, 21)
        MOV     ?V0 + 0,R2
        MOV     ?V0 + 1,R3
//  295   afIncomingMSGPacket_t *MSGpkt;
//  296   afDataConfirm_t *afDataConfirm;
//  297   (void)task_id;  // Intentionally unreferenced parameter
//  298 
//  299   // Data Confirmation message fields
//  300   ZStatus_t sentStatus;
//  301   byte sentEP;
//  302 
//  303   if ( events & SYS_EVENT_MSG )
        MOV     A,R3
        ANL     A,#0x80
        JZ      ??TransmitApp_ProcessEvent_0
//  304   {
//  305     MSGpkt = (afIncomingMSGPacket_t *)osal_msg_receive( TransmitApp_TaskID );
        ; Setup parameters for call to function osal_msg_receive
        SJMP    ??TransmitApp_ProcessEvent_1
//  306     while ( MSGpkt )
//  307     {
//  308       switch ( MSGpkt->hdr.event )
//  309       {
//  310         case ZDO_CB_MSG:
//  311           TransmitApp_ProcessZDOMsgs( (zdoIncomingMsg_t *)MSGpkt );
//  312           break;
//  313 
//  314         case KEY_CHANGE:
//  315           TransmitApp_HandleKeys( ((keyChange_t *)MSGpkt)->state, ((keyChange_t *)MSGpkt)->keys );
//  316           break;
//  317 
//  318         case AF_DATA_CONFIRM_CMD:
//  319           // This message is received as a confirmation of a data packet sent.
//  320           // The status is of ZStatus_t type [defined in ZComDef.h]
//  321           // The message fields are defined in AF.h
//  322           afDataConfirm = (afDataConfirm_t *)MSGpkt;
//  323           sentEP = afDataConfirm->endpoint;
//  324           sentStatus = afDataConfirm->hdr.status;
//  325           break;
//  326 
//  327         case AF_INCOMING_MSG_CMD:
//  328           TransmitApp_MessageMSGCB( MSGpkt );
??TransmitApp_ProcessEvent_2:
        ; Setup parameters for call to function TransmitApp_MessageMSGCB
        MOV     A,R6
        MOV     R2,A
        MOV     A,R7
        MOV     R3,A
        LCALL   ??TransmitApp_MessageMSGCB?relay
//  329           break;
//  330 
//  331         case ZDO_STATE_CHANGE:
//  332           break;
//  333 
//  334         default:
//  335           break;
//  336       }
//  337 
//  338       // Release the memory
//  339       osal_msg_deallocate( (uint8 *)MSGpkt );
??TransmitApp_ProcessEvent_3:
        ; Setup parameters for call to function osal_msg_deallocate
        MOV     A,R6
        MOV     R2,A
        MOV     A,R7
        MOV     R3,A
        LCALL   ??osal_msg_deallocate?relay
//  340 
//  341       // Next
//  342       MSGpkt = (afIncomingMSGPacket_t *)osal_msg_receive( TransmitApp_TaskID );
        ; Setup parameters for call to function osal_msg_receive
??TransmitApp_ProcessEvent_1:
        MOV     DPTR,#TransmitApp_TaskID
        MOVX    A,@DPTR
        MOV     R1,A
        LCALL   ??osal_msg_receive?relay
        MOV     ?V0 + 2,R2
        MOV     ?V0 + 3,R3
        MOV     R6,?V0 + 2
        MOV     R7,?V0 + 3
        MOV     A,R6
        ORL     A,R7
        JZ      ??TransmitApp_ProcessEvent_4
        MOV     DPL,R6
        MOV     DPH,R7
        MOVX    A,@DPTR
        ADD     A,#-0x1a
        JZ      ??TransmitApp_ProcessEvent_2
        ADD     A,#0x5a
        JZ      ??TransmitApp_ProcessEvent_5
        ADD     A,#-0x13
        JNZ     ??TransmitApp_ProcessEvent_3
        ; Setup parameters for call to function TransmitApp_ProcessZDOMsgs
        MOV     A,R6
        MOV     R2,A
        MOV     A,R7
        MOV     R3,A
        LCALL   ??TransmitApp_ProcessZDOMsgs?relay
        SJMP    ??TransmitApp_ProcessEvent_3
??TransmitApp_ProcessEvent_5:
        ; Setup parameters for call to function TransmitApp_HandleKeys
        INC     DPTR
        INC     DPTR
        INC     DPTR
        MOVX    A,@DPTR
        MOV     R2,A
        MOV     DPL,R6
        MOV     DPH,R7
        INC     DPTR
        INC     DPTR
        MOVX    A,@DPTR
        MOV     R1,A
        LCALL   ??TransmitApp_HandleKeys?relay
        SJMP    ??TransmitApp_ProcessEvent_3
//  343     }
//  344 
//  345     // Squash compiler warnings until values are used.
//  346     (void)sentStatus;
//  347     (void)sentEP;
//  348 
//  349     // Return unprocessed events
//  350     return (events ^ SYS_EVENT_MSG);
??TransmitApp_ProcessEvent_4:
        MOV     R2,?V0 + 0
        MOV     A,?V0 + 1
        XRL     A,#0x80
        MOV     R3,A
        SJMP    ??TransmitApp_ProcessEvent_6
//  351   }
//  352 
//  353   // Send a message out
//  354   if ( events & TRANSMITAPP_SEND_MSG_EVT )
??TransmitApp_ProcessEvent_0:
        MOV     A,R2
        MOV     C,0xE0 /* A   */.0
        JNC     ??TransmitApp_ProcessEvent_7
//  355   {
//  356       TransmitApp_SendTheMessage();
        ; Setup parameters for call to function TransmitApp_SendTheMessage
        LCALL   ??TransmitApp_SendTheMessage?relay
//  357 
//  358     // Return unprocessed events
//  359     return (events ^ TRANSMITAPP_SEND_MSG_EVT);
        MOV     A,?V0 + 0
        XRL     A,#0x1
??TransmitApp_ProcessEvent_8:
        MOV     R2,A
        MOV     R3,?V0 + 1
        SJMP    ??TransmitApp_ProcessEvent_6
//  360   }
//  361   
//  362   // 描述匹配事件
//  363   if ( events & TRANSMITAPP_MATCHRSP_EVT )
??TransmitApp_ProcessEvent_7:
        ANL     A,#0x8
        JZ      ??TransmitApp_ProcessEvent_9
//  364   {
//  365      zAddrType_t dstAddr;
//  366      dstAddr.addrMode = AddrBroadcast;
        MOV     A,#0x8
        LCALL   ?XSTACK_DISP0_8
        MOV     A,#0xf
        MOVX    @DPTR,A
//  367      dstAddr.addr.shortAddr = NWK_BROADCAST_SHORTADDR;
        MOV     DPL,?XSP + 0
        MOV     DPH,?XSP + 1
        MOV     A,#-0x1
        MOVX    @DPTR,A
        INC     DPTR
        MOVX    @DPTR,A
//  368 
//  369      ZDP_MatchDescReq( &dstAddr, 
//  370                         NWK_BROADCAST_SHORTADDR,
//  371                         TRANSMITAPP_PROFID,
//  372                         TRANSMITAPP_MAX_OUTCLUSTERS, 
//  373                         (cId_t *)TransmitApp_OutClusterList,
//  374                         TRANSMITAPP_MAX_INCLUSTERS, 
//  375                         (cId_t *)TransmitApp_InClusterList,
//  376                         FALSE );
        ; Setup parameters for call to function ZDP_MatchDescReq
        MOV     ?V0 + 2,#0x0
        MOV     R0,#?V0 + 2
        LCALL   ?PUSH_XSTACK_I_ONE
        CFI CFA_XSP16 add(XSP16, 22)
        MOV     ?V0 + 2,#TransmitApp_InClusterList & 0xff
        MOV     ?V0 + 3,#(TransmitApp_InClusterList >> 8) & 0xff
        MOV     R0,#?V0 + 2
        LCALL   ?PUSH_XSTACK_I_TWO
        CFI CFA_XSP16 add(XSP16, 24)
        MOV     ?V0 + 2,#0x8
        MOV     R0,#?V0 + 2
        LCALL   ?PUSH_XSTACK_I_ONE
        CFI CFA_XSP16 add(XSP16, 25)
        MOV     ?V0 + 2,#TransmitApp_OutClusterList & 0xff
        MOV     ?V0 + 3,#(TransmitApp_OutClusterList >> 8) & 0xff
        MOV     R0,#?V0 + 2
        LCALL   ?PUSH_XSTACK_I_TWO
        CFI CFA_XSP16 add(XSP16, 27)
        MOV     ?V0 + 2,#0x5
        MOV     ?V0 + 3,#0xf
        MOV     R0,#?V0 + 2
        LCALL   ?PUSH_XSTACK_I_TWO
        CFI CFA_XSP16 add(XSP16, 29)
        MOV     R1,#0x3
        MOV     R4,#-0x1
        MOV     R5,#-0x1
        MOV     A,#0x8
        LCALL   ?XSTACK_DISP0_8
        MOV     R2,DPL
        MOV     R3,DPH
        LCALL   ??ZDP_MatchDescReq?relay
        MOV     A,#0x8
        LCALL   ?DEALLOC_XSTACK8
        CFI CFA_XSP16 add(XSP16, 21)
//  377 
//  378     // Return unprocessed events
//  379     return (events ^ TRANSMITAPP_MATCHRSP_EVT);
        MOV     A,?V0 + 0
        XRL     A,#0x8
        SJMP    ??TransmitApp_ProcessEvent_8
//  380   }
//  381 
//  382   // Discard unknown events
//  383   return 0;
??TransmitApp_ProcessEvent_9:
        MOV     R2,#0x0
        MOV     R3,#0x0
??TransmitApp_ProcessEvent_6:
        MOV     A,#0x9
        LCALL   ?DEALLOC_XSTACK8
        CFI CFA_XSP16 add(XSP16, 12)
        MOV     R7,#0x4
        LJMP    ?BANKED_LEAVE_XDATA
        CFI EndBlock cfiBlock2
//  384 }
//  385 
//  386 /*******************************************************************************
//  387  * @fn      TransmitApp_ProcessZDOMsgs()
//  388  *
//  389  * @brief   Process response messages
//  390  *
//  391  * @param   none
//  392  *
//  393  * @return  none
//  394  */

        RSEG BANKED_CODE:CODE:NOROOT(0)
//  395 void TransmitApp_ProcessZDOMsgs( zdoIncomingMsg_t *inMsg )
TransmitApp_ProcessZDOMsgs:
        CFI Block cfiBlock3 Using cfiCommon0
        CFI Function TransmitApp_ProcessZDOMsgs
        CODE
//  396 {
        FUNCALL TransmitApp_ProcessZDOMsgs, HalUARTWrite
        LOCFRAME ISTACK, 0, STACK
        LOCFRAME PSTACK, 0, STACK
        LOCFRAME XSTACK, 10, STACK
        LOCFRAME IOVERLAY, 0, STATIC
        LOCFRAME DOVERLAY, 0, STATIC
        ARGFRAME ISTACK, 0, STACK
        ARGFRAME PSTACK, 0, STACK
        ARGFRAME XSTACK, 10, STACK
        ARGFRAME IOVERLAY, 0, STATIC
        ARGFRAME DOVERLAY, 0, STATIC
        FUNCALL TransmitApp_ProcessZDOMsgs, ZDO_ParseEPListRsp
        LOCFRAME ISTACK, 0, STACK
        LOCFRAME PSTACK, 0, STACK
        LOCFRAME XSTACK, 10, STACK
        LOCFRAME IOVERLAY, 0, STATIC
        LOCFRAME DOVERLAY, 0, STATIC
        ARGFRAME ISTACK, 0, STACK
        ARGFRAME PSTACK, 0, STACK
        ARGFRAME XSTACK, 10, STACK
        ARGFRAME IOVERLAY, 0, STATIC
        ARGFRAME DOVERLAY, 0, STATIC
        FUNCALL TransmitApp_ProcessZDOMsgs, osal_stop_timerEx
        LOCFRAME ISTACK, 0, STACK
        LOCFRAME PSTACK, 0, STACK
        LOCFRAME XSTACK, 10, STACK
        LOCFRAME IOVERLAY, 0, STATIC
        LOCFRAME DOVERLAY, 0, STATIC
        ARGFRAME ISTACK, 0, STACK
        ARGFRAME PSTACK, 0, STACK
        ARGFRAME XSTACK, 10, STACK
        ARGFRAME IOVERLAY, 0, STATIC
        ARGFRAME DOVERLAY, 0, STATIC
        FUNCALL TransmitApp_ProcessZDOMsgs, HalUARTWrite
        LOCFRAME ISTACK, 0, STACK
        LOCFRAME PSTACK, 0, STACK
        LOCFRAME XSTACK, 10, STACK
        LOCFRAME IOVERLAY, 0, STATIC
        LOCFRAME DOVERLAY, 0, STATIC
        ARGFRAME ISTACK, 0, STACK
        ARGFRAME PSTACK, 0, STACK
        ARGFRAME XSTACK, 10, STACK
        ARGFRAME IOVERLAY, 0, STATIC
        ARGFRAME DOVERLAY, 0, STATIC
        FUNCALL TransmitApp_ProcessZDOMsgs, osal_start_reload_timer
        LOCFRAME ISTACK, 0, STACK
        LOCFRAME PSTACK, 0, STACK
        LOCFRAME XSTACK, 10, STACK
        LOCFRAME IOVERLAY, 0, STATIC
        LOCFRAME DOVERLAY, 0, STATIC
        ARGFRAME ISTACK, 0, STACK
        ARGFRAME PSTACK, 0, STACK
        ARGFRAME XSTACK, 10, STACK
        ARGFRAME IOVERLAY, 0, STATIC
        ARGFRAME DOVERLAY, 0, STATIC
        FUNCALL TransmitApp_ProcessZDOMsgs, osal_mem_free
        LOCFRAME ISTACK, 0, STACK
        LOCFRAME PSTACK, 0, STACK
        LOCFRAME XSTACK, 10, STACK
        LOCFRAME IOVERLAY, 0, STATIC
        LOCFRAME DOVERLAY, 0, STATIC
        ARGFRAME ISTACK, 0, STACK
        ARGFRAME PSTACK, 0, STACK
        ARGFRAME XSTACK, 10, STACK
        ARGFRAME IOVERLAY, 0, STATIC
        ARGFRAME DOVERLAY, 0, STATIC
        MOV     A,#-0xa
        LCALL   ?BANKED_ENTER_XDATA
        CFI DPH0 load(1, XDATA, add(CFA_XSP16, literal(-1)))
        CFI DPL0 load(1, XDATA, add(CFA_XSP16, literal(-2)))
        CFI ?BRET_EXT load(1, XDATA, add(CFA_XSP16, literal(-3)))
        CFI ?RET_HIGH load(1, XDATA, add(CFA_XSP16, literal(-4)))
        CFI ?RET_LOW load(1, XDATA, add(CFA_XSP16, literal(-5)))
        CFI R7 load(1, XDATA, add(CFA_XSP16, literal(-6)))
        CFI V1 load(1, XDATA, add(CFA_XSP16, literal(-7)))
        CFI V0 load(1, XDATA, add(CFA_XSP16, literal(-8)))
        CFI VB load(1, XDATA, add(CFA_XSP16, literal(-9)))
        CFI R6 load(1, XDATA, add(CFA_XSP16, literal(-10)))
        CFI CFA_SP SP+0
        CFI CFA_XSP16 add(XSP16, 10)
        ; Saved register size: 10
        ; Auto size: 0
//  397   switch ( inMsg->clusterID )
        MOV     A,R2
        ADD     A,#0xc
        MOV     DPL,A
        MOV     A,R3
        ADDC    A,#0x0
        MOV     DPH,A
        MOVX    A,@DPTR
        MOV     ?V0 + 0,A
        INC     DPTR
        MOVX    A,@DPTR
        MOV     ?V0 + 1,A
        MOV     R0,#?V0 + 0
        LCALL   ?US_SWITCH_SPARSE
`?<Jumptable for TransmitApp_ProcessZDOMsgs>_0`:
        DATA
        DATA16
        DATA
        DATA16
        DATA
        DATA16
        DW        0
        DATA
        DATA16
        DATA
        DATA16
        DATA
        DATA16
        DW        2
        DATA
        DATA16
        DATA
        DATA16
        DATA
        DATA16
        DW        32774
        DATA
        DATA16
        DATA
        DATA16
        DATA
        DATA16
        DW        ??TransmitApp_ProcessZDOMsgs_0
        DATA
        DATA16
        DATA
        DATA16
        DATA
        DATA16
        DW        32800
        DATA
        DATA16
        DATA
        DATA16
        DATA
        DATA16
        DW        ??TransmitApp_ProcessZDOMsgs_1
        DATA
        DATA16
        DATA
        DATA16
        DW        ??TransmitApp_ProcessZDOMsgs_2
        CODE
//  398   {
//  399     case End_Device_Bind_rsp:
//  400       if ( ZDO_ParseBindRsp( inMsg ) == ZSuccess )
??TransmitApp_ProcessZDOMsgs_1:
        MOV     A,R2
        ADD     A,#0x13
        MOV     DPL,A
        MOV     A,R3
        ADDC    A,#0x0
        MOV     DPH,A
        LCALL   ?Subroutine2 & 0xFFFF
??CrossCallReturnLabel_0:
        MOVX    A,@DPTR
        JZ      $+5
        LJMP    ??TransmitApp_ProcessZDOMsgs_2 & 0xFFFF
//  401       {
//  402 #if HAL_UART==TRUE
//  403         HalUARTWrite(HAL_UART_PORT_0, "Bind Success!\n",   strlen("Bind Success!\n"));
        ; Setup parameters for call to function HalUARTWrite
        MOV     R4,#0xe
        MOV     R5,#0x0
        MOV     R2,#`?<Constant "Bind Success!\\n">` & 0xff
        MOV     R3,#(`?<Constant "Bind Success!\\n">` >> 8) & 0xff
        MOV     R1,#0x0
        LCALL   ??HalUARTWrite?relay
        SJMP    ??TransmitApp_ProcessZDOMsgs_2
//  404 #endif
//  405       }
//  406       break;
//  407 
//  408     case Match_Desc_rsp:
//  409       ZDO_ActiveEndpointRsp_t *pRsp = ZDO_ParseEPListRsp( inMsg );
??TransmitApp_ProcessZDOMsgs_0:
        ; Setup parameters for call to function ZDO_ParseEPListRsp
        LCALL   ??ZDO_ParseEPListRsp?relay
        MOV     ?V0 + 0,R2
        MOV     ?V0 + 1,R3
        MOV     R6,?V0 + 0
        MOV     R7,?V0 + 1
//  410       if ( pRsp )
        MOV     A,R6
        ORL     A,R7
        JZ      ??TransmitApp_ProcessZDOMsgs_2
//  411       {
//  412         if ( pRsp->status == ZSuccess && pRsp->cnt )
        MOV     DPL,R6
        MOV     DPH,R7
        MOVX    A,@DPTR
        JNZ     ??TransmitApp_ProcessZDOMsgs_3
        INC     DPTR
        INC     DPTR
        INC     DPTR
        MOVX    A,@DPTR
        JZ      ??TransmitApp_ProcessZDOMsgs_3
//  413         {
//  414           // 此处存储绑定对方的地址信息用于发送
//  415           TransmitApp_DstAddr.addrMode = (afAddrMode_t)Addr16Bit;
        MOV     DPTR,#TransmitApp_DstAddr + 8
        MOV     A,#0x2
        MOVX    @DPTR,A
//  416           TransmitApp_DstAddr.addr.shortAddr = pRsp->nwkAddr;
        MOV     DPL,R6
        MOV     DPH,R7
        INC     DPTR
        MOVX    A,@DPTR
        MOV     R0,A
        INC     DPTR
        MOVX    A,@DPTR
        MOV     R1,A
        MOV     DPTR,#TransmitApp_DstAddr
        MOV     A,R0
        MOVX    @DPTR,A
        INC     DPTR
        MOV     A,R1
        MOVX    @DPTR,A
//  417           // Take the first endpoint, Can be changed to search through endpoints
//  418           TransmitApp_DstAddr.endPoint = pRsp->epList[0];
        MOV     DPL,R6
        MOV     DPH,R7
        INC     DPTR
        INC     DPTR
        INC     DPTR
        INC     DPTR
        MOVX    A,@DPTR
        MOV     DPTR,#TransmitApp_DstAddr + 9
        MOVX    @DPTR,A
//  419           //TransmitApp_DstAddr.endPoint = 2;
//  420           
//  421           // 匹配成功，关闭描述符匹配事件定时器
//  422           osal_stop_timerEx( TransmitApp_TaskID, TRANSMITAPP_MATCHRSP_EVT );
        ; Setup parameters for call to function osal_stop_timerEx
        MOV     R2,#0x8
        MOV     R3,#0x0
        MOV     DPTR,#TransmitApp_TaskID
        MOVX    A,@DPTR
        MOV     R1,A
        LCALL   ??osal_stop_timerEx?relay
//  423           
//  424 #if HAL_UART==TRUE
//  425           HalUARTWrite(HAL_UART_PORT_0, "Match Success!\n",   strlen("Match Success!\n"));
        ; Setup parameters for call to function HalUARTWrite
        MOV     R4,#0xf
        MOV     R5,#0x0
        MOV     R2,#`?<Constant "Match Success!\\n">` & 0xff
        MOV     R3,#(`?<Constant "Match Success!\\n">` >> 8) & 0xff
        MOV     R1,#0x0
        LCALL   ??HalUARTWrite?relay
//  426 #endif
//  427           // 开启定时发送数据给协调器的事件
//  428           osal_start_reload_timer( TransmitApp_TaskID, TRANSMITAPP_SEND_MSG_EVT, 
//  429                                    TRANSMITAPP_SEND_DELAY );
        ; Setup parameters for call to function osal_start_reload_timer
        MOV     R4,#-0x18
        MOV     R5,#0x3
        MOV     R2,#0x1
        MOV     R3,#0x0
        MOV     DPTR,#TransmitApp_TaskID
        MOVX    A,@DPTR
        MOV     R1,A
        LCALL   ??osal_start_reload_timer?relay
//  430         }
//  431         osal_mem_free( pRsp );
??TransmitApp_ProcessZDOMsgs_3:
        ; Setup parameters for call to function osal_mem_free
        MOV     A,R6
        MOV     R2,A
        MOV     A,R7
        MOV     R3,A
        LCALL   ??osal_mem_free?relay
        CFI EndBlock cfiBlock3
//  432       }
//  433       break;
//  434 
//  435     default:
//  436       break;
//  437   }
//  438 }
??TransmitApp_ProcessZDOMsgs_2:
        REQUIRE ?Subroutine1
        ; // Fall through to label ?Subroutine1

        RSEG BANKED_CODE:CODE:NOROOT(0)
?Subroutine1:
        CFI Block cfiBlock4 Using cfiCommon0
        CFI NoFunction
        CFI CFA_SP SP+0
        CFI CFA_XSP16 add(XSP16, 10)
        CFI VB load(1, XDATA, add(CFA_XSP16, literal(-9)))
        CFI DPL0 load(1, XDATA, add(CFA_XSP16, literal(-2)))
        CFI DPH0 load(1, XDATA, add(CFA_XSP16, literal(-1)))
        CFI R6 load(1, XDATA, add(CFA_XSP16, literal(-10)))
        CFI R7 load(1, XDATA, add(CFA_XSP16, literal(-6)))
        CFI V0 load(1, XDATA, add(CFA_XSP16, literal(-8)))
        CFI V1 load(1, XDATA, add(CFA_XSP16, literal(-7)))
        CFI ?BRET_EXT load(1, XDATA, add(CFA_XSP16, literal(-3)))
        CFI ?RET_HIGH load(1, XDATA, add(CFA_XSP16, literal(-4)))
        CFI ?RET_LOW load(1, XDATA, add(CFA_XSP16, literal(-5)))
        MOV     R7,#0x2
        LJMP    ?BANKED_LEAVE_XDATA
        CFI EndBlock cfiBlock4
//  439 
//  440 /*******************************************************************************
//  441  * @fn      TransmitApp_HandleKeys
//  442  *
//  443  * @brief   按键控制直流电机的状态，有正转和反转，停止，以及速度控制。
//  444  *          这里的按键控制主要用于离线状态的直流电机测试。
//  445  *
//  446  *
//  447  * @return  none
//  448  */

        RSEG BANKED_CODE:CODE:NOROOT(0)
//  449 void TransmitApp_HandleKeys( byte shift, byte keys )
TransmitApp_HandleKeys:
        CFI Block cfiBlock5 Using cfiCommon0
        CFI Function TransmitApp_HandleKeys
        CODE
//  450 {
        FUNCALL TransmitApp_HandleKeys, HalMotorCtl
        LOCFRAME ISTACK, 0, STACK
        LOCFRAME PSTACK, 0, STACK
        LOCFRAME XSTACK, 9, STACK
        LOCFRAME IOVERLAY, 0, STATIC
        LOCFRAME DOVERLAY, 0, STATIC
        ARGFRAME ISTACK, 0, STACK
        ARGFRAME PSTACK, 0, STACK
        ARGFRAME XSTACK, 9, STACK
        ARGFRAME IOVERLAY, 0, STATIC
        ARGFRAME DOVERLAY, 0, STATIC
        FUNCALL TransmitApp_HandleKeys, HalMotorCtl
        LOCFRAME ISTACK, 0, STACK
        LOCFRAME PSTACK, 0, STACK
        LOCFRAME XSTACK, 9, STACK
        LOCFRAME IOVERLAY, 0, STATIC
        LOCFRAME DOVERLAY, 0, STATIC
        ARGFRAME ISTACK, 0, STACK
        ARGFRAME PSTACK, 0, STACK
        ARGFRAME XSTACK, 9, STACK
        ARGFRAME IOVERLAY, 0, STATIC
        ARGFRAME DOVERLAY, 0, STATIC
        FUNCALL TransmitApp_HandleKeys, HalMotorCtl
        LOCFRAME ISTACK, 0, STACK
        LOCFRAME PSTACK, 0, STACK
        LOCFRAME XSTACK, 9, STACK
        LOCFRAME IOVERLAY, 0, STATIC
        LOCFRAME DOVERLAY, 0, STATIC
        ARGFRAME ISTACK, 0, STACK
        ARGFRAME PSTACK, 0, STACK
        ARGFRAME XSTACK, 9, STACK
        ARGFRAME IOVERLAY, 0, STATIC
        ARGFRAME DOVERLAY, 0, STATIC
        FUNCALL TransmitApp_HandleKeys, HalMotorCtl
        LOCFRAME ISTACK, 0, STACK
        LOCFRAME PSTACK, 0, STACK
        LOCFRAME XSTACK, 9, STACK
        LOCFRAME IOVERLAY, 0, STATIC
        LOCFRAME DOVERLAY, 0, STATIC
        ARGFRAME ISTACK, 0, STACK
        ARGFRAME PSTACK, 0, STACK
        ARGFRAME XSTACK, 9, STACK
        ARGFRAME IOVERLAY, 0, STATIC
        ARGFRAME DOVERLAY, 0, STATIC
        FUNCALL TransmitApp_HandleKeys, HalMotorCtl
        LOCFRAME ISTACK, 0, STACK
        LOCFRAME PSTACK, 0, STACK
        LOCFRAME XSTACK, 9, STACK
        LOCFRAME IOVERLAY, 0, STATIC
        LOCFRAME DOVERLAY, 0, STATIC
        ARGFRAME ISTACK, 0, STACK
        ARGFRAME PSTACK, 0, STACK
        ARGFRAME XSTACK, 9, STACK
        ARGFRAME IOVERLAY, 0, STATIC
        ARGFRAME DOVERLAY, 0, STATIC
        FUNCALL TransmitApp_HandleKeys, HalMotorCtl
        LOCFRAME ISTACK, 0, STACK
        LOCFRAME PSTACK, 0, STACK
        LOCFRAME XSTACK, 9, STACK
        LOCFRAME IOVERLAY, 0, STATIC
        LOCFRAME DOVERLAY, 0, STATIC
        ARGFRAME ISTACK, 0, STACK
        ARGFRAME PSTACK, 0, STACK
        ARGFRAME XSTACK, 9, STACK
        ARGFRAME IOVERLAY, 0, STATIC
        ARGFRAME DOVERLAY, 0, STATIC
        FUNCALL TransmitApp_HandleKeys, HalMotorCtl
        LOCFRAME ISTACK, 0, STACK
        LOCFRAME PSTACK, 0, STACK
        LOCFRAME XSTACK, 9, STACK
        LOCFRAME IOVERLAY, 0, STATIC
        LOCFRAME DOVERLAY, 0, STATIC
        ARGFRAME ISTACK, 0, STACK
        ARGFRAME PSTACK, 0, STACK
        ARGFRAME XSTACK, 9, STACK
        ARGFRAME IOVERLAY, 0, STATIC
        ARGFRAME DOVERLAY, 0, STATIC
        MOV     A,#-0x9
        LCALL   ?BANKED_ENTER_XDATA
        CFI DPH0 load(1, XDATA, add(CFA_XSP16, literal(-1)))
        CFI DPL0 load(1, XDATA, add(CFA_XSP16, literal(-2)))
        CFI ?BRET_EXT load(1, XDATA, add(CFA_XSP16, literal(-3)))
        CFI ?RET_HIGH load(1, XDATA, add(CFA_XSP16, literal(-4)))
        CFI ?RET_LOW load(1, XDATA, add(CFA_XSP16, literal(-5)))
        CFI R7 load(1, XDATA, add(CFA_XSP16, literal(-6)))
        CFI V0 load(1, XDATA, add(CFA_XSP16, literal(-7)))
        CFI VB load(1, XDATA, add(CFA_XSP16, literal(-8)))
        CFI R6 load(1, XDATA, add(CFA_XSP16, literal(-9)))
        CFI CFA_SP SP+0
        CFI CFA_XSP16 add(XSP16, 9)
        ; Saved register size: 9
        ; Auto size: 0
        MOV     A,R2
//  451   static uint8 motorStatusCnt;
//  452     
//  453     if ( keys & HAL_KEY_SW_5 )
        MOV     C,0xE0 /* A   */.2
        JNC     ??TransmitApp_HandleKeys_0
//  454     {
//  455       motorStatusCnt++;
//  456       motorStatusCnt = motorStatusCnt % 8;
        MOV     DPTR,#??motorStatusCnt
        MOVX    A,@DPTR
        INC     A
        ANL     A,#0x7
        MOVX    @DPTR,A
//  457       switch(motorStatusCnt)
        JZ      ??TransmitApp_HandleKeys_1
        DEC     A
        JZ      ??TransmitApp_HandleKeys_2
        DEC     A
        JZ      ??TransmitApp_HandleKeys_3
        DEC     A
        JZ      ??TransmitApp_HandleKeys_4
        DEC     A
        JZ      ??TransmitApp_HandleKeys_1
        DEC     A
        JZ      ??TransmitApp_HandleKeys_5
        DEC     A
        JZ      ??TransmitApp_HandleKeys_6
        DEC     A
        JZ      ??TransmitApp_HandleKeys_7
        SJMP    ??TransmitApp_HandleKeys_0
//  458       {
//  459         case 0:  
//  460           HalMotorCtl(HAL_MOTOR_STOP, 0);       // 电机停止
??TransmitApp_HandleKeys_1:
        ; Setup parameters for call to function HalMotorCtl
        MOV     R2,#0x0
        MOV     R1,#0x1
        SJMP    ??TransmitApp_HandleKeys_8
//  461           break;
//  462         case 1: 
//  463           HalMotorCtl(HAL_MOTOR_FORWORD, 10);   // 电机正转，转速10转/秒
??TransmitApp_HandleKeys_2:
        ; Setup parameters for call to function HalMotorCtl
        MOV     R2,#0xa
??TransmitApp_HandleKeys_9:
        MOV     R1,#0x2
        SJMP    ??TransmitApp_HandleKeys_8
//  464           break;
//  465         case 2: 
//  466           HalMotorCtl(HAL_MOTOR_FORWORD, 30);   // 电机正转，转速30转/秒
??TransmitApp_HandleKeys_3:
        ; Setup parameters for call to function HalMotorCtl
        MOV     R2,#0x1e
        SJMP    ??TransmitApp_HandleKeys_9
//  467           break;
//  468         case 3: 
//  469           HalMotorCtl(HAL_MOTOR_FORWORD, 50);   // 电机正转，转速50转/秒
??TransmitApp_HandleKeys_4:
        ; Setup parameters for call to function HalMotorCtl
        MOV     R2,#0x32
        SJMP    ??TransmitApp_HandleKeys_9
//  470           break;
//  471         case 4: 
//  472           HalMotorCtl(HAL_MOTOR_STOP, 0);       // 电机停止
//  473           break;
//  474         case 5: 
//  475           HalMotorCtl(HAL_MOTOR_BACKWORD, 10);  // 电机反转，转速10转/秒
??TransmitApp_HandleKeys_5:
        ; Setup parameters for call to function HalMotorCtl
        MOV     R2,#0xa
        SJMP    ??TransmitApp_HandleKeys_10
//  476           break;
//  477         case 6: 
//  478           HalMotorCtl(HAL_MOTOR_BACKWORD, 30);  // 电机反转，转速30转/分钟
??TransmitApp_HandleKeys_6:
        ; Setup parameters for call to function HalMotorCtl
        MOV     R2,#0x1e
        SJMP    ??TransmitApp_HandleKeys_10
//  479           break;
//  480         case 7: 
//  481           HalMotorCtl(HAL_MOTOR_BACKWORD, 50);  // 电机反转，转速50转/分钟
??TransmitApp_HandleKeys_7:
        ; Setup parameters for call to function HalMotorCtl
        MOV     R2,#0x32
??TransmitApp_HandleKeys_10:
        MOV     R1,#0x3
??TransmitApp_HandleKeys_8:
        LCALL   ??HalMotorCtl?relay
//  482           break;
//  483         default:
//  484           break;
//  485       }
//  486     }
//  487 }
??TransmitApp_HandleKeys_0:
        LJMP    ?Subroutine0 & 0xFFFF
        CFI EndBlock cfiBlock5

        RSEG XDATA_Z:XDATA:NOROOT(0)
        DATA8
??motorStatusCnt:
        DS 1
        REQUIRE __INIT_XDATA_Z
//  488 
//  489 /*******************************************************************************
//  490  * @fn      TransmitApp_MessageMSGCB
//  491  *
//  492  * @brief   Data message processor callback.  This function processes
//  493  *          any incoming data - probably from other devices.  So, based
//  494  *          on cluster ID, perform the intended action.
//  495  *
//  496  * @param   none
//  497  *
//  498  * @return  none
//  499  */

        RSEG BANKED_CODE:CODE:NOROOT(0)
//  500 void TransmitApp_MessageMSGCB( afIncomingMSGPacket_t *pkt )
TransmitApp_MessageMSGCB:
        CFI Block cfiBlock6 Using cfiCommon0
        CFI Function TransmitApp_MessageMSGCB
        CODE
//  501 {
        FUNCALL TransmitApp_MessageMSGCB, HalUARTWrite
        LOCFRAME ISTACK, 2, STACK
        LOCFRAME PSTACK, 0, STACK
        LOCFRAME XSTACK, 2, STACK
        LOCFRAME IOVERLAY, 0, STATIC
        LOCFRAME DOVERLAY, 0, STATIC
        ARGFRAME ISTACK, 2, STACK
        ARGFRAME PSTACK, 0, STACK
        ARGFRAME XSTACK, 2, STACK
        ARGFRAME IOVERLAY, 0, STATIC
        ARGFRAME DOVERLAY, 0, STATIC
        FUNCALL TransmitApp_MessageMSGCB, HalUARTWrite
        LOCFRAME ISTACK, 2, STACK
        LOCFRAME PSTACK, 0, STACK
        LOCFRAME XSTACK, 2, STACK
        LOCFRAME IOVERLAY, 0, STATIC
        LOCFRAME DOVERLAY, 0, STATIC
        ARGFRAME ISTACK, 2, STACK
        ARGFRAME PSTACK, 0, STACK
        ARGFRAME XSTACK, 2, STACK
        ARGFRAME IOVERLAY, 0, STATIC
        ARGFRAME DOVERLAY, 0, STATIC
        FUNCALL TransmitApp_MessageMSGCB, HalMotorCtl
        LOCFRAME ISTACK, 2, STACK
        LOCFRAME PSTACK, 0, STACK
        LOCFRAME XSTACK, 2, STACK
        LOCFRAME IOVERLAY, 0, STATIC
        LOCFRAME DOVERLAY, 0, STATIC
        ARGFRAME ISTACK, 2, STACK
        ARGFRAME PSTACK, 0, STACK
        ARGFRAME XSTACK, 2, STACK
        ARGFRAME IOVERLAY, 0, STATIC
        ARGFRAME DOVERLAY, 0, STATIC
        PUSH    DPL
        CFI DPL0 Frame(CFA_SP, 4)
        CFI CFA_SP SP+-4
        PUSH    DPH
        CFI DPH0 Frame(CFA_SP, 5)
        CFI CFA_SP SP+-5
        ; Saved register size: 2
        ; Auto size: 2
        MOV     A,#-0x2
        LCALL   ?ALLOC_XSTACK8
        CFI CFA_XSP16 add(XSP16, 2)
//  502   uint8 motorCtl, speed;
//  503   
//  504   switch ( pkt->clusterId )
        MOV     DPL,R2
        MOV     DPH,R3
        INC     DPTR
        INC     DPTR
        INC     DPTR
        INC     DPTR
        MOVX    A,@DPTR
        XRL     A,#0xb
        JNZ     ??TransmitApp_MessageMSGCB_0
        INC     DPTR
        MOVX    A,@DPTR
??TransmitApp_MessageMSGCB_0:
        JNZ     ??TransmitApp_MessageMSGCB_1
//  505   {
//  506     case TRANSMITAPP_CLUSTERID_MOTORCTLMSG:
//  507     {
//  508       // 收到的电机控制命令
//  509       speed = pkt->cmd.Data[4];
        MOV     A,R2
        ADD     A,#0x22
        MOV     R0,A
        MOV     A,R3
        ADDC    A,#0x0
        MOV     R1,A
        MOV     DPL,R0
        MOV     DPH,R1
        MOVX    A,@DPTR
        MOV     R2,A
        INC     DPTR
        MOVX    A,@DPTR
        MOV     DPH,A
        MOV     DPL,R2
        INC     DPTR
        INC     DPTR
        INC     DPTR
        INC     DPTR
        MOVX    A,@DPTR
        MOV     DPL,?XSP + 0
        MOV     DPH,?XSP + 1
        MOVX    @DPTR,A
//  510       motorCtl = pkt->cmd.Data[5];
        MOV     DPL,R0
        MOV     DPH,R1
        LCALL   ?Subroutine2 & 0xFFFF
??CrossCallReturnLabel_1:
        INC     DPTR
        INC     DPTR
        INC     DPTR
        INC     DPTR
        INC     DPTR
        MOVX    A,@DPTR
        PUSH    A
        CFI CFA_SP SP+-6
        MOV     A,#0x1
        LCALL   ?XSTACK_DISP0_8
        POP     A
        CFI CFA_SP SP+-5
        MOVX    @DPTR,A
//  511             
//  512      // 测试收到的命令       
//  513 #if (HAL_UART == TRUE)
//  514       HalUARTWrite(HAL_UART_PORT_0, & speed,  1);
        ; Setup parameters for call to function HalUARTWrite
        MOV     R4,#0x1
        MOV     R5,#0x0
        MOV     DPL,?XSP + 0
        MOV     DPH,?XSP + 1
        MOV     R2,DPL
        MOV     R3,DPH
        MOV     R1,#0x0
        LCALL   ??HalUARTWrite?relay
//  515       HalUARTWrite(HAL_UART_PORT_0, & motorCtl,  1);
        ; Setup parameters for call to function HalUARTWrite
        MOV     R4,#0x1
        MOV     R5,#0x0
        MOV     A,R4
        LCALL   ?XSTACK_DISP0_8
        MOV     R2,DPL
        MOV     R3,DPH
        MOV     R1,#0x0
        LCALL   ??HalUARTWrite?relay
//  516 #endif             
//  517       HalMotorCtl(motorCtl, speed);    
        ; Setup parameters for call to function HalMotorCtl
        MOV     DPL,?XSP + 0
        MOV     DPH,?XSP + 1
        MOVX    A,@DPTR
        MOV     R2,A
        MOV     A,#0x1
        LCALL   ?XSTACK_DISP0_8
        MOVX    A,@DPTR
        MOV     R1,A
        LCALL   ??HalMotorCtl?relay
//  518       break;
//  519     }
//  520   
//  521     // Could receive control messages in the future.
//  522     default:
//  523       break;
//  524   }
//  525 }
??TransmitApp_MessageMSGCB_1:
        MOV     A,#0x2
        LCALL   ?DEALLOC_XSTACK8
        CFI CFA_XSP16 XSP16+0
        POP     DPH
        CFI DPH0 SameValue
        CFI CFA_SP SP+-4
        POP     DPL
        CFI DPL0 SameValue
        CFI CFA_SP SP+-3
        LJMP    ?BRET
        CFI EndBlock cfiBlock6

        RSEG BANKED_CODE:CODE:NOROOT(0)
?Subroutine2:
        CFI Block cfiCond7 Using cfiCommon0
        CFI NoFunction
        CFI Conditional ??CrossCallReturnLabel_0
        CFI R6 load(1, XDATA, add(CFA_XSP16, literal(-10)))
        CFI VB load(1, XDATA, add(CFA_XSP16, literal(-9)))
        CFI V0 load(1, XDATA, add(CFA_XSP16, literal(-8)))
        CFI V1 load(1, XDATA, add(CFA_XSP16, literal(-7)))
        CFI R7 load(1, XDATA, add(CFA_XSP16, literal(-6)))
        CFI ?RET_LOW load(1, XDATA, add(CFA_XSP16, literal(-5)))
        CFI ?RET_HIGH load(1, XDATA, add(CFA_XSP16, literal(-4)))
        CFI ?BRET_EXT load(1, XDATA, add(CFA_XSP16, literal(-3)))
        CFI DPL0 load(1, XDATA, add(CFA_XSP16, literal(-2)))
        CFI DPH0 load(1, XDATA, add(CFA_XSP16, literal(-1)))
        CFI CFA_SP SP+0
        CFI CFA_XSP16 add(XSP16, 10)
        CFI Block cfiCond8 Using cfiCommon0
        CFI (cfiCond8) NoFunction
        CFI (cfiCond8) Conditional ??CrossCallReturnLabel_1
        CFI (cfiCond8) DPL0 Frame(CFA_SP, 4)
        CFI (cfiCond8) DPH0 Frame(CFA_SP, 5)
        CFI (cfiCond8) CFA_SP SP+-5
        CFI (cfiCond8) CFA_XSP16 add(XSP16, 2)
        CFI Block cfiPicker9 Using cfiCommon1
        CFI (cfiPicker9) NoFunction
        CFI (cfiPicker9) Picker
        MOVX    A,@DPTR
        MOV     R0,A
        INC     DPTR
        MOVX    A,@DPTR
        MOV     DPH,A
        MOV     DPL,R0
        RET
        CFI EndBlock cfiCond7
        CFI EndBlock cfiCond8
        CFI EndBlock cfiPicker9
//  526 
//  527 /*******************************************************************************
//  528  * @fn      TransmitApp_SendTheMessage
//  529  *
//  530  * @brief   Send "the" message.
//  531  *
//  532  * @param   none
//  533  *
//  534  * @return  none
//  535  */

        RSEG BANKED_CODE:CODE:NOROOT(0)
//  536 void TransmitApp_SendTheMessage( void )
TransmitApp_SendTheMessage:
        CFI Block cfiBlock10 Using cfiCommon0
        CFI Function TransmitApp_SendTheMessage
        CODE
//  537 {
        FUNCALL TransmitApp_SendTheMessage, HalMotorSpeedCheck
        LOCFRAME ISTACK, 0, STACK
        LOCFRAME PSTACK, 0, STACK
        LOCFRAME XSTACK, 10, STACK
        LOCFRAME IOVERLAY, 0, STATIC
        LOCFRAME DOVERLAY, 0, STATIC
        ARGFRAME ISTACK, 0, STACK
        ARGFRAME PSTACK, 0, STACK
        ARGFRAME XSTACK, 10, STACK
        ARGFRAME IOVERLAY, 0, STATIC
        ARGFRAME DOVERLAY, 0, STATIC
        FUNCALL TransmitApp_SendTheMessage, HalMotorStatusCheck
        LOCFRAME ISTACK, 0, STACK
        LOCFRAME PSTACK, 0, STACK
        LOCFRAME XSTACK, 10, STACK
        LOCFRAME IOVERLAY, 0, STATIC
        LOCFRAME DOVERLAY, 0, STATIC
        ARGFRAME ISTACK, 0, STACK
        ARGFRAME PSTACK, 0, STACK
        ARGFRAME XSTACK, 10, STACK
        ARGFRAME IOVERLAY, 0, STATIC
        ARGFRAME DOVERLAY, 0, STATIC
        FUNCALL TransmitApp_SendTheMessage, AF_DataRequest
        LOCFRAME ISTACK, 0, STACK
        LOCFRAME PSTACK, 0, STACK
        LOCFRAME XSTACK, 19, STACK
        LOCFRAME IOVERLAY, 0, STATIC
        LOCFRAME DOVERLAY, 0, STATIC
        ARGFRAME ISTACK, 0, STACK
        ARGFRAME PSTACK, 0, STACK
        ARGFRAME XSTACK, 19, STACK
        ARGFRAME IOVERLAY, 0, STATIC
        ARGFRAME DOVERLAY, 0, STATIC
        MOV     A,#-0xa
        LCALL   ?BANKED_ENTER_XDATA
        CFI R6 load(1, XDATA, add(CFA_XSP16, literal(-10)))
        CFI VB load(1, XDATA, add(CFA_XSP16, literal(-9)))
        CFI V0 load(1, XDATA, add(CFA_XSP16, literal(-8)))
        CFI V1 load(1, XDATA, add(CFA_XSP16, literal(-7)))
        CFI R7 load(1, XDATA, add(CFA_XSP16, literal(-6)))
        CFI ?RET_LOW load(1, XDATA, add(CFA_XSP16, literal(-5)))
        CFI ?RET_HIGH load(1, XDATA, add(CFA_XSP16, literal(-4)))
        CFI ?BRET_EXT load(1, XDATA, add(CFA_XSP16, literal(-3)))
        CFI DPL0 load(1, XDATA, add(CFA_XSP16, literal(-2)))
        CFI DPH0 load(1, XDATA, add(CFA_XSP16, literal(-1)))
        CFI CFA_SP SP+0
        CFI CFA_XSP16 add(XSP16, 10)
        ; Saved register size: 10
        ; Auto size: 0
//  538   uint8 tmp;
//  539   
//  540   do 
//  541   {
//  542     // put the sequence number in the message
//  543     tmp = HI_UINT8( TransmitApp_TransID );
??TransmitApp_SendTheMessage_0:
        MOV     DPTR,#TransmitApp_TransID
        MOVX    A,@DPTR
        SWAP    A
        ANL     A,#0xf
        MOV     R2,A
//  544     tmp += (tmp <= 9) ? ('0') : ('A' - 0x0A);
        CLR     C
        SUBB    A,#0xa
        JNC     ??TransmitApp_SendTheMessage_1
        MOV     R0,#0x30
        SJMP    ??TransmitApp_SendTheMessage_2
??TransmitApp_SendTheMessage_1:
        MOV     R0,#0x37
//  545     TransmitApp_Msg[2] = tmp;
??TransmitApp_SendTheMessage_2:
        MOV     A,R0
        ADD     A,R2
        MOV     DPTR,#TransmitApp_Msg + 2
        MOVX    @DPTR,A
//  546     tmp = LO_UINT8( TransmitApp_TransID );
        MOV     DPTR,#TransmitApp_TransID
        MOVX    A,@DPTR
        ANL     A,#0xf
        MOV     R2,A
//  547     tmp += (tmp <= 9) ? ('0') : ('A' - 0x0A);
        CLR     C
        SUBB    A,#0xa
        JNC     ??TransmitApp_SendTheMessage_3
        MOV     R0,#0x30
        SJMP    ??TransmitApp_SendTheMessage_4
??TransmitApp_SendTheMessage_3:
        MOV     R0,#0x37
//  548     TransmitApp_Msg[3] = tmp;
??TransmitApp_SendTheMessage_4:
        MOV     A,R0
        ADD     A,R2
        MOV     DPTR,#TransmitApp_Msg + 3
        MOVX    @DPTR,A
//  549   
//  550     //直流电机转速
//  551     TransmitApp_Msg[4] = HalMotorSpeedCheck();
        ; Setup parameters for call to function HalMotorSpeedCheck
        LCALL   ??HalMotorSpeedCheck?relay
        MOV     A,R1
        MOV     DPTR,#TransmitApp_Msg + 4
        MOVX    @DPTR,A
//  552     //直流电机方向状态
//  553     TransmitApp_Msg[5] = HalMotorStatusCheck();
        ; Setup parameters for call to function HalMotorStatusCheck
        LCALL   ??HalMotorStatusCheck?relay
        MOV     A,R1
        MOV     DPTR,#TransmitApp_Msg + 5
        MOVX    @DPTR,A
//  554     
//  555     tmp = AF_DataRequest( &TransmitApp_DstAddr,                  \ 
//  556                           &TransmitApp_epDesc,                   \ 
//  557                            TRANSMITAPP_CLUSTERID_MOTORSTATUSMSG, \ 
//  558                            TRANSMITAPP_MOTOR_DATA_LEN,           \ 
//  559                            TransmitApp_Msg,                      \ 
//  560                           &TransmitApp_TransID,                  \ 
//  561                            TRANSMITAPP_TX_OPTIONS,               \ 
//  562                            AF_DEFAULT_RADIUS );
//  563 
//  564   } while (afStatus_SUCCESS == tmp);  
        ; Setup parameters for call to function AF_DataRequest
        MOV     ?V0 + 0,#0x1e
        MOV     R0,#?V0 + 0
        LCALL   ?PUSH_XSTACK_I_ONE
        CFI CFA_XSP16 add(XSP16, 11)
        MOV     ?V0 + 0,#TransmitApp_TransID & 0xff
        MOV     ?V0 + 1,#(TransmitApp_TransID >> 8) & 0xff
        MOV     R0,#?V0 + 0
        LCALL   ?PUSH_XSTACK_I_TWO
        CFI CFA_XSP16 add(XSP16, 13)
        MOV     ?V0 + 0,#TransmitApp_Msg & 0xff
        MOV     ?V0 + 1,#(TransmitApp_Msg >> 8) & 0xff
        MOV     R0,#?V0 + 0
        LCALL   ?PUSH_XSTACK_I_TWO
        CFI CFA_XSP16 add(XSP16, 15)
        MOV     ?V0 + 0,#0x6
        MOV     ?V0 + 1,#0x0
        MOV     R0,#?V0 + 0
        LCALL   ?PUSH_XSTACK_I_TWO
        CFI CFA_XSP16 add(XSP16, 17)
        MOV     ?V0 + 0,#0x7
        MOV     R0,#?V0 + 0
        LCALL   ?PUSH_XSTACK_I_TWO
        CFI CFA_XSP16 add(XSP16, 19)
        MOV     R1,#0x20
        MOV     R4,#TransmitApp_epDesc & 0xff
        MOV     R5,#(TransmitApp_epDesc >> 8) & 0xff
        MOV     R2,#TransmitApp_DstAddr & 0xff
        MOV     R3,#(TransmitApp_DstAddr >> 8) & 0xff
        LCALL   ??AF_DataRequest?relay
        MOV     A,#0x9
        LCALL   ?DEALLOC_XSTACK8
        CFI CFA_XSP16 add(XSP16, 10)
        MOV     A,R1
        JNZ     $+5
        LJMP    ??TransmitApp_SendTheMessage_0 & 0xFFFF
//  565 }
        LJMP    ?Subroutine1 & 0xFFFF
        CFI EndBlock cfiBlock10
//  566 
//  567 /*******************************************************************************
//  568  * @fn      TransmitApp_CallBack
//  569  *
//  570  * @brief   Send data.
//  571  *
//  572  * @param   port - UART port.
//  573  * @param   event - the UART port event flag.
//  574  *
//  575  * @return  none
//  576  */

        RSEG BANKED_CODE:CODE:NOROOT(0)
//  577 static void TransmitApp_CallBack(uint8 port, uint8 event)
TransmitApp_CallBack:
        CFI Block cfiBlock11 Using cfiCommon0
        CFI Function TransmitApp_CallBack
        CODE
//  578 {
        ; Saved register size: 0
        ; Auto size: 0
//  579 
//  580 }
        LJMP    ?BRET
        CFI EndBlock cfiBlock11

        RSEG BANK_RELAYS:CODE:REORDER:NOROOT(0)
??TransmitApp_Init?relay:
        LCALL   ?BDISPATCH
        DATA
        DC24    TransmitApp_Init

        RSEG BANK_RELAYS:CODE:REORDER:NOROOT(0)
??TransmitApp_ProcessEvent?relay:
        LCALL   ?BDISPATCH
        DATA
        DC24    TransmitApp_ProcessEvent

        RSEG BANK_RELAYS:CODE:REORDER:NOROOT(0)
??TransmitApp_ProcessZDOMsgs?relay:
        LCALL   ?BDISPATCH
        DATA
        DC24    TransmitApp_ProcessZDOMsgs

        RSEG BANK_RELAYS:CODE:REORDER:NOROOT(0)
??TransmitApp_HandleKeys?relay:
        LCALL   ?BDISPATCH
        DATA
        DC24    TransmitApp_HandleKeys

        RSEG BANK_RELAYS:CODE:REORDER:NOROOT(0)
??TransmitApp_MessageMSGCB?relay:
        LCALL   ?BDISPATCH
        DATA
        DC24    TransmitApp_MessageMSGCB

        RSEG BANK_RELAYS:CODE:REORDER:NOROOT(0)
??TransmitApp_SendTheMessage?relay:
        LCALL   ?BDISPATCH
        DATA
        DC24    TransmitApp_SendTheMessage

        RSEG BANK_RELAYS:CODE:REORDER:NOROOT(0)
??TransmitApp_CallBack?relay:
        LCALL   ?BDISPATCH
        DATA
        DC24    TransmitApp_CallBack

        RSEG XDATA_ROM_C:CONST:REORDER:NOROOT(0)
        DATA8
`?<Constant "Bind Success!\\n">`:
        DB "Bind Success!\012"

        RSEG XDATA_ROM_C:CONST:REORDER:NOROOT(0)
        DATA8
`?<Constant "Match Success!\\n">`:
        DB "Match Success!\012"

        END
// 
// 1 050 bytes in segment BANKED_CODE
//    42 bytes in segment BANK_RELAYS
//    47 bytes in segment XDATA_ROM_C
//   123 bytes in segment XDATA_Z
// 
// 1 092 bytes of CODE  memory
//    47 bytes of CONST memory
//   123 bytes of XDATA memory
//
//Errors: none
//Warnings: 2
