###############################################################################
#                                                                             #
# IAR C/C++ Compiler V8.10.1.40194/W32 for 8051         04/Jan/2021  17:15:36 #
# Copyright 2004-2011 IAR Systems AB.                                         #
#                                                                             #
#    Core               =  plain                                              #
#    Code model         =  banked                                             #
#    Data model         =  large                                              #
#    Calling convention =  xdata reentrant                                    #
#    Constant location  =  data_rom                                           #
#    Dptr setup         =  1,16                                               #
#    Source file        =  D:\Projects_IAR\IAR_C8051\WSN-CC2530\ZStack-CC2530 #
#                          -2.5.1a_EB\Components\hal\common\hal_drivers.c     #
#    Command line       =  -f D:\Projects_IAR\IAR_C8051\WSN-CC2530\ZStack-CC2 #
#                          530-2.5.1a_EB\Projects\zstack\MY_BOARD\Exp4\CC2530 #
#                          DB\..\..\..\Tools\CC2530DB\f8wEndev.cfg            #
#                          (-DCPU32MHZ -DROOT=__near_func                     #
#                          -DMAC_CFG_TX_DATA_MAX=3 -DMAC_CFG_TX_MAX=6         #
#                          -DMAC_CFG_RX_MAX=3) -f D:\Projects_IAR\IAR_C8051\W #
#                          SN-CC2530\ZStack-CC2530-2.5.1a_EB\Projects\zstack\ #
#                          MY_BOARD\Exp4\CC2530DB\..\..\..\Tools\CC2530DB\f8w #
#                          Config.cfg (-DZIGBEEPRO -DSECURE=0                 #
#                          -DZG_SECURE_DYNAMIC=0 -DREFLECTOR                  #
#                          -DDEFAULT_CHANLIST=0x02000000                      #
#                          -DZDAPP_CONFIG_PAN_ID=0x1001                       #
#                          -DNWK_START_DELAY=100 -DEXTENDED_JOINING_RANDOM_MA #
#                          SK=0x007F -DBEACON_REQUEST_DELAY=100               #
#                          -DBEACON_REQ_DELAY_MASK=0x00FF                     #
#                          -DLINK_STATUS_JITTER_MASK=0x007F                   #
#                          -DROUTE_EXPIRY_TIME=30 -DAPSC_ACK_WAIT_DURATION_PO #
#                          LLED=3000 -DNWK_INDIRECT_MSG_TIMEOUT=7             #
#                          -DMAX_RREQ_ENTRIES=8 -DAPSC_MAX_FRAME_RETRIES=3    #
#                          -DNWK_MAX_DATA_RETRIES=2                           #
#                          -DMAX_POLL_FAILURE_RETRIES=2 -DMAX_BCAST=9         #
#                          -DAPS_MAX_GROUPS=16 -DMAX_RTG_ENTRIES=40           #
#                          -DNWK_MAX_BINDING_ENTRIES=4                        #
#                          -DMAX_BINDING_CLUSTER_IDS=4 "-DDEFAULT_KEY={0x01,  #
#                          0x03, 0x05, 0x07, 0x09, 0x0B, 0x0D, 0x0F, 0x00,    #
#                          0x02, 0x04, 0x06, 0x08, 0x0A, 0x0C, 0x0D}"         #
#                          -DMAC_MAX_FRAME_SIZE=116                           #
#                          -DZDNWKMGR_MIN_TRANSMISSIONS=20 "-DCONST=const     #
#                          __code" -DGENERIC=__generic                        #
#                          -DRFD_RCVC_ALWAYS_ON=FALSE -DPOLL_RATE=1000        #
#                          -DQUEUED_POLL_RATE=100 -DRESPONSE_POLL_RATE=100)   #
#                          -DREJOIN_POLL_RATE=440 D:\Projects_IAR\IAR_C8051\W #
#                          SN-CC2530\ZStack-CC2530-2.5.1a_EB\Components\hal\c #
#                          ommon\hal_drivers.c -D HAL_UART=TRUE -D            #
#                          HAL_UART_TEST -D xPOWER_SAVING -lC                 #
#                          D:\Projects_IAR\IAR_C8051\WSN-CC2530\ZStack-CC2530 #
#                          -2.5.1a_EB\Projects\zstack\MY_BOARD\Exp4\CC2530DB\ #
#                          EndDeviceSBDHT11\List\ -lA                         #
#                          D:\Projects_IAR\IAR_C8051\WSN-CC2530\ZStack-CC2530 #
#                          -2.5.1a_EB\Projects\zstack\MY_BOARD\Exp4\CC2530DB\ #
#                          EndDeviceSBDHT11\List\ --diag_suppress             #
#                          Pe001,Pa010 -o D:\Projects_IAR\IAR_C8051\WSN-CC253 #
#                          0\ZStack-CC2530-2.5.1a_EB\Projects\zstack\MY_BOARD #
#                          \Exp4\CC2530DB\EndDeviceSBDHT11\Obj\ -e --no_cse   #
#                          --no_unroll --no_inline --no_code_motion           #
#                          --no_tbaa --debug --core=plain --dptr=16,1         #
#                          --data_model=large --code_model=banked             #
#                          --calling_convention=xdata_reentrant               #
#                          --place_constants=data_rom --nr_virtual_regs 16    #
#                          -I D:\Projects_IAR\IAR_C8051\WSN-CC2530\ZStack-CC2 #
#                          530-2.5.1a_EB\Projects\zstack\MY_BOARD\Exp4\CC2530 #
#                          DB\ -I D:\Projects_IAR\IAR_C8051\WSN-CC2530\ZStack #
#                          -CC2530-2.5.1a_EB\Projects\zstack\MY_BOARD\Exp4\CC #
#                          2530DB\..\Source\ -I D:\Projects_IAR\IAR_C8051\WSN #
#                          -CC2530\ZStack-CC2530-2.5.1a_EB\Projects\zstack\MY #
#                          _BOARD\Exp4\CC2530DB\..\..\..\ZMain\TI2530DB\ -I   #
#                          D:\Projects_IAR\IAR_C8051\WSN-CC2530\ZStack-CC2530 #
#                          -2.5.1a_EB\Projects\zstack\MY_BOARD\Exp4\CC2530DB\ #
#                          ..\..\..\..\..\Components\hal\include\ -I          #
#                          D:\Projects_IAR\IAR_C8051\WSN-CC2530\ZStack-CC2530 #
#                          -2.5.1a_EB\Projects\zstack\MY_BOARD\Exp4\CC2530DB\ #
#                          ..\..\..\..\..\Components\hal\target\CC2530SB\ -I  #
#                          D:\Projects_IAR\IAR_C8051\WSN-CC2530\ZStack-CC2530 #
#                          -2.5.1a_EB\Projects\zstack\MY_BOARD\Exp4\CC2530DB\ #
#                          ..\..\..\..\..\Components\mac\include\ -I          #
#                          D:\Projects_IAR\IAR_C8051\WSN-CC2530\ZStack-CC2530 #
#                          -2.5.1a_EB\Projects\zstack\MY_BOARD\Exp4\CC2530DB\ #
#                          ..\..\..\..\..\Components\mac\high_level\ -I       #
#                          D:\Projects_IAR\IAR_C8051\WSN-CC2530\ZStack-CC2530 #
#                          -2.5.1a_EB\Projects\zstack\MY_BOARD\Exp4\CC2530DB\ #
#                          ..\..\..\..\..\Components\mac\low_level\srf04\ -I  #
#                          D:\Projects_IAR\IAR_C8051\WSN-CC2530\ZStack-CC2530 #
#                          -2.5.1a_EB\Projects\zstack\MY_BOARD\Exp4\CC2530DB\ #
#                          ..\..\..\..\..\Components\mac\low_level\srf04\sing #
#                          le_chip\ -I D:\Projects_IAR\IAR_C8051\WSN-CC2530\Z #
#                          Stack-CC2530-2.5.1a_EB\Projects\zstack\MY_BOARD\Ex #
#                          p4\CC2530DB\..\..\..\..\..\Components\mt\ -I       #
#                          D:\Projects_IAR\IAR_C8051\WSN-CC2530\ZStack-CC2530 #
#                          -2.5.1a_EB\Projects\zstack\MY_BOARD\Exp4\CC2530DB\ #
#                          ..\..\..\..\..\Components\osal\include\ -I         #
#                          D:\Projects_IAR\IAR_C8051\WSN-CC2530\ZStack-CC2530 #
#                          -2.5.1a_EB\Projects\zstack\MY_BOARD\Exp4\CC2530DB\ #
#                          ..\..\..\..\..\Components\services\saddr\ -I       #
#                          D:\Projects_IAR\IAR_C8051\WSN-CC2530\ZStack-CC2530 #
#                          -2.5.1a_EB\Projects\zstack\MY_BOARD\Exp4\CC2530DB\ #
#                          ..\..\..\..\..\Components\services\sdata\ -I       #
#                          D:\Projects_IAR\IAR_C8051\WSN-CC2530\ZStack-CC2530 #
#                          -2.5.1a_EB\Projects\zstack\MY_BOARD\Exp4\CC2530DB\ #
#                          ..\..\..\..\..\Components\stack\af\ -I             #
#                          D:\Projects_IAR\IAR_C8051\WSN-CC2530\ZStack-CC2530 #
#                          -2.5.1a_EB\Projects\zstack\MY_BOARD\Exp4\CC2530DB\ #
#                          ..\..\..\..\..\Components\stack\nwk\ -I            #
#                          D:\Projects_IAR\IAR_C8051\WSN-CC2530\ZStack-CC2530 #
#                          -2.5.1a_EB\Projects\zstack\MY_BOARD\Exp4\CC2530DB\ #
#                          ..\..\..\..\..\Components\stack\sapi\ -I           #
#                          D:\Projects_IAR\IAR_C8051\WSN-CC2530\ZStack-CC2530 #
#                          -2.5.1a_EB\Projects\zstack\MY_BOARD\Exp4\CC2530DB\ #
#                          ..\..\..\..\..\Components\stack\sec\ -I            #
#                          D:\Projects_IAR\IAR_C8051\WSN-CC2530\ZStack-CC2530 #
#                          -2.5.1a_EB\Projects\zstack\MY_BOARD\Exp4\CC2530DB\ #
#                          ..\..\..\..\..\Components\stack\sys\ -I            #
#                          D:\Projects_IAR\IAR_C8051\WSN-CC2530\ZStack-CC2530 #
#                          -2.5.1a_EB\Projects\zstack\MY_BOARD\Exp4\CC2530DB\ #
#                          ..\..\..\..\..\Components\stack\zdo\ -I            #
#                          D:\Projects_IAR\IAR_C8051\WSN-CC2530\ZStack-CC2530 #
#                          -2.5.1a_EB\Projects\zstack\MY_BOARD\Exp4\CC2530DB\ #
#                          ..\..\..\..\..\Components\zmac\ -I                 #
#                          D:\Projects_IAR\IAR_C8051\WSN-CC2530\ZStack-CC2530 #
#                          -2.5.1a_EB\Projects\zstack\MY_BOARD\Exp4\CC2530DB\ #
#                          ..\..\..\..\..\Components\zmac\f8w\ -On            #
#    List file          =  D:\Projects_IAR\IAR_C8051\WSN-CC2530\ZStack-CC2530 #
#                          -2.5.1a_EB\Projects\zstack\MY_BOARD\Exp4\CC2530DB\ #
#                          EndDeviceSBDHT11\List\hal_drivers.lst              #
#    Object file        =  D:\Projects_IAR\IAR_C8051\WSN-CC2530\ZStack-CC2530 #
#                          -2.5.1a_EB\Projects\zstack\MY_BOARD\Exp4\CC2530DB\ #
#                          EndDeviceSBDHT11\Obj\hal_drivers.r51               #
#                                                                             #
#                                                                             #
###############################################################################

D:\Projects_IAR\IAR_C8051\WSN-CC2530\ZStack-CC2530-2.5.1a_EB\Components\hal\common\hal_drivers.c
      1          /**************************************************************************************************
      2            Filename:       hal_drivers.c
      3            Revised:        $Date: 2007-07-06 10:42:24 -0700 (Fri, 06 Jul 2007) $
      4            Revision:       $Revision: 13579 $
      5          
      6            Description:    This file contains the interface to the Drivers Service.
      7          
      8          
      9            Copyright 2005-2010 Texas Instruments Incorporated. All rights reserved.
     10          
     11            IMPORTANT: Your use of this Software is limited to those specific rights
     12            granted under the terms of a software license agreement between the user
     13            who downloaded the software, his/her employer (which must be your employer)
     14            and Texas Instruments Incorporated (the "License").  You may not use this
     15            Software unless you agree to abide by the terms of the License. The License
     16            limits your use, and you acknowledge, that the Software may not be modified,
     17            copied or distributed unless embedded on a Texas Instruments microcontroller
     18            or used solely and exclusively in conjunction with a Texas Instruments radio
     19            frequency transceiver, which is integrated into your product.  Other than for
     20            the foregoing purpose, you may not use, reproduce, copy, prepare derivative
     21            works of, modify, distribute, perform, display or sell this Software and/or
     22            its documentation for any purpose.
     23          
     24            YOU FURTHER ACKNOWLEDGE AND AGREE THAT THE SOFTWARE AND DOCUMENTATION ARE
     25            PROVIDED “AS IS?WITHOUT WARRANTY OF ANY KIND, EITHER EXPRESS OR IMPLIED,
     26            INCLUDING WITHOUT LIMITATION, ANY WARRANTY OF MERCHANTABILITY, TITLE,
     27            NON-INFRINGEMENT AND FITNESS FOR A PARTICULAR PURPOSE. IN NO EVENT SHALL
     28            TEXAS INSTRUMENTS OR ITS LICENSORS BE LIABLE OR OBLIGATED UNDER CONTRACT,
     29            NEGLIGENCE, STRICT LIABILITY, CONTRIBUTION, BREACH OF WARRANTY, OR OTHER
     30            LEGAL EQUITABLE THEORY ANY DIRECT OR INDIRECT DAMAGES OR EXPENSES
     31            INCLUDING BUT NOT LIMITED TO ANY INCIDENTAL, SPECIAL, INDIRECT, PUNITIVE
     32            OR CONSEQUENTIAL DAMAGES, LOST PROFITS OR LOST DATA, COST OF PROCUREMENT
     33            OF SUBSTITUTE GOODS, TECHNOLOGY, SERVICES, OR ANY CLAIMS BY THIRD PARTIES
     34            (INCLUDING BUT NOT LIMITED TO ANY DEFENSE THEREOF), OR OTHER SIMILAR COSTS.
     35          
     36            Should you have any questions regarding your right to use this Software,
     37            contact Texas Instruments Incorporated at www.TI.com.
     38          **************************************************************************************************/
     39          
     40          
     41          /**************************************************************************************************
     42           *                                            INCLUDES
     43           **************************************************************************************************/
     44          #include "hal_types.h"
     45          #include "OSAL.h"
     46          #include "hal_drivers.h"
     47          #include "hal_adc.h"
     48          #if (defined HAL_DMA) && (HAL_DMA == TRUE)
     49            #include "hal_dma.h"
     50          #endif
     51          #include "hal_key.h"
     52          #include "hal_lcd.h"
     53          #include "hal_led.h"
     54          #include "hal_timer.h"
     55          #include "hal_uart.h"
     56          #include "hal_sleep.h"
     57          #if (defined HAL_AES) && (HAL_AES == TRUE)
     58            #include "hal_aes.h"
     59          #endif
     60          
     61          #if (defined HAL_SPI) && (HAL_SPI == TRUE)
     62            #include "hal_spi.h"
     63          #endif
     64          #if (defined HAL_HID) && (HAL_HID == TRUE)
     65            #include "usb_hid.h"
     66          #endif
     67          
     68          #ifdef CC2591_COMPRESSION_WORKAROUND
     69            #include "mac_rx.h"
     70          #endif
     71          
     72          /**************************************************************************************************
     73           *                                            MACROS
     74           **************************************************************************************************/
     75          
     76          
     77          
     78          /**************************************************************************************************
     79           *                                          CONSTANTS
     80           **************************************************************************************************/
     81          
     82          
     83          /**************************************************************************************************
     84           *                                          TYPEDEFS
     85           **************************************************************************************************/
     86          
     87          
     88          /**************************************************************************************************
     89           *                                      GLOBAL VARIABLES
     90           **************************************************************************************************/

   \                                 In  segment XDATA_Z, align 1, keep-with-next
     91          uint8 Hal_TaskID;
   \                     Hal_TaskID:
   \   000000                DS 1
   \   000001                REQUIRE __INIT_XDATA_Z
     92          
     93          extern void HalLedUpdate( void ); /* Notes: This for internal only so it shouldn't be in hal_led.h */
     94          
     95          /**************************************************************************************************
     96           *                                      FUNCTIONS - API
     97           **************************************************************************************************/
     98          
     99          /**************************************************************************************************
    100           * @fn      Hal_Init
    101           *
    102           * @brief   Hal Initialization function.
    103           *
    104           * @param   task_id - Hal TaskId
    105           *
    106           * @return  None
    107           **************************************************************************************************/

   \                                 In  segment BANKED_CODE, align 1, keep-with-next
    108          void Hal_Init( uint8 task_id )
   \                     Hal_Init:
    109          {
   \   000000   C082         PUSH    DPL
   \   000002   C083         PUSH    DPH
   \   000004                ; Saved register size: 2
   \   000004                ; Auto size: 0
    110            /* Register task ID */
    111            Hal_TaskID = task_id;
   \   000004   E9           MOV     A,R1
   \   000005   90....       MOV     DPTR,#Hal_TaskID
   \   000008   F0           MOVX    @DPTR,A
    112            
    113          #ifdef CC2591_COMPRESSION_WORKAROUND  
    114            osal_start_reload_timer( Hal_TaskID, PERIOD_RSSI_RESET_EVT, PERIOD_RSSI_RESET_TIMEOUT );
    115          #endif  
    116          }
   \   000009   D083         POP     DPH
   \   00000B   D082         POP     DPL
   \   00000D   02....       LJMP    ?BRET
    117          
    118          /**************************************************************************************************
    119           * @fn      Hal_DriverInit
    120           *
    121           * @brief   Initialize HW - These need to be initialized before anyone.
    122           *
    123           * @param   task_id - Hal TaskId
    124           *
    125           * @return  None
    126           **************************************************************************************************/

   \                                 In  segment BANKED_CODE, align 1, keep-with-next
    127          void HalDriverInit (void)
   \                     HalDriverInit:
    128          {
   \   000000   C082         PUSH    DPL
   \   000002   C083         PUSH    DPH
   \   000004                ; Saved register size: 2
   \   000004                ; Auto size: 0
    129            /* TIMER */
    130          #if (defined HAL_TIMER) && (HAL_TIMER == TRUE)
    131            #error "The hal timer driver module is removed."
    132          #endif
    133          
    134            /* ADC */
    135          #if (defined HAL_ADC) && (HAL_ADC == TRUE)
    136            HalAdcInit();
   \   000004                ; Setup parameters for call to function HalAdcInit
   \   000004   12....       LCALL   ??HalAdcInit?relay
    137          #endif
    138          
    139            /* DMA */
    140          #if (defined HAL_DMA) && (HAL_DMA == TRUE)
    141            // Must be called before the init call to any module that uses DMA.
    142            HalDmaInit();
   \   000007                ; Setup parameters for call to function HalDmaInit
   \   000007   12....       LCALL   ??HalDmaInit?relay
    143          #endif
    144          
    145            /* AES */
    146          #if (defined HAL_AES) && (HAL_AES == TRUE)
    147            HalAesInit();
   \   00000A                ; Setup parameters for call to function HalAesInit
   \   00000A   12....       LCALL   ??HalAesInit?relay
    148          #endif
    149          
    150            /* LCD */
    151          #if (defined HAL_LCD) && (HAL_LCD == TRUE)
    152            HalLcdInit();
    153          #endif
    154          
    155            /* LED */
    156          #if (defined HAL_LED) && (HAL_LED == TRUE)
    157            HalLedInit();
   \   00000D                ; Setup parameters for call to function HalLedInit
   \   00000D   12....       LCALL   ??HalLedInit?relay
    158          #endif
    159          
    160            /* UART */
    161          #if (defined HAL_UART) && (HAL_UART == TRUE)
    162            HalUARTInit();
   \   000010                ; Setup parameters for call to function HalUARTInit
   \   000010   12....       LCALL   ??HalUARTInit?relay
    163          #endif
    164          
    165            /* KEY */
    166          #if (defined HAL_KEY) && (HAL_KEY == TRUE)
    167            HalKeyInit();
   \   000013                ; Setup parameters for call to function HalKeyInit
   \   000013   12....       LCALL   ??HalKeyInit?relay
    168          #endif
    169          
    170            /* SPI */
    171          #if (defined HAL_SPI) && (HAL_SPI == TRUE)
    172            HalSpiInit();
    173          #endif
    174          
    175            /* HID */
    176          #if (defined HAL_HID) && (HAL_HID == TRUE)
    177            usbHidInit();
    178          #endif
    179          }
   \   000016   D083         POP     DPH
   \   000018   D082         POP     DPL
   \   00001A   02....       LJMP    ?BRET
    180          
    181          
    182          /*******************************************************************************
    183           * @fn      Hal_ProcessEvent
    184           *
    185           * @brief   Hal Process Event
    186           *
    187           * @param   task_id - Hal TaskId
    188           *          events - events
    189           *
    190           * @return  None
    191           ******************************************************************************/

   \                                 In  segment BANKED_CODE, align 1, keep-with-next
    192          uint16 Hal_ProcessEvent( uint8 task_id, uint16 events )
   \                     Hal_ProcessEvent:
    193          {
   \   000000   74F2         MOV     A,#-0xe
   \   000002   12....       LCALL   ?BANKED_ENTER_XDATA
   \   000005                ; Saved register size: 14
   \   000005                ; Auto size: 0
   \   000005   89..         MOV     ?V0 + 2,R1
   \   000007   EA           MOV     A,R2
   \   000008   FE           MOV     R6,A
   \   000009   EB           MOV     A,R3
   \   00000A   FF           MOV     R7,A
    194            uint8 *msgPtr;
    195            
    196            (void)task_id;  // Intentionally unreferenced parameter
    197          
    198            if ( events & SYS_EVENT_MSG )
   \   00000B   EE           MOV     A,R6
   \   00000C   5400         ANL     A,#0x0
   \   00000E   F8           MOV     R0,A
   \   00000F   EF           MOV     A,R7
   \   000010   5480         ANL     A,#0x80
   \   000012   F9           MOV     R1,A
   \   000013   E8           MOV     A,R0
   \   000014   49           ORL     A,R1
   \   000015   603E         JZ      ??Hal_ProcessEvent_0
    199            {
    200              msgPtr = osal_msg_receive(Hal_TaskID);
   \   000017                ; Setup parameters for call to function osal_msg_receive
   \   000017   90....       MOV     DPTR,#Hal_TaskID
   \   00001A   E0           MOVX    A,@DPTR
   \   00001B   F9           MOV     R1,A
   \   00001C   12....       LCALL   ??osal_msg_receive?relay
   \   00001F   8A..         MOV     ?V0 + 4,R2
   \   000021   8B..         MOV     ?V0 + 5,R3
   \   000023   85....       MOV     ?V0 + 0,?V0 + 4
   \   000026   85....       MOV     ?V0 + 1,?V0 + 5
    201          
    202              while (msgPtr)
   \                     ??Hal_ProcessEvent_1:
   \   000029   E5..         MOV     A,?V0 + 0
   \   00002B   45..         ORL     A,?V0 + 1
   \   00002D   601C         JZ      ??Hal_ProcessEvent_2
    203              {
    204                /* Do something here - for now, just deallocate the msg and move on */
    205          
    206                /* De-allocate */
    207                osal_msg_deallocate( msgPtr );
   \   00002F                ; Setup parameters for call to function osal_msg_deallocate
   \   00002F   AA..         MOV     R2,?V0 + 0
   \   000031   AB..         MOV     R3,?V0 + 1
   \   000033   12....       LCALL   ??osal_msg_deallocate?relay
   \   000036   E9           MOV     A,R1
    208                /* Next */
    209                msgPtr = osal_msg_receive( Hal_TaskID );
   \   000037                ; Setup parameters for call to function osal_msg_receive
   \   000037   90....       MOV     DPTR,#Hal_TaskID
   \   00003A   E0           MOVX    A,@DPTR
   \   00003B   F9           MOV     R1,A
   \   00003C   12....       LCALL   ??osal_msg_receive?relay
   \   00003F   8A..         MOV     ?V0 + 4,R2
   \   000041   8B..         MOV     ?V0 + 5,R3
   \   000043   85....       MOV     ?V0 + 0,?V0 + 4
   \   000046   85....       MOV     ?V0 + 1,?V0 + 5
   \   000049   80DE         SJMP    ??Hal_ProcessEvent_1
    210              }
    211              return events ^ SYS_EVENT_MSG;
   \                     ??Hal_ProcessEvent_2:
   \   00004B   EE           MOV     A,R6
   \   00004C   6400         XRL     A,#0x0
   \   00004E   FA           MOV     R2,A
   \   00004F   EF           MOV     A,R7
   \   000050   6480         XRL     A,#0x80
   \   000052   FB           MOV     R3,A
   \   000053   803F         SJMP    ??Hal_ProcessEvent_3
    212            }
    213          
    214            if ( events & HAL_LED_BLINK_EVENT )
   \                     ??Hal_ProcessEvent_0:
   \   000055   EE           MOV     A,R6
   \   000056   5402         ANL     A,#0x2
   \   000058   600D         JZ      ??Hal_ProcessEvent_4
    215            {
    216          #if (defined (BLINK_LEDS)) && (HAL_LED == TRUE)
    217              HalLedUpdate();
   \   00005A                ; Setup parameters for call to function HalLedUpdate
   \   00005A   12....       LCALL   ??HalLedUpdate?relay
    218          #endif /* BLINK_LEDS && HAL_LED */
    219              return events ^ HAL_LED_BLINK_EVENT;
   \   00005D   EE           MOV     A,R6
   \   00005E   6402         XRL     A,#0x2
   \   000060   FA           MOV     R2,A
   \   000061   EF           MOV     A,R7
   \   000062   6400         XRL     A,#0x0
   \   000064   FB           MOV     R3,A
   \   000065   802D         SJMP    ??Hal_ProcessEvent_3
    220            }
    221          
    222            if (events & HAL_KEY_EVENT)
   \                     ??Hal_ProcessEvent_4:
   \   000067   EE           MOV     A,R6
   \   000068   A2E0         MOV     C,0xE0 /* A   */.0
   \   00006A   5024         JNC     ??Hal_ProcessEvent_5
    223            {
    224          
    225          #if (defined HAL_KEY) && (HAL_KEY == TRUE)
    226              /* Check for keys */
    227              HalKeyPoll();
   \   00006C                ; Setup parameters for call to function HalKeyPoll
   \   00006C   12....       LCALL   ??HalKeyPoll?relay
    228          
    229              /* if interrupt disabled, do next polling */
    230              if (!Hal_KeyIntEnable)
   \   00006F   90....       MOV     DPTR,#Hal_KeyIntEnable
   \   000072   E0           MOVX    A,@DPTR
   \   000073   7011         JNZ     ??Hal_ProcessEvent_6
    231              {
    232                osal_start_timerEx( Hal_TaskID, HAL_KEY_EVENT, 100);
   \   000075                ; Setup parameters for call to function osal_start_timerEx
   \   000075   7C64         MOV     R4,#0x64
   \   000077   7D00         MOV     R5,#0x0
   \   000079   7A01         MOV     R2,#0x1
   \   00007B   7B00         MOV     R3,#0x0
   \   00007D   90....       MOV     DPTR,#Hal_TaskID
   \   000080   E0           MOVX    A,@DPTR
   \   000081   F9           MOV     R1,A
   \   000082   12....       LCALL   ??osal_start_timerEx?relay
   \   000085   E9           MOV     A,R1
    233              }
    234          #endif // HAL_KEY
    235          
    236              return events ^ HAL_KEY_EVENT;
   \                     ??Hal_ProcessEvent_6:
   \   000086   EE           MOV     A,R6
   \   000087   6401         XRL     A,#0x1
   \   000089   FA           MOV     R2,A
   \   00008A   EF           MOV     A,R7
   \   00008B   6400         XRL     A,#0x0
   \   00008D   FB           MOV     R3,A
   \   00008E   8004         SJMP    ??Hal_ProcessEvent_3
    237            }
    238          
    239          #ifdef POWER_SAVING
    240            if ( events & HAL_SLEEP_TIMER_EVENT )
    241            {
    242              halRestoreSleepLevel();
    243              return events ^ HAL_SLEEP_TIMER_EVENT;
    244            }
    245          #endif
    246          
    247          #ifdef CC2591_COMPRESSION_WORKAROUND
    248            if ( events & PERIOD_RSSI_RESET_EVT )
    249            {
    250              macRxResetRssi();
    251              return (events ^ PERIOD_RSSI_RESET_EVT);
    252            }
    253          #endif  
    254            
    255            /* Nothing interested, discard the message */
    256            return 0;
   \                     ??Hal_ProcessEvent_5:
   \   000090   7A00         MOV     R2,#0x0
   \   000092   7B00         MOV     R3,#0x0
   \                     ??Hal_ProcessEvent_3:
   \   000094   7F06         MOV     R7,#0x6
   \   000096   02....       LJMP    ?BANKED_LEAVE_XDATA
    257          
    258          }
    259          
    260          /**************************************************************************************************
    261           * @fn      Hal_ProcessPoll
    262           *
    263           * @brief   This routine will be called by OSAL to poll UART, TIMER...
    264           *
    265           * @param   task_id - Hal TaskId
    266           *
    267           * @return  None
    268           **************************************************************************************************/

   \                                 In  segment BANKED_CODE, align 1, keep-with-next
    269          void Hal_ProcessPoll ()
   \                     Hal_ProcessPoll:
    270          {
   \   000000   C082         PUSH    DPL
   \   000002   C083         PUSH    DPH
   \   000004                ; Saved register size: 2
   \   000004                ; Auto size: 0
    271          
    272            /* Timer Poll */
    273          #if (defined HAL_TIMER) && (HAL_TIMER == TRUE)
    274            #error "The hal timer driver module is removed."
    275          #endif
    276          
    277            /* UART Poll */
    278          #if (defined HAL_UART) && (HAL_UART == TRUE)
    279            HalUARTPoll();
   \   000004                ; Setup parameters for call to function HalUARTPoll
   \   000004   12....       LCALL   ??HalUARTPoll?relay
    280          #endif  
    281          
    282            /* SPI Poll */
    283          #if (defined HAL_SPI) && (HAL_SPI == TRUE)
    284            HalSpiPoll();
    285          #endif
    286          
    287            /* HID poll */
    288          #if (defined HAL_HID) && (HAL_HID == TRUE)
    289            usbHidProcessEvents();
    290          #endif
    291            
    292          #if defined( POWER_SAVING )
    293            /* Allow sleep before the next OSAL event loop */
    294            ALLOW_SLEEP_MODE();
    295          #endif
    296          
    297          }
   \   000007   D083         POP     DPH
   \   000009   D082         POP     DPL
   \   00000B   02....       LJMP    ?BRET

   \                                 In  segment BANK_RELAYS, align 1
   \                     ??Hal_Init?relay:
   \   000000   12....       LCALL   ?BDISPATCH
   \   000003   ......       DC24    Hal_Init

   \                                 In  segment BANK_RELAYS, align 1
   \                     ??HalDriverInit?relay:
   \   000000   12....       LCALL   ?BDISPATCH
   \   000003   ......       DC24    HalDriverInit

   \                                 In  segment BANK_RELAYS, align 1
   \                     ??Hal_ProcessEvent?relay:
   \   000000   12....       LCALL   ?BDISPATCH
   \   000003   ......       DC24    Hal_ProcessEvent

   \                                 In  segment BANK_RELAYS, align 1
   \                     ??Hal_ProcessPoll?relay:
   \   000000   12....       LCALL   ?BDISPATCH
   \   000003   ......       DC24    Hal_ProcessPoll
    298          
    299          
    300          /**************************************************************************************************
    301          **************************************************************************************************/
    302          

   Maximum stack usage in bytes:

     Function                 ISTACK PSTACK XSTACK
     --------                 ------ ------ ------
     HalDriverInit                2      0      0
       -> HalAdcInit              4      0      0
       -> HalDmaInit              4      0      0
       -> HalAesInit              4      0      0
       -> HalLedInit              4      0      0
       -> HalUARTInit             4      0      0
       -> HalKeyInit              4      0      0
     Hal_Init                     2      0      0
     Hal_ProcessEvent             0      0     14
       -> osal_msg_receive        0      0     28
       -> osal_msg_deallocate     0      0     28
       -> osal_msg_receive        0      0     28
       -> HalLedUpdate            0      0     28
       -> HalKeyPoll              0      0     28
       -> osal_start_timerEx      0      0     28
     Hal_ProcessPoll              2      0      0
       -> HalUARTPoll             4      0      0


   Segment part sizes:

     Function/Label           Bytes
     --------------           -----
     Hal_TaskID                  1
     Hal_Init                   16
     HalDriverInit              29
     Hal_ProcessEvent          153
     Hal_ProcessPoll            14
     ??Hal_Init?relay            6
     ??HalDriverInit?relay       6
     ??Hal_ProcessEvent?relay    6
     ??Hal_ProcessPoll?relay     6

 
 212 bytes in segment BANKED_CODE
  24 bytes in segment BANK_RELAYS
   1 byte  in segment XDATA_Z
 
 236 bytes of CODE  memory
   1 byte  of XDATA memory

Errors: none
Warnings: none
