###############################################################################
#                                                                             #
# IAR C/C++ Compiler V8.10.1.10194/W32 for 8051         03/Jun/2021  00:00:37 #
# Copyright 2004-2011 IAR Systems AB.                                         #
#                                                                             #
#    Core               =  plain                                              #
#    Code model         =  banked                                             #
#    Data model         =  large                                              #
#    Calling convention =  xdata reentrant                                    #
#    Constant location  =  data_rom                                           #
#    Dptr setup         =  1,16                                               #
#    Source file        =  D:\毕设\CC2530-smart_home\Components\mt\MT_UART.c  #
#    Command line       =  -f D:\毕设\CC2530-smart_home\Projects\zstack\Utili #
#                          ties\Smart_home\CC2530DB\..\..\..\Tools\CC2530DB\f #
#                          8wEndev.cfg (-DCPU32MHZ -DROOT=__near_func         #
#                          -DMAC_CFG_TX_DATA_MAX=3 -DMAC_CFG_TX_MAX=6         #
#                          -DMAC_CFG_RX_MAX=3) -f D:\毕设\CC2530-smart_home\P #
#                          rojects\zstack\Utilities\Smart_home\CC2530DB\..\.. #
#                          \..\Tools\CC2530DB\f8wConfig.cfg (-DZIGBEEPRO      #
#                          -DSECURE=0 -DZG_SECURE_DYNAMIC=0 -DREFLECTOR       #
#                          -DDEFAULT_CHANLIST=0x02000000                      #
#                          -DZDAPP_CONFIG_PAN_ID=0x1003                       #
#                          -DNWK_START_DELAY=100 -DEXTENDED_JOINING_RANDOM_MA #
#                          SK=0x007F -DBEACON_REQUEST_DELAY=100               #
#                          -DBEACON_REQ_DELAY_MASK=0x00FF                     #
#                          -DLINK_STATUS_JITTER_MASK=0x007F                   #
#                          -DROUTE_EXPIRY_TIME=30 -DAPSC_ACK_WAIT_DURATION_PO #
#                          LLED=3000 -DNWK_INDIRECT_MSG_TIMEOUT=7             #
#                          -DMAX_RREQ_ENTRIES=8 -DAPSC_MAX_FRAME_RETRIES=3    #
#                          -DNWK_MAX_DATA_RETRIES=2                           #
#                          -DMAX_POLL_FAILURE_RETRIES=2 -DMAX_BCAST=9         #
#                          -DAPS_MAX_GROUPS=16 -DMAX_RTG_ENTRIES=40           #
#                          -DNWK_MAX_BINDING_ENTRIES=4                        #
#                          -DMAX_BINDING_CLUSTER_IDS=4 "-DDEFAULT_KEY={0x01,  #
#                          0x03, 0x05, 0x07, 0x09, 0x0B, 0x0D, 0x0F, 0x00,    #
#                          0x02, 0x04, 0x06, 0x08, 0x0A, 0x0C, 0x0D}"         #
#                          -DMAC_MAX_FRAME_SIZE=116                           #
#                          -DZDNWKMGR_MIN_TRANSMISSIONS=20 "-DCONST=const     #
#                          __code" -DGENERIC=__generic                        #
#                          -DRFD_RCVC_ALWAYS_ON=FALSE -DPOLL_RATE=1000        #
#                          -DQUEUED_POLL_RATE=100 -DRESPONSE_POLL_RATE=100)   #
#                          -DREJOIN_POLL_RATE=440 D:\毕设\CC2530-smart_home\C #
#                          omponents\mt\MT_UART.c -D HAL_UART=TRUE -D         #
#                          HAL_UART_TEST -D xPOWER_SAVING -lC                 #
#                          D:\毕设\CC2530-smart_home\Projects\zstack\Utilitie #
#                          s\Smart_home\CC2530DB\EndDeviceSBDHT11\List\ -lA   #
#                          D:\毕设\CC2530-smart_home\Projects\zstack\Utilitie #
#                          s\Smart_home\CC2530DB\EndDeviceSBDHT11\List\       #
#                          --diag_suppress Pe001,Pa010 -o                     #
#                          D:\毕设\CC2530-smart_home\Projects\zstack\Utilitie #
#                          s\Smart_home\CC2530DB\EndDeviceSBDHT11\Obj\ -e     #
#                          --no_cse --no_unroll --no_inline --no_code_motion  #
#                          --no_tbaa --debug --core=plain --dptr=16,1         #
#                          --data_model=large --code_model=banked             #
#                          --calling_convention=xdata_reentrant               #
#                          --place_constants=data_rom --nr_virtual_regs 16    #
#                          -I D:\毕设\CC2530-smart_home\Projects\zstack\Utili #
#                          ties\Smart_home\CC2530DB\ -I                       #
#                          D:\毕设\CC2530-smart_home\Projects\zstack\Utilitie #
#                          s\Smart_home\CC2530DB\..\Source\ -I                #
#                          D:\毕设\CC2530-smart_home\Projects\zstack\Utilitie #
#                          s\Smart_home\CC2530DB\..\..\..\ZMain\TI2530DB\ -I  #
#                          D:\毕设\CC2530-smart_home\Projects\zstack\Utilitie #
#                          s\Smart_home\CC2530DB\..\..\..\..\..\Components\ha #
#                          l\include\ -I D:\毕设\CC2530-smart_home\Projects\z #
#                          stack\Utilities\Smart_home\CC2530DB\..\..\..\..\.. #
#                          \Components\hal\target\CC2530SB\ -I                #
#                          D:\毕设\CC2530-smart_home\Projects\zstack\Utilitie #
#                          s\Smart_home\CC2530DB\..\..\..\..\..\Components\ma #
#                          c\include\ -I D:\毕设\CC2530-smart_home\Projects\z #
#                          stack\Utilities\Smart_home\CC2530DB\..\..\..\..\.. #
#                          \Components\mac\high_level\ -I                     #
#                          D:\毕设\CC2530-smart_home\Projects\zstack\Utilitie #
#                          s\Smart_home\CC2530DB\..\..\..\..\..\Components\ma #
#                          c\low_level\srf04\ -I D:\毕设\CC2530-smart_home\Pr #
#                          ojects\zstack\Utilities\Smart_home\CC2530DB\..\..\ #
#                          ..\..\..\Components\mac\low_level\srf04\single_chi #
#                          p\ -I D:\毕设\CC2530-smart_home\Projects\zstack\Ut #
#                          ilities\Smart_home\CC2530DB\..\..\..\..\..\Compone #
#                          nts\mt\ -I D:\毕设\CC2530-smart_home\Projects\zsta #
#                          ck\Utilities\Smart_home\CC2530DB\..\..\..\..\..\Co #
#                          mponents\osal\include\ -I                          #
#                          D:\毕设\CC2530-smart_home\Projects\zstack\Utilitie #
#                          s\Smart_home\CC2530DB\..\..\..\..\..\Components\se #
#                          rvices\saddr\ -I D:\毕设\CC2530-smart_home\Project #
#                          s\zstack\Utilities\Smart_home\CC2530DB\..\..\..\.. #
#                          \..\Components\services\sdata\ -I                  #
#                          D:\毕设\CC2530-smart_home\Projects\zstack\Utilitie #
#                          s\Smart_home\CC2530DB\..\..\..\..\..\Components\st #
#                          ack\af\ -I D:\毕设\CC2530-smart_home\Projects\zsta #
#                          ck\Utilities\Smart_home\CC2530DB\..\..\..\..\..\Co #
#                          mponents\stack\nwk\ -I D:\毕设\CC2530-smart_home\P #
#                          rojects\zstack\Utilities\Smart_home\CC2530DB\..\.. #
#                          \..\..\..\Components\stack\sapi\ -I                #
#                          D:\毕设\CC2530-smart_home\Projects\zstack\Utilitie #
#                          s\Smart_home\CC2530DB\..\..\..\..\..\Components\st #
#                          ack\sec\ -I D:\毕设\CC2530-smart_home\Projects\zst #
#                          ack\Utilities\Smart_home\CC2530DB\..\..\..\..\..\C #
#                          omponents\stack\sys\ -I D:\毕设\CC2530-smart_home\ #
#                          Projects\zstack\Utilities\Smart_home\CC2530DB\..\. #
#                          .\..\..\..\Components\stack\zdo\ -I                #
#                          D:\毕设\CC2530-smart_home\Projects\zstack\Utilitie #
#                          s\Smart_home\CC2530DB\..\..\..\..\..\Components\zm #
#                          ac\ -I D:\毕设\CC2530-smart_home\Projects\zstack\U #
#                          tilities\Smart_home\CC2530DB\..\..\..\..\..\Compon #
#                          ents\zmac\f8w\ -On                                 #
#    List file          =  D:\毕设\CC2530-smart_home\Projects\zstack\Utilitie #
#                          s\Smart_home\CC2530DB\EndDeviceSBDHT11\List\MT_UAR #
#                          T.lst                                              #
#    Object file        =  D:\毕设\CC2530-smart_home\Projects\zstack\Utilitie #
#                          s\Smart_home\CC2530DB\EndDeviceSBDHT11\Obj\MT_UART #
#                          .r51                                               #
#                                                                             #
#                                                                             #
###############################################################################

D:\毕设\CC2530-smart_home\Components\mt\MT_UART.c
      1          /***************************************************************************************************
      2            Filename:       MT_UART.c
      3            Revised:        $Date: 2009-03-12 16:25:22 -0700 (Thu, 12 Mar 2009) $
      4            Revision:       $Revision: 19404 $
      5          
      6            Description:  This module handles anything dealing with the serial port.
      7          
      8            Copyright 2007 Texas Instruments Incorporated. All rights reserved.
      9          
     10            IMPORTANT: Your use of this Software is limited to those specific rights
     11            granted under the terms of a software license agreement between the user
     12            who downloaded the software, his/her employer (which must be your employer)
     13            and Texas Instruments Incorporated (the "License").  You may not use this
     14            Software unless you agree to abide by the terms of the License. The License
     15            limits your use, and you acknowledge, that the Software may not be modified,
     16            copied or distributed unless embedded on a Texas Instruments microcontroller
     17            or used solely and exclusively in conjunction with a Texas Instruments radio
     18            frequency transceiver, which is integrated into your product.  Other than for
     19            the foregoing purpose, you may not use, reproduce, copy, prepare derivative
     20            works of, modify, distribute, perform, display or sell this Software and/or
     21            its documentation for any purpose.
     22          
     23            YOU FURTHER ACKNOWLEDGE AND AGREE THAT THE SOFTWARE AND DOCUMENTATION ARE
     24            PROVIDED AS IS?WITHOUT WARRANTY OF ANY KIND, EITHER EXPRESS OR IMPLIED,
     25            INCLUDING WITHOUT LIMITATION, ANY WARRANTY OF MERCHANTABILITY, TITLE,
     26            NON-INFRINGEMENT AND FITNESS FOR A PARTICULAR PURPOSE. IN NO EVENT SHALL
     27            TEXAS INSTRUMENTS OR ITS LICENSORS BE LIABLE OR OBLIGATED UNDER CONTRACT,
     28            NEGLIGENCE, STRICT LIABILITY, CONTRIBUTION, BREACH OF WARRANTY, OR OTHER
     29            LEGAL EQUITABLE THEORY ANY DIRECT OR INDIRECT DAMAGES OR EXPENSES
     30            INCLUDING BUT NOT LIMITED TO ANY INCIDENTAL, SPECIAL, INDIRECT, PUNITIVE
     31            OR CONSEQUENTIAL DAMAGES, LOST PROFITS OR LOST DATA, COST OF PROCUREMENT
     32            OF SUBSTITUTE GOODS, TECHNOLOGY, SERVICES, OR ANY CLAIMS BY THIRD PARTIES
     33            (INCLUDING BUT NOT LIMITED TO ANY DEFENSE THEREOF), OR OTHER SIMILAR COSTS.
     34          
     35            Should you have any questions regarding your right to use this Software,
     36            contact Texas Instruments Incorporated at www.TI.com.
     37          
     38          ***************************************************************************************************/
     39          
     40          /***************************************************************************************************
     41           * INCLUDES
     42           ***************************************************************************************************/
     43          #include "ZComDef.h"
     44          #include "OSAL.h"
     45          #include "hal_uart.h"
     46          #include "MT.h"
     47          #include "MT_UART.h"
     48          #include "OSAL_Memory.h"
     49          
     50          
     51          /***************************************************************************************************
     52           * MACROS
     53           ***************************************************************************************************/
     54          
     55          /***************************************************************************************************
     56           * CONSTANTS
     57           ***************************************************************************************************/
     58          /* State values for ZTool protocal */
     59          #define SOP_STATE      0x00
     60          #define CMD_STATE1     0x01
     61          #define CMD_STATE2     0x02
     62          #define LEN_STATE      0x03
     63          #define DATA_STATE     0x04
     64          #define FCS_STATE      0x05
     65          
     66          /***************************************************************************************************
     67           *                                         GLOBAL VARIABLES
     68           ***************************************************************************************************/
     69          /* Used to indentify the application ID for osal task */

   \                                 In  segment XDATA_Z, align 1, keep-with-next
     70          byte App_TaskID;
   \                     App_TaskID:
   \   000000                DS 1
   \   000001                REQUIRE __INIT_XDATA_Z
     71          
     72          /* ZTool protocal parameters */

   \                                 In  segment XDATA_Z, align 1, keep-with-next
     73          uint8 state;
   \                     state:
   \   000000                DS 1
   \   000001                REQUIRE __INIT_XDATA_Z

   \                                 In  segment XDATA_Z, align 1, keep-with-next
     74          uint8  CMD_Token[2];
   \                     CMD_Token:
   \   000000                DS 2
   \   000002                REQUIRE __INIT_XDATA_Z

   \                                 In  segment XDATA_Z, align 1, keep-with-next
     75          uint8  LEN_Token;
   \                     LEN_Token:
   \   000000                DS 1
   \   000001                REQUIRE __INIT_XDATA_Z

   \                                 In  segment XDATA_Z, align 1, keep-with-next
     76          uint8  FSC_Token;
   \                     FSC_Token:
   \   000000                DS 1
   \   000001                REQUIRE __INIT_XDATA_Z

   \                                 In  segment XDATA_Z, align 1, keep-with-next
     77          mtOSALSerialData_t  *pMsg;
   \                     pMsg:
   \   000000                DS 2
   \   000002                REQUIRE __INIT_XDATA_Z

   \                                 In  segment XDATA_Z, align 1, keep-with-next
     78          uint8  tempDataLen;
   \                     tempDataLen:
   \   000000                DS 1
   \   000001                REQUIRE __INIT_XDATA_Z
     79          
     80          #if defined (ZAPP_P1) || defined (ZAPP_P2)
     81          uint16  MT_UartMaxZAppBufLen;
     82          bool    MT_UartZAppRxStatus;
     83          #endif
     84          
     85          
     86          /***************************************************************************************************
     87           *                                          LOCAL FUNCTIONS
     88           ***************************************************************************************************/
     89          
     90          /***************************************************************************************************
     91           * @fn      MT_UartInit
     92           *
     93           * @brief   Initialize MT with UART support
     94           *
     95           * @param   None
     96           *
     97           * @return  None
     98          ***************************************************************************************************/

   \                                 In  segment BANKED_CODE, align 1, keep-with-next
     99          void MT_UartInit ()
   \                     MT_UartInit:
    100          {
   \   000000   C082         PUSH    DPL
   \   000002   C083         PUSH    DPH
   \   000004                ; Saved register size: 2
   \   000004                ; Auto size: 29
   \   000004   74E3         MOV     A,#-0x1d
   \   000006   12....       LCALL   ?ALLOC_XSTACK8
    101            halUARTCfg_t uartConfig;
    102          
    103            /* Initialize APP ID */
    104            App_TaskID = 0;
   \   000009   90....       MOV     DPTR,#App_TaskID
   \   00000C   7400         MOV     A,#0x0
   \   00000E   F0           MOVX    @DPTR,A
    105          
    106            /* UART Configuration */
    107            uartConfig.configured           = TRUE;
   \   00000F   85..82       MOV     DPL,?XSP + 0
   \   000012   85..83       MOV     DPH,?XSP + 1
   \   000015   7401         MOV     A,#0x1
   \   000017   F0           MOVX    @DPTR,A
    108            uartConfig.baudRate             = MT_UART_DEFAULT_BAUDRATE;
   \   000018   7401         MOV     A,#0x1
   \   00001A   12....       LCALL   ?XSTACK_DISP0_8
   \   00001D   7404         MOV     A,#0x4
   \   00001F   F0           MOVX    @DPTR,A
    109            uartConfig.flowControl          = MT_UART_DEFAULT_OVERFLOW;
   \   000020   7402         MOV     A,#0x2
   \   000022   12....       LCALL   ?XSTACK_DISP0_8
   \   000025   7400         MOV     A,#0x0
   \   000027   F0           MOVX    @DPTR,A
    110            uartConfig.flowControlThreshold = MT_UART_DEFAULT_THRESHOLD;
   \   000028   7403         MOV     A,#0x3
   \   00002A   12....       LCALL   ?XSTACK_DISP0_8
   \   00002D   7440         MOV     A,#0x40
   \   00002F   F0           MOVX    @DPTR,A
   \   000030   A3           INC     DPTR
   \   000031   7400         MOV     A,#0x0
   \   000033   F0           MOVX    @DPTR,A
    111            uartConfig.rx.maxBufSize        = MT_UART_DEFAULT_MAX_RX_BUFF;
   \   000034   740A         MOV     A,#0xa
   \   000036   12....       LCALL   ?XSTACK_DISP0_8
   \   000039   7480         MOV     A,#-0x80
   \   00003B   F0           MOVX    @DPTR,A
   \   00003C   A3           INC     DPTR
   \   00003D   7400         MOV     A,#0x0
   \   00003F   F0           MOVX    @DPTR,A
    112            uartConfig.tx.maxBufSize        = MT_UART_DEFAULT_MAX_TX_BUFF;
   \   000040   7412         MOV     A,#0x12
   \   000042   12....       LCALL   ?XSTACK_DISP0_8
   \   000045   7480         MOV     A,#-0x80
   \   000047   F0           MOVX    @DPTR,A
   \   000048   A3           INC     DPTR
   \   000049   7400         MOV     A,#0x0
   \   00004B   F0           MOVX    @DPTR,A
    113            uartConfig.idleTimeout          = MT_UART_DEFAULT_IDLE_TIMEOUT;
   \   00004C   7405         MOV     A,#0x5
   \   00004E   12....       LCALL   ?XSTACK_DISP0_8
   \   000051   7406         MOV     A,#0x6
   \   000053   F0           MOVX    @DPTR,A
    114            uartConfig.intEnable            = FALSE;//TRUE;
   \   000054   7416         MOV     A,#0x16
   \   000056   12....       LCALL   ?XSTACK_DISP0_8
   \   000059   7400         MOV     A,#0x0
   \   00005B   F0           MOVX    @DPTR,A
    115          #if defined (ZTOOL_P1) || defined (ZTOOL_P2)
    116            uartConfig.callBackFunc         = MT_UartProcessZToolData;
    117          #elif defined (ZAPP_P1) || defined (ZAPP_P2)
    118            uartConfig.callBackFunc         = MT_UartProcessZAppData;
    119          #else
    120            uartConfig.callBackFunc         = NULL;
   \   00005C   741B         MOV     A,#0x1b
   \   00005E   12....       LCALL   ?XSTACK_DISP0_8
   \   000061   7400         MOV     A,#0x0
   \   000063   F0           MOVX    @DPTR,A
   \   000064   A3           INC     DPTR
   \   000065   7400         MOV     A,#0x0
   \   000067   F0           MOVX    @DPTR,A
    121          #endif
    122          
    123            /* Start UART */
    124          #if defined (MT_UART_DEFAULT_PORT)
    125            HalUARTOpen (MT_UART_DEFAULT_PORT, &uartConfig);
    126          #else
    127            /* Silence IAR compiler warning */
    128            (void)uartConfig;
    129          #endif
    130          
    131            /* Initialize for ZApp */
    132          #if defined (ZAPP_P1) || defined (ZAPP_P2)
    133            /* Default max bytes that ZAPP can take */
    134            MT_UartMaxZAppBufLen  = 1;
    135            MT_UartZAppRxStatus   = MT_UART_ZAPP_RX_READY;
    136          #endif
    137          
    138          }
   \   000068   741D         MOV     A,#0x1d
   \   00006A   12....       LCALL   ?DEALLOC_XSTACK8
   \   00006D   D083         POP     DPH
   \   00006F   D082         POP     DPL
   \   000071   02....       LJMP    ?BRET
    139          
    140          /***************************************************************************************************
    141           * @fn      MT_SerialRegisterTaskID
    142           *
    143           * @brief   This function registers the taskID of the application so it knows
    144           *          where to send the messages whent they come in.
    145           *
    146           * @param   void
    147           *
    148           * @return  void
    149           ***************************************************************************************************/

   \                                 In  segment BANKED_CODE, align 1, keep-with-next
    150          void MT_UartRegisterTaskID( byte taskID )
   \                     MT_UartRegisterTaskID:
    151          {
   \   000000   C082         PUSH    DPL
   \   000002   C083         PUSH    DPH
   \   000004                ; Saved register size: 2
   \   000004                ; Auto size: 0
    152            App_TaskID = taskID;
   \   000004   E9           MOV     A,R1
   \   000005   90....       MOV     DPTR,#App_TaskID
   \   000008   F0           MOVX    @DPTR,A
    153          }
   \   000009   D083         POP     DPH
   \   00000B   D082         POP     DPL
   \   00000D   02....       LJMP    ?BRET
    154          
    155          /***************************************************************************************************
    156           * @fn      SPIMgr_CalcFCS
    157           *
    158           * @brief   Calculate the FCS of a message buffer by XOR'ing each byte.
    159           *          Remember to NOT include SOP and FCS fields, so start at the CMD field.
    160           *
    161           * @param   byte *msg_ptr - message pointer
    162           * @param   byte len - length (in bytes) of message
    163           *
    164           * @return  result byte
    165           ***************************************************************************************************/

   \                                 In  segment BANKED_CODE, align 1, keep-with-next
    166          byte MT_UartCalcFCS( uint8 *msg_ptr, uint8 len )
   \                     MT_UartCalcFCS:
    167          {
   \   000000   C082         PUSH    DPL
   \   000002   C083         PUSH    DPH
   \   000004                ; Saved register size: 2
   \   000004                ; Auto size: 0
   \   000004   E9           MOV     A,R1
   \   000005   FC           MOV     R4,A
    168            byte x;
    169            byte xorResult;
    170          
    171            xorResult = 0;
   \   000006   7900         MOV     R1,#0x0
    172          
    173            for ( x = 0; x < len; x++, msg_ptr++ )
   \   000008   7800         MOV     R0,#0x0
   \                     ??MT_UartCalcFCS_0:
   \   00000A   E8           MOV     A,R0
   \   00000B   C3           CLR     C
   \   00000C   9C           SUBB    A,R4
   \   00000D   5014         JNC     ??MT_UartCalcFCS_1
    174              xorResult = xorResult ^ *msg_ptr;
   \   00000F   8A82         MOV     DPL,R2
   \   000011   8B83         MOV     DPH,R3
   \   000013   E0           MOVX    A,@DPTR
   \   000014   C9           XCH     A,R1
   \   000015   69           XRL     A,R1
   \   000016   F9           MOV     R1,A
   \   000017   08           INC     R0
   \   000018   8A82         MOV     DPL,R2
   \   00001A   8B83         MOV     DPH,R3
   \   00001C   A3           INC     DPTR
   \   00001D   AA82         MOV     R2,DPL
   \   00001F   AB83         MOV     R3,DPH
   \   000021   80E7         SJMP    ??MT_UartCalcFCS_0
    175          
    176            return ( xorResult );
   \                     ??MT_UartCalcFCS_1:
   \   000023   D083         POP     DPH
   \   000025   D082         POP     DPL
   \   000027   02....       LJMP    ?BRET
    177          }
    178          
    179          
    180          /***************************************************************************************************
    181           * @fn      MT_UartProcessZToolData
    182           *
    183           * @brief   | SOP | Data Length  |   CMD   |   Data   |  FCS  |
    184           *          |  1  |     1        |    2    |  0-Len   |   1   |
    185           *
    186           *          Parses the data and determine either is SPI or just simply serial data
    187           *          then send the data to correct place (MT or APP)
    188           *
    189           * @param   port     - UART port
    190           *          event    - Event that causes the callback
    191           *
    192           *
    193           * @return  None
    194           ***************************************************************************************************/

   \                                 In  segment BANKED_CODE, align 1, keep-with-next
    195          void MT_UartProcessZToolData ( uint8 port, uint8 event )
   \                     MT_UartProcessZToolData:
    196          {
   \   000000   74F2         MOV     A,#-0xe
   \   000002   12....       LCALL   ?BANKED_ENTER_XDATA
   \   000005                ; Saved register size: 14
   \   000005                ; Auto size: 128
   \   000005   7480         MOV     A,#-0x80
   \   000007   12....       LCALL   ?ALLOC_XSTACK8
   \   00000A   E9           MOV     A,R1
   \   00000B   FE           MOV     R6,A
   \   00000C   EA           MOV     A,R2
   \   00000D   FF           MOV     R7,A
    197            /*
    198            uint8  ch;
    199            uint8  bytesInRxBuffer;
    200            
    201            (void)event;  // Intentionally unreferenced parameter
    202          
    203            while (Hal_UART_RxBufLen(port))
    204            {
    205              HalUARTRead (port, &ch, 1);
    206          
    207              switch (state)
    208              {
    209                case SOP_STATE:
    210                  if (ch == MT_UART_SOF)
    211                    state = LEN_STATE;
    212                  break;
    213          
    214                case LEN_STATE:
    215                  LEN_Token = ch;
    216          
    217                  tempDataLen = 0;
    218          
    219                  // Allocate memory for the data 
    220                  pMsg = (mtOSALSerialData_t *)osal_msg_allocate( sizeof ( mtOSALSerialData_t ) +
    221                                                                  MT_RPC_FRAME_HDR_SZ + LEN_Token );
    222          
    223                  if (pMsg)
    224                  {
    225                    // Fill up what we can 
    226                    pMsg->hdr.event = CMD_SERIAL_MSG;
    227                    pMsg->msg = (uint8*)(pMsg+1);
    228                    pMsg->msg[MT_RPC_POS_LEN] = LEN_Token;
    229                    state = CMD_STATE1;
    230                  }
    231                  else
    232                  {
    233                    state = SOP_STATE;
    234                    return;
    235                  }
    236                  break;
    237          
    238                case CMD_STATE1:
    239                  pMsg->msg[MT_RPC_POS_CMD0] = ch;
    240                  state = CMD_STATE2;
    241                  break;
    242          
    243                case CMD_STATE2:
    244                  pMsg->msg[MT_RPC_POS_CMD1] = ch;
    245                  // If there is no data, skip to FCS state 
    246                  if (LEN_Token)
    247                  {
    248                    state = DATA_STATE;
    249                  }
    250                  else
    251                  {
    252                    state = FCS_STATE;
    253                  }
    254                  break;
    255          
    256                case DATA_STATE:
    257          
    258                  // Fill in the buffer the first byte of the data 
    259                  pMsg->msg[MT_RPC_FRAME_HDR_SZ + tempDataLen++] = ch;
    260          
    261                  // Check number of bytes left in the Rx buffer 
    262                  bytesInRxBuffer = Hal_UART_RxBufLen(port);
    263          
    264                  // If the remain of the data is there, read them all, otherwise, just read enough 
    265                  if (bytesInRxBuffer <= LEN_Token - tempDataLen)
    266                  {
    267                    HalUARTRead (port, &pMsg->msg[MT_RPC_FRAME_HDR_SZ + tempDataLen], bytesInRxBuffer);
    268                    tempDataLen += bytesInRxBuffer;
    269                  }
    270                  else
    271                  {
    272                    HalUARTRead (port, &pMsg->msg[MT_RPC_FRAME_HDR_SZ + tempDataLen], LEN_Token - tempDataLen);
    273                    tempDataLen += (LEN_Token - tempDataLen);
    274                  }
    275          
    276                  // If number of bytes read is equal to data length, time to move on to FCS 
    277                  if ( tempDataLen == LEN_Token )
    278                      state = FCS_STATE;
    279          
    280                  break;
    281          
    282                case FCS_STATE:
    283          
    284                  FSC_Token = ch;
    285          
    286                  // Make sure it's correct 
    287                  if ((MT_UartCalcFCS ((uint8*)&pMsg->msg[0], MT_RPC_FRAME_HDR_SZ + LEN_Token) == FSC_Token))
    288                  {
    289                    osal_msg_send( App_TaskID, (byte *)pMsg );
    290                  }
    291                  else
    292                  {
    293                    //deallocate the msg 
    294                    osal_msg_deallocate ( (uint8 *)pMsg );
    295                  }
    296          
    297                  // Reset the state, send or discard the buffers at this point 
    298                  state = SOP_STATE;
    299          
    300                  break;
    301          
    302                default:
    303                 break;
    304              }
    305            }
    306            */
    307            uint8 flag=0,i,j=0;   //flag是判断有没有收到数据，j记录数据长度
   \   00000E   75..00       MOV     ?V0 + 0,#0x0
   \   000011   75..00       MOV     ?V0 + 1,#0x0
    308            uint8 buf[128];     //串口buffer最大缓冲默认是128，我们这里用128.
    309            (void)event;        // Intentionally unreferenced parameter  
    310          
    311            while (Hal_UART_RxBufLen(port)) //检测串口数据是否接收完成
   \                     ??MT_UartProcessZToolData_0:
   \   000014                ; Setup parameters for call to function Hal_UART_RxBufLen
   \   000014   EE           MOV     A,R6
   \   000015   F9           MOV     R1,A
   \   000016   12....       LCALL   ??Hal_UART_RxBufLen?relay
   \   000019   8A..         MOV     ?V0 + 4,R2
   \   00001B   8B..         MOV     ?V0 + 5,R3
   \   00001D   E5..         MOV     A,?V0 + 4
   \   00001F   45..         ORL     A,?V0 + 5
   \   000021   6026         JZ      ??MT_UartProcessZToolData_1
    312          
    313            {
    314              HalUARTRead (port,&buf[j], 1);  //把数据接收放到buf中
   \   000023                ; Setup parameters for call to function HalUARTRead
   \   000023   7C01         MOV     R4,#0x1
   \   000025   7D00         MOV     R5,#0x0
   \   000027   85....       MOV     ?V0 + 4,?V0 + 1
   \   00002A   75..00       MOV     ?V0 + 5,#0x0
   \   00002D   85..82       MOV     DPL,?XSP + 0
   \   000030   85..83       MOV     DPH,?XSP + 1
   \   000033   E582         MOV     A,DPL
   \   000035   25..         ADD     A,?V0 + 4
   \   000037   FA           MOV     R2,A
   \   000038   E583         MOV     A,DPH
   \   00003A   35..         ADDC    A,?V0 + 5
   \   00003C   FB           MOV     R3,A
   \   00003D   EE           MOV     A,R6
   \   00003E   F9           MOV     R1,A
   \   00003F   12....       LCALL   ??HalUARTRead?relay
    315              j++;                           //记录字符数
   \   000042   05..         INC     ?V0 + 1
    316              flag=1;                         //已经从串口接收到信息
   \   000044   75..01       MOV     ?V0 + 0,#0x1
   \   000047   80CB         SJMP    ??MT_UartProcessZToolData_0
    317            } 
    318          
    319            if(flag==1)       //已经从串口接收到信息
   \                     ??MT_UartProcessZToolData_1:
   \   000049   7401         MOV     A,#0x1
   \   00004B   65..         XRL     A,?V0 + 0
   \   00004D   6003         JZ      $+5
   \   00004F   02....       LJMP    ??MT_UartProcessZToolData_2 & 0xFFFF
    320          
    321            {     /* Allocate memory for the data */
    322          	    //分配内存空间，为机构体内容+数据内容+1个记录长度的数据
    323               pMsg = (mtOSALSerialData_t *)osal_msg_allocate( sizeof  
    324                    ( mtOSALSerialData_t )+j+1);
   \   000052                ; Setup parameters for call to function osal_msg_allocate
   \   000052   85....       MOV     ?V0 + 4,?V0 + 1
   \   000055   75..00       MOV     ?V0 + 5,#0x0
   \   000058   E5..         MOV     A,?V0 + 4
   \   00005A   2405         ADD     A,#0x5
   \   00005C   FA           MOV     R2,A
   \   00005D   E5..         MOV     A,?V0 + 5
   \   00005F   3400         ADDC    A,#0x0
   \   000061   FB           MOV     R3,A
   \   000062   12....       LCALL   ??osal_msg_allocate?relay
   \   000065   90....       MOV     DPTR,#pMsg
   \   000068   EA           MOV     A,R2
   \   000069   F0           MOVX    @DPTR,A
   \   00006A   A3           INC     DPTR
   \   00006B   EB           MOV     A,R3
   \   00006C   F0           MOVX    @DPTR,A
    325               //事件号用原来的CMD_SERIAL_MSG
    326               pMsg->hdr.event = CMD_SERIAL_MSG;
   \   00006D   90....       MOV     DPTR,#pMsg
   \   000070   E0           MOVX    A,@DPTR
   \   000071   F8           MOV     R0,A
   \   000072   A3           INC     DPTR
   \   000073   E0           MOVX    A,@DPTR
   \   000074   F583         MOV     DPH,A
   \   000076   8882         MOV     DPL,R0
   \   000078   7401         MOV     A,#0x1
   \   00007A   F0           MOVX    @DPTR,A
    327               pMsg->msg = (uint8*)(pMsg+1);  // 把数据定位到结构体数据部分
   \   00007B   90....       MOV     DPTR,#pMsg
   \   00007E   E0           MOVX    A,@DPTR
   \   00007F   2404         ADD     A,#0x4
   \   000081   F8           MOV     R0,A
   \   000082   A3           INC     DPTR
   \   000083   E0           MOVX    A,@DPTR
   \   000084   3400         ADDC    A,#0x0
   \   000086   F9           MOV     R1,A
   \   000087   90....       MOV     DPTR,#pMsg
   \   00008A   E0           MOVX    A,@DPTR
   \   00008B   FA           MOV     R2,A
   \   00008C   A3           INC     DPTR
   \   00008D   E0           MOVX    A,@DPTR
   \   00008E   F583         MOV     DPH,A
   \   000090   8A82         MOV     DPL,R2
   \   000092   A3           INC     DPTR
   \   000093   A3           INC     DPTR
   \   000094   E8           MOV     A,R0
   \   000095   F0           MOVX    @DPTR,A
   \   000096   A3           INC     DPTR
   \   000097   E9           MOV     A,R1
   \   000098   F0           MOVX    @DPTR,A
    328               pMsg->msg [0]= j;              //给上层的数据第一个是长度
   \   000099   E5..         MOV     A,?V0 + 1
   \   00009B   90....       MOV     DPTR,#pMsg
   \   00009E   E0           MOVX    A,@DPTR
   \   00009F   F8           MOV     R0,A
   \   0000A0   A3           INC     DPTR
   \   0000A1   E0           MOVX    A,@DPTR
   \   0000A2   F583         MOV     DPH,A
   \   0000A4   8882         MOV     DPL,R0
   \   0000A6   A3           INC     DPTR
   \   0000A7   A3           INC     DPTR
   \   0000A8   E0           MOVX    A,@DPTR
   \   0000A9   F8           MOV     R0,A
   \   0000AA   A3           INC     DPTR
   \   0000AB   E0           MOVX    A,@DPTR
   \   0000AC   F583         MOV     DPH,A
   \   0000AE   8882         MOV     DPL,R0
   \   0000B0   E5..         MOV     A,?V0 + 1
   \   0000B2   F0           MOVX    @DPTR,A
    329               for(i=0;i<j;i++)                //从第二个开始记录数据 
   \   0000B3   75..00       MOV     ?V0 + 2,#0x0
   \                     ??MT_UartProcessZToolData_3:
   \   0000B6   E5..         MOV     A,?V0 + 2
   \   0000B8   C3           CLR     C
   \   0000B9   95..         SUBB    A,?V0 + 1
   \   0000BB   5040         JNC     ??MT_UartProcessZToolData_4
    330                 pMsg->msg [i+1]= buf[i];   
   \   0000BD   85....       MOV     ?V0 + 4,?V0 + 2
   \   0000C0   75..00       MOV     ?V0 + 5,#0x0
   \   0000C3   85..82       MOV     DPL,?XSP + 0
   \   0000C6   85..83       MOV     DPH,?XSP + 1
   \   0000C9   E582         MOV     A,DPL
   \   0000CB   25..         ADD     A,?V0 + 4
   \   0000CD   F582         MOV     DPL,A
   \   0000CF   E583         MOV     A,DPH
   \   0000D1   35..         ADDC    A,?V0 + 5
   \   0000D3   F583         MOV     DPH,A
   \   0000D5   E0           MOVX    A,@DPTR
   \   0000D6   C0E0         PUSH    A
   \   0000D8   E5..         MOV     A,?V0 + 2
   \   0000DA   A8..         MOV     R0,?V0 + 2
   \   0000DC   7900         MOV     R1,#0x0
   \   0000DE   90....       MOV     DPTR,#pMsg
   \   0000E1   E0           MOVX    A,@DPTR
   \   0000E2   FA           MOV     R2,A
   \   0000E3   A3           INC     DPTR
   \   0000E4   E0           MOVX    A,@DPTR
   \   0000E5   F583         MOV     DPH,A
   \   0000E7   8A82         MOV     DPL,R2
   \   0000E9   A3           INC     DPTR
   \   0000EA   A3           INC     DPTR
   \   0000EB   E0           MOVX    A,@DPTR
   \   0000EC   28           ADD     A,R0
   \   0000ED   FA           MOV     R2,A
   \   0000EE   A3           INC     DPTR
   \   0000EF   E0           MOVX    A,@DPTR
   \   0000F0   39           ADDC    A,R1
   \   0000F1   8A82         MOV     DPL,R2
   \   0000F3   F583         MOV     DPH,A
   \   0000F5   A3           INC     DPTR
   \   0000F6   D0E0         POP     A
   \   0000F8   F0           MOVX    @DPTR,A
   \   0000F9   05..         INC     ?V0 + 2
   \   0000FB   80B9         SJMP    ??MT_UartProcessZToolData_3
    331               osal_msg_send( App_TaskID, (byte *)pMsg );  //登记任务，发往上层
   \                     ??MT_UartProcessZToolData_4:
   \   0000FD                ; Setup parameters for call to function osal_msg_send
   \   0000FD   90....       MOV     DPTR,#pMsg
   \   000100   E0           MOVX    A,@DPTR
   \   000101   FA           MOV     R2,A
   \   000102   A3           INC     DPTR
   \   000103   E0           MOVX    A,@DPTR
   \   000104   FB           MOV     R3,A
   \   000105   90....       MOV     DPTR,#App_TaskID
   \   000108   E0           MOVX    A,@DPTR
   \   000109   F9           MOV     R1,A
   \   00010A   12....       LCALL   ??osal_msg_send?relay
   \   00010D   E9           MOV     A,R1
    332            /* deallocate the msg */
    333               osal_msg_deallocate ( (uint8 *)pMsg );      //释放内存
   \   00010E                ; Setup parameters for call to function osal_msg_deallocate
   \   00010E   90....       MOV     DPTR,#pMsg
   \   000111   E0           MOVX    A,@DPTR
   \   000112   FA           MOV     R2,A
   \   000113   A3           INC     DPTR
   \   000114   E0           MOVX    A,@DPTR
   \   000115   FB           MOV     R3,A
   \   000116   12....       LCALL   ??osal_msg_deallocate?relay
   \   000119   E9           MOV     A,R1
    334            }
    335          }
   \                     ??MT_UartProcessZToolData_2:
   \   00011A   7480         MOV     A,#-0x80
   \   00011C   12....       LCALL   ?DEALLOC_XSTACK8
   \   00011F   7F06         MOV     R7,#0x6
   \   000121   02....       LJMP    ?BANKED_LEAVE_XDATA

   \                                 In  segment BANK_RELAYS, align 1
   \                     ??MT_UartInit?relay:
   \   000000   12....       LCALL   ?BDISPATCH
   \   000003   ......       DC24    MT_UartInit

   \                                 In  segment BANK_RELAYS, align 1
   \                     ??MT_UartRegisterTaskID?relay:
   \   000000   12....       LCALL   ?BDISPATCH
   \   000003   ......       DC24    MT_UartRegisterTaskID

   \                                 In  segment BANK_RELAYS, align 1
   \                     ??MT_UartCalcFCS?relay:
   \   000000   12....       LCALL   ?BDISPATCH
   \   000003   ......       DC24    MT_UartCalcFCS

   \                                 In  segment BANK_RELAYS, align 1
   \                     ??MT_UartProcessZToolData?relay:
   \   000000   12....       LCALL   ?BDISPATCH
   \   000003   ......       DC24    MT_UartProcessZToolData
    336          
    337          #if defined (ZAPP_P1) || defined (ZAPP_P2)
    338          /***************************************************************************************************
    339           * @fn      MT_UartProcessZAppData
    340           *
    341           * @brief   | SOP | CMD  |   Data Length   | FSC  |
    342           *          |  1  |  2   |       1         |  1   |
    343           *
    344           *          Parses the data and determine either is SPI or just simply serial data
    345           *          then send the data to correct place (MT or APP)
    346           *
    347           * @param   port    - UART port
    348           *          event   - Event that causes the callback
    349           *
    350           *
    351           * @return  None
    352           ***************************************************************************************************/
    353          void MT_UartProcessZAppData ( uint8 port, uint8 event )
    354          {
    355          
    356            osal_event_hdr_t  *msg_ptr;
    357            uint16 length = 0;
    358            uint16 rxBufLen  = Hal_UART_RxBufLen(MT_UART_DEFAULT_PORT);
    359          
    360            /*
    361               If maxZAppBufferLength is 0 or larger than current length
    362               the entire length of the current buffer is returned.
    363            */
    364            if ((MT_UartMaxZAppBufLen != 0) && (MT_UartMaxZAppBufLen <= rxBufLen))
    365            {
    366              length = MT_UartMaxZAppBufLen;
    367            }
    368            else
    369            {
    370              length = rxBufLen;
    371            }
    372          
    373            /* Verify events */
    374            if (event == HAL_UART_TX_FULL)
    375            {
    376              // Do something when TX if full
    377              return;
    378            }
    379          
    380            if (event & ( HAL_UART_RX_FULL | HAL_UART_RX_ABOUT_FULL | HAL_UART_RX_TIMEOUT))
    381            {
    382              if ( App_TaskID )
    383              {
    384                /*
    385                   If Application is ready to receive and there is something
    386                   in the Rx buffer then send it up
    387                */
    388                if ((MT_UartZAppRxStatus == MT_UART_ZAPP_RX_READY ) && (length != 0))
    389                {
    390                  /* Disable App flow control until it processes the current data */
    391                   MT_UartAppFlowControl (MT_UART_ZAPP_RX_NOT_READY);
    392          
    393                  /* 2 more bytes are added, 1 for CMD type, other for length */
    394                  msg_ptr = (osal_event_hdr_t *)osal_msg_allocate( length + sizeof(osal_event_hdr_t) );
    395                  if ( msg_ptr )
    396                  {
    397                    msg_ptr->event = SPI_INCOMING_ZAPP_DATA;
    398                    msg_ptr->status = length;
    399          
    400                    /* Read the data of Rx buffer */
    401                    HalUARTRead( MT_UART_DEFAULT_PORT, (uint8 *)(msg_ptr + 1), length );
    402          
    403                    /* Send the raw data to application...or where ever */
    404                    osal_msg_send( App_TaskID, (uint8 *)msg_ptr );
    405                  }
    406                }
    407              }
    408            }
    409          }
    410          
    411          /***************************************************************************************************
    412           * @fn      SPIMgr_ZAppBufferLengthRegister
    413           *
    414           * @brief
    415           *
    416           * @param   maxLen - Max Length that the application wants at a time
    417           *
    418           * @return  None
    419           *
    420           ***************************************************************************************************/
    421          void MT_UartZAppBufferLengthRegister ( uint16 maxLen )
    422          {
    423            /* If the maxLen is larger than the RX buff, something is not right */
    424            if (maxLen <= MT_UART_DEFAULT_MAX_RX_BUFF)
    425              MT_UartMaxZAppBufLen = maxLen;
    426            else
    427              MT_UartMaxZAppBufLen = 1; /* default is 1 byte */
    428          }
    429          
    430          /***************************************************************************************************
    431           * @fn      SPIMgr_AppFlowControl
    432           *
    433           * @brief
    434           *
    435           * @param   status - ready to send or not
    436           *
    437           * @return  None
    438           *
    439           ***************************************************************************************************/
    440          void MT_UartAppFlowControl ( bool status )
    441          {
    442          
    443            /* Make sure only update if needed */
    444            if (status != MT_UartZAppRxStatus )
    445            {
    446              MT_UartZAppRxStatus = status;
    447            }
    448          
    449            /* App is ready to read again, ProcessZAppData have to be triggered too */
    450            if (status == MT_UART_ZAPP_RX_READY)
    451            {
    452              MT_UartProcessZAppData (MT_UART_DEFAULT_PORT, HAL_UART_RX_TIMEOUT );
    453            }
    454          
    455          }
    456          
    457          #endif //ZAPP
    458          
    459          /***************************************************************************************************
    460          ***************************************************************************************************/

   Maximum stack usage in bytes:

     Function                 ISTACK PSTACK XSTACK
     --------                 ------ ------ ------
     MT_UartCalcFCS               2      0      0
     MT_UartInit                  2      0     29
     MT_UartProcessZToolData      1      0    142
       -> Hal_UART_RxBufLen       0      0    284
       -> HalUARTRead             0      0    284
       -> osal_msg_allocate       0      0    284
       -> osal_msg_send           0      0    284
       -> osal_msg_deallocate     0      0    284
     MT_UartRegisterTaskID        2      0      0


   Segment part sizes:

     Function/Label                  Bytes
     --------------                  -----
     App_TaskID                         1
     state                              1
     CMD_Token                          2
     LEN_Token                          1
     FSC_Token                          1
     pMsg                               2
     tempDataLen                        1
     MT_UartInit                      116
     MT_UartRegisterTaskID             16
     MT_UartCalcFCS                    42
     MT_UartProcessZToolData          292
     ??MT_UartInit?relay                6
     ??MT_UartRegisterTaskID?relay      6
     ??MT_UartCalcFCS?relay             6
     ??MT_UartProcessZToolData?relay    6

 
 466 bytes in segment BANKED_CODE
  24 bytes in segment BANK_RELAYS
   9 bytes in segment XDATA_Z
 
 490 bytes of CODE  memory
   9 bytes of XDATA memory

Errors: none
Warnings: none
