///////////////////////////////////////////////////////////////////////////////
//                                                                            /
// IAR C/C++ Compiler V8.10.1.40194/W32 for 8051        04/Jan/2021  17:34:25 /
// Copyright 2004-2011 IAR Systems AB.                                        /
//                                                                            /
//    Core               =  plain                                             /
//    Code model         =  banked                                            /
//    Data model         =  large                                             /
//    Calling convention =  xdata reentrant                                   /
//    Constant location  =  data_rom                                          /
//    Dptr setup         =  1,16                                              /
//    Source file        =  D:\Projects_IAR\IAR_C8051\WSN-CC2530\ZStack-CC253 /
//                          0-2.5.1a_EB\Projects\zstack\MY_BOARD\Exp4\Source\ /
//                          TransmitAppD203.c                                 /
//    Command line       =  -f D:\Projects_IAR\IAR_C8051\WSN-CC2530\ZStack-CC /
//                          2530-2.5.1a_EB\Projects\zstack\MY_BOARD\Exp4\CC25 /
//                          30DB\..\..\..\Tools\CC2530DB\f8wEndev.cfg         /
//                          (-DCPU32MHZ -DROOT=__near_func                    /
//                          -DMAC_CFG_TX_DATA_MAX=3 -DMAC_CFG_TX_MAX=6        /
//                          -DMAC_CFG_RX_MAX=3) -f D:\Projects_IAR\IAR_C8051\ /
//                          WSN-CC2530\ZStack-CC2530-2.5.1a_EB\Projects\zstac /
//                          k\MY_BOARD\Exp4\CC2530DB\..\..\..\Tools\CC2530DB\ /
//                          f8wConfig.cfg (-DZIGBEEPRO -DSECURE=0             /
//                          -DZG_SECURE_DYNAMIC=0 -DREFLECTOR                 /
//                          -DDEFAULT_CHANLIST=0x02000000                     /
//                          -DZDAPP_CONFIG_PAN_ID=0x1001                      /
//                          -DNWK_START_DELAY=100 -DEXTENDED_JOINING_RANDOM_M /
//                          ASK=0x007F -DBEACON_REQUEST_DELAY=100             /
//                          -DBEACON_REQ_DELAY_MASK=0x00FF                    /
//                          -DLINK_STATUS_JITTER_MASK=0x007F                  /
//                          -DROUTE_EXPIRY_TIME=30 -DAPSC_ACK_WAIT_DURATION_P /
//                          OLLED=3000 -DNWK_INDIRECT_MSG_TIMEOUT=7           /
//                          -DMAX_RREQ_ENTRIES=8 -DAPSC_MAX_FRAME_RETRIES=3   /
//                          -DNWK_MAX_DATA_RETRIES=2                          /
//                          -DMAX_POLL_FAILURE_RETRIES=2 -DMAX_BCAST=9        /
//                          -DAPS_MAX_GROUPS=16 -DMAX_RTG_ENTRIES=40          /
//                          -DNWK_MAX_BINDING_ENTRIES=4                       /
//                          -DMAX_BINDING_CLUSTER_IDS=4                       /
//                          "-DDEFAULT_KEY={0x01, 0x03, 0x05, 0x07, 0x09,     /
//                          0x0B, 0x0D, 0x0F, 0x00, 0x02, 0x04, 0x06, 0x08,   /
//                          0x0A, 0x0C, 0x0D}" -DMAC_MAX_FRAME_SIZE=116       /
//                          -DZDNWKMGR_MIN_TRANSMISSIONS=20 "-DCONST=const    /
//                          __code" -DGENERIC=__generic                       /
//                          -DRFD_RCVC_ALWAYS_ON=FALSE -DPOLL_RATE=1000       /
//                          -DQUEUED_POLL_RATE=100 -DRESPONSE_POLL_RATE=100)  /
//                          -DREJOIN_POLL_RATE=440 D:\Projects_IAR\IAR_C8051\ /
//                          WSN-CC2530\ZStack-CC2530-2.5.1a_EB\Projects\zstac /
//                          k\MY_BOARD\Exp4\Source\TransmitAppD203.c -D       /
//                          HAL_UART=TRUE -D HAL_UART_TEST -D xPOWER_SAVING   /
//                          -D xREFLECTOR -lC D:\Projects_IAR\IAR_C8051\WSN-C /
//                          C2530\ZStack-CC2530-2.5.1a_EB\Projects\zstack\MY_ /
//                          BOARD\Exp4\CC2530DB\EndDeviceSBD203\List\ -lA     /
//                          D:\Projects_IAR\IAR_C8051\WSN-CC2530\ZStack-CC253 /
//                          0-2.5.1a_EB\Projects\zstack\MY_BOARD\Exp4\CC2530D /
//                          B\EndDeviceSBD203\List\ --diag_suppress           /
//                          Pe001,Pa010 -o D:\Projects_IAR\IAR_C8051\WSN-CC25 /
//                          30\ZStack-CC2530-2.5.1a_EB\Projects\zstack\MY_BOA /
//                          RD\Exp4\CC2530DB\EndDeviceSBD203\Obj\ -e          /
//                          --no_code_motion --debug --core=plain             /
//                          --dptr=16,1 --data_model=large                    /
//                          --code_model=banked --calling_convention=xdata_re /
//                          entrant --place_constants=data_rom                /
//                          --nr_virtual_regs 16 -I                           /
//                          D:\Projects_IAR\IAR_C8051\WSN-CC2530\ZStack-CC253 /
//                          0-2.5.1a_EB\Projects\zstack\MY_BOARD\Exp4\CC2530D /
//                          B\ -I D:\Projects_IAR\IAR_C8051\WSN-CC2530\ZStack /
//                          -CC2530-2.5.1a_EB\Projects\zstack\MY_BOARD\Exp4\C /
//                          C2530DB\..\Source\ -I D:\Projects_IAR\IAR_C8051\W /
//                          SN-CC2530\ZStack-CC2530-2.5.1a_EB\Projects\zstack /
//                          \MY_BOARD\Exp4\CC2530DB\..\..\..\ZMain\TI2530DB\  /
//                          -I D:\Projects_IAR\IAR_C8051\WSN-CC2530\ZStack-CC /
//                          2530-2.5.1a_EB\Projects\zstack\MY_BOARD\Exp4\CC25 /
//                          30DB\..\..\..\..\..\Components\hal\include\ -I    /
//                          D:\Projects_IAR\IAR_C8051\WSN-CC2530\ZStack-CC253 /
//                          0-2.5.1a_EB\Projects\zstack\MY_BOARD\Exp4\CC2530D /
//                          B\..\..\..\..\..\Components\hal\target\CC2530SB\  /
//                          -I D:\Projects_IAR\IAR_C8051\WSN-CC2530\ZStack-CC /
//                          2530-2.5.1a_EB\Projects\zstack\MY_BOARD\Exp4\CC25 /
//                          30DB\..\..\..\..\..\Components\mac\include\ -I    /
//                          D:\Projects_IAR\IAR_C8051\WSN-CC2530\ZStack-CC253 /
//                          0-2.5.1a_EB\Projects\zstack\MY_BOARD\Exp4\CC2530D /
//                          B\..\..\..\..\..\Components\mac\high_level\ -I    /
//                          D:\Projects_IAR\IAR_C8051\WSN-CC2530\ZStack-CC253 /
//                          0-2.5.1a_EB\Projects\zstack\MY_BOARD\Exp4\CC2530D /
//                          B\..\..\..\..\..\Components\mac\low_level\srf04\  /
//                          -I D:\Projects_IAR\IAR_C8051\WSN-CC2530\ZStack-CC /
//                          2530-2.5.1a_EB\Projects\zstack\MY_BOARD\Exp4\CC25 /
//                          30DB\..\..\..\..\..\Components\mac\low_level\srf0 /
//                          4\single_chip\ -I D:\Projects_IAR\IAR_C8051\WSN-C /
//                          C2530\ZStack-CC2530-2.5.1a_EB\Projects\zstack\MY_ /
//                          BOARD\Exp4\CC2530DB\..\..\..\..\..\Components\mt\ /
//                           -I D:\Projects_IAR\IAR_C8051\WSN-CC2530\ZStack-C /
//                          C2530-2.5.1a_EB\Projects\zstack\MY_BOARD\Exp4\CC2 /
//                          530DB\..\..\..\..\..\Components\osal\include\ -I  /
//                          D:\Projects_IAR\IAR_C8051\WSN-CC2530\ZStack-CC253 /
//                          0-2.5.1a_EB\Projects\zstack\MY_BOARD\Exp4\CC2530D /
//                          B\..\..\..\..\..\Components\services\saddr\ -I    /
//                          D:\Projects_IAR\IAR_C8051\WSN-CC2530\ZStack-CC253 /
//                          0-2.5.1a_EB\Projects\zstack\MY_BOARD\Exp4\CC2530D /
//                          B\..\..\..\..\..\Components\services\sdata\ -I    /
//                          D:\Projects_IAR\IAR_C8051\WSN-CC2530\ZStack-CC253 /
//                          0-2.5.1a_EB\Projects\zstack\MY_BOARD\Exp4\CC2530D /
//                          B\..\..\..\..\..\Components\stack\af\ -I          /
//                          D:\Projects_IAR\IAR_C8051\WSN-CC2530\ZStack-CC253 /
//                          0-2.5.1a_EB\Projects\zstack\MY_BOARD\Exp4\CC2530D /
//                          B\..\..\..\..\..\Components\stack\nwk\ -I         /
//                          D:\Projects_IAR\IAR_C8051\WSN-CC2530\ZStack-CC253 /
//                          0-2.5.1a_EB\Projects\zstack\MY_BOARD\Exp4\CC2530D /
//                          B\..\..\..\..\..\Components\stack\sapi\ -I        /
//                          D:\Projects_IAR\IAR_C8051\WSN-CC2530\ZStack-CC253 /
//                          0-2.5.1a_EB\Projects\zstack\MY_BOARD\Exp4\CC2530D /
//                          B\..\..\..\..\..\Components\stack\sec\ -I         /
//                          D:\Projects_IAR\IAR_C8051\WSN-CC2530\ZStack-CC253 /
//                          0-2.5.1a_EB\Projects\zstack\MY_BOARD\Exp4\CC2530D /
//                          B\..\..\..\..\..\Components\stack\sys\ -I         /
//                          D:\Projects_IAR\IAR_C8051\WSN-CC2530\ZStack-CC253 /
//                          0-2.5.1a_EB\Projects\zstack\MY_BOARD\Exp4\CC2530D /
//                          B\..\..\..\..\..\Components\stack\zdo\ -I         /
//                          D:\Projects_IAR\IAR_C8051\WSN-CC2530\ZStack-CC253 /
//                          0-2.5.1a_EB\Projects\zstack\MY_BOARD\Exp4\CC2530D /
//                          B\..\..\..\..\..\Components\zmac\ -I              /
//                          D:\Projects_IAR\IAR_C8051\WSN-CC2530\ZStack-CC253 /
//                          0-2.5.1a_EB\Projects\zstack\MY_BOARD\Exp4\CC2530D /
//                          B\..\..\..\..\..\Components\zmac\f8w\ -Ohz        /
//    List file          =  D:\Projects_IAR\IAR_C8051\WSN-CC2530\ZStack-CC253 /
//                          0-2.5.1a_EB\Projects\zstack\MY_BOARD\Exp4\CC2530D /
//                          B\EndDeviceSBD203\List\TransmitAppD203.s51        /
//                                                                            /
//                                                                            /
///////////////////////////////////////////////////////////////////////////////

        NAME TransmitAppD203

        RTMODEL "__SystemLibrary", "CLib"
        RTMODEL "__calling_convention", "xdata_reentrant"
        RTMODEL "__code_model", "banked"
        RTMODEL "__core", "plain"
        RTMODEL "__data_model", "large"
        RTMODEL "__dptr_size", "16"
        RTMODEL "__extended_stack", "disabled"
        RTMODEL "__location_for_constants", "data"
        RTMODEL "__number_of_dptrs", "1"
        RTMODEL "__rt_version", "1"

        RSEG DOVERLAY:DATA:NOROOT(0)
        RSEG IOVERLAY:IDATA:NOROOT(0)
        RSEG ISTACK:IDATA:NOROOT(0)
        RSEG PSTACK:XDATA:NOROOT(0)
        RSEG XSTACK:XDATA:NOROOT(0)

        EXTERN ?ALLOC_XSTACK8
        EXTERN ?BANKED_ENTER_XDATA
        EXTERN ?BANKED_LEAVE_XDATA
        EXTERN ?BDISPATCH
        EXTERN ?BRET
        EXTERN ?DEALLOC_XSTACK8
        EXTERN ?PUSH_XSTACK_I_ONE
        EXTERN ?PUSH_XSTACK_I_TWO
        EXTERN ?V0
        EXTERN ?XSP
        EXTERN ?XSTACK_DISP0_8
        EXTERN __INIT_XDATA_Z

        FUNCTION ??TransmitAPP_CallBack?relay,0203H
        PUBLIC ??TransmitApp_ChangeState?relay
        FUNCTION ??TransmitApp_ChangeState?relay,0203H
        PUBLIC ??TransmitApp_DisplayResults?relay
        FUNCTION ??TransmitApp_DisplayResults?relay,0203H
        PUBLIC ??TransmitApp_HalCheckEvt?relay
        FUNCTION ??TransmitApp_HalCheckEvt?relay,0203H
        PUBLIC ??TransmitApp_HandleKeys?relay
        FUNCTION ??TransmitApp_HandleKeys?relay,0203H
        PUBLIC ??TransmitApp_Init?relay
        FUNCTION ??TransmitApp_Init?relay,0203H
        PUBLIC ??TransmitApp_MessageMSGCB?relay
        FUNCTION ??TransmitApp_MessageMSGCB?relay,0203H
        PUBLIC ??TransmitApp_ProcessEvent?relay
        FUNCTION ??TransmitApp_ProcessEvent?relay,0203H
        PUBLIC ??TransmitApp_ProcessZDOMsgs?relay
        FUNCTION ??TransmitApp_ProcessZDOMsgs?relay,0203H
        PUBLIC ??TransmitApp_SendTheMessage?relay
        FUNCTION ??TransmitApp_SendTheMessage?relay,0203H
        PUBLIC ??TransmitApp_SetSendEvt?relay
        FUNCTION ??TransmitApp_SetSendEvt?relay,0203H
        FUNCTION TransmitAPP_CallBack,0603H
        ARGFRAME XSTACK, 0, STACK
        PUBLIC TransmitApp_ChangeState
        FUNCTION TransmitApp_ChangeState,0203H
        ARGFRAME XSTACK, 0, STACK
        PUBLIC TransmitApp_DisplayResults
        FUNCTION TransmitApp_DisplayResults,0203H
        ARGFRAME XSTACK, 0, STACK
        PUBLIC TransmitApp_DstAddr
        PUBLIC TransmitApp_HalCheckEvt
        FUNCTION TransmitApp_HalCheckEvt,021201H
        ARGFRAME XSTACK, 21, STACK
        ARGFRAME IOVERLAY, 0, STATIC
        ARGFRAME DOVERLAY, 0, STATIC
        LOCFRAME ISTACK, 2, STACK
        PUBLIC TransmitApp_HandleKeys
        FUNCTION TransmitApp_HandleKeys,0203H
        ARGFRAME XSTACK, 0, STACK
        PUBLIC TransmitApp_InClusterList
        PUBLIC TransmitApp_Init
        FUNCTION TransmitApp_Init,021203H
        ARGFRAME XSTACK, 0, STACK
        LOCFRAME XSTACK, 38, STACK
        PUBLIC TransmitApp_MessageMSGCB
        FUNCTION TransmitApp_MessageMSGCB,0203H
        ARGFRAME XSTACK, 0, STACK
        PUBLIC TransmitApp_Msg
        PUBLIC TransmitApp_OutClusterList
        PUBLIC TransmitApp_ProcessEvent
        FUNCTION TransmitApp_ProcessEvent,021203H
        ARGFRAME XSTACK, 0, STACK
        LOCFRAME XSTACK, 29, STACK
        PUBLIC TransmitApp_ProcessZDOMsgs
        FUNCTION TransmitApp_ProcessZDOMsgs,021203H
        ARGFRAME XSTACK, 21, STACK
        ARGFRAME IOVERLAY, 0, STATIC
        ARGFRAME DOVERLAY, 0, STATIC
        LOCFRAME XSTACK, 10, STACK
        PUBLIC TransmitApp_SendTheMessage
        FUNCTION TransmitApp_SendTheMessage,021203H
        ARGFRAME XSTACK, 21, STACK
        ARGFRAME IOVERLAY, 0, STATIC
        ARGFRAME DOVERLAY, 0, STATIC
        LOCFRAME XSTACK, 19, STACK
        PUBLIC TransmitApp_SetSendEvt
        FUNCTION TransmitApp_SetSendEvt,0203H
        ARGFRAME XSTACK, 0, STACK
        PUBLIC TransmitApp_SimpleDesc
        PUBLIC TransmitApp_TaskID
        PUBLIC TransmitApp_epDesc
        
        CFI Names cfiNames0
        CFI StackFrame CFA_SP SP IDATA
        CFI StackFrame CFA_PSP16 PSP16 XDATA
        CFI StackFrame CFA_XSP16 XSP16 XDATA
        CFI StaticOverlayFrame CFA_IOVERLAY IOVERLAY
        CFI StaticOverlayFrame CFA_DOVERLAY DOVERLAY
        CFI Resource `PSW.CY`:1, `B.BR0`:1, `B.BR1`:1, `B.BR2`:1, `B.BR3`:1
        CFI Resource `B.BR4`:1, `B.BR5`:1, `B.BR6`:1, `B.BR7`:1, `VB.BR8`:1
        CFI Resource `VB.BR9`:1, `VB.BR10`:1, `VB.BR11`:1, `VB.BR12`:1
        CFI Resource `VB.BR13`:1, `VB.BR14`:1, `VB.BR15`:1, VB:8, B:8, A:8
        CFI Resource PSW:8, DPL0:8, DPH0:8, R0:8, R1:8, R2:8, R3:8, R4:8, R5:8
        CFI Resource R6:8, R7:8, V0:8, V1:8, V2:8, V3:8, V4:8, V5:8, V6:8, V7:8
        CFI Resource V8:8, V9:8, V10:8, V11:8, V12:8, V13:8, V14:8, V15:8, SP:8
        CFI Resource PSPH:8, PSPL:8, PSP16:16, XSPH:8, XSPL:8, XSP16:16
        CFI VirtualResource ?RET:24
        CFI Resource ?BRET_EXT:8
        CFI VirtualResource ?RET_HIGH:8, ?RET_LOW:8
        CFI ResourceParts PSP16 PSPH, PSPL
        CFI ResourceParts XSP16 XSPH, XSPL
        CFI ResourceParts ?RET ?BRET_EXT, ?RET_HIGH, ?RET_LOW
        CFI EndNames cfiNames0
        
        CFI Common cfiCommon0 Using cfiNames0
        CFI CodeAlign 1
        CFI DataAlign -1
        CFI ReturnAddress ?RET CODE
        CFI CFA_DOVERLAY Used
        CFI CFA_IOVERLAY Used
        CFI CFA_SP SP+-3
        CFI CFA_PSP16 PSP16+0
        CFI CFA_XSP16 XSP16+0
        CFI `PSW.CY` SameValue
        CFI `B.BR0` SameValue
        CFI `B.BR1` SameValue
        CFI `B.BR2` SameValue
        CFI `B.BR3` SameValue
        CFI `B.BR4` SameValue
        CFI `B.BR5` SameValue
        CFI `B.BR6` SameValue
        CFI `B.BR7` SameValue
        CFI `VB.BR8` SameValue
        CFI `VB.BR9` SameValue
        CFI `VB.BR10` SameValue
        CFI `VB.BR11` SameValue
        CFI `VB.BR12` SameValue
        CFI `VB.BR13` SameValue
        CFI `VB.BR14` SameValue
        CFI `VB.BR15` SameValue
        CFI VB SameValue
        CFI B Undefined
        CFI A Undefined
        CFI PSW SameValue
        CFI DPL0 SameValue
        CFI DPH0 SameValue
        CFI R0 Undefined
        CFI R1 Undefined
        CFI R2 Undefined
        CFI R3 Undefined
        CFI R4 Undefined
        CFI R5 Undefined
        CFI R6 SameValue
        CFI R7 SameValue
        CFI V0 SameValue
        CFI V1 SameValue
        CFI V2 SameValue
        CFI V3 SameValue
        CFI V4 SameValue
        CFI V5 SameValue
        CFI V6 SameValue
        CFI V7 SameValue
        CFI V8 SameValue
        CFI V9 SameValue
        CFI V10 SameValue
        CFI V11 SameValue
        CFI V12 SameValue
        CFI V13 SameValue
        CFI V14 SameValue
        CFI V15 SameValue
        CFI PSPH Undefined
        CFI PSPL Undefined
        CFI XSPH Undefined
        CFI XSPL Undefined
        CFI ?RET Concat
        CFI ?BRET_EXT Frame(CFA_SP, 3)
        CFI ?RET_HIGH Frame(CFA_SP, 2)
        CFI ?RET_LOW Frame(CFA_SP, 1)
        CFI EndCommon cfiCommon0
        
        
        CFI Common cfiCommon1 Using cfiNames0
        CFI CodeAlign 1
        CFI DataAlign -1
        CFI ReturnAddress ?RET CODE
        CFI CFA_DOVERLAY Used
        CFI CFA_IOVERLAY Used
        CFI CFA_SP SP+-2
        CFI CFA_PSP16 PSP16+0
        CFI CFA_XSP16 XSP16+0
        CFI `PSW.CY` SameValue
        CFI `B.BR0` SameValue
        CFI `B.BR1` SameValue
        CFI `B.BR2` SameValue
        CFI `B.BR3` SameValue
        CFI `B.BR4` SameValue
        CFI `B.BR5` SameValue
        CFI `B.BR6` SameValue
        CFI `B.BR7` SameValue
        CFI `VB.BR8` SameValue
        CFI `VB.BR9` SameValue
        CFI `VB.BR10` SameValue
        CFI `VB.BR11` SameValue
        CFI `VB.BR12` SameValue
        CFI `VB.BR13` SameValue
        CFI `VB.BR14` SameValue
        CFI `VB.BR15` SameValue
        CFI VB SameValue
        CFI B SameValue
        CFI A SameValue
        CFI PSW SameValue
        CFI DPL0 SameValue
        CFI DPH0 SameValue
        CFI R0 SameValue
        CFI R1 SameValue
        CFI R2 SameValue
        CFI R3 SameValue
        CFI R4 SameValue
        CFI R5 SameValue
        CFI R6 SameValue
        CFI R7 SameValue
        CFI V0 SameValue
        CFI V1 SameValue
        CFI V2 SameValue
        CFI V3 SameValue
        CFI V4 SameValue
        CFI V5 SameValue
        CFI V6 SameValue
        CFI V7 SameValue
        CFI V8 SameValue
        CFI V9 SameValue
        CFI V10 SameValue
        CFI V11 SameValue
        CFI V12 SameValue
        CFI V13 SameValue
        CFI V14 SameValue
        CFI V15 SameValue
        CFI PSPH Undefined
        CFI PSPL Undefined
        CFI XSPH Undefined
        CFI XSPL Undefined
        CFI ?RET Concat
        CFI ?BRET_EXT SameValue
        CFI ?RET_HIGH Frame(CFA_SP, 2)
        CFI ?RET_LOW Frame(CFA_SP, 1)
        CFI EndCommon cfiCommon1
        
HalUARTOpen         SYMBOL "HalUARTOpen"
afRegister          SYMBOL "afRegister"
RegisterForKeys     SYMBOL "RegisterForKeys"
ZDO_RegisterForZDOMsg SYMBOL "ZDO_RegisterForZDOMsg"
HalD203Init         SYMBOL "HalD203Init"
osal_start_reload_timer SYMBOL "osal_start_reload_timer"
osal_msg_receive    SYMBOL "osal_msg_receive"
osal_msg_deallocate SYMBOL "osal_msg_deallocate"
ZDP_MatchDescReq    SYMBOL "ZDP_MatchDescReq"
ZDO_ParseEPListRsp  SYMBOL "ZDO_ParseEPListRsp"
osal_stop_timerEx   SYMBOL "osal_stop_timerEx"
HalUARTWrite        SYMBOL "HalUARTWrite"
osal_mem_free       SYMBOL "osal_mem_free"
AF_DataRequest      SYMBOL "AF_DataRequest"
HalD203Check        SYMBOL "HalD203Check"
??AF_DataRequest?relay SYMBOL "?relay", AF_DataRequest
??HalD203Check?relay SYMBOL "?relay", HalD203Check
??HalD203Init?relay SYMBOL "?relay", HalD203Init
??HalUARTOpen?relay SYMBOL "?relay", HalUARTOpen
??HalUARTWrite?relay SYMBOL "?relay", HalUARTWrite
??RegisterForKeys?relay SYMBOL "?relay", RegisterForKeys
??ZDO_ParseEPListRsp?relay SYMBOL "?relay", ZDO_ParseEPListRsp
??ZDO_RegisterForZDOMsg?relay SYMBOL "?relay", ZDO_RegisterForZDOMsg
??ZDP_MatchDescReq?relay SYMBOL "?relay", ZDP_MatchDescReq
??afRegister?relay  SYMBOL "?relay", afRegister
??osal_mem_free?relay SYMBOL "?relay", osal_mem_free
??osal_msg_deallocate?relay SYMBOL "?relay", osal_msg_deallocate
??osal_msg_receive?relay SYMBOL "?relay", osal_msg_receive
??osal_start_reload_timer?relay SYMBOL "?relay", osal_start_reload_timer
??osal_stop_timerEx?relay SYMBOL "?relay", osal_stop_timerEx
TransmitApp_ChangeState SYMBOL "TransmitApp_ChangeState"
??TransmitApp_ChangeState?relay SYMBOL "?relay", TransmitApp_ChangeState
TransmitApp_DisplayResults SYMBOL "TransmitApp_DisplayResults"
??TransmitApp_DisplayResults?relay SYMBOL "?relay", TransmitApp_DisplayResults
TransmitApp_HalCheckEvt SYMBOL "TransmitApp_HalCheckEvt"
??TransmitApp_HalCheckEvt?relay SYMBOL "?relay", TransmitApp_HalCheckEvt
TransmitApp_HandleKeys SYMBOL "TransmitApp_HandleKeys"
??TransmitApp_HandleKeys?relay SYMBOL "?relay", TransmitApp_HandleKeys
TransmitApp_Init    SYMBOL "TransmitApp_Init"
??TransmitApp_Init?relay SYMBOL "?relay", TransmitApp_Init
TransmitApp_MessageMSGCB SYMBOL "TransmitApp_MessageMSGCB"
??TransmitApp_MessageMSGCB?relay SYMBOL "?relay", TransmitApp_MessageMSGCB
TransmitApp_ProcessEvent SYMBOL "TransmitApp_ProcessEvent"
??TransmitApp_ProcessEvent?relay SYMBOL "?relay", TransmitApp_ProcessEvent
TransmitApp_ProcessZDOMsgs SYMBOL "TransmitApp_ProcessZDOMsgs"
??TransmitApp_ProcessZDOMsgs?relay SYMBOL "?relay", TransmitApp_ProcessZDOMsgs
TransmitApp_SendTheMessage SYMBOL "TransmitApp_SendTheMessage"
??TransmitApp_SendTheMessage?relay SYMBOL "?relay", TransmitApp_SendTheMessage
TransmitApp_SetSendEvt SYMBOL "TransmitApp_SetSendEvt"
??TransmitApp_SetSendEvt?relay SYMBOL "?relay", TransmitApp_SetSendEvt

        EXTERN HalUARTOpen
        FUNCTION HalUARTOpen,0202H
        ARGFRAME ISTACK, 0, STACK
        ARGFRAME PSTACK, 0, STACK
        ARGFRAME XSTACK, 38, STACK
        ARGFRAME IOVERLAY, 0, STATIC
        ARGFRAME DOVERLAY, 0, STATIC
        EXTERN afRegister
        FUNCTION afRegister,0202H
        ARGFRAME ISTACK, 0, STACK
        ARGFRAME PSTACK, 0, STACK
        ARGFRAME XSTACK, 38, STACK
        ARGFRAME IOVERLAY, 0, STATIC
        ARGFRAME DOVERLAY, 0, STATIC
        EXTERN RegisterForKeys
        FUNCTION RegisterForKeys,0202H
        ARGFRAME ISTACK, 0, STACK
        ARGFRAME PSTACK, 0, STACK
        ARGFRAME XSTACK, 38, STACK
        ARGFRAME IOVERLAY, 0, STATIC
        ARGFRAME DOVERLAY, 0, STATIC
        EXTERN ZDO_RegisterForZDOMsg
        FUNCTION ZDO_RegisterForZDOMsg,0202H
        ARGFRAME ISTACK, 0, STACK
        ARGFRAME PSTACK, 0, STACK
        ARGFRAME XSTACK, 38, STACK
        ARGFRAME IOVERLAY, 0, STATIC
        ARGFRAME DOVERLAY, 0, STATIC
        EXTERN HalD203Init
        FUNCTION HalD203Init,0200H
        ARGFRAME ISTACK, 0, STACK
        ARGFRAME PSTACK, 0, STACK
        ARGFRAME XSTACK, 38, STACK
        ARGFRAME IOVERLAY, 0, STATIC
        ARGFRAME DOVERLAY, 0, STATIC
        EXTERN osal_start_reload_timer
        FUNCTION osal_start_reload_timer,0202H
        ARGFRAME ISTACK, 0, STACK
        ARGFRAME PSTACK, 0, STACK
        ARGFRAME XSTACK, 38, STACK
        ARGFRAME IOVERLAY, 0, STATIC
        ARGFRAME DOVERLAY, 0, STATIC
        EXTERN osal_msg_receive
        FUNCTION osal_msg_receive,0202H
        ARGFRAME ISTACK, 0, STACK
        ARGFRAME PSTACK, 0, STACK
        ARGFRAME XSTACK, 21, STACK
        ARGFRAME IOVERLAY, 0, STATIC
        ARGFRAME DOVERLAY, 0, STATIC
        EXTERN osal_msg_deallocate
        FUNCTION osal_msg_deallocate,0202H
        ARGFRAME ISTACK, 0, STACK
        ARGFRAME PSTACK, 0, STACK
        ARGFRAME XSTACK, 21, STACK
        ARGFRAME IOVERLAY, 0, STATIC
        ARGFRAME DOVERLAY, 0, STATIC
        EXTERN ZDP_MatchDescReq
        FUNCTION ZDP_MatchDescReq,0202H
        ARGFRAME ISTACK, 0, STACK
        ARGFRAME PSTACK, 0, STACK
        ARGFRAME XSTACK, 29, STACK
        ARGFRAME IOVERLAY, 0, STATIC
        ARGFRAME DOVERLAY, 0, STATIC
        EXTERN ZDO_ParseEPListRsp
        FUNCTION ZDO_ParseEPListRsp,0202H
        ARGFRAME ISTACK, 0, STACK
        ARGFRAME PSTACK, 0, STACK
        ARGFRAME XSTACK, 10, STACK
        ARGFRAME IOVERLAY, 0, STATIC
        ARGFRAME DOVERLAY, 0, STATIC
        EXTERN osal_stop_timerEx
        FUNCTION osal_stop_timerEx,0202H
        ARGFRAME ISTACK, 0, STACK
        ARGFRAME PSTACK, 0, STACK
        ARGFRAME XSTACK, 10, STACK
        ARGFRAME IOVERLAY, 0, STATIC
        ARGFRAME DOVERLAY, 0, STATIC
        EXTERN HalUARTWrite
        FUNCTION HalUARTWrite,0202H
        ARGFRAME ISTACK, 0, STACK
        ARGFRAME PSTACK, 0, STACK
        ARGFRAME XSTACK, 10, STACK
        ARGFRAME IOVERLAY, 0, STATIC
        ARGFRAME DOVERLAY, 0, STATIC
        EXTERN osal_mem_free
        FUNCTION osal_mem_free,0202H
        ARGFRAME ISTACK, 0, STACK
        ARGFRAME PSTACK, 0, STACK
        ARGFRAME XSTACK, 10, STACK
        ARGFRAME IOVERLAY, 0, STATIC
        ARGFRAME DOVERLAY, 0, STATIC
        EXTERN AF_DataRequest
        FUNCTION AF_DataRequest,0202H
        ARGFRAME ISTACK, 0, STACK
        ARGFRAME PSTACK, 0, STACK
        ARGFRAME XSTACK, 19, STACK
        ARGFRAME IOVERLAY, 0, STATIC
        ARGFRAME DOVERLAY, 0, STATIC
        EXTERN HalD203Check
        FUNCTION HalD203Check,0200H
        ARGFRAME ISTACK, 2, STACK
        ARGFRAME PSTACK, 0, STACK
        ARGFRAME XSTACK, 0, STACK
        ARGFRAME IOVERLAY, 0, STATIC
        ARGFRAME DOVERLAY, 0, STATIC
        EXTERN ??AF_DataRequest?relay
        FUNCTION ??AF_DataRequest?relay,00H
        EXTERN ??HalD203Check?relay
        FUNCTION ??HalD203Check?relay,00H
        EXTERN ??HalD203Init?relay
        FUNCTION ??HalD203Init?relay,00H
        EXTERN ??HalUARTOpen?relay
        FUNCTION ??HalUARTOpen?relay,00H
        EXTERN ??HalUARTWrite?relay
        FUNCTION ??HalUARTWrite?relay,00H
        EXTERN ??RegisterForKeys?relay
        FUNCTION ??RegisterForKeys?relay,00H
        EXTERN ??ZDO_ParseEPListRsp?relay
        FUNCTION ??ZDO_ParseEPListRsp?relay,00H
        EXTERN ??ZDO_RegisterForZDOMsg?relay
        FUNCTION ??ZDO_RegisterForZDOMsg?relay,00H
        EXTERN ??ZDP_MatchDescReq?relay
        FUNCTION ??ZDP_MatchDescReq?relay,00H
        EXTERN ??afRegister?relay
        FUNCTION ??afRegister?relay,00H
        EXTERN ??osal_mem_free?relay
        FUNCTION ??osal_mem_free?relay,00H
        EXTERN ??osal_msg_deallocate?relay
        FUNCTION ??osal_msg_deallocate?relay,00H
        EXTERN ??osal_msg_receive?relay
        FUNCTION ??osal_msg_receive?relay,00H
        EXTERN ??osal_start_reload_timer?relay
        FUNCTION ??osal_start_reload_timer?relay,00H
        EXTERN ??osal_stop_timerEx?relay
        FUNCTION ??osal_stop_timerEx?relay,00H

// D:\Projects_IAR\IAR_C8051\WSN-CC2530\ZStack-CC2530-2.5.1a_EB\Projects\zstack\MY_BOARD\Exp4\Source\TransmitAppD203.c
//    1 /*******************************************************************************
//    2   文 件 名：TransmitAppD203.c
//    3   作    者：南京安宸博研电子科技有限公司
//    4   创建时间：2013.9.20
//    5   修改时间：2020.12.22
//    6   IAR 版本：IAR for 8051 V8.10.1
//    7   测试平台：Sensor MotherBoard V2.3
//    8 
//    9   说    明：
//   10   1、(1)D203S是热释电红外线传感器，用于检测是否有人员靠近。本设备每100ms调用一次
//   11         D203的检测函数TransmitApp_HalCheckEvt()，当检测到两次报警时，则置报警标
//   12         志信号infraredFlag。系统每1秒向协调器发送监测信息。
//   13      (2)程序的驱动文件为hal_d203.c。
//   14   
//   15   2、本部分的程序使用了以下的编译选项：
//   16      xHAL_UART=TRUE
//   17      xHAL_UART_TEST
//   18      xPOWER_SAVING (该选项没有打开)
//   19 
//   20      HAL_UART_TEST是为用户增加的编译选项，该选项主要是为了解决在没有LCD的设备上
//   21      观察Z-Stack输出的显示数据。在有LCD的设备上打开LCD_SUPPORTED可以观察网络ID等
//   22      一些基本的信息，打开这个编译选项，有类似的效果。可借助串口显示一些原本在LCD
//   23      上显示的信息，如果串口有其他用途，可通过关闭此编译选项来关闭串口输出的数据。
//   24     
//   25      xPOWER_SAVING选项是终端设备(EndDevice)可以打开的编译选项
//   26 
//   27   3、程序使用了以下三个事件：
//   28      TRANSMITAPP_SEND_MSG_EVT(发送数据)
//   29      TRANSMITAPP_MATCHRSP_EVT(描述符匹配)
//   30      TRANSMITAPP_HALCHECK_EVT(硬件检测)
//   31 
//   32   4、按键处理函数在TransmitApp_HandleKeys( byte shift, byte keys )，
//   33      本部分程序没有使用按键SW5（传感器母板上的用户按键），该按键功能预留。
//   34 
//   35   5、设备自动加入网络，通过描述符匹配事件对目标设备的网络地址进行查询，当匹配成
//   36      功后，关闭该事件的定时器，保存目标设备的网络地址，接着打开发送数据事件，周
//   37      期性地发送数据。发送数据的时间间隔由宏定义TRANSMITAPP_SEND_DELAY设置，修改
//   38      此宏定义即可修改设备发送数据的周期。
//   39      注意：设备发送数据的周期与协调器的离线检测功能是关联的，如果此处的发送间隔
//   40      时间过长(大于6s)，那么协调器就会认定设备离线。因此，修改时间间隔需要与协调
//   41      器的离线检测功能协调一致。
//   42 *******************************************************************************/
//   43 
//   44 /*******************************************************************************
//   45  * INCLUDES
//   46  */
//   47 #include "OSAL.h"
//   48 #include "AF.h"
//   49 #include "ZDObject.h"
//   50 #include "ZDProfile.h"
//   51 
//   52 #include "TransmitApp.h"
//   53 #include "OnBoard.h"
//   54 
//   55 #include "DebugTrace.h"
//   56 
//   57 
//   58 #include <string.h>
//   59 
//   60 /* HAL */
//   61 #include "hal_led.h"
//   62 #include "hal_key.h"
//   63 #include "hal_uart.h"
//   64 #include "hal_d203.h"
//   65 
//   66 /*******************************************************************************
//   67  * MACROS
//   68  */
//   69 #define TRANSMITAPP_SEND_DELAY   1000
//   70 #define TRANSMITAPP_CHECK_DELAY  100
//   71 
//   72 // Send with or without APS ACKs
//   73 #define TRANSMITAPP_TX_OPTIONS    AF_DISCV_ROUTE
//   74 
//   75 #define TRANSMITAPP_MATCH_DELAY  1000
//   76 
//   77 
//   78 /*******************************************************************************
//   79  * GLOBAL VARIABLES
//   80  */
//   81 
//   82 // This is the buffer that is sent out as data.

        RSEG XDATA_Z:XDATA:NOROOT(0)
        DATA8
//   83 byte TransmitApp_Msg[ TRANSMITAPP_D203S_DATA_LEN ];
TransmitApp_Msg:
        DS 5
        REQUIRE __INIT_XDATA_Z
//   84 
//   85 // This is the Cluster ID List and should be filled with Application
//   86 // specific cluster IDs.

        RSEG XDATA_ROM_C:CONST:REORDER:NOROOT(0)
        DATA16
//   87 const cId_t TransmitApp_InClusterList[1]=
TransmitApp_InClusterList:
        DW 9
//   88 {
//   89     TRANSMITAPP_CLUSTERID_TESTMSG
//   90 };
//   91 

        RSEG XDATA_ROM_C:CONST:REORDER:NOROOT(0)
        DATA16
//   92 const cId_t TransmitApp_OutClusterList[1] =
TransmitApp_OutClusterList:
        DW 5
//   93 {
//   94   TRANSMITAPP_CLUSTERID_INFRAREDMSG     // MSG Cluster ID
//   95 };
//   96 

        RSEG XDATA_ROM_C:CONST:REORDER:NOROOT(0)
        DATA8
//   97 const SimpleDescriptionFormat_t TransmitApp_SimpleDesc =
TransmitApp_SimpleDesc:
        DB 1
        DATA16
        DW 3845
        DW 1
        DATA8
        DB 0
        DB 8
        DATA16
        DW TransmitApp_InClusterList
        DATA8
        DB 3
        DATA16
        DW TransmitApp_OutClusterList
//   98 {
//   99   TRANSMITAPP_ENDPOINT,                 //  int    Endpoint;
//  100   TRANSMITAPP_PROFID,                   //  uint16 AppProfId[2];
//  101   TRANSMITAPP_DEVICEID,                 //  uint16 AppDeviceId[2];
//  102   TRANSMITAPP_DEVICE_VERSION,           //  int    AppDevVer:4;
//  103   TRANSMITAPP_FLAGS,                    //  int    AppFlags:4;
//  104   TRANSMITAPP_MAX_INCLUSTERS,           //  byte   AppNumInClusters;
//  105   (cId_t *)TransmitApp_InClusterList,   //  byte   *pAppInClusterList;
//  106   TRANSMITAPP_MAX_OUTCLUSTERS,          //  byte   AppNumOutClusters;
//  107   (cId_t *)TransmitApp_OutClusterList   //  byte   *pAppOutClusterList;
//  108 };
//  109 
//  110 // This is the Endpoint/Interface description.  It is defined here, but
//  111 // filled-in in TransmitApp_Init().  Another way to go would be to fill
//  112 // in the structure here and make it a "const" (in code space).  The
//  113 // way it's defined in this sample app it is define in RAM.

        RSEG XDATA_Z:XDATA:NOROOT(0)
        DATA8
//  114 endPointDesc_t TransmitApp_epDesc;
TransmitApp_epDesc:
        DS 6
        REQUIRE __INIT_XDATA_Z
//  115 
//  116 /*******************************************************************************
//  117  * LOCAL VARIABLES
//  118  */
//  119 #if !defined( SERIAL_APP_PORT )
//  120 #define SERIAL_APP_PORT  0
//  121 #endif
//  122 
//  123 #if !defined( SERIAL_APP_BAUD )
//  124 #define SERIAL_APP_BAUD  HAL_UART_BR_38400
//  125 #endif
//  126 
//  127 // When the Rx buf space is less than this threshold, invoke the Rx callback.
//  128 #if !defined( SERIAL_APP_THRESH )
//  129 #define SERIAL_APP_THRESH  64
//  130 #endif
//  131 
//  132 #if !defined( SERIAL_APP_RX_SZ )
//  133 #define SERIAL_APP_RX_SZ  128
//  134 #endif
//  135 
//  136 #if !defined( SERIAL_APP_TX_SZ )
//  137 #define SERIAL_APP_TX_SZ  128
//  138 #endif
//  139 
//  140 // Millisecs of idle time after a byte is received before invoking Rx callback.
//  141 #if !defined( SERIAL_APP_IDLE )
//  142 #define SERIAL_APP_IDLE  6
//  143 #endif
//  144 
//  145 // Loopback Rx bytes to Tx for throughput testing.
//  146 #if !defined( SERIAL_APP_LOOPBACK )
//  147 #define SERIAL_APP_LOOPBACK  FALSE
//  148 #endif
//  149 
//  150 // This is the max byte count per OTA message.
//  151 #if !defined( SERIAL_APP_TX_MAX )
//  152 #define SERIAL_APP_TX_MAX  80
//  153 #endif
//  154 
//  155 #define SERIAL_APP_RSP_CNT  4
//  156 
//  157 // Task ID for event processing - received when TransmitApp_Init() is called.

        RSEG XDATA_Z:XDATA:NOROOT(0)
        DATA8
//  158 byte TransmitApp_TaskID;
TransmitApp_TaskID:
        DS 1
        REQUIRE __INIT_XDATA_Z
//  159 

        RSEG XDATA_Z:XDATA:NOROOT(0)
        DATA8
//  160 static byte TransmitApp_TransID;  // This is the unique message ID (counter)
TransmitApp_TransID:
        DS 1
        REQUIRE __INIT_XDATA_Z
//  161 

        RSEG XDATA_Z:XDATA:NOROOT(0)
        DATA8
//  162 afAddrType_t TransmitApp_DstAddr;
TransmitApp_DstAddr:
        DS 12
        REQUIRE __INIT_XDATA_Z
//  163 
//  164 // 人体红报警信号

        RSEG XDATA_Z:XDATA:NOROOT(0)
        DATA8
//  165 static uint8 infraredFlag;
infraredFlag:
        DS 1
        REQUIRE __INIT_XDATA_Z
//  166 
//  167 /*******************************************************************************
//  168  * LOCAL FUNCTIONS
//  169  */
//  170 void TransmitApp_ProcessZDOMsgs( zdoIncomingMsg_t *inMsg );
//  171 void TransmitApp_HandleKeys( byte shift, byte keys );
//  172 void TransmitApp_MessageMSGCB( afIncomingMSGPacket_t *pckt );
//  173 void TransmitApp_SendTheMessage( void );
//  174 void TransmitApp_ChangeState( void );
//  175 static void TransmitAPP_CallBack(uint8 port, uint8 event);
//  176 void TransmitApp_HalCheckEvt();
//  177 
//  178 /*******************************************************************************
//  179  * PUBLIC FUNCTIONS
//  180  */
//  181 void TransmitApp_DisplayResults( void );
//  182 
//  183 /*******************************************************************************
//  184  * @fn      TransmitApp_Init
//  185  *
//  186  * @brief   Initialization function for the Generic App Task.
//  187  *          This is called during initialization and should contain
//  188  *          any application specific initialization (ie. hardware
//  189  *          initialization/setup, table initialization, power up
//  190  *          notificaiton ... ).
//  191  *
//  192  * @param   task_id - the ID assigned by OSAL.  This ID should be
//  193  *                    used to send messages and set timers.
//  194  *
//  195  * @return  none
//  196  */

        RSEG BANKED_CODE:CODE:NOROOT(0)
//  197 void TransmitApp_Init( byte task_id )
TransmitApp_Init:
        CFI Block cfiBlock0 Using cfiCommon0
        CFI Function TransmitApp_Init
        CODE
//  198 {
        FUNCALL TransmitApp_Init, HalUARTOpen
        LOCFRAME ISTACK, 0, STACK
        LOCFRAME PSTACK, 0, STACK
        LOCFRAME XSTACK, 38, STACK
        LOCFRAME IOVERLAY, 0, STATIC
        LOCFRAME DOVERLAY, 0, STATIC
        ARGFRAME ISTACK, 0, STACK
        ARGFRAME PSTACK, 0, STACK
        ARGFRAME XSTACK, 38, STACK
        ARGFRAME IOVERLAY, 0, STATIC
        ARGFRAME DOVERLAY, 0, STATIC
        FUNCALL TransmitApp_Init, afRegister
        LOCFRAME ISTACK, 0, STACK
        LOCFRAME PSTACK, 0, STACK
        LOCFRAME XSTACK, 38, STACK
        LOCFRAME IOVERLAY, 0, STATIC
        LOCFRAME DOVERLAY, 0, STATIC
        ARGFRAME ISTACK, 0, STACK
        ARGFRAME PSTACK, 0, STACK
        ARGFRAME XSTACK, 38, STACK
        ARGFRAME IOVERLAY, 0, STATIC
        ARGFRAME DOVERLAY, 0, STATIC
        FUNCALL TransmitApp_Init, RegisterForKeys
        LOCFRAME ISTACK, 0, STACK
        LOCFRAME PSTACK, 0, STACK
        LOCFRAME XSTACK, 38, STACK
        LOCFRAME IOVERLAY, 0, STATIC
        LOCFRAME DOVERLAY, 0, STATIC
        ARGFRAME ISTACK, 0, STACK
        ARGFRAME PSTACK, 0, STACK
        ARGFRAME XSTACK, 38, STACK
        ARGFRAME IOVERLAY, 0, STATIC
        ARGFRAME DOVERLAY, 0, STATIC
        FUNCALL TransmitApp_Init, ZDO_RegisterForZDOMsg
        LOCFRAME ISTACK, 0, STACK
        LOCFRAME PSTACK, 0, STACK
        LOCFRAME XSTACK, 38, STACK
        LOCFRAME IOVERLAY, 0, STATIC
        LOCFRAME DOVERLAY, 0, STATIC
        ARGFRAME ISTACK, 0, STACK
        ARGFRAME PSTACK, 0, STACK
        ARGFRAME XSTACK, 38, STACK
        ARGFRAME IOVERLAY, 0, STATIC
        ARGFRAME DOVERLAY, 0, STATIC
        FUNCALL TransmitApp_Init, ZDO_RegisterForZDOMsg
        LOCFRAME ISTACK, 0, STACK
        LOCFRAME PSTACK, 0, STACK
        LOCFRAME XSTACK, 38, STACK
        LOCFRAME IOVERLAY, 0, STATIC
        LOCFRAME DOVERLAY, 0, STATIC
        ARGFRAME ISTACK, 0, STACK
        ARGFRAME PSTACK, 0, STACK
        ARGFRAME XSTACK, 38, STACK
        ARGFRAME IOVERLAY, 0, STATIC
        ARGFRAME DOVERLAY, 0, STATIC
        FUNCALL TransmitApp_Init, HalD203Init
        LOCFRAME ISTACK, 0, STACK
        LOCFRAME PSTACK, 0, STACK
        LOCFRAME XSTACK, 38, STACK
        LOCFRAME IOVERLAY, 0, STATIC
        LOCFRAME DOVERLAY, 0, STATIC
        ARGFRAME ISTACK, 0, STACK
        ARGFRAME PSTACK, 0, STACK
        ARGFRAME XSTACK, 38, STACK
        ARGFRAME IOVERLAY, 0, STATIC
        ARGFRAME DOVERLAY, 0, STATIC
        FUNCALL TransmitApp_Init, osal_start_reload_timer
        LOCFRAME ISTACK, 0, STACK
        LOCFRAME PSTACK, 0, STACK
        LOCFRAME XSTACK, 38, STACK
        LOCFRAME IOVERLAY, 0, STATIC
        LOCFRAME DOVERLAY, 0, STATIC
        ARGFRAME ISTACK, 0, STACK
        ARGFRAME PSTACK, 0, STACK
        ARGFRAME XSTACK, 38, STACK
        ARGFRAME IOVERLAY, 0, STATIC
        ARGFRAME DOVERLAY, 0, STATIC
        FUNCALL TransmitApp_Init, osal_start_reload_timer
        LOCFRAME ISTACK, 0, STACK
        LOCFRAME PSTACK, 0, STACK
        LOCFRAME XSTACK, 38, STACK
        LOCFRAME IOVERLAY, 0, STATIC
        LOCFRAME DOVERLAY, 0, STATIC
        ARGFRAME ISTACK, 0, STACK
        ARGFRAME PSTACK, 0, STACK
        ARGFRAME XSTACK, 38, STACK
        ARGFRAME IOVERLAY, 0, STATIC
        ARGFRAME DOVERLAY, 0, STATIC
        MOV     A,#-0x9
        LCALL   ?BANKED_ENTER_XDATA
        CFI DPH0 load(1, XDATA, add(CFA_XSP16, literal(-1)))
        CFI DPL0 load(1, XDATA, add(CFA_XSP16, literal(-2)))
        CFI ?BRET_EXT load(1, XDATA, add(CFA_XSP16, literal(-3)))
        CFI ?RET_HIGH load(1, XDATA, add(CFA_XSP16, literal(-4)))
        CFI ?RET_LOW load(1, XDATA, add(CFA_XSP16, literal(-5)))
        CFI R7 load(1, XDATA, add(CFA_XSP16, literal(-6)))
        CFI V0 load(1, XDATA, add(CFA_XSP16, literal(-7)))
        CFI VB load(1, XDATA, add(CFA_XSP16, literal(-8)))
        CFI R6 load(1, XDATA, add(CFA_XSP16, literal(-9)))
        CFI CFA_SP SP+0
        CFI CFA_XSP16 add(XSP16, 9)
        ; Saved register size: 9
        ; Auto size: 29
        MOV     A,#-0x1d
        LCALL   ?ALLOC_XSTACK8
        CFI CFA_XSP16 add(XSP16, 38)
        MOV     A,R1
        MOV     R6,A
//  199   uint16 i;
//  200 #if HAL_UART==TRUE
//  201   halUARTCfg_t uartConfig;
//  202   
//  203   uartConfig.configured           = TRUE;              // 2x30 don't care - see uart driver.
        MOV     DPL,?XSP + 0
        MOV     DPH,?XSP + 1
        MOV     A,#0x1
        MOVX    @DPTR,A
//  204   uartConfig.baudRate             = SERIAL_APP_BAUD;
        LCALL   ?XSTACK_DISP0_8
        MOV     A,#0x2
        MOVX    @DPTR,A
//  205   uartConfig.flowControl          = FALSE;
        LCALL   ?XSTACK_DISP0_8
        CLR     A
        MOVX    @DPTR,A
//  206   uartConfig.flowControlThreshold = SERIAL_APP_THRESH; // 2x30 don't care - see uart driver.
        MOV     A,#0x3
        LCALL   ?XSTACK_DISP0_8
        MOV     A,#0x40
        MOVX    @DPTR,A
        INC     DPTR
        CLR     A
        MOVX    @DPTR,A
//  207   uartConfig.rx.maxBufSize        = SERIAL_APP_RX_SZ;  // 2x30 don't care - see uart driver.
        MOV     A,#0xa
        LCALL   ?XSTACK_DISP0_8
        MOV     A,#-0x80
        MOVX    @DPTR,A
        INC     DPTR
        CLR     A
        MOVX    @DPTR,A
//  208   uartConfig.tx.maxBufSize        = SERIAL_APP_TX_SZ;  // 2x30 don't care - see uart driver.
        MOV     A,#0x12
        LCALL   ?XSTACK_DISP0_8
        MOV     A,#-0x80
        MOVX    @DPTR,A
        INC     DPTR
        CLR     A
        MOVX    @DPTR,A
//  209   uartConfig.idleTimeout          = SERIAL_APP_IDLE;   // 2x30 don't care - see uart driver.
        MOV     A,#0x5
        LCALL   ?XSTACK_DISP0_8
        MOV     A,#0x6
        MOVX    @DPTR,A
//  210   uartConfig.intEnable            = FALSE;              // 2x30 don't care - see uart driver.
        MOV     A,#0x16
        LCALL   ?XSTACK_DISP0_8
        CLR     A
        MOVX    @DPTR,A
//  211   uartConfig.callBackFunc         = TransmitAPP_CallBack;
        MOV     A,#0x1b
        LCALL   ?XSTACK_DISP0_8
        MOV     A,#??TransmitAPP_CallBack?relay & 0xff
        MOVX    @DPTR,A
        INC     DPTR
        MOV     A,#(??TransmitAPP_CallBack?relay >> 8) & 0xff
        MOVX    @DPTR,A
//  212   HalUARTOpen (HAL_UART_PORT_0, &uartConfig);
        ; Setup parameters for call to function HalUARTOpen
        MOV     DPL,?XSP + 0
        MOV     DPH,?XSP + 1
        MOV     R2,DPL
        MOV     R3,DPH
        MOV     R1,#0x0
        LCALL   ??HalUARTOpen?relay
//  213 #endif
//  214 
//  215   TransmitApp_TaskID = task_id;
        MOV     A,R6
        MOV     DPTR,#TransmitApp_TaskID
        MOVX    @DPTR,A
//  216   TransmitApp_TransID = 0;
        MOV     DPTR,#TransmitApp_TransID
        CLR     A
        MOVX    @DPTR,A
//  217     
//  218   // Device hardware initialization can be added here or in main() (Zmain.c).
//  219   // If the hardware is application specific - add it here.
//  220   // If the hardware is other parts of the device add it in main().
//  221   
//  222   TransmitApp_DstAddr.addrMode = (afAddrMode_t)AddrNotPresent;
        MOV     DPTR,#TransmitApp_DstAddr + 8
        MOVX    @DPTR,A
//  223   TransmitApp_DstAddr.endPoint = 0;
        INC     DPTR
        MOVX    @DPTR,A
//  224   TransmitApp_DstAddr.addr.shortAddr = 0;
        MOV     DPTR,#TransmitApp_DstAddr
        MOVX    @DPTR,A
        INC     DPTR
        MOVX    @DPTR,A
//  225   
//  226   // Fill out the endpoint description.
//  227   TransmitApp_epDesc.endPoint = TRANSMITAPP_ENDPOINT;
        MOV     DPTR,#TransmitApp_epDesc
        INC     A
        MOVX    @DPTR,A
//  228   TransmitApp_epDesc.task_id = &TransmitApp_TaskID;
        INC     DPTR
        MOV     A,#TransmitApp_TaskID & 0xff
        MOVX    @DPTR,A
        INC     DPTR
        MOV     A,#(TransmitApp_TaskID >> 8) & 0xff
        MOVX    @DPTR,A
//  229   TransmitApp_epDesc.simpleDesc
//  230           = (SimpleDescriptionFormat_t *)&TransmitApp_SimpleDesc;
        INC     DPTR
        MOV     A,#TransmitApp_SimpleDesc & 0xff
        MOVX    @DPTR,A
        INC     DPTR
        MOV     A,#(TransmitApp_SimpleDesc >> 8) & 0xff
        MOVX    @DPTR,A
//  231   TransmitApp_epDesc.latencyReq = noLatencyReqs;
        INC     DPTR
        CLR     A
        MOVX    @DPTR,A
//  232   
//  233   // Register the endpoint/interface description with the AF
//  234   afRegister( &TransmitApp_epDesc );
        ; Setup parameters for call to function afRegister
        MOV     R2,#TransmitApp_epDesc & 0xff
        MOV     R3,#(TransmitApp_epDesc >> 8) & 0xff
        LCALL   ??afRegister?relay
//  235   
//  236   // Register for all key events - This app will handle all key events
//  237   RegisterForKeys( TransmitApp_TaskID );
        ; Setup parameters for call to function RegisterForKeys
        MOV     DPTR,#TransmitApp_TaskID
        MOVX    A,@DPTR
        MOV     R1,A
        LCALL   ??RegisterForKeys?relay
//  238     
//  239     
//  240   // Generate the data
//  241   for (i = 0; i < TRANSMITAPP_D203S_DATA_LEN; i++)
//  242   {
//  243     TransmitApp_Msg[i] = 0;
        CLR     A
        MOV     DPTR,#TransmitApp_Msg
        MOV     R0,#0x5
??TransmitApp_Init_0:
        MOVX    @DPTR,A
        INC     DPTR
        DJNZ    R0,??TransmitApp_Init_0
//  244   }
//  245   
//  246   ZDO_RegisterForZDOMsg( TransmitApp_TaskID, End_Device_Bind_rsp );
        ; Setup parameters for call to function ZDO_RegisterForZDOMsg
        MOV     R2,#0x20
        MOV     R3,#-0x80
        MOV     DPTR,#TransmitApp_TaskID
        MOVX    A,@DPTR
        MOV     R1,A
        LCALL   ??ZDO_RegisterForZDOMsg?relay
//  247   ZDO_RegisterForZDOMsg( TransmitApp_TaskID, Match_Desc_rsp );
        ; Setup parameters for call to function ZDO_RegisterForZDOMsg
        MOV     R2,#0x6
        MOV     R3,#-0x80
        MOV     DPTR,#TransmitApp_TaskID
        MOVX    A,@DPTR
        MOV     R1,A
        LCALL   ??ZDO_RegisterForZDOMsg?relay
//  248   
//  249   // 初始化红外检测设备
//  250   HalD203Init();
        ; Setup parameters for call to function HalD203Init
        LCALL   ??HalD203Init?relay
//  251   // 打开定时器，检测报警信息
//  252   osal_start_reload_timer( TransmitApp_TaskID, TRANSMITAPP_HALCHECK_EVT, 
//  253                                                TRANSMITAPP_CHECK_DELAY );
        ; Setup parameters for call to function osal_start_reload_timer
        MOV     R4,#0x64
        MOV     R5,#0x0
        MOV     R2,#0x40
        LCALL   ?Subroutine1 & 0xFFFF
//  254   // 打开定时器，开始尝试匹配协调器
//  255   osal_start_reload_timer( TransmitApp_TaskID, TRANSMITAPP_MATCHRSP_EVT, 
//  256                                                TRANSMITAPP_MATCH_DELAY );
??CrossCallReturnLabel_0:
        ; Setup parameters for call to function osal_start_reload_timer
        MOV     R4,#-0x18
        MOV     R5,#0x3
        MOV     R2,#0x8
        LCALL   ?Subroutine1 & 0xFFFF
//  257 }
??CrossCallReturnLabel_1:
        MOV     A,#0x1d
        LCALL   ?DEALLOC_XSTACK8
        CFI CFA_XSP16 add(XSP16, 9)
        MOV     R7,#0x1
        LJMP    ?BANKED_LEAVE_XDATA
        CFI EndBlock cfiBlock0
//  258 
//  259 /*******************************************************************************
//  260  * @fn      TransmitApp_ProcessEvent
//  261  *
//  262  * @brief   Generic Application Task event processor.  This function
//  263  *          is called to process all events for the task.  Events
//  264  *          include timers, messages and any other user defined events.
//  265  *
//  266  * @param   task_id  - The OSAL assigned task ID.
//  267  * @param   events - events to process.  This is a bit map and can
//  268  *                   contain more than one event.
//  269  *
//  270  * @return  none
//  271  */

        RSEG BANKED_CODE:CODE:NOROOT(0)
//  272 UINT16 TransmitApp_ProcessEvent( byte task_id, UINT16 events )
TransmitApp_ProcessEvent:
        CFI Block cfiBlock1 Using cfiCommon0
        CFI Function TransmitApp_ProcessEvent
        CODE
//  273 {
        FUNCALL TransmitApp_ProcessEvent, osal_msg_receive
        LOCFRAME ISTACK, 0, STACK
        LOCFRAME PSTACK, 0, STACK
        LOCFRAME XSTACK, 21, STACK
        LOCFRAME IOVERLAY, 0, STATIC
        LOCFRAME DOVERLAY, 0, STATIC
        ARGFRAME ISTACK, 0, STACK
        ARGFRAME PSTACK, 0, STACK
        ARGFRAME XSTACK, 21, STACK
        ARGFRAME IOVERLAY, 0, STATIC
        ARGFRAME DOVERLAY, 0, STATIC
        FUNCALL TransmitApp_ProcessEvent, TransmitApp_ProcessZDOMsgs
        LOCFRAME ISTACK, 0, STACK
        LOCFRAME PSTACK, 0, STACK
        LOCFRAME XSTACK, 21, STACK
        LOCFRAME IOVERLAY, 0, STATIC
        LOCFRAME DOVERLAY, 0, STATIC
        ARGFRAME ISTACK, 0, STACK
        ARGFRAME PSTACK, 0, STACK
        ARGFRAME XSTACK, 21, STACK
        ARGFRAME IOVERLAY, 0, STATIC
        ARGFRAME DOVERLAY, 0, STATIC
        FUNCALL TransmitApp_ProcessEvent, osal_msg_deallocate
        LOCFRAME ISTACK, 0, STACK
        LOCFRAME PSTACK, 0, STACK
        LOCFRAME XSTACK, 21, STACK
        LOCFRAME IOVERLAY, 0, STATIC
        LOCFRAME DOVERLAY, 0, STATIC
        ARGFRAME ISTACK, 0, STACK
        ARGFRAME PSTACK, 0, STACK
        ARGFRAME XSTACK, 21, STACK
        ARGFRAME IOVERLAY, 0, STATIC
        ARGFRAME DOVERLAY, 0, STATIC
        FUNCALL TransmitApp_ProcessEvent, osal_msg_receive
        LOCFRAME ISTACK, 0, STACK
        LOCFRAME PSTACK, 0, STACK
        LOCFRAME XSTACK, 21, STACK
        LOCFRAME IOVERLAY, 0, STATIC
        LOCFRAME DOVERLAY, 0, STATIC
        ARGFRAME ISTACK, 0, STACK
        ARGFRAME PSTACK, 0, STACK
        ARGFRAME XSTACK, 21, STACK
        ARGFRAME IOVERLAY, 0, STATIC
        ARGFRAME DOVERLAY, 0, STATIC
        FUNCALL TransmitApp_ProcessEvent, TransmitApp_SendTheMessage
        LOCFRAME ISTACK, 0, STACK
        LOCFRAME PSTACK, 0, STACK
        LOCFRAME XSTACK, 21, STACK
        LOCFRAME IOVERLAY, 0, STATIC
        LOCFRAME DOVERLAY, 0, STATIC
        ARGFRAME ISTACK, 0, STACK
        ARGFRAME PSTACK, 0, STACK
        ARGFRAME XSTACK, 21, STACK
        ARGFRAME IOVERLAY, 0, STATIC
        ARGFRAME DOVERLAY, 0, STATIC
        FUNCALL TransmitApp_ProcessEvent, ZDP_MatchDescReq
        LOCFRAME ISTACK, 0, STACK
        LOCFRAME PSTACK, 0, STACK
        LOCFRAME XSTACK, 29, STACK
        LOCFRAME IOVERLAY, 0, STATIC
        LOCFRAME DOVERLAY, 0, STATIC
        ARGFRAME ISTACK, 0, STACK
        ARGFRAME PSTACK, 0, STACK
        ARGFRAME XSTACK, 29, STACK
        ARGFRAME IOVERLAY, 0, STATIC
        ARGFRAME DOVERLAY, 0, STATIC
        FUNCALL TransmitApp_ProcessEvent, TransmitApp_HalCheckEvt
        LOCFRAME ISTACK, 0, STACK
        LOCFRAME PSTACK, 0, STACK
        LOCFRAME XSTACK, 21, STACK
        LOCFRAME IOVERLAY, 0, STATIC
        LOCFRAME DOVERLAY, 0, STATIC
        ARGFRAME ISTACK, 0, STACK
        ARGFRAME PSTACK, 0, STACK
        ARGFRAME XSTACK, 21, STACK
        ARGFRAME IOVERLAY, 0, STATIC
        ARGFRAME DOVERLAY, 0, STATIC
        MOV     A,#-0xc
        LCALL   ?BANKED_ENTER_XDATA
        CFI DPH0 load(1, XDATA, add(CFA_XSP16, literal(-1)))
        CFI DPL0 load(1, XDATA, add(CFA_XSP16, literal(-2)))
        CFI ?BRET_EXT load(1, XDATA, add(CFA_XSP16, literal(-3)))
        CFI ?RET_HIGH load(1, XDATA, add(CFA_XSP16, literal(-4)))
        CFI ?RET_LOW load(1, XDATA, add(CFA_XSP16, literal(-5)))
        CFI R7 load(1, XDATA, add(CFA_XSP16, literal(-6)))
        CFI V3 load(1, XDATA, add(CFA_XSP16, literal(-7)))
        CFI V2 load(1, XDATA, add(CFA_XSP16, literal(-8)))
        CFI V1 load(1, XDATA, add(CFA_XSP16, literal(-9)))
        CFI V0 load(1, XDATA, add(CFA_XSP16, literal(-10)))
        CFI VB load(1, XDATA, add(CFA_XSP16, literal(-11)))
        CFI R6 load(1, XDATA, add(CFA_XSP16, literal(-12)))
        CFI CFA_SP SP+0
        CFI CFA_XSP16 add(XSP16, 12)
        ; Saved register size: 12
        ; Auto size: 9
        MOV     A,#-0x9
        LCALL   ?ALLOC_XSTACK8
        CFI CFA_XSP16 add(XSP16, 21)
        MOV     A,R2
        MOV     R6,A
        MOV     A,R3
        MOV     R7,A
//  274   afIncomingMSGPacket_t *MSGpkt;
//  275   afDataConfirm_t *afDataConfirm;
//  276   (void)task_id;  // Intentionally unreferenced parameter
//  277 
//  278   // Data Confirmation message fields
//  279   ZStatus_t sentStatus;
//  280   byte sentEP;
//  281 
//  282   if ( events & SYS_EVENT_MSG )
        ANL     A,#0x80
        JZ      ??TransmitApp_ProcessEvent_0
//  283   {
//  284     MSGpkt = (afIncomingMSGPacket_t *)osal_msg_receive( TransmitApp_TaskID );
        ; Setup parameters for call to function osal_msg_receive
        SJMP    ??TransmitApp_ProcessEvent_1
//  285     while ( MSGpkt )
//  286     {
//  287       switch ( MSGpkt->hdr.event )
??TransmitApp_ProcessEvent_2:
        MOV     DPL,?V0 + 0
        MOV     DPH,?V0 + 1
        MOVX    A,@DPTR
        XRL     A,#0xd3
        JNZ     ??TransmitApp_ProcessEvent_3
//  288       {
//  289         case ZDO_CB_MSG:
//  290           TransmitApp_ProcessZDOMsgs( (zdoIncomingMsg_t *)MSGpkt );
        ; Setup parameters for call to function TransmitApp_ProcessZDOMsgs
        MOV     R2,?V0 + 0
        MOV     R3,?V0 + 1
        LCALL   ??TransmitApp_ProcessZDOMsgs?relay
//  291           break;
//  292 
//  293         case KEY_CHANGE:
//  294           TransmitApp_HandleKeys( ((keyChange_t *)MSGpkt)->state, ((keyChange_t *)MSGpkt)->keys );
//  295           break;
//  296 
//  297         case AF_DATA_CONFIRM_CMD:
//  298           // This message is received as a confirmation of a data packet sent.
//  299           // The status is of ZStatus_t type [defined in ZComDef.h]
//  300           // The message fields are defined in AF.h
//  301           afDataConfirm = (afDataConfirm_t *)MSGpkt;
//  302           sentEP = afDataConfirm->endpoint;
//  303           sentStatus = afDataConfirm->hdr.status;
//  304 
//  305           if ( (ZSuccess == sentStatus) &&
//  306                (TransmitApp_epDesc.endPoint == sentEP) )
//  307           {
//  308           }
//  309           break;
//  310 
//  311         case AF_INCOMING_MSG_CMD:
//  312           TransmitApp_MessageMSGCB( MSGpkt );
//  313           break;
//  314 
//  315         case ZDO_STATE_CHANGE:
//  316           break;
//  317 
//  318         default:
//  319           break;
//  320       }
//  321 
//  322       // Release the memory
//  323       osal_msg_deallocate( (uint8 *)MSGpkt );
??TransmitApp_ProcessEvent_3:
        ; Setup parameters for call to function osal_msg_deallocate
        MOV     R2,?V0 + 0
        MOV     R3,?V0 + 1
        LCALL   ??osal_msg_deallocate?relay
//  324 
//  325       // Next
//  326       MSGpkt = (afIncomingMSGPacket_t *)osal_msg_receive( TransmitApp_TaskID );
        ; Setup parameters for call to function osal_msg_receive
??TransmitApp_ProcessEvent_1:
        MOV     DPTR,#TransmitApp_TaskID
        MOVX    A,@DPTR
        MOV     R1,A
        LCALL   ??osal_msg_receive?relay
        MOV     ?V0 + 0,R2
        MOV     ?V0 + 1,R3
//  327     }
        MOV     A,?V0 + 0
        ORL     A,?V0 + 1
        JNZ     ??TransmitApp_ProcessEvent_2
//  328 
//  329     // Squash compiler warnings until values are used.
//  330     (void)sentStatus;
//  331     (void)sentEP;
//  332 
//  333     // Return unprocessed events
//  334     return (events ^ SYS_EVENT_MSG);
        MOV     A,R6
        MOV     R2,A
        MOV     A,R7
        XRL     A,#0x80
??TransmitApp_ProcessEvent_4:
        MOV     R3,A
        LJMP    ??TransmitApp_ProcessEvent_5 & 0xFFFF
//  335   }
//  336 
//  337   // Send a message out
//  338   if ( events & TRANSMITAPP_SEND_MSG_EVT )
??TransmitApp_ProcessEvent_0:
        MOV     A,R6
        MOV     C,0xE0 /* A   */.0
        JNC     ??TransmitApp_ProcessEvent_6
//  339   {
//  340     TransmitApp_SendTheMessage();
        ; Setup parameters for call to function TransmitApp_SendTheMessage
        LCALL   ??TransmitApp_SendTheMessage?relay
//  341 
//  342     // Return unprocessed events
//  343     return (events ^ TRANSMITAPP_SEND_MSG_EVT);
        MOV     A,R6
        XRL     A,#0x1
??TransmitApp_ProcessEvent_7:
        MOV     R2,A
        MOV     A,R7
        SJMP    ??TransmitApp_ProcessEvent_4
//  344   }
//  345   
//  346   if ( events & TRANSMITAPP_MATCHRSP_EVT )
??TransmitApp_ProcessEvent_6:
        ANL     A,#0x8
        JZ      ??TransmitApp_ProcessEvent_8
//  347   {
//  348     zAddrType_t dstAddr;
//  349     dstAddr.addrMode = AddrBroadcast;
        MOV     A,#0x8
        LCALL   ?XSTACK_DISP0_8
        MOV     A,#0xf
        MOVX    @DPTR,A
//  350     dstAddr.addr.shortAddr = NWK_BROADCAST_SHORTADDR;
        MOV     DPL,?XSP + 0
        MOV     DPH,?XSP + 1
        MOV     A,#-0x1
        MOVX    @DPTR,A
        INC     DPTR
        MOVX    @DPTR,A
//  351     ZDP_MatchDescReq( &dstAddr, 
//  352                       NWK_BROADCAST_SHORTADDR,
//  353                       TRANSMITAPP_PROFID,
//  354                       TRANSMITAPP_MAX_OUTCLUSTERS, 
//  355                       (cId_t *)TransmitApp_OutClusterList,
//  356                       TRANSMITAPP_MAX_INCLUSTERS, 
//  357                       (cId_t *)TransmitApp_InClusterList,
//  358                       FALSE );
        ; Setup parameters for call to function ZDP_MatchDescReq
        MOV     ?V0 + 0,#0x0
        MOV     R0,#?V0 + 0
        LCALL   ?PUSH_XSTACK_I_ONE
        CFI CFA_XSP16 add(XSP16, 22)
        MOV     ?V0 + 0,#TransmitApp_InClusterList & 0xff
        MOV     ?V0 + 1,#(TransmitApp_InClusterList >> 8) & 0xff
        MOV     R0,#?V0 + 0
        LCALL   ?PUSH_XSTACK_I_TWO
        CFI CFA_XSP16 add(XSP16, 24)
        MOV     ?V0 + 0,#0x8
        MOV     R0,#?V0 + 0
        LCALL   ?PUSH_XSTACK_I_ONE
        CFI CFA_XSP16 add(XSP16, 25)
        MOV     ?V0 + 0,#TransmitApp_OutClusterList & 0xff
        MOV     ?V0 + 1,#(TransmitApp_OutClusterList >> 8) & 0xff
        MOV     R0,#?V0 + 0
        LCALL   ?PUSH_XSTACK_I_TWO
        CFI CFA_XSP16 add(XSP16, 27)
        MOV     ?V0 + 0,#0x5
        MOV     ?V0 + 1,#0xf
        MOV     R0,#?V0 + 0
        LCALL   ?PUSH_XSTACK_I_TWO
        CFI CFA_XSP16 add(XSP16, 29)
        MOV     R1,#0x3
        MOV     R4,#-0x1
        MOV     R5,#-0x1
        MOV     A,#0x8
        LCALL   ?XSTACK_DISP0_8
        MOV     R2,DPL
        MOV     R3,DPH
        LCALL   ??ZDP_MatchDescReq?relay
        MOV     A,#0x8
        LCALL   ?DEALLOC_XSTACK8
        CFI CFA_XSP16 add(XSP16, 21)
//  359 
//  360     // Return unprocessed events
//  361     return (events ^ TRANSMITAPP_MATCHRSP_EVT);
        MOV     A,R6
        XRL     A,#0x8
        SJMP    ??TransmitApp_ProcessEvent_7
//  362   }
//  363   
//  364     // 硬件检测
//  365   if ( events & TRANSMITAPP_HALCHECK_EVT )
??TransmitApp_ProcessEvent_8:
        MOV     A,R6
        ANL     A,#0x40
        JZ      ??TransmitApp_ProcessEvent_9
//  366   {
//  367     TransmitApp_HalCheckEvt();
        ; Setup parameters for call to function TransmitApp_HalCheckEvt
        LCALL   ??TransmitApp_HalCheckEvt?relay
//  368 
//  369     // Return unprocessed events
//  370     return (events ^ TRANSMITAPP_HALCHECK_EVT);
        MOV     A,R6
        XRL     A,#0x40
        SJMP    ??TransmitApp_ProcessEvent_7
//  371   }
//  372 
//  373   // Discard unknown events
//  374   return 0;
??TransmitApp_ProcessEvent_9:
        MOV     R2,#0x0
        MOV     R3,#0x0
??TransmitApp_ProcessEvent_5:
        MOV     A,#0x9
        LCALL   ?DEALLOC_XSTACK8
        CFI CFA_XSP16 add(XSP16, 12)
        MOV     R7,#0x4
        LJMP    ?BANKED_LEAVE_XDATA
        CFI EndBlock cfiBlock1
//  375 }
//  376 
//  377 /*******************************************************************************
//  378  * @fn      TransmitApp_ProcessZDOMsgs()
//  379  *
//  380  * @brief   Process response messages
//  381  *
//  382  * @param   none
//  383  *
//  384  * @return  none
//  385  */

        RSEG BANKED_CODE:CODE:NOROOT(0)
//  386 void TransmitApp_ProcessZDOMsgs( zdoIncomingMsg_t *inMsg )
TransmitApp_ProcessZDOMsgs:
        CFI Block cfiBlock2 Using cfiCommon0
        CFI Function TransmitApp_ProcessZDOMsgs
        CODE
//  387 {
        FUNCALL TransmitApp_ProcessZDOMsgs, ZDO_ParseEPListRsp
        LOCFRAME ISTACK, 0, STACK
        LOCFRAME PSTACK, 0, STACK
        LOCFRAME XSTACK, 10, STACK
        LOCFRAME IOVERLAY, 0, STATIC
        LOCFRAME DOVERLAY, 0, STATIC
        ARGFRAME ISTACK, 0, STACK
        ARGFRAME PSTACK, 0, STACK
        ARGFRAME XSTACK, 10, STACK
        ARGFRAME IOVERLAY, 0, STATIC
        ARGFRAME DOVERLAY, 0, STATIC
        FUNCALL TransmitApp_ProcessZDOMsgs, osal_stop_timerEx
        LOCFRAME ISTACK, 0, STACK
        LOCFRAME PSTACK, 0, STACK
        LOCFRAME XSTACK, 10, STACK
        LOCFRAME IOVERLAY, 0, STATIC
        LOCFRAME DOVERLAY, 0, STATIC
        ARGFRAME ISTACK, 0, STACK
        ARGFRAME PSTACK, 0, STACK
        ARGFRAME XSTACK, 10, STACK
        ARGFRAME IOVERLAY, 0, STATIC
        ARGFRAME DOVERLAY, 0, STATIC
        FUNCALL TransmitApp_ProcessZDOMsgs, HalUARTWrite
        LOCFRAME ISTACK, 0, STACK
        LOCFRAME PSTACK, 0, STACK
        LOCFRAME XSTACK, 10, STACK
        LOCFRAME IOVERLAY, 0, STATIC
        LOCFRAME DOVERLAY, 0, STATIC
        ARGFRAME ISTACK, 0, STACK
        ARGFRAME PSTACK, 0, STACK
        ARGFRAME XSTACK, 10, STACK
        ARGFRAME IOVERLAY, 0, STATIC
        ARGFRAME DOVERLAY, 0, STATIC
        FUNCALL TransmitApp_ProcessZDOMsgs, osal_start_reload_timer
        LOCFRAME ISTACK, 0, STACK
        LOCFRAME PSTACK, 0, STACK
        LOCFRAME XSTACK, 10, STACK
        LOCFRAME IOVERLAY, 0, STATIC
        LOCFRAME DOVERLAY, 0, STATIC
        ARGFRAME ISTACK, 0, STACK
        ARGFRAME PSTACK, 0, STACK
        ARGFRAME XSTACK, 10, STACK
        ARGFRAME IOVERLAY, 0, STATIC
        ARGFRAME DOVERLAY, 0, STATIC
        FUNCALL TransmitApp_ProcessZDOMsgs, osal_mem_free
        LOCFRAME ISTACK, 0, STACK
        LOCFRAME PSTACK, 0, STACK
        LOCFRAME XSTACK, 10, STACK
        LOCFRAME IOVERLAY, 0, STATIC
        LOCFRAME DOVERLAY, 0, STATIC
        ARGFRAME ISTACK, 0, STACK
        ARGFRAME PSTACK, 0, STACK
        ARGFRAME XSTACK, 10, STACK
        ARGFRAME IOVERLAY, 0, STATIC
        ARGFRAME DOVERLAY, 0, STATIC
        MOV     A,#-0xa
        LCALL   ?BANKED_ENTER_XDATA
        CFI DPH0 load(1, XDATA, add(CFA_XSP16, literal(-1)))
        CFI DPL0 load(1, XDATA, add(CFA_XSP16, literal(-2)))
        CFI ?BRET_EXT load(1, XDATA, add(CFA_XSP16, literal(-3)))
        CFI ?RET_HIGH load(1, XDATA, add(CFA_XSP16, literal(-4)))
        CFI ?RET_LOW load(1, XDATA, add(CFA_XSP16, literal(-5)))
        CFI R7 load(1, XDATA, add(CFA_XSP16, literal(-6)))
        CFI V1 load(1, XDATA, add(CFA_XSP16, literal(-7)))
        CFI V0 load(1, XDATA, add(CFA_XSP16, literal(-8)))
        CFI VB load(1, XDATA, add(CFA_XSP16, literal(-9)))
        CFI R6 load(1, XDATA, add(CFA_XSP16, literal(-10)))
        CFI CFA_SP SP+0
        CFI CFA_XSP16 add(XSP16, 10)
        ; Saved register size: 10
        ; Auto size: 0
//  388   switch ( inMsg->clusterID )
        MOV     A,R2
        ADD     A,#0xc
        MOV     DPL,A
        MOV     A,R3
        ADDC    A,#0x0
        MOV     DPH,A
        MOVX    A,@DPTR
        XRL     A,#0x6
        JNZ     ??TransmitApp_ProcessZDOMsgs_0
        INC     DPTR
        MOVX    A,@DPTR
        XRL     A,#0x80
??TransmitApp_ProcessZDOMsgs_0:
        JNZ     ??TransmitApp_ProcessZDOMsgs_1
//  389   {
//  390     case End_Device_Bind_rsp:
//  391       if ( ZDO_ParseBindRsp( inMsg ) == ZSuccess )
//  392       {
//  393       }
//  394       break;
//  395 
//  396     case Match_Desc_rsp:
//  397       ZDO_ActiveEndpointRsp_t *pRsp = ZDO_ParseEPListRsp( inMsg );
        ; Setup parameters for call to function ZDO_ParseEPListRsp
        LCALL   ??ZDO_ParseEPListRsp?relay
        MOV     ?V0 + 0,R2
        MOV     ?V0 + 1,R3
        MOV     R6,?V0 + 0
        MOV     R7,?V0 + 1
//  398       if ( pRsp )
        MOV     A,R6
        ORL     A,R7
        JZ      ??TransmitApp_ProcessZDOMsgs_1
//  399       {
//  400         if ( pRsp->status == ZSuccess && pRsp->cnt )
        MOV     DPL,R6
        MOV     DPH,R7
        MOVX    A,@DPTR
        JNZ     ??CrossCallReturnLabel_2
        INC     DPTR
        INC     DPTR
        INC     DPTR
        MOVX    A,@DPTR
        JZ      ??CrossCallReturnLabel_2
//  401         {
//  402           // 此处存储绑定对方的地址信息用于发送
//  403           TransmitApp_DstAddr.addrMode = (afAddrMode_t)Addr16Bit;
        MOV     DPTR,#TransmitApp_DstAddr + 8
        MOV     A,#0x2
        MOVX    @DPTR,A
//  404           TransmitApp_DstAddr.addr.shortAddr = pRsp->nwkAddr;
        MOV     DPL,R6
        MOV     DPH,R7
        INC     DPTR
        MOVX    A,@DPTR
        MOV     R0,A
        INC     DPTR
        MOVX    A,@DPTR
        MOV     R1,A
        MOV     DPTR,#TransmitApp_DstAddr
        MOV     A,R0
        MOVX    @DPTR,A
        INC     DPTR
        MOV     A,R1
        MOVX    @DPTR,A
//  405           // Take the first endpoint, Can be changed to search through endpoints
//  406           TransmitApp_DstAddr.endPoint = pRsp->epList[0];
        MOV     DPL,R6
        MOV     DPH,R7
        INC     DPTR
        INC     DPTR
        INC     DPTR
        INC     DPTR
        MOVX    A,@DPTR
        MOV     DPTR,#TransmitApp_DstAddr + 9
        MOVX    @DPTR,A
//  407           osal_stop_timerEx( TransmitApp_TaskID, TRANSMITAPP_MATCHRSP_EVT );
        ; Setup parameters for call to function osal_stop_timerEx
        MOV     R2,#0x8
        MOV     R3,#0x0
        MOV     DPTR,#TransmitApp_TaskID
        MOVX    A,@DPTR
        MOV     R1,A
        LCALL   ??osal_stop_timerEx?relay
//  408 #if HAL_UART==TRUE
//  409           HalUARTWrite(HAL_UART_PORT_0, "Match Success!\n",   strlen("Match Success!\n"));
        ; Setup parameters for call to function HalUARTWrite
        MOV     R4,#0xf
        MOV     R5,#0x0
        MOV     R2,#`?<Constant "Match Success!\\n">` & 0xff
        MOV     R3,#(`?<Constant "Match Success!\\n">` >> 8) & 0xff
        MOV     R1,#0x0
        LCALL   ??HalUARTWrite?relay
//  410 #endif
//  411           osal_start_reload_timer( TransmitApp_TaskID, TRANSMITAPP_SEND_MSG_EVT, 
//  412                                    TRANSMITAPP_SEND_DELAY );
        ; Setup parameters for call to function osal_start_reload_timer
        MOV     R4,#-0x18
        MOV     R5,#0x3
        MOV     R2,#0x1
        LCALL   ?Subroutine1 & 0xFFFF
//  413         }
//  414         else
//  415         {
//  416         }
//  417         osal_mem_free( pRsp );
??CrossCallReturnLabel_2:
        ; Setup parameters for call to function osal_mem_free
        MOV     A,R6
        MOV     R2,A
        MOV     A,R7
        MOV     R3,A
        LCALL   ??osal_mem_free?relay
        CFI EndBlock cfiBlock2
//  418       }
//  419       break;
//  420       
//  421     default:
//  422       break;
//  423   }
//  424 }
??TransmitApp_ProcessZDOMsgs_1:
        REQUIRE ?Subroutine0
        ; // Fall through to label ?Subroutine0

        RSEG BANKED_CODE:CODE:NOROOT(0)
?Subroutine0:
        CFI Block cfiBlock3 Using cfiCommon0
        CFI NoFunction
        CFI CFA_SP SP+0
        CFI CFA_XSP16 add(XSP16, 10)
        CFI VB load(1, XDATA, add(CFA_XSP16, literal(-9)))
        CFI DPL0 load(1, XDATA, add(CFA_XSP16, literal(-2)))
        CFI DPH0 load(1, XDATA, add(CFA_XSP16, literal(-1)))
        CFI R6 load(1, XDATA, add(CFA_XSP16, literal(-10)))
        CFI R7 load(1, XDATA, add(CFA_XSP16, literal(-6)))
        CFI V0 load(1, XDATA, add(CFA_XSP16, literal(-8)))
        CFI V1 load(1, XDATA, add(CFA_XSP16, literal(-7)))
        CFI ?BRET_EXT load(1, XDATA, add(CFA_XSP16, literal(-3)))
        CFI ?RET_HIGH load(1, XDATA, add(CFA_XSP16, literal(-4)))
        CFI ?RET_LOW load(1, XDATA, add(CFA_XSP16, literal(-5)))
        MOV     R7,#0x2
        LJMP    ?BANKED_LEAVE_XDATA
        CFI EndBlock cfiBlock3

        RSEG BANKED_CODE:CODE:NOROOT(0)
?Subroutine1:
        CFI Block cfiCond4 Using cfiCommon0
        CFI NoFunction
        CFI Conditional ??CrossCallReturnLabel_0
        CFI R6 load(1, XDATA, add(CFA_XSP16, literal(-9)))
        CFI VB load(1, XDATA, add(CFA_XSP16, literal(-8)))
        CFI V0 load(1, XDATA, add(CFA_XSP16, literal(-7)))
        CFI R7 load(1, XDATA, add(CFA_XSP16, literal(-6)))
        CFI ?RET_LOW load(1, XDATA, add(CFA_XSP16, literal(-5)))
        CFI ?RET_HIGH load(1, XDATA, add(CFA_XSP16, literal(-4)))
        CFI ?BRET_EXT load(1, XDATA, add(CFA_XSP16, literal(-3)))
        CFI DPL0 load(1, XDATA, add(CFA_XSP16, literal(-2)))
        CFI DPH0 load(1, XDATA, add(CFA_XSP16, literal(-1)))
        CFI CFA_SP SP+0
        CFI CFA_XSP16 add(XSP16, 38)
        CFI Block cfiCond5 Using cfiCommon0
        CFI (cfiCond5) NoFunction
        CFI (cfiCond5) Conditional ??CrossCallReturnLabel_1
        CFI (cfiCond5) R6 load(1, XDATA, add(CFA_XSP16, literal(-9)))
        CFI (cfiCond5) VB load(1, XDATA, add(CFA_XSP16, literal(-8)))
        CFI (cfiCond5) V0 load(1, XDATA, add(CFA_XSP16, literal(-7)))
        CFI (cfiCond5) R7 load(1, XDATA, add(CFA_XSP16, literal(-6)))
        CFI (cfiCond5) ?RET_LOW load(1, XDATA, add(CFA_XSP16, literal(-5)))
        CFI (cfiCond5) ?RET_HIGH load(1, XDATA, add(CFA_XSP16, literal(-4)))
        CFI (cfiCond5) ?BRET_EXT load(1, XDATA, add(CFA_XSP16, literal(-3)))
        CFI (cfiCond5) DPL0 load(1, XDATA, add(CFA_XSP16, literal(-2)))
        CFI (cfiCond5) DPH0 load(1, XDATA, add(CFA_XSP16, literal(-1)))
        CFI (cfiCond5) CFA_SP SP+0
        CFI (cfiCond5) CFA_XSP16 add(XSP16, 38)
        CFI Block cfiCond6 Using cfiCommon0
        CFI (cfiCond6) NoFunction
        CFI (cfiCond6) Conditional ??CrossCallReturnLabel_2
        CFI (cfiCond6) R6 load(1, XDATA, add(CFA_XSP16, literal(-10)))
        CFI (cfiCond6) VB load(1, XDATA, add(CFA_XSP16, literal(-9)))
        CFI (cfiCond6) V0 load(1, XDATA, add(CFA_XSP16, literal(-8)))
        CFI (cfiCond6) V1 load(1, XDATA, add(CFA_XSP16, literal(-7)))
        CFI (cfiCond6) R7 load(1, XDATA, add(CFA_XSP16, literal(-6)))
        CFI (cfiCond6) ?RET_LOW load(1, XDATA, add(CFA_XSP16, literal(-5)))
        CFI (cfiCond6) ?RET_HIGH load(1, XDATA, add(CFA_XSP16, literal(-4)))
        CFI (cfiCond6) ?BRET_EXT load(1, XDATA, add(CFA_XSP16, literal(-3)))
        CFI (cfiCond6) DPL0 load(1, XDATA, add(CFA_XSP16, literal(-2)))
        CFI (cfiCond6) DPH0 load(1, XDATA, add(CFA_XSP16, literal(-1)))
        CFI (cfiCond6) CFA_SP SP+0
        CFI (cfiCond6) CFA_XSP16 add(XSP16, 10)
        CFI Block cfiPicker7 Using cfiCommon1
        CFI (cfiPicker7) NoFunction
        CFI (cfiPicker7) Picker
        MOV     R3,#0x0
        MOV     DPTR,#TransmitApp_TaskID
        MOVX    A,@DPTR
        MOV     R1,A
        LCALL   ??osal_start_reload_timer?relay
        RET
        CFI EndBlock cfiCond4
        CFI EndBlock cfiCond5
        CFI EndBlock cfiCond6
        CFI EndBlock cfiPicker7
//  425 
//  426 /*******************************************************************************
//  427  * @fn      TransmitApp_HandleKeys
//  428  *
//  429  * @brief   Handles all key events for this device.
//  430  *
//  431  * @param   shift - true if in shift/alt.
//  432  * @param   keys - bit field for key events. Valid entries:
//  433  *                 EVAL_SW5
//  434  *
//  435  * @return  none
//  436  */

        RSEG BANKED_CODE:CODE:NOROOT(0)
//  437 void TransmitApp_HandleKeys( byte shift, byte keys )
TransmitApp_HandleKeys:
        CFI Block cfiBlock8 Using cfiCommon0
        CFI Function TransmitApp_HandleKeys
        CODE
//  438 {  
        ; Saved register size: 0
        ; Auto size: 0
//  439   if ( keys & HAL_KEY_SW_5 )
//  440   {
//  441     
//  442   }
//  443 }
        LJMP    ?BRET
        CFI EndBlock cfiBlock8
//  444 
//  445 /*******************************************************************************
//  446  * @fn      TransmitApp_MessageMSGCB
//  447  *
//  448  * @brief   Data message processor callback.  This function processes
//  449  *          any incoming data - probably from other devices.  So, based
//  450  *          on cluster ID, perform the intended action.
//  451  *
//  452  * @param   none
//  453  *
//  454  * @return  none
//  455  */

        RSEG BANKED_CODE:CODE:NOROOT(0)
//  456 void TransmitApp_MessageMSGCB( afIncomingMSGPacket_t *pkt )
TransmitApp_MessageMSGCB:
        CFI Block cfiBlock9 Using cfiCommon0
        CFI Function TransmitApp_MessageMSGCB
        CODE
//  457 {
        ; Saved register size: 0
        ; Auto size: 0
//  458 
//  459 }
        LJMP    ?BRET
        CFI EndBlock cfiBlock9
//  460 
//  461 /*******************************************************************************
//  462  * @fn      TransmitApp_SendTheMessage
//  463  *
//  464  * @brief   Send "the" message.
//  465  *
//  466  * @param   none
//  467  *
//  468  * @return  none
//  469  */

        RSEG BANKED_CODE:CODE:NOROOT(0)
//  470 void TransmitApp_SendTheMessage( void )
TransmitApp_SendTheMessage:
        CFI Block cfiBlock10 Using cfiCommon0
        CFI Function TransmitApp_SendTheMessage
        CODE
//  471 {
        FUNCALL TransmitApp_SendTheMessage, AF_DataRequest
        LOCFRAME ISTACK, 0, STACK
        LOCFRAME PSTACK, 0, STACK
        LOCFRAME XSTACK, 19, STACK
        LOCFRAME IOVERLAY, 0, STATIC
        LOCFRAME DOVERLAY, 0, STATIC
        ARGFRAME ISTACK, 0, STACK
        ARGFRAME PSTACK, 0, STACK
        ARGFRAME XSTACK, 19, STACK
        ARGFRAME IOVERLAY, 0, STATIC
        ARGFRAME DOVERLAY, 0, STATIC
        MOV     A,#-0xa
        LCALL   ?BANKED_ENTER_XDATA
        CFI R6 load(1, XDATA, add(CFA_XSP16, literal(-10)))
        CFI VB load(1, XDATA, add(CFA_XSP16, literal(-9)))
        CFI V0 load(1, XDATA, add(CFA_XSP16, literal(-8)))
        CFI V1 load(1, XDATA, add(CFA_XSP16, literal(-7)))
        CFI R7 load(1, XDATA, add(CFA_XSP16, literal(-6)))
        CFI ?RET_LOW load(1, XDATA, add(CFA_XSP16, literal(-5)))
        CFI ?RET_HIGH load(1, XDATA, add(CFA_XSP16, literal(-4)))
        CFI ?BRET_EXT load(1, XDATA, add(CFA_XSP16, literal(-3)))
        CFI DPL0 load(1, XDATA, add(CFA_XSP16, literal(-2)))
        CFI DPH0 load(1, XDATA, add(CFA_XSP16, literal(-1)))
        CFI CFA_SP SP+0
        CFI CFA_XSP16 add(XSP16, 10)
        ; Saved register size: 10
        ; Auto size: 0
//  472   uint8 tmp;
//  473     
//  474   do {
//  475       // put the sequence number in the message
//  476       tmp = HI_UINT8( TransmitApp_TransID );
??TransmitApp_SendTheMessage_0:
        MOV     DPTR,#TransmitApp_TransID
        MOVX    A,@DPTR
        SWAP    A
        ANL     A,#0xf
        MOV     R2,A
//  477       tmp += (tmp <= 9) ? ('0') : ('A' - 0x0A);
        CLR     C
        SUBB    A,#0xa
        JNC     ??TransmitApp_SendTheMessage_1
        MOV     R0,#0x30
        SJMP    ??TransmitApp_SendTheMessage_2
??TransmitApp_SendTheMessage_1:
        MOV     R0,#0x37
//  478       TransmitApp_Msg[2] = tmp;
??TransmitApp_SendTheMessage_2:
        MOV     A,R0
        ADD     A,R2
        MOV     DPTR,#TransmitApp_Msg + 2
        MOVX    @DPTR,A
//  479       tmp = LO_UINT8( TransmitApp_TransID );
        MOV     DPTR,#TransmitApp_TransID
        MOVX    A,@DPTR
        ANL     A,#0xf
        MOV     R2,A
//  480       tmp += (tmp <= 9) ? ('0') : ('A' - 0x0A);
        CLR     C
        SUBB    A,#0xa
        JNC     ??TransmitApp_SendTheMessage_3
        MOV     R0,#0x30
        SJMP    ??TransmitApp_SendTheMessage_4
??TransmitApp_SendTheMessage_3:
        MOV     R0,#0x37
//  481       TransmitApp_Msg[3] = tmp;
??TransmitApp_SendTheMessage_4:
        MOV     A,R0
        ADD     A,R2
        MOV     DPTR,#TransmitApp_Msg + 3
        MOVX    @DPTR,A
//  482       
//  483       // 发送红外报警信息
//  484       TransmitApp_Msg[4] = infraredFlag;
        MOV     DPTR,#infraredFlag
        MOVX    A,@DPTR
        MOV     DPTR,#TransmitApp_Msg + 4
        MOVX    @DPTR,A
//  485       
//  486       tmp = AF_DataRequest( &TransmitApp_DstAddr, 
//  487                             &TransmitApp_epDesc,
//  488                              TRANSMITAPP_CLUSTERID_INFRAREDMSG,
//  489                              TRANSMITAPP_D203S_DATA_LEN, 
//  490                              TransmitApp_Msg,
//  491                             &TransmitApp_TransID,
//  492                              TRANSMITAPP_TX_OPTIONS,
//  493                              AF_DEFAULT_RADIUS );
//  494 
//  495   } while (afStatus_SUCCESS == tmp);
        ; Setup parameters for call to function AF_DataRequest
        MOV     ?V0 + 0,#0x1e
        MOV     R0,#?V0 + 0
        LCALL   ?PUSH_XSTACK_I_ONE
        CFI CFA_XSP16 add(XSP16, 11)
        MOV     ?V0 + 0,#TransmitApp_TransID & 0xff
        MOV     ?V0 + 1,#(TransmitApp_TransID >> 8) & 0xff
        MOV     R0,#?V0 + 0
        LCALL   ?PUSH_XSTACK_I_TWO
        CFI CFA_XSP16 add(XSP16, 13)
        MOV     ?V0 + 0,#TransmitApp_Msg & 0xff
        MOV     ?V0 + 1,#(TransmitApp_Msg >> 8) & 0xff
        MOV     R0,#?V0 + 0
        LCALL   ?PUSH_XSTACK_I_TWO
        CFI CFA_XSP16 add(XSP16, 15)
        MOV     ?V0 + 0,#0x5
        MOV     ?V0 + 1,#0x0
        MOV     R0,#?V0 + 0
        LCALL   ?PUSH_XSTACK_I_TWO
        CFI CFA_XSP16 add(XSP16, 17)
        MOV     R0,#?V0 + 0
        LCALL   ?PUSH_XSTACK_I_TWO
        CFI CFA_XSP16 add(XSP16, 19)
        MOV     R1,#0x20
        MOV     R4,#TransmitApp_epDesc & 0xff
        MOV     R5,#(TransmitApp_epDesc >> 8) & 0xff
        MOV     R2,#TransmitApp_DstAddr & 0xff
        MOV     R3,#(TransmitApp_DstAddr >> 8) & 0xff
        LCALL   ??AF_DataRequest?relay
        MOV     A,#0x9
        LCALL   ?DEALLOC_XSTACK8
        CFI CFA_XSP16 add(XSP16, 10)
        MOV     A,R1
        JZ      ??TransmitApp_SendTheMessage_0
//  496   infraredFlag = 0;
        MOV     DPTR,#infraredFlag
        CLR     A
        MOVX    @DPTR,A
//  497 }
        LJMP    ?Subroutine0 & 0xFFFF
        CFI EndBlock cfiBlock10
//  498 
//  499 /*******************************************************************************
//  500  * @fn      TransmitApp_HalCheckEvt
//  501  *
//  502  * @brief   
//  503  *
//  504  * @param   none
//  505  *
//  506  * @return  none
//  507  */

        RSEG BANKED_CODE:CODE:NOROOT(0)
//  508 void TransmitApp_HalCheckEvt()
TransmitApp_HalCheckEvt:
        CFI Block cfiBlock11 Using cfiCommon0
        CFI Function TransmitApp_HalCheckEvt
        CODE
//  509 {
        FUNCALL TransmitApp_HalCheckEvt, HalD203Check
        LOCFRAME ISTACK, 2, STACK
        LOCFRAME PSTACK, 0, STACK
        LOCFRAME XSTACK, 0, STACK
        LOCFRAME IOVERLAY, 0, STATIC
        LOCFRAME DOVERLAY, 0, STATIC
        ARGFRAME ISTACK, 2, STACK
        ARGFRAME PSTACK, 0, STACK
        ARGFRAME XSTACK, 0, STACK
        ARGFRAME IOVERLAY, 0, STATIC
        ARGFRAME DOVERLAY, 0, STATIC
        PUSH    DPL
        CFI DPL0 Frame(CFA_SP, 4)
        CFI CFA_SP SP+-4
        PUSH    DPH
        CFI DPH0 Frame(CFA_SP, 5)
        CFI CFA_SP SP+-5
        ; Saved register size: 2
        ; Auto size: 0
//  510   static uint8 infraredAlertCnt;
//  511   
//  512   if (HalD203Check())
        ; Setup parameters for call to function HalD203Check
        LCALL   ??HalD203Check?relay
        MOV     A,R1
        JZ      ??TransmitApp_HalCheckEvt_0
//  513   {
//  514     infraredAlertCnt++;
        MOV     DPTR,#??infraredAlertCnt
        MOVX    A,@DPTR
        INC     A
        MOVX    @DPTR,A
//  515   }
//  516       
//  517   if (infraredAlertCnt > 1)
??TransmitApp_HalCheckEvt_0:
        MOV     DPTR,#??infraredAlertCnt
        MOVX    A,@DPTR
        CLR     C
        SUBB    A,#0x2
        JC      ??TransmitApp_HalCheckEvt_1
//  518   {
//  519     infraredFlag = 1;
        MOV     DPTR,#infraredFlag
        MOV     A,#0x1
        MOVX    @DPTR,A
//  520     infraredAlertCnt = 0;
        MOV     DPTR,#??infraredAlertCnt
        CLR     A
        MOVX    @DPTR,A
//  521   }
//  522 }
??TransmitApp_HalCheckEvt_1:
        POP     DPH
        CFI DPH0 SameValue
        CFI CFA_SP SP+-4
        POP     DPL
        CFI DPL0 SameValue
        CFI CFA_SP SP+-3
        LJMP    ?BRET
        CFI EndBlock cfiBlock11

        RSEG XDATA_Z:XDATA:NOROOT(0)
        DATA8
??infraredAlertCnt:
        DS 1
        REQUIRE __INIT_XDATA_Z
//  523 
//  524 /*******************************************************************************
//  525  * @fn      TransmitApp_ChangeState
//  526  *
//  527  * @brief   Toggle the Sending/Waiting state flag
//  528  *
//  529  * @param   none
//  530  *
//  531  * @return  none
//  532  */

        RSEG BANKED_CODE:CODE:NOROOT(0)
//  533 void TransmitApp_ChangeState( void )
TransmitApp_ChangeState:
        CFI Block cfiBlock12 Using cfiCommon0
        CFI Function TransmitApp_ChangeState
        CODE
//  534 {
        ; Saved register size: 0
        ; Auto size: 0
//  535 }
        LJMP    ?BRET
        CFI EndBlock cfiBlock12
//  536 
//  537 /*******************************************************************************
//  538  * @fn      TransmitApp_SetSendEvt
//  539  *
//  540  * @brief   Set the event flag
//  541  *
//  542  * @param   none
//  543  *
//  544  * @return  none
//  545  */

        RSEG BANKED_CODE:CODE:NOROOT(0)
//  546 void TransmitApp_SetSendEvt( void )
TransmitApp_SetSendEvt:
        CFI Block cfiBlock13 Using cfiCommon0
        CFI Function TransmitApp_SetSendEvt
        CODE
//  547 {
        ; Saved register size: 0
        ; Auto size: 0
//  548 
//  549 }
        LJMP    ?BRET
        CFI EndBlock cfiBlock13
//  550 
//  551 /*******************************************************************************
//  552  * @fn      TransmitApp_DisplayResults
//  553  *
//  554  * @brief   Display the results and clear the accumulators
//  555  *
//  556  * @param   none
//  557  *
//  558  * @return  none
//  559  */

        RSEG BANKED_CODE:CODE:NOROOT(0)
//  560 void TransmitApp_DisplayResults( void )
TransmitApp_DisplayResults:
        CFI Block cfiBlock14 Using cfiCommon0
        CFI Function TransmitApp_DisplayResults
        CODE
//  561 {
        ; Saved register size: 0
        ; Auto size: 0
//  562 }
        LJMP    ?BRET
        CFI EndBlock cfiBlock14
//  563 
//  564 /*******************************************************************************
//  565  * @fn      TransmitAPP_CallBack
//  566  *
//  567  * @brief   Send data OTA.
//  568  *
//  569  * @param   port - UART port.
//  570  * @param   event - the UART port event flag.
//  571  *
//  572  * @return  none
//  573  */

        RSEG BANKED_CODE:CODE:NOROOT(0)
//  574 static void TransmitAPP_CallBack(uint8 port, uint8 event)
TransmitAPP_CallBack:
        CFI Block cfiBlock15 Using cfiCommon0
        CFI Function TransmitAPP_CallBack
        CODE
//  575 {
        ; Saved register size: 0
        ; Auto size: 0
//  576 
//  577 }
        LJMP    ?BRET
        CFI EndBlock cfiBlock15

        RSEG BANK_RELAYS:CODE:REORDER:NOROOT(0)
??TransmitApp_Init?relay:
        LCALL   ?BDISPATCH
        DATA
        DC24    TransmitApp_Init

        RSEG BANK_RELAYS:CODE:REORDER:NOROOT(0)
??TransmitApp_ProcessEvent?relay:
        LCALL   ?BDISPATCH
        DATA
        DC24    TransmitApp_ProcessEvent

        RSEG BANK_RELAYS:CODE:REORDER:NOROOT(0)
??TransmitApp_ProcessZDOMsgs?relay:
        LCALL   ?BDISPATCH
        DATA
        DC24    TransmitApp_ProcessZDOMsgs

        RSEG BANK_RELAYS:CODE:REORDER:NOROOT(0)
??TransmitApp_HandleKeys?relay:
        LCALL   ?BDISPATCH
        DATA
        DC24    TransmitApp_HandleKeys

        RSEG BANK_RELAYS:CODE:REORDER:NOROOT(0)
??TransmitApp_MessageMSGCB?relay:
        LCALL   ?BDISPATCH
        DATA
        DC24    TransmitApp_MessageMSGCB

        RSEG BANK_RELAYS:CODE:REORDER:NOROOT(0)
??TransmitApp_SendTheMessage?relay:
        LCALL   ?BDISPATCH
        DATA
        DC24    TransmitApp_SendTheMessage

        RSEG BANK_RELAYS:CODE:REORDER:NOROOT(0)
??TransmitApp_HalCheckEvt?relay:
        LCALL   ?BDISPATCH
        DATA
        DC24    TransmitApp_HalCheckEvt

        RSEG BANK_RELAYS:CODE:REORDER:NOROOT(0)
??TransmitApp_ChangeState?relay:
        LCALL   ?BDISPATCH
        DATA
        DC24    TransmitApp_ChangeState

        RSEG BANK_RELAYS:CODE:REORDER:NOROOT(0)
??TransmitApp_SetSendEvt?relay:
        LCALL   ?BDISPATCH
        DATA
        DC24    TransmitApp_SetSendEvt

        RSEG BANK_RELAYS:CODE:REORDER:NOROOT(0)
??TransmitApp_DisplayResults?relay:
        LCALL   ?BDISPATCH
        DATA
        DC24    TransmitApp_DisplayResults

        RSEG BANK_RELAYS:CODE:REORDER:NOROOT(0)
??TransmitAPP_CallBack?relay:
        LCALL   ?BDISPATCH
        DATA
        DC24    TransmitAPP_CallBack

        RSEG XDATA_ROM_C:CONST:REORDER:NOROOT(0)
        DATA8
`?<Constant "Match Success!\\n">`:
        DB "Match Success!\012"

        END
//  578 
// 
// 793 bytes in segment BANKED_CODE
//  66 bytes in segment BANK_RELAYS
//  32 bytes in segment XDATA_ROM_C
//  27 bytes in segment XDATA_Z
// 
// 859 bytes of CODE  memory
//  32 bytes of CONST memory
//  27 bytes of XDATA memory
//
//Errors: none
//Warnings: 2
