###############################################################################
#                                                                             #
# IAR C/C++ Compiler V8.10.1.10194/W32 for 8051         06/May/2021  16:58:23 #
# Copyright 2004-2011 IAR Systems AB.                                         #
#                                                                             #
#    Core               =  plain                                              #
#    Code model         =  banked                                             #
#    Data model         =  large                                              #
#    Calling convention =  xdata reentrant                                    #
#    Constant location  =  data_rom                                           #
#    Dptr setup         =  1,16                                               #
#    Source file        =  D:\毕设\CC2530-smart_home\Projects\zstack\Utilitie #
#                          s\Smart_home\Source\TransmitApp.c                  #
#    Command line       =  -f D:\毕设\CC2530-smart_home\Projects\zstack\Utili #
#                          ties\Smart_home\CC2530DB\..\..\..\Tools\CC2530DB\f #
#                          8wCoord.cfg (-DCPU32MHZ -DROOT=__near_func         #
#                          -DMAC_CFG_APP_PENDING_QUEUE=TRUE                   #
#                          -DMAC_CFG_TX_DATA_MAX=5 -DMAC_CFG_TX_MAX=8         #
#                          -DMAC_CFG_RX_MAX=5 -DZDO_COORDINATOR -DRTR_NWK)    #
#                          -f D:\毕设\CC2530-smart_home\Projects\zstack\Utili #
#                          ties\Smart_home\CC2530DB\..\..\..\Tools\CC2530DB\f #
#                          8wConfig.cfg (-DZIGBEEPRO -DSECURE=0               #
#                          -DZG_SECURE_DYNAMIC=0 -DREFLECTOR                  #
#                          -DDEFAULT_CHANLIST=0x02000000                      #
#                          -DZDAPP_CONFIG_PAN_ID=0x1003                       #
#                          -DNWK_START_DELAY=100 -DEXTENDED_JOINING_RANDOM_MA #
#                          SK=0x007F -DBEACON_REQUEST_DELAY=100               #
#                          -DBEACON_REQ_DELAY_MASK=0x00FF                     #
#                          -DLINK_STATUS_JITTER_MASK=0x007F                   #
#                          -DROUTE_EXPIRY_TIME=30 -DAPSC_ACK_WAIT_DURATION_PO #
#                          LLED=3000 -DNWK_INDIRECT_MSG_TIMEOUT=7             #
#                          -DMAX_RREQ_ENTRIES=8 -DAPSC_MAX_FRAME_RETRIES=3    #
#                          -DNWK_MAX_DATA_RETRIES=2                           #
#                          -DMAX_POLL_FAILURE_RETRIES=2 -DMAX_BCAST=9         #
#                          -DAPS_MAX_GROUPS=16 -DMAX_RTG_ENTRIES=40           #
#                          -DNWK_MAX_BINDING_ENTRIES=4                        #
#                          -DMAX_BINDING_CLUSTER_IDS=4 "-DDEFAULT_KEY={0x01,  #
#                          0x03, 0x05, 0x07, 0x09, 0x0B, 0x0D, 0x0F, 0x00,    #
#                          0x02, 0x04, 0x06, 0x08, 0x0A, 0x0C, 0x0D}"         #
#                          -DMAC_MAX_FRAME_SIZE=116                           #
#                          -DZDNWKMGR_MIN_TRANSMISSIONS=20 "-DCONST=const     #
#                          __code" -DGENERIC=__generic                        #
#                          -DRFD_RCVC_ALWAYS_ON=FALSE -DPOLL_RATE=1000        #
#                          -DQUEUED_POLL_RATE=100 -DRESPONSE_POLL_RATE=100)   #
#                          -DREJOIN_POLL_RATE=440 D:\毕设\CC2530-smart_home\P #
#                          rojects\zstack\Utilities\Smart_home\Source\Transmi #
#                          tApp.c -D LCD_SUPPORTED -D ZDO_COORDINATOR -D      #
#                          xNV_RESTORE -D HAL_UART=TRUE -D xNV_INIT -D        #
#                          xREFLECTOR -D xHAL_UART_TEST -lC                   #
#                          D:\毕设\CC2530-smart_home\Projects\zstack\Utilitie #
#                          s\Smart_home\CC2530DB\Condinationtest\List\ -lA    #
#                          D:\毕设\CC2530-smart_home\Projects\zstack\Utilitie #
#                          s\Smart_home\CC2530DB\Condinationtest\List\        #
#                          --diag_suppress Pe001,Pa010 -o                     #
#                          D:\毕设\CC2530-smart_home\Projects\zstack\Utilitie #
#                          s\Smart_home\CC2530DB\Condinationtest\Obj\ -e      #
#                          --no_code_motion --debug --core=plain --dptr=16,1  #
#                          --data_model=large --code_model=banked             #
#                          --calling_convention=xdata_reentrant               #
#                          --place_constants=data_rom --nr_virtual_regs 16    #
#                          -I D:\毕设\CC2530-smart_home\Projects\zstack\Utili #
#                          ties\Smart_home\CC2530DB\ -I                       #
#                          D:\毕设\CC2530-smart_home\Projects\zstack\Utilitie #
#                          s\Smart_home\CC2530DB\..\Source\ -I                #
#                          D:\毕设\CC2530-smart_home\Projects\zstack\Utilitie #
#                          s\Smart_home\CC2530DB\..\..\..\ZMain\TI2530DB\ -I  #
#                          D:\毕设\CC2530-smart_home\Projects\zstack\Utilitie #
#                          s\Smart_home\CC2530DB\..\..\..\..\..\Components\ha #
#                          l\include\ -I D:\毕设\CC2530-smart_home\Projects\z #
#                          stack\Utilities\Smart_home\CC2530DB\..\..\..\..\.. #
#                          \Components\hal\target\CC2530MB\ -I                #
#                          D:\毕设\CC2530-smart_home\Projects\zstack\Utilitie #
#                          s\Smart_home\CC2530DB\..\..\..\..\..\Components\ma #
#                          c\include\ -I D:\毕设\CC2530-smart_home\Projects\z #
#                          stack\Utilities\Smart_home\CC2530DB\..\..\..\..\.. #
#                          \Components\mac\high_level\ -I                     #
#                          D:\毕设\CC2530-smart_home\Projects\zstack\Utilitie #
#                          s\Smart_home\CC2530DB\..\..\..\..\..\Components\ma #
#                          c\low_level\srf04\ -I D:\毕设\CC2530-smart_home\Pr #
#                          ojects\zstack\Utilities\Smart_home\CC2530DB\..\..\ #
#                          ..\..\..\Components\mac\low_level\srf04\single_chi #
#                          p\ -I D:\毕设\CC2530-smart_home\Projects\zstack\Ut #
#                          ilities\Smart_home\CC2530DB\..\..\..\..\..\Compone #
#                          nts\mt\ -I D:\毕设\CC2530-smart_home\Projects\zsta #
#                          ck\Utilities\Smart_home\CC2530DB\..\..\..\..\..\Co #
#                          mponents\osal\include\ -I                          #
#                          D:\毕设\CC2530-smart_home\Projects\zstack\Utilitie #
#                          s\Smart_home\CC2530DB\..\..\..\..\..\Components\se #
#                          rvices\saddr\ -I D:\毕设\CC2530-smart_home\Project #
#                          s\zstack\Utilities\Smart_home\CC2530DB\..\..\..\.. #
#                          \..\Components\services\sdata\ -I                  #
#                          D:\毕设\CC2530-smart_home\Projects\zstack\Utilitie #
#                          s\Smart_home\CC2530DB\..\..\..\..\..\Components\st #
#                          ack\af\ -I D:\毕设\CC2530-smart_home\Projects\zsta #
#                          ck\Utilities\Smart_home\CC2530DB\..\..\..\..\..\Co #
#                          mponents\stack\nwk\ -I D:\毕设\CC2530-smart_home\P #
#                          rojects\zstack\Utilities\Smart_home\CC2530DB\..\.. #
#                          \..\..\..\Components\stack\sapi\ -I                #
#                          D:\毕设\CC2530-smart_home\Projects\zstack\Utilitie #
#                          s\Smart_home\CC2530DB\..\..\..\..\..\Components\st #
#                          ack\sec\ -I D:\毕设\CC2530-smart_home\Projects\zst #
#                          ack\Utilities\Smart_home\CC2530DB\..\..\..\..\..\C #
#                          omponents\stack\sys\ -I D:\毕设\CC2530-smart_home\ #
#                          Projects\zstack\Utilities\Smart_home\CC2530DB\..\. #
#                          .\..\..\..\Components\stack\zdo\ -I                #
#                          D:\毕设\CC2530-smart_home\Projects\zstack\Utilitie #
#                          s\Smart_home\CC2530DB\..\..\..\..\..\Components\zm #
#                          ac\ -I D:\毕设\CC2530-smart_home\Projects\zstack\U #
#                          tilities\Smart_home\CC2530DB\..\..\..\..\..\Compon #
#                          ents\zmac\f8w\ -Ohz                                #
#    List file          =  D:\毕设\CC2530-smart_home\Projects\zstack\Utilitie #
#                          s\Smart_home\CC2530DB\Condinationtest\List\Transmi #
#                          tApp.lst                                           #
#    Object file        =  D:\毕设\CC2530-smart_home\Projects\zstack\Utilitie #
#                          s\Smart_home\CC2530DB\Condinationtest\Obj\Transmit #
#                          App.r51                                            #
#                                                                             #
#                                                                             #
###############################################################################

D:\毕设\CC2530-smart_home\Projects\zstack\Utilities\Smart_home\Source\TransmitApp.c
      1          /*******************************************************************************
      2            文 件 名：TransmitApp.c
      3            作    者：南京安宸博研电子科技有限公司
      4            创建时间：2013.9.20
      5            修改时间：2020.12.22
      6            IAR 版本：IAR for 8051 V8.10.1
      7            测试平台：MotherBoard V2.1
      8          
      9            说    明：
     10            本程序实现协调器组网，采集传感器信息并在LCD上显示，且可通过按键控制设备运行。
     11            协调器管理8个终端设备，具体如下：
     12                1、温度与光照度传感器；2、烟雾与火焰传感器；3、继电器；4、温湿度传感器；
     13                5、声音与震动传感器；  6、人体红外检测传感器；7、电机；8、RFID检测器。
     14          
     15            终端设备周期性发送信息给协调器，协调器将数据缓存起来，然后定时2s在LCD显示出来。
     16            在终端设备中，DHT11温湿度传感器是每隔5秒采集一次，其余都是每隔1秒采集一次。
     17           
     18            按键：
     19                 (此处的按键标号是软件内部标号，与开发板上的标号并非一一对应)
     20                 SW1(UP)    ：行显示++(页面上翻)；
     21                 SW2(RIGHT) ：控制继电器，每按一下按键，继电器状态切换一次；
     22                 SW3(DOWN)  ：行显示--(页面下翻)；
     23                 SW4(LEFT)  ：控制直流电机，每按下一次按键，直流电机的状态切换一次；
     24                 SW5(OK)    ：显示切换，同时打开屏幕滚动显示；显示信息分为两屏，
     25                              1、第一屏显示采集到的温湿度、光照信息、继电器和直流电机，
     26                                由于增加电机转速显示后，需要滚动显示；
     27                              2、取消第一屏的滚动显示；
     28                              3、第二屏显示告警信息，第二屏四行显示不全，需要滚动显示；
     29                              4、取消第二屏的滚动显示；
     30                 SW7(CANCEL)：打开/关闭协调器组网功能，灯亮表示允许，灯灭表示不允许。
     31                              请注意：系统默认关闭组网功能，如有需要，请按SW7键打开。
     32          
     33            LCD:
     34                显示部分，传感器信息显示事件是自动运行的，默认显示的是第一屏信息，手动
     35                按键SW5可以切换到第二屏，第二屏默认滚动显示，再次按下按键SW5可以关闭滚
     36                动显示，此时按键SW1和SW3可以控制滚动屏幕向上或者向下，
     37                LCD显示举例说明：
     38                         第一屏：H:OFF T:OFF(湿度、温度设备离线)
     39                                 T:32.5C L:320L(温度32.5度，光照强度：320流明)
     40                                 K1:off K2:on(继电器K1关闭，K2打开，如果是OFF表示离线)
     41                                 Motor:Stop(电机停转，如果是OFF表示离线)
     42                                 Speed:0RPS(电机目前转速为0转/分钟)
     43          
     44                         第二屏：Gas:OFF(烟雾传感器离线)
     45                                 Flame:OFF(火焰传感器离线)
     46                                 Sound:ON(声音传感器在线，没有报警)
     47                                 Vibrate:Alarm!(震动报警)
     48                                 Infrared:ON(人体红外检测在线，没有报警)
     49                                 Card:OFF(射频卡设备离线)
     50                                         (此行空白，因为射频卡设备离线，所以没有ID信息)
     51            
     52            设备在线检测：
     53                主要是TransmitApp_DeviceNWKCheck(void)函数来检测各个设备是否在限定的时间内
     54                发送数据，如果超时，判定设备离线。如果设备发送数据，那么相应的deviceInfo_t
     55                结构体中的deviceNWKStatus标记为1，如果超时，标记为0，显示部分的函数只需读
     56                取设备的网络状态就可以判定是否离线了。
     57          *******************************************************************************/
     58          
     59          /*******************************************************************************
     60           * INCLUDES
     61           */
     62          #include "OSAL.h"
     63          #include "AF.h"
     64          #include "ZDObject.h"
     65          #include "ZDProfile.h"
     66          #include "nwk_util.h"
     67          
     68          #include "TransmitApp.h"
     69          #include "OnBoard.h"
     70          
     71          #include "DebugTrace.h"
     72          #include "string.h"
     73          
     74          /* HAL */
     75          #include "hal_lcd.h"
     76          #include "hal_led.h"
     77          #include "hal_key.h"
     78          #include "hal_uart.h"
     79          
     80          /*******************************************************************************
     81           * MACROS
     82           */
     83          
     84          // 设备离线定时计数临界值
     85          #define  DEVICE_NWK_CNT_LIMIT 3
     86          
     87          // Send with or without APS ACKs
     88          #define TRANSMITAPP_TX_OPTIONS              AF_DISCV_ROUTE
     89          
     90          // 第一次LCD显示延时
     91          #define TRANSMITAPP_DISPLAY_DELAY           10000
     92          // LCD每次显示时间间隔
     93          #define TRANSMITAPP_DISPLAY_TIMER           2000
     94          
     95          #define TRANSMITAPP_DEVICE_CHECK_DELAY      5000
     96          #define TRANSMITAPP_DEVICE_CHECK_TIMER      2000 
     97          // not used here
     98          #define TRANSMITAPP_MATCH_TIMER     
     99          // not used here
    100          #define TRANSMITAPP_BIND_TIMER      
    101          
    102          #if defined ( TRANSMITAPP_FRAGMENTED )
    103          #define TRANSMITAPP_MAX_DATA_LEN            225
    104          #else
    105          #define TRANSMITAPP_MAX_DATA_LEN            102
    106          #endif
    107          
    108          /*******************************************************************************
    109           * GLOBAL VARIABLES
    110           */
    111          
    112          // This is the buffer that is sent out as data.

   \                                 In  segment XDATA_Z, align 1, keep-with-next
    113          byte TransmitApp_Msg[ TRANSMITAPP_MAX_DATA_LEN ];
   \                     TransmitApp_Msg:
   \   000000                DS 102
   \   000066                REQUIRE __INIT_XDATA_Z
    114          
    115          // This is the Cluster ID List and should be filled with Application
    116          // specific cluster IDs.

   \                                 In  segment XDATA_ROM_C, align 1
    117          const cId_t TransmitApp_InClusterList[TRANSMITAPP_MAX_INCLUSTERS] =
   \                     TransmitApp_InClusterList:
   \   000000   0100         DW 1
   \   000002   0200         DW 2
   \   000004   0300         DW 3
   \   000006   0400         DW 4
   \   000008   0500         DW 5
   \   00000A   0600         DW 6
   \   00000C   0700         DW 7
   \   00000E   0800         DW 8
    118          {
    119            TRANSMITAPP_CLUSTERID_HUMITMSG,      // 温湿度
    120            TRANSMITAPP_CLUSTERID_TEMPLIGHTMSG,  // 温度光照
    121            TRANSMITAPP_CLUSTERID_RFIDMSG,       // 射频卡
    122            TRANSMITAPP_CLUSTERID_GASFLAMEMSG,   // 气体火焰
    123            TRANSMITAPP_CLUSTERID_INFRAREDMSG,   // 人体红外
    124            TRANSMITAPP_CLUSTERID_SOUNDVBMSG,    // 声音震动
    125            TRANSMITAPP_CLUSTERID_MOTORSTATUSMSG,// 电机状态
    126            TRANSMITAPP_CLUSTERID_RELAYSTATUSMSG // 继电器状态
    127          };
    128          

   \                                 In  segment XDATA_ROM_C, align 1
    129          const cId_t TransmitApp_OutClusterList[TRANSMITAPP_MAX_OUTCLUSTERS] =
   \                     TransmitApp_OutClusterList:
   \   000000   0900         DW 9
   \   000002   0A00         DW 10
   \   000004   0B00         DW 11
    130          {
    131            TRANSMITAPP_CLUSTERID_TESTMSG,    
    132            TRANSMITAPP_CLUSTERID_RELAYCTLMSG,   // 继电器
    133            TRANSMITAPP_CLUSTERID_MOTORCTLMSG    // 直流电机
    134          };
    135          

   \                                 In  segment XDATA_ROM_C, align 1
    136          const SimpleDescriptionFormat_t TransmitApp_SimpleDesc =
   \                     TransmitApp_SimpleDesc:
   \   000000   01           DB 1
   \   000001   050F         DW 3845
   \   000003   0100         DW 1
   \   000005   00           DB 0
   \   000006   08           DB 8
   \   000007   ....         DW TransmitApp_InClusterList
   \   000009   03           DB 3
   \   00000A   ....         DW TransmitApp_OutClusterList
    137          {
    138            TRANSMITAPP_ENDPOINT,                //  int    Endpoint;
    139            TRANSMITAPP_PROFID,                  //  uint16 AppProfId[2];
    140            TRANSMITAPP_DEVICEID,                //  uint16 AppDeviceId[2];
    141            TRANSMITAPP_DEVICE_VERSION,          //  int    AppDevVer:4;
    142            TRANSMITAPP_FLAGS,                   //  int    AppFlags:4;
    143            TRANSMITAPP_MAX_INCLUSTERS,          
    144            (cId_t *)TransmitApp_InClusterList,  
    145            TRANSMITAPP_MAX_OUTCLUSTERS,         
    146            (cId_t *)TransmitApp_OutClusterList  
    147          };
    148          
    149          // This is the Endpoint/Interface description.  It is defined here, but
    150          // filled-in in TransmitApp_Init().  Another way to go would be to fill
    151          // in the structure here and make it a "const" (in code space).  The
    152          // way it's defined in this sample app it is define in RAM.

   \                                 In  segment XDATA_Z, align 1, keep-with-next
    153          endPointDesc_t TransmitApp_epDesc;    // 定义节点
   \                     TransmitApp_epDesc:
   \   000000                DS 6
   \   000006                REQUIRE __INIT_XDATA_Z
    154          
    155          
    156          /*******************************************************************************
    157           *串口配置
    158           */
    159          #define TRANSMIT_APP_PORT  0
    160          // zstack default: 38400
    161          #define TRANSMIT_APP_BAUD  HAL_UART_BR_38400
    162          // When the Rx buf space is less than this threshold, invoke the Rx callback.
    163          #define TRANSMIT_APP_THRESH  64
    164          #define TRANSMIT_APP_RX_SZ  128
    165          #define TRANSMIT_APP_TX_SZ  128
    166          // Millisecs of idle time after a byte is received before invoking Rx callback.
    167          #define TRANSMIT_APP_IDLE  6
    168          // Loopback Rx bytes to Tx for throughput testing.
    169          #define TRANSMIT_APP_LOOPBACK  FALSE
    170          
    171          /*关于显示部分相关的宏*/
    172          #define LCD_PAGE_MAX         4     //目前目录页最多4页
    173          

   \                                 In  segment XDATA_Z, align 1, keep-with-next
    174          static int8 Ctrlcase = 0;    //0用来控制屏幕显示，1控制继电器，2控制电机
   \                     Ctrlcase:
   \   000000                DS 1
   \   000001                REQUIRE __INIT_XDATA_Z

   \                                 In  segment XDATA_Z, align 1, keep-with-next
    175          static int8 LCD_Page  =  0;  //终端状态显示
   \                     LCD_Page:
   \   000000                DS 1
   \   000001                REQUIRE __INIT_XDATA_Z
    176          /* 直流电机状态(status)定义*/
    177          #define  HAL_MOTOR_STOP            0x01
    178          #define  HAL_MOTOR_FORWARD         0x02
    179          #define  HAL_MOTOR_BACKWARD        0x03
    180          #define  MOTOR_MAX_SPEED           2400
    181          
    182          /*********************************************************************
    183           * LOCAL VARIABLES
    184           */
    185          // 温湿度缓存, 第一个字节是湿度，第二个字节是温度(均是整数)

   \                                 In  segment XDATA_Z, align 1, keep-with-next
    186          deviceInfo_t Humit;
   \                     Humit:
   \   000000                DS 6
   \   000006                REQUIRE __INIT_XDATA_Z
    187          // 温度光照缓存, 前两个字节是温度整数和小数, 后两个字节是光照的16位整数 

   \                                 In  segment XDATA_Z, align 1, keep-with-next
    188          deviceInfo_t TempLight;
   \                     TempLight:
   \   000000                DS 6
   \   000006                REQUIRE __INIT_XDATA_Z
    189          // RFID 信息

   \                                 In  segment XDATA_Z, align 1, keep-with-next
    190          deviceInfo_t RfID;
   \                     RfID:
   \   000000                DS 6
   \   000006                REQUIRE __INIT_XDATA_Z
    191          //气体火焰

   \                                 In  segment XDATA_Z, align 1, keep-with-next
    192          deviceInfo_t gasFlame;
   \                     gasFlame:
   \   000000                DS 6
   \   000006                REQUIRE __INIT_XDATA_Z
    193          //人体红外

   \                                 In  segment XDATA_Z, align 1, keep-with-next
    194          deviceInfo_t infrared;
   \                     infrared:
   \   000000                DS 6
   \   000006                REQUIRE __INIT_XDATA_Z
    195          //电机状态

   \                                 In  segment XDATA_Z, align 1, keep-with-next
    196          deviceInfo_t motor;
   \                     motor:
   \   000000                DS 6
   \   000006                REQUIRE __INIT_XDATA_Z
    197          //继电器状态

   \                                 In  segment XDATA_Z, align 1, keep-with-next
    198          deviceInfo_t relay;
   \                     relay:
   \   000000                DS 6
   \   000006                REQUIRE __INIT_XDATA_Z
    199          //声音震动

   \                                 In  segment XDATA_Z, align 1, keep-with-next
    200          deviceInfo_t soundVb;
   \                     soundVb:
   \   000000                DS 6
   \   000006                REQUIRE __INIT_XDATA_Z
    201          
    202          // Task ID for event processing - received when TransmitApp_Init() is called.

   \                                 In  segment XDATA_Z, align 1, keep-with-next
    203          byte TransmitApp_TaskID;
   \                     TransmitApp_TaskID:
   \   000000                DS 1
   \   000001                REQUIRE __INIT_XDATA_Z
    204          

   \                                 In  segment XDATA_Z, align 1, keep-with-next
    205          static byte TransmitApp_RelayTransID;  // This is the unique message ID (counter)
   \                     TransmitApp_RelayTransID:
   \   000000                DS 1
   \   000001                REQUIRE __INIT_XDATA_Z

   \                                 In  segment XDATA_Z, align 1, keep-with-next
    206          static byte TransmitApp_MotorTransID;  // This is the unique message ID (counter)
   \                     TransmitApp_MotorTransID:
   \   000000                DS 1
   \   000001                REQUIRE __INIT_XDATA_Z
    207          

   \                                 In  segment XDATA_Z, align 1, keep-with-next
    208          afAddrType_t TransmitApp_DstAddr;
   \                     TransmitApp_DstAddr:
   \   000000                DS 12
   \   00000C                REQUIRE __INIT_XDATA_Z
    209          

   \                                 In  segment XDATA_Z, align 1, keep-with-next
    210          afAddrType_t TransmitApp_DstRelayAddr;
   \                     TransmitApp_DstRelayAddr:
   \   000000                DS 12
   \   00000C                REQUIRE __INIT_XDATA_Z
    211          

   \                                 In  segment XDATA_Z, align 1, keep-with-next
    212          afAddrType_t TransmitApp_DstMotorAddr;
   \                     TransmitApp_DstMotorAddr:
   \   000000                DS 12
   \   00000C                REQUIRE __INIT_XDATA_Z
    213          
    214          // Max Data Request Length

   \                                 In  segment XDATA_Z, align 1, keep-with-next
    215          uint16 TransmitApp_MaxDataLength;
   \                     TransmitApp_MaxDataLength:
   \   000000                DS 2
   \   000002                REQUIRE __INIT_XDATA_Z
    216          
    217          // LCD显示
    218          static uint8 dispPage=1;
                              ^
Warning[Pe177]: variable "dispPage" was declared but never referenced

   \                                 In  segment XDATA_Z, align 1, keep-with-next
    219          static uint8 scrollLine=0;
   \                     scrollLine:
   \   000000                DS 1
   \   000001                REQUIRE __INIT_XDATA_Z
    220          //LCD屏幕滚动开关

   \                                 In  segment XDATA_I, align 1, keep-with-next
    221          static uint8 autoScrollEnable=1;
   \                     autoScrollEnable:
   \   000000                DS 1
   \   000001                REQUIRE `?<Initializer for autoScrollEnable>`
   \   000001                REQUIRE __INIT_XDATA_I
    222          
    223          /*******************************************************************************
    224           * LOCAL FUNCTIONS
    225           */
    226          void TransmitApp_ProcessZDOMsgs( zdoIncomingMsg_t *inMsg );
    227          void TransmitApp_HandleKeys( byte shift, byte keys );
    228          void TransmitApp_MessageMSGCB( afIncomingMSGPacket_t *pckt );
    229          void TransmitApp_SendToRelayMSG( uint8 cmd );
    230          void TransmitApp_SendToMotorMSG( uint8 cmd,uint8 speed );
    231          void TransmitAPP_CallBack(uint8 port, uint8 event);
    232          void TransmitApp_DeviceNWKCheck(void);
    233          void Smart_home_Display(void);
    234          
    235          /*******************************************************************************
    236           * @fn      TransmitApp_Init
    237           *
    238           * @brief   Initialization function for the Generic App Task.
    239           *          This is called during initialization and should contain
    240           *          any application specific initialization (ie. hardware
    241           *          initialization/setup, table initialization, power up
    242           *          notificaiton ... ).
    243           *
    244           * @param   task_id - the ID assigned by OSAL.  This ID should be
    245           *                    used to send messages and set timers.
    246           *
    247           * @return  none
    248           */

   \                                 In  segment BANKED_CODE, align 1, keep-with-next
    249          void TransmitApp_Init( byte task_id )
   \                     TransmitApp_Init:
    250          {
   \   000000   74F7         MOV     A,#-0x9
   \   000002   12....       LCALL   ?BANKED_ENTER_XDATA
   \   000005                ; Saved register size: 9
   \   000005                ; Auto size: 31
   \   000005   74E1         MOV     A,#-0x1f
   \   000007   12....       LCALL   ?ALLOC_XSTACK8
   \   00000A   E9           MOV     A,R1
   \   00000B   FE           MOV     R6,A
    251          #if HAL_UART==TRUE
    252            halUARTCfg_t uartConfig;
    253          
    254            uartConfig.configured           = TRUE;              // 2x30 don't care - see uart driver.
   \   00000C   7402         MOV     A,#0x2
   \   00000E   12....       LCALL   ?XSTACK_DISP0_8
   \   000011   7401         MOV     A,#0x1
   \   000013   F0           MOVX    @DPTR,A
    255            uartConfig.baudRate             = TRANSMIT_APP_BAUD;
   \   000014   7403         MOV     A,#0x3
   \   000016   12....       LCALL   ?XSTACK_DISP0_8
   \   000019   7402         MOV     A,#0x2
   \   00001B   F0           MOVX    @DPTR,A
    256            uartConfig.flowControl          = FALSE;
   \   00001C   7404         MOV     A,#0x4
   \   00001E   12....       LCALL   ?XSTACK_DISP0_8
   \   000021   E4           CLR     A
   \   000022   F0           MOVX    @DPTR,A
    257            uartConfig.flowControlThreshold = TRANSMIT_APP_THRESH; // 2x30 don't care - see uart driver.
   \   000023   7405         MOV     A,#0x5
   \   000025   12....       LCALL   ?XSTACK_DISP0_8
   \   000028   7440         MOV     A,#0x40
   \   00002A   12....       LCALL   ??Subroutine31_0 & 0xFFFF
    258            uartConfig.rx.maxBufSize        = TRANSMIT_APP_RX_SZ;  // 2x30 don't care - see uart driver.
   \                     ??CrossCallReturnLabel_70:
   \   00002D   740C         MOV     A,#0xc
   \   00002F   12....       LCALL   ?XSTACK_DISP0_8
   \   000032   12....       LCALL   ?Subroutine11 & 0xFFFF
    259            uartConfig.tx.maxBufSize        = TRANSMIT_APP_TX_SZ;  // 2x30 don't care - see uart driver.
   \                     ??CrossCallReturnLabel_73:
   \   000035   7414         MOV     A,#0x14
   \   000037   12....       LCALL   ?XSTACK_DISP0_8
   \   00003A   12....       LCALL   ?Subroutine11 & 0xFFFF
    260            uartConfig.idleTimeout          = TRANSMIT_APP_IDLE;   // 2x30 don't care - see uart driver.
   \                     ??CrossCallReturnLabel_74:
   \   00003D   7407         MOV     A,#0x7
   \   00003F   12....       LCALL   ?XSTACK_DISP0_8
   \   000042   7406         MOV     A,#0x6
   \   000044   F0           MOVX    @DPTR,A
    261            uartConfig.intEnable            = FALSE;              // 2x30 don't care - see uart driver.
   \   000045   7418         MOV     A,#0x18
   \   000047   12....       LCALL   ?XSTACK_DISP0_8
   \   00004A   E4           CLR     A
   \   00004B   F0           MOVX    @DPTR,A
    262            uartConfig.callBackFunc         = TransmitAPP_CallBack;
   \   00004C   741D         MOV     A,#0x1d
   \   00004E   12....       LCALL   ?XSTACK_DISP0_8
   \   000051   74..         MOV     A,#??TransmitAPP_CallBack?relay & 0xff
   \   000053   F0           MOVX    @DPTR,A
   \   000054   A3           INC     DPTR
   \   000055   74..         MOV     A,#(??TransmitAPP_CallBack?relay >> 8) & 0xff
   \   000057   F0           MOVX    @DPTR,A
    263            HalUARTOpen (HAL_UART_PORT_0, &uartConfig);
   \   000058                ; Setup parameters for call to function HalUARTOpen
   \   000058   7402         MOV     A,#0x2
   \   00005A   12....       LCALL   ?XSTACK_DISP0_8
   \   00005D   AA82         MOV     R2,DPL
   \   00005F   AB83         MOV     R3,DPH
   \   000061   7900         MOV     R1,#0x0
   \   000063   12....       LCALL   ??HalUARTOpen?relay
    264          #endif
    265            
    266          #if !defined ( TRANSMITAPP_FRAGMENTED )
    267            afDataReqMTU_t mtu;
    268          #endif
    269            uint16 i;
    270          
    271            TransmitApp_TaskID = task_id;
   \   000066   EE           MOV     A,R6
   \   000067   90....       MOV     DPTR,#TransmitApp_TaskID
   \   00006A   F0           MOVX    @DPTR,A
    272            TransmitApp_RelayTransID = 0;
   \   00006B   90....       MOV     DPTR,#TransmitApp_RelayTransID
   \   00006E   E4           CLR     A
   \   00006F   F0           MOVX    @DPTR,A
    273            TransmitApp_MotorTransID = 0;
   \   000070   90....       MOV     DPTR,#TransmitApp_MotorTransID
   \   000073   F0           MOVX    @DPTR,A
    274          
    275            // Device hardware initialization can be added here or in main() (Zmain.c).
    276            // If the hardware is application specific - add it here.
    277            // If the hardware is other parts of the device add it in main().
    278          
    279            //TransmitApp_DstAddr.addrMode = (afAddrMode_t)AddrNotPresent;
    280            //TransmitApp_DstAddr.endPoint = 0;
    281            //TransmitApp_DstAddr.addr.shortAddr = 0;
    282          
    283            // Fill out the endpoint description.
    284            // 初始化节点
    285            TransmitApp_epDesc.endPoint = TRANSMITAPP_ENDPOINT;   // 端口号
   \   000074   90....       MOV     DPTR,#TransmitApp_epDesc
   \   000077   04           INC     A
   \   000078   F0           MOVX    @DPTR,A
    286            TransmitApp_epDesc.task_id = &TransmitApp_TaskID;     // 任务ID
   \   000079   A3           INC     DPTR
   \   00007A   74..         MOV     A,#TransmitApp_TaskID & 0xff
   \   00007C   F0           MOVX    @DPTR,A
   \   00007D   A3           INC     DPTR
   \   00007E   74..         MOV     A,#(TransmitApp_TaskID >> 8) & 0xff
   \   000080   F0           MOVX    @DPTR,A
    287            TransmitApp_epDesc.simpleDesc                         // 简单描述符来描述端口
    288                      = (SimpleDescriptionFormat_t *)&TransmitApp_SimpleDesc;
   \   000081   A3           INC     DPTR
   \   000082   74..         MOV     A,#TransmitApp_SimpleDesc & 0xff
   \   000084   F0           MOVX    @DPTR,A
   \   000085   A3           INC     DPTR
   \   000086   74..         MOV     A,#(TransmitApp_SimpleDesc >> 8) & 0xff
   \   000088   12....       LCALL   ??Subroutine31_0 & 0xFFFF
    289            TransmitApp_epDesc.latencyReq = noLatencyReqs;
    290          
    291            // Register the endpoint/interface description with the AF
    292            afRegister( &TransmitApp_epDesc );
   \                     ??CrossCallReturnLabel_69:
   \   00008B                ; Setup parameters for call to function afRegister
   \   00008B   7A..         MOV     R2,#TransmitApp_epDesc & 0xff
   \   00008D   7B..         MOV     R3,#(TransmitApp_epDesc >> 8) & 0xff
   \   00008F   12....       LCALL   ??afRegister?relay
    293          
    294            // Register for all key events - This app will handle all key events
    295            RegisterForKeys( TransmitApp_TaskID );
   \   000092                ; Setup parameters for call to function RegisterForKeys
   \   000092   90....       MOV     DPTR,#TransmitApp_TaskID
   \   000095   E0           MOVX    A,@DPTR
   \   000096   F9           MOV     R1,A
   \   000097   12....       LCALL   ??RegisterForKeys?relay
    296          
    297            // Update the display
    298          #if defined ( LCD_SUPPORTED )
    299            HalLcdWriteString( "TransmitApp", HAL_LCD_LINE_2 );
   \   00009A                ; Setup parameters for call to function HalLcdWriteString
   \   00009A   7902         MOV     R1,#0x2
   \   00009C   7A..         MOV     R2,#`?<Constant "TransmitApp">` & 0xff
   \   00009E   7B..         MOV     R3,#(`?<Constant "TransmitApp">` >> 8) & 0xff
   \   0000A0   12....       LCALL   ??HalLcdWriteString?relay
    300          #endif
    301          
    302            // Set the data length
    303          #if defined ( TRANSMITAPP_FRAGMENTED )
    304            TransmitApp_MaxDataLength = TRANSMITAPP_MAX_DATA_LEN;
    305          #else
    306            mtu.kvp        = FALSE;
   \   0000A3   85..82       MOV     DPL,?XSP + 0
   \   0000A6   85..83       MOV     DPH,?XSP + 1
   \   0000A9   E4           CLR     A
   \   0000AA   F0           MOVX    @DPTR,A
    307            mtu.aps.secure = FALSE;
   \   0000AB   04           INC     A
   \   0000AC   12....       LCALL   ?XSTACK_DISP0_8
   \   0000AF   E4           CLR     A
   \   0000B0   F0           MOVX    @DPTR,A
    308            TransmitApp_MaxDataLength = afDataReqMTU( &mtu );
   \   0000B1                ; Setup parameters for call to function afDataReqMTU
   \   0000B1   85..82       MOV     DPL,?XSP + 0
   \   0000B4   85..83       MOV     DPH,?XSP + 1
   \   0000B7   AA82         MOV     R2,DPL
   \   0000B9   AB83         MOV     R3,DPH
   \   0000BB   12....       LCALL   ??afDataReqMTU?relay
   \   0000BE   E9           MOV     A,R1
   \   0000BF   90....       MOV     DPTR,#TransmitApp_MaxDataLength
   \   0000C2   12....       LCALL   ??Subroutine31_0 & 0xFFFF
    309          #endif
    310          
    311            // 发送数据清零
    312            for (i = 0; i < TransmitApp_MaxDataLength; i++)
   \                     ??CrossCallReturnLabel_71:
   \   0000C5   90....       MOV     DPTR,#TransmitApp_MaxDataLength
   \   0000C8   E0           MOVX    A,@DPTR
   \   0000C9   6014         JZ      ??TransmitApp_Init_0
    313            {
    314              TransmitApp_Msg[i] = 0;
   \   0000CB   F8           MOV     R0,A
   \   0000CC   7900         MOV     R1,#0x0
   \   0000CE   90....       MOV     DPTR,#TransmitApp_Msg
   \                     ??TransmitApp_Init_1:
   \   0000D1   E4           CLR     A
   \   0000D2   F0           MOVX    @DPTR,A
   \   0000D3   A3           INC     DPTR
   \   0000D4   E8           MOV     A,R0
   \   0000D5   24FF         ADD     A,#-0x1
   \   0000D7   18           DEC     R0
   \   0000D8   E9           MOV     A,R1
   \   0000D9   34FF         ADDC    A,#-0x1
   \   0000DB   F9           MOV     R1,A
   \   0000DC   48           ORL     A,R0
   \   0000DD   70F2         JNZ     ??TransmitApp_Init_1
    315            }
    316          
    317            // 注册两个MSG
    318            // 绑定需要一种即可, 无需两种?????
    319            ZDO_RegisterForZDOMsg( TransmitApp_TaskID, End_Device_Bind_rsp );
   \                     ??TransmitApp_Init_0:
   \   0000DF                ; Setup parameters for call to function ZDO_RegisterForZDOMsg
   \   0000DF   7A20         MOV     R2,#0x20
   \   0000E1   7B80         MOV     R3,#-0x80
   \   0000E3   90....       MOV     DPTR,#TransmitApp_TaskID
   \   0000E6   E0           MOVX    A,@DPTR
   \   0000E7   F9           MOV     R1,A
   \   0000E8   12....       LCALL   ??ZDO_RegisterForZDOMsg?relay
    320            ZDO_RegisterForZDOMsg( TransmitApp_TaskID, Match_Desc_rsp );
   \   0000EB                ; Setup parameters for call to function ZDO_RegisterForZDOMsg
   \   0000EB   7A06         MOV     R2,#0x6
   \   0000ED   7B80         MOV     R3,#-0x80
   \   0000EF   90....       MOV     DPTR,#TransmitApp_TaskID
   \   0000F2   E0           MOVX    A,@DPTR
   \   0000F3   F9           MOV     R1,A
   \   0000F4   12....       LCALL   ??ZDO_RegisterForZDOMsg?relay
    321            
    322            // 打开显示，第一次延时周期较长
    323            osal_start_timerEx( TransmitApp_TaskID, TRANSMITAPP_DISPLAY_EVT, 
    324                                TRANSMITAPP_DISPLAY_DELAY);
   \   0000F7                ; Setup parameters for call to function osal_start_timerEx
   \   0000F7   7C10         MOV     R4,#0x10
   \   0000F9   7D27         MOV     R5,#0x27
   \   0000FB   12....       LCALL   ?Subroutine14 & 0xFFFF
    325            
    326            // 打开设备在线检测，第一次开启检测延时较长时间
    327            osal_start_timerEx( TransmitApp_TaskID, TRANSMITAPP_DEVICE_CHECK_EVT, 
    328                                TRANSMITAPP_DEVICE_CHECK_DELAY);
   \                     ??CrossCallReturnLabel_62:
   \   0000FE                ; Setup parameters for call to function osal_start_timerEx
   \   0000FE   7C88         MOV     R4,#-0x78
   \   000100   7D13         MOV     R5,#0x13
   \   000102   7A80         MOV     R2,#-0x80
   \   000104   12....       LCALL   ??Subroutine29_0 & 0xFFFF
    329            
    330            // 关闭LED灯(D4)，表示协调器默认不允许组网
    331            NLME_PermitJoiningRequest(0x00);
   \                     ??CrossCallReturnLabel_64:
   \   000107                ; Setup parameters for call to function NLME_PermitJoiningRequest
   \   000107   7900         MOV     R1,#0x0
   \   000109   12....       LCALL   ??NLME_PermitJoiningRequest?relay
    332            HalLedSet(HAL_LED_1, HAL_LED_MODE_OFF);
   \   00010C                ; Setup parameters for call to function HalLedSet
   \   00010C   7A00         MOV     R2,#0x0
   \   00010E   7901         MOV     R1,#0x1
   \   000110   12....       LCALL   ??HalLedSet?relay
    333            
    334            // 设备离线状态检测初始化，初始化为离线
    335            Humit.deviceNWKStatus     = DEVICE_NWK_OFFLINE;
   \   000113   90....       MOV     DPTR,#Humit
   \   000116   7402         MOV     A,#0x2
   \   000118   F0           MOVX    @DPTR,A
    336            TempLight.deviceNWKStatus = DEVICE_NWK_OFFLINE;
   \   000119   90....       MOV     DPTR,#TempLight
   \   00011C   F0           MOVX    @DPTR,A
    337            RfID.deviceNWKStatus      = DEVICE_NWK_OFFLINE;
   \   00011D   90....       MOV     DPTR,#RfID
   \   000120   F0           MOVX    @DPTR,A
    338            gasFlame.deviceNWKStatus  = DEVICE_NWK_OFFLINE;
   \   000121   90....       MOV     DPTR,#gasFlame
   \   000124   F0           MOVX    @DPTR,A
    339            infrared.deviceNWKStatus  = DEVICE_NWK_OFFLINE;
   \   000125   90....       MOV     DPTR,#infrared
   \   000128   F0           MOVX    @DPTR,A
    340            soundVb.deviceNWKStatus   = DEVICE_NWK_OFFLINE;
   \   000129   90....       MOV     DPTR,#soundVb
   \   00012C   F0           MOVX    @DPTR,A
    341            motor.deviceNWKStatus     = DEVICE_NWK_OFFLINE;
   \   00012D   90....       MOV     DPTR,#motor
   \   000130   F0           MOVX    @DPTR,A
    342            relay.deviceNWKStatus     = DEVICE_NWK_OFFLINE;
   \   000131   90....       MOV     DPTR,#relay
   \   000134   F0           MOVX    @DPTR,A
    343          }
   \   000135   741F         MOV     A,#0x1f
   \   000137   12....       LCALL   ?DEALLOC_XSTACK8
   \   00013A                REQUIRE ?Subroutine0
   \   00013A                ; // Fall through to label ?Subroutine0

   \                                 In  segment BANKED_CODE, align 1, keep-with-next
   \                     ?Subroutine0:
   \   000000   7F01         MOV     R7,#0x1
   \   000002   02....       LJMP    ?BANKED_LEAVE_XDATA

   \                                 In  segment BANKED_CODE, align 1, keep-with-next
   \                     ?Subroutine14:
   \   000000   7A10         MOV     R2,#0x10
   \   000002                REQUIRE ??Subroutine29_0
   \   000002                ; // Fall through to label ??Subroutine29_0

   \                                 In  segment BANKED_CODE, align 1, keep-with-next
   \                     ??Subroutine29_0:
   \   000000   7B00         MOV     R3,#0x0
   \   000002   90....       MOV     DPTR,#TransmitApp_TaskID
   \   000005   E0           MOVX    A,@DPTR
   \   000006   F9           MOV     R1,A
   \   000007   12....       LCALL   ??osal_start_timerEx?relay
   \   00000A   22           RET

   \                                 In  segment BANKED_CODE, align 1, keep-with-next
   \                     ?Subroutine11:
   \   000000   7480         MOV     A,#-0x80
   \   000002                REQUIRE ??Subroutine31_0
   \   000002                ; // Fall through to label ??Subroutine31_0

   \                                 In  segment BANKED_CODE, align 1, keep-with-next
   \                     ??Subroutine31_0:
   \   000000   F0           MOVX    @DPTR,A
   \   000001   A3           INC     DPTR
   \   000002   E4           CLR     A
   \   000003   F0           MOVX    @DPTR,A
   \   000004   22           RET
    344          
    345          /*******************************************************************************
    346           * @fn      TransmitApp_ProcessEvent
    347           *
    348           * @brief   Generic Application Task event processor.  This function
    349           *          is called to process all events for the task.  Events
    350           *          include timers, messages and any other user defined events.
    351           *
    352           * @param   task_id  - The OSAL assigned task ID.
    353           * @param   events - events to process.  This is a bit map and can
    354           *                   contain more than one event.
    355           *
    356           * @return  none
    357           */

   \                                 In  segment BANKED_CODE, align 1, keep-with-next
    358          UINT16 TransmitApp_ProcessEvent( byte task_id, UINT16 events )
   \                     TransmitApp_ProcessEvent:
    359          {
   \   000000   74F4         MOV     A,#-0xc
   \   000002   12....       LCALL   ?BANKED_ENTER_XDATA
   \   000005                ; Saved register size: 12
   \   000005                ; Auto size: 0
   \   000005   EA           MOV     A,R2
   \   000006   FE           MOV     R6,A
   \   000007   EB           MOV     A,R3
   \   000008   FF           MOV     R7,A
    360            afIncomingMSGPacket_t *MSGpkt;
    361            afDataConfirm_t *afDataConfirm;
    362            (void)task_id;  // Intentionally unreferenced parameter
    363          
    364            // Data Confirmation message fields
    365            ZStatus_t sentStatus;
    366            byte sentEP;
    367          
    368            if ( events & SYS_EVENT_MSG )
   \   000009   5480         ANL     A,#0x80
   \   00000B   604D         JZ      ??TransmitApp_ProcessEvent_0
    369            {
    370              MSGpkt = (afIncomingMSGPacket_t *)osal_msg_receive( TransmitApp_TaskID );
   \   00000D                ; Setup parameters for call to function osal_msg_receive
   \   00000D   800E         SJMP    ??TransmitApp_ProcessEvent_1
    371              while ( MSGpkt )
    372              {
    373                switch ( MSGpkt->hdr.event )
    374                {
    375                  case ZDO_CB_MSG:
    376                    TransmitApp_ProcessZDOMsgs( (zdoIncomingMsg_t *)MSGpkt );
    377                    break;
    378          
    379                  case KEY_CHANGE:
    380                    TransmitApp_HandleKeys( ((keyChange_t *)MSGpkt)->state, ((keyChange_t *)MSGpkt)->keys );
    381                    break;
    382          
    383                  case AF_DATA_CONFIRM_CMD:
    384                    // This message is received as a confirmation of a data packet sent.
    385                    // The status is of ZStatus_t type [defined in ZComDef.h]
    386                    // The message fields are defined in AF.h
    387                    afDataConfirm = (afDataConfirm_t *)MSGpkt;
    388                    sentEP = afDataConfirm->endpoint;
    389                    sentStatus = afDataConfirm->hdr.status;
    390           
    391                    if ( (ZSuccess == sentStatus) &&
    392                         (TransmitApp_epDesc.endPoint == sentEP) )
    393                    {  
    394                    }
    395                    break;
    396          
    397                  case AF_INCOMING_MSG_CMD:
    398                    TransmitApp_MessageMSGCB( MSGpkt );
   \                     ??TransmitApp_ProcessEvent_2:
   \   00000F                ; Setup parameters for call to function TransmitApp_MessageMSGCB
   \   00000F   AA..         MOV     R2,?V0 + 0
   \   000011   AB..         MOV     R3,?V0 + 1
   \   000013   12....       LCALL   ??TransmitApp_MessageMSGCB?relay
    399                    break;
    400          
    401                  case ZDO_STATE_CHANGE:
    402                    break;
    403          
    404                  default:
    405                    break;
    406                }
    407          
    408                // Release the memory
    409                osal_msg_deallocate( (uint8 *)MSGpkt );
   \                     ??TransmitApp_ProcessEvent_3:
   \   000016                ; Setup parameters for call to function osal_msg_deallocate
   \   000016   AA..         MOV     R2,?V0 + 0
   \   000018   AB..         MOV     R3,?V0 + 1
   \   00001A   12....       LCALL   ??osal_msg_deallocate?relay
    410          
    411                // Next
    412                MSGpkt = (afIncomingMSGPacket_t *)osal_msg_receive( TransmitApp_TaskID );
   \   00001D                ; Setup parameters for call to function osal_msg_receive
   \                     ??TransmitApp_ProcessEvent_1:
   \   00001D   90....       MOV     DPTR,#TransmitApp_TaskID
   \   000020   E0           MOVX    A,@DPTR
   \   000021   F9           MOV     R1,A
   \   000022   12....       LCALL   ??osal_msg_receive?relay
   \   000025   8A..         MOV     ?V0 + 0,R2
   \   000027   8B..         MOV     ?V0 + 1,R3
   \   000029   E5..         MOV     A,?V0 + 0
   \   00002B   45..         ORL     A,?V0 + 1
   \   00002D   6023         JZ      ??TransmitApp_ProcessEvent_4
   \   00002F   85..82       MOV     DPL,?V0 + 0
   \   000032   85..83       MOV     DPH,?V0 + 1
   \   000035   E0           MOVX    A,@DPTR
   \   000036   24E6         ADD     A,#-0x1a
   \   000038   60D5         JZ      ??TransmitApp_ProcessEvent_2
   \   00003A   245A         ADD     A,#0x5a
   \   00003C   70D8         JNZ     ??TransmitApp_ProcessEvent_3
   \   00003E                ; Setup parameters for call to function TransmitApp_HandleKeys
   \   00003E   A3           INC     DPTR
   \   00003F   A3           INC     DPTR
   \   000040   A3           INC     DPTR
   \   000041   E0           MOVX    A,@DPTR
   \   000042   FA           MOV     R2,A
   \   000043   85..82       MOV     DPL,?V0 + 0
   \   000046   85..83       MOV     DPH,?V0 + 1
   \   000049   A3           INC     DPTR
   \   00004A   A3           INC     DPTR
   \   00004B   E0           MOVX    A,@DPTR
   \   00004C   F9           MOV     R1,A
   \   00004D   12....       LCALL   ??TransmitApp_HandleKeys?relay
   \   000050   80C4         SJMP    ??TransmitApp_ProcessEvent_3
    413              }
    414          
    415              // Squash compiler warnings until values are used.
    416              (void)sentStatus;
    417              (void)sentEP;
    418          
    419              // Return unprocessed events
    420              return (events ^ SYS_EVENT_MSG);
   \                     ??TransmitApp_ProcessEvent_4:
   \   000052   EE           MOV     A,R6
   \   000053   FA           MOV     R2,A
   \   000054   EF           MOV     A,R7
   \   000055   6480         XRL     A,#0x80
   \                     ??TransmitApp_ProcessEvent_5:
   \   000057   FB           MOV     R3,A
   \   000058   805B         SJMP    ??TransmitApp_ProcessEvent_6
    421            }
    422          
    423            // Send a message out, 本实验协调器没有周期发送数任务
    424            if ( events & TRANSMITAPP_SEND_MSG_EVT )
   \                     ??TransmitApp_ProcessEvent_0:
   \   00005A   EE           MOV     A,R6
   \   00005B   A2E0         MOV     C,0xE0 /* A   */.0
   \   00005D   5005         JNC     ??TransmitApp_ProcessEvent_7
    425            {      
    426              // Return unprocessed events
    427              return (events ^ TRANSMITAPP_SEND_MSG_EVT);
   \   00005F   6401         XRL     A,#0x1
   \                     ??TransmitApp_ProcessEvent_8:
   \   000061   FA           MOV     R2,A
   \   000062   8051         SJMP    ??TransmitApp_ProcessEvent_6
    428            }
    429            
    430            // 设备状态检查事件
    431            if ( events & TRANSMITAPP_DEVICE_CHECK_EVT )
   \                     ??TransmitApp_ProcessEvent_7:
   \   000064   5480         ANL     A,#0x80
   \   000066   6013         JZ      ??TransmitApp_ProcessEvent_9
    432            {
    433              // 调用设备网络状态监测函数
    434              TransmitApp_DeviceNWKCheck(); 
   \   000068                ; Setup parameters for call to function TransmitApp_DeviceNWKCheck
   \   000068   12....       LCALL   ??TransmitApp_DeviceNWKCheck?relay
    435              
    436              // 任务需要周期性运行
    437              osal_start_timerEx( TransmitApp_TaskID, TRANSMITAPP_DEVICE_CHECK_EVT, 
    438                                  TRANSMITAPP_DEVICE_CHECK_TIMER);
   \   00006B                ; Setup parameters for call to function osal_start_timerEx
   \   00006B   7CD0         MOV     R4,#-0x30
   \   00006D   7D07         MOV     R5,#0x7
   \   00006F   7A80         MOV     R2,#-0x80
   \   000071   12....       LCALL   ??Subroutine29_0 & 0xFFFF
    439              
    440              // Return unprocessed events
    441              return (events ^ TRANSMITAPP_DEVICE_CHECK_EVT);
   \                     ??CrossCallReturnLabel_65:
   \   000074   EE           MOV     A,R6
   \   000075   6480         XRL     A,#0x80
   \                     ??TransmitApp_ProcessEvent_10:
   \   000077   FA           MOV     R2,A
   \   000078   EF           MOV     A,R7
   \   000079   80DC         SJMP    ??TransmitApp_ProcessEvent_5
    442            }
    443           
    444          
    445            // LCD显示事件
    446            if ( events & TRANSMITAPP_DISPLAY_EVT )
   \                     ??TransmitApp_ProcessEvent_9:
   \   00007B   EE           MOV     A,R6
   \   00007C   5410         ANL     A,#0x10
   \   00007E   601D         JZ      ??TransmitApp_ProcessEvent_11
    447            {
    448              // 如果滚屏功能打开，自动向上滚动一行
    449              if (autoScrollEnable == 1)
   \   000080   90....       MOV     DPTR,#autoScrollEnable
   \   000083   E0           MOVX    A,@DPTR
   \   000084   6401         XRL     A,#0x1
   \   000086   7006         JNZ     ??TransmitApp_ProcessEvent_12
    450              {
    451                  scrollLine++;
   \   000088   90....       MOV     DPTR,#scrollLine
   \   00008B   E0           MOVX    A,@DPTR
   \   00008C   04           INC     A
   \   00008D   F0           MOVX    @DPTR,A
    452              }
    453              // 刷新显示数据
    454              //TransmitApp_DisplayResults( dispPage, &scrollLine);
    455              Smart_home_Display();
   \                     ??TransmitApp_ProcessEvent_12:
   \   00008E                ; Setup parameters for call to function Smart_home_Display
   \   00008E   12....       LCALL   ??Smart_home_Display?relay
    456              
    457              // 周期性的调用该事件来刷新显示数据
    458              osal_start_timerEx( TransmitApp_TaskID, TRANSMITAPP_DISPLAY_EVT, 
    459                                  TRANSMITAPP_DISPLAY_TIMER );   
   \   000091                ; Setup parameters for call to function osal_start_timerEx
   \   000091   7CD0         MOV     R4,#-0x30
   \   000093   7D07         MOV     R5,#0x7
   \   000095   12....       LCALL   ?Subroutine14 & 0xFFFF
    460              // Return unprocessed events
    461              return (events ^ TRANSMITAPP_DISPLAY_EVT);
   \                     ??CrossCallReturnLabel_63:
   \   000098   EE           MOV     A,R6
   \   000099   6410         XRL     A,#0x10
   \   00009B   80DA         SJMP    ??TransmitApp_ProcessEvent_10
    462            }
    463          
    464            // TRANSMITAPP_MATCHRSP_EVT事件预留
    465            if ( events & TRANSMITAPP_MATCHRSP_EVT )
   \                     ??TransmitApp_ProcessEvent_11:
   \   00009D   EE           MOV     A,R6
   \   00009E   5408         ANL     A,#0x8
   \   0000A0   6005         JZ      ??TransmitApp_ProcessEvent_13
    466            {  
    467              return (events ^ TRANSMITAPP_MATCHRSP_EVT);
   \   0000A2   EE           MOV     A,R6
   \   0000A3   6408         XRL     A,#0x8
   \   0000A5   80BA         SJMP    ??TransmitApp_ProcessEvent_8
    468            }
    469            // TRANSMITAPP_BINDRSP_EVT事件预留
    470            if ( events & TRANSMITAPP_BINDRSP_EVT )
   \                     ??TransmitApp_ProcessEvent_13:
   \   0000A7   EE           MOV     A,R6
   \   0000A8   5420         ANL     A,#0x20
   \   0000AA   6005         JZ      ??TransmitApp_ProcessEvent_14
    471            {
    472              return (events ^ TRANSMITAPP_BINDRSP_EVT);
   \   0000AC   EE           MOV     A,R6
   \   0000AD   6420         XRL     A,#0x20
   \   0000AF   80B0         SJMP    ??TransmitApp_ProcessEvent_8
    473            }
    474            
    475            // Discard unknown events
    476            return 0;
   \                     ??TransmitApp_ProcessEvent_14:
   \   0000B1   7A00         MOV     R2,#0x0
   \   0000B3   7B00         MOV     R3,#0x0
   \                     ??TransmitApp_ProcessEvent_6:
   \   0000B5   7F04         MOV     R7,#0x4
   \   0000B7   02....       LJMP    ?BANKED_LEAVE_XDATA
    477          }
    478          
    479          /*******************************************************************************
    480           * Event Generation Functions
    481           */
    482          /*******************************************************************************
    483           * @fn      TransmitApp_ProcessZDOMsgs()
    484           *
    485           * @brief   Process response messages
    486           *
    487           * @param   none
    488           *
    489           * @return  none
    490           */

   \                                 In  segment BANKED_CODE, align 1, keep-with-next
    491          void TransmitApp_ProcessZDOMsgs( zdoIncomingMsg_t *inMsg )
   \                     TransmitApp_ProcessZDOMsgs:
    492          {
   \   000000                ; Saved register size: 0
   \   000000                ; Auto size: 0
    493            /*
    494            switch ( inMsg->clusterID )
    495            {
    496              // 绑定信息处理
    497              case End_Device_Bind_rsp:
    498                if ( ZDO_ParseBindRsp( inMsg ) == ZSuccess )
    499                {
    500                  osal_stop_timerEx( TransmitApp_TaskID, TRANSMITAPP_BINDRSP_EVT);
    501          #if defined ( LCD_SUPPORTED )
    502                  HalLcdWriteString( "BindSuccess", HAL_LCD_LINE_3 );
    503          #endif
    504                }
    505                break;
    506          
    507              // 描述符匹配信息处理 
    508              case Match_Desc_rsp:
    509                ZDO_ActiveEndpointRsp_t *pRsp = ZDO_ParseEPListRsp( inMsg );
    510                if ( pRsp )
    511                {
    512                  if ( pRsp->status == ZSuccess && pRsp->cnt )
    513                  {
    514                    osal_stop_timerEx( TransmitApp_TaskID, TRANSMITAPP_MATCHRSP_EVT);
    515          
    516          #if defined ( LCD_SUPPORTED )
    517                    HalLcdWriteString( "MatchSuccess", HAL_LCD_LINE_3 );
    518          #endif
    519                   }
    520                   osal_mem_free( pRsp );
    521                }
    522                break;
    523            }*/
    524          }
   \   000000   02....       LJMP    ?BRET
    525          
    526          /*********************************************************************
    527           * @fn      Smart_home_Motor_cmd
    528           * 
    529           * @brief   通过电机速度判断电机转向
    530           * 
    531           * 
    532           * @param   uint8 电机转速
    533           * 
    534           * @return  
    535           *          #define  HAL_MOTOR_STOP            0x01
    536           *          #define  HAL_MOTOR_FORWARD         0x02
    537           *          #define  HAL_MOTOR_BACKWARD        0x03
    538           */

   \                                 In  segment BANKED_CODE, align 1, keep-with-next
    539          void Smart_home_Motor_cmd(int8 speed)
   \                     Smart_home_Motor_cmd:
    540          {
   \   000000   74F7         MOV     A,#-0x9
   \   000002   12....       LCALL   ?BANKED_ENTER_XDATA
   \   000005                ; Saved register size: 9
   \   000005                ; Auto size: 0
   \   000005   E9           MOV     A,R1
   \   000006   FE           MOV     R6,A
    541            uint8 outspeed;
    542            uint8 cmd;
    543            if(speed == 0)
   \   000007   7006         JNZ     ??Smart_home_Motor_cmd_0
    544            {
    545              outspeed = 0;
   \                     ??Smart_home_Motor_cmd_1:
   \   000009   7F00         MOV     R7,#0x0
    546              cmd = HAL_MOTOR_STOP;
   \   00000B   7901         MOV     R1,#0x1
   \   00000D   8021         SJMP    ??Smart_home_Motor_cmd_2
    547            }   
    548            else if(speed > 0)
   \                     ??Smart_home_Motor_cmd_0:
   \   00000F   C3           CLR     C
   \   000010   9401         SUBB    A,#0x1
   \   000012   A2D2         MOV     C,0xD0 /* PSW */.2
   \   000014   65D0         XRL     A,PSW
   \   000016   33           RLC     A
   \   000017   EE           MOV     A,R6
   \   000018   4005         JC      ??Smart_home_Motor_cmd_3
    549            {
    550              outspeed = speed;
   \   00001A   FF           MOV     R7,A
    551              cmd = HAL_MOTOR_FORWARD;
   \   00001B   7902         MOV     R1,#0x2
   \   00001D   8011         SJMP    ??Smart_home_Motor_cmd_2
    552            }
    553            
    554            else if(speed < 0)
   \                     ??Smart_home_Motor_cmd_3:
   \   00001F   C3           CLR     C
   \   000020   9400         SUBB    A,#0x0
   \   000022   A2D2         MOV     C,0xD0 /* PSW */.2
   \   000024   65D0         XRL     A,PSW
   \   000026   33           RLC     A
   \   000027   50E0         JNC     ??Smart_home_Motor_cmd_1
    555            {
    556              outspeed = 0xff - speed;
   \   000029   74FF         MOV     A,#-0x1
   \   00002B   C3           CLR     C
   \   00002C   9E           SUBB    A,R6
   \   00002D   FF           MOV     R7,A
    557              cmd = HAL_MOTOR_BACKWARD;
   \   00002E   7903         MOV     R1,#0x3
    558            }
    559            
    560            else
    561            {
    562              outspeed = 0;
    563              cmd = HAL_MOTOR_STOP;    
    564            }
    565            TransmitApp_SendToMotorMSG(cmd,outspeed); 
   \                     ??Smart_home_Motor_cmd_2:
   \   000030                ; Setup parameters for call to function TransmitApp_SendToMotorMSG
   \   000030   EF           MOV     A,R7
   \   000031   FA           MOV     R2,A
   \   000032   12....       LCALL   ??TransmitApp_SendToMotorMSG?relay
    566          }
   \   000035   02....       LJMP    ?Subroutine0 & 0xFFFF
    567          
    568          

   \                                 In  segment BANKED_CODE, align 1, keep-with-next
    569          void TransmitApp_HandleKeys( byte shift, byte keys )
   \                     TransmitApp_HandleKeys:
    570          {
   \   000000   74F7         MOV     A,#-0x9
   \   000002   12....       LCALL   ?BANKED_ENTER_XDATA
   \   000005                ; Saved register size: 9
   \   000005                ; Auto size: 0
   \   000005   EA           MOV     A,R2
   \   000006   FE           MOV     R6,A
    571            //zAddrType_t txAddr;
    572            static int8 MotorSpeed = 0;
    573            static uint8 NetWorkAllow = 0;
    574            /*这里这么设置似乎会出现内存问题
    575            static uint8 Relay1_on = 0x02;  //两个默认都是关闭
    576            static uint8 Relay2_on = 0x10;
    577            */
    578            /*3.21 LCD 显示*/
    579            static uint8 Relay1_on = 0;  //两个默认都是关闭
    580            static uint8 Relay2_on = 0;
    581            
    582            
    583            if ( keys & HAL_KEY_SW_1 )  //UP
   \   000007   A2E0         MOV     C,0xE0 /* A   */.0
   \   000009   5059         JNC     ??TransmitApp_HandleKeys_0
    584            {
    585              switch(Ctrlcase)
   \   00000B   90....       MOV     DPTR,#Ctrlcase
   \   00000E   E0           MOVX    A,@DPTR
   \   00000F   14           DEC     A
   \   000010   6017         JZ      ??TransmitApp_HandleKeys_1
   \   000012   14           DEC     A
   \   000013   602A         JZ      ??TransmitApp_HandleKeys_2
    586              {
    587                default:    
    588                case 0:
    589                {
    590                  if(LCD_Page < LCD_PAGE_MAX)       {LCD_Page++;}
   \   000015   90....       MOV     DPTR,#LCD_Page
   \   000018   12....       LCALL   ?Subroutine15 & 0xFFFF
   \                     ??CrossCallReturnLabel_29:
   \   00001B   5003         JNC     ??TransmitApp_HandleKeys_3
   \   00001D   E0           MOVX    A,@DPTR
   \   00001E   04           INC     A
   \   00001F   F0           MOVX    @DPTR,A
    591                  if(LCD_Page > LCD_PAGE_MAX - 1)       {LCD_Page = 0;}
   \                     ??TransmitApp_HandleKeys_3:
   \   000020   12....       LCALL   ?Subroutine15 & 0xFFFF
   \                     ??CrossCallReturnLabel_30:
   \   000023   403F         JC      ??TransmitApp_HandleKeys_0
   \   000025   E4           CLR     A
   \   000026   F0           MOVX    @DPTR,A
   \   000027   803B         SJMP    ??TransmitApp_HandleKeys_0
    592                  break;
    593                }
    594                case 1:
    595                {  
    596                  uint8 switch1;
    597                  if(Relay1_on == 0)  {Relay1_on = 1 ; switch1 = 0x02;}
   \                     ??TransmitApp_HandleKeys_1:
   \   000029   90....       MOV     DPTR,#??Relay1_on
   \   00002C   E0           MOVX    A,@DPTR
   \   00002D   7007         JNZ     ??TransmitApp_HandleKeys_4
   \   00002F   7401         MOV     A,#0x1
   \   000031   F0           MOVX    @DPTR,A
   \   000032   7902         MOV     R1,#0x2
   \   000034   8004         SJMP    ??TransmitApp_HandleKeys_5
    598                  else if(Relay1_on == 1)  {Relay1_on = 0; switch1 = 0x01;}
   \                     ??TransmitApp_HandleKeys_4:
   \   000036   E4           CLR     A
   \   000037   F0           MOVX    @DPTR,A
   \   000038   7901         MOV     R1,#0x1
    599                  else  {Relay1_on = 0; switch1 = 0x01;}       
    600                  TransmitApp_SendToRelayMSG(switch1);  
   \                     ??TransmitApp_HandleKeys_5:
   \   00003A                ; Setup parameters for call to function TransmitApp_SendToRelayMSG
   \   00003A   12....       LCALL   ??TransmitApp_SendToRelayMSG?relay
    601                  break;
   \   00003D   8025         SJMP    ??TransmitApp_HandleKeys_0
    602                } 
    603                case 2:
    604                {
    605                  if(MotorSpeed < 50)     {MotorSpeed += 10;}
   \                     ??TransmitApp_HandleKeys_2:
   \   00003F   90....       MOV     DPTR,#??MotorSpeed
   \   000042   12....       LCALL   ?Subroutine17 & 0xFFFF
   \                     ??CrossCallReturnLabel_39:
   \   000045   5004         JNC     ??TransmitApp_HandleKeys_6
   \   000047   E0           MOVX    A,@DPTR
   \   000048   240A         ADD     A,#0xa
   \   00004A   F0           MOVX    @DPTR,A
    606                  if(MotorSpeed >= 50)     
   \                     ??TransmitApp_HandleKeys_6:
   \   00004B   12....       LCALL   ?Subroutine17 & 0xFFFF
   \                     ??CrossCallReturnLabel_40:
   \   00004E   400F         JC      ??TransmitApp_HandleKeys_7
    607                  {
    608          #if defined ( LCD_SUPPORTED )
    609                     HalLcdWriteString( "Motor max Speed", HAL_LCD_LINE_4 );
   \   000050                ; Setup parameters for call to function HalLcdWriteString
   \   000050   7904         MOV     R1,#0x4
   \   000052   7A..         MOV     R2,#`?<Constant "Motor max Speed">` & 0xff
   \   000054   7B..         MOV     R3,#(`?<Constant "Motor max Speed">` >> 8) & 0xff
   \   000056   12....       LCALL   ??HalLcdWriteString?relay
    610          #endif 
    611                     MotorSpeed = 50;
   \   000059   90....       MOV     DPTR,#??MotorSpeed
   \   00005C   7432         MOV     A,#0x32
   \   00005E   F0           MOVX    @DPTR,A
    612                  }
    613                  Smart_home_Motor_cmd(MotorSpeed);
   \                     ??TransmitApp_HandleKeys_7:
   \   00005F                ; Setup parameters for call to function Smart_home_Motor_cmd
   \   00005F   E0           MOVX    A,@DPTR
   \   000060   F9           MOV     R1,A
   \   000061   12....       LCALL   ??Smart_home_Motor_cmd?relay
    614                  
    615                  break;
    616                }
    617                   
    618              }    
    619            }
    620            
    621            if ( keys & HAL_KEY_SW_3 )  //DOWN
   \                     ??TransmitApp_HandleKeys_0:
   \   000064   EE           MOV     A,R6
   \   000065   A2E4         MOV     C,0xE0 /* A   */.4
   \   000067   5064         JNC     ??TransmitApp_HandleKeys_8
    622            {
    623              switch(Ctrlcase)
   \   000069   90....       MOV     DPTR,#Ctrlcase
   \   00006C   E0           MOVX    A,@DPTR
   \   00006D   14           DEC     A
   \   00006E   6018         JZ      ??TransmitApp_HandleKeys_9
   \   000070   14           DEC     A
   \   000071   6035         JZ      ??TransmitApp_HandleKeys_10
    624              {
    625                default:    
    626                case 0:
    627                {
    628                  if(LCD_Page >= 0)       {LCD_Page--;}
   \   000073   90....       MOV     DPTR,#LCD_Page
   \   000076   12....       LCALL   ?Subroutine12 & 0xFFFF
   \                     ??CrossCallReturnLabel_22:
   \   000079   4003         JC      ??TransmitApp_HandleKeys_11
   \   00007B   E0           MOVX    A,@DPTR
   \   00007C   14           DEC     A
   \   00007D   F0           MOVX    @DPTR,A
    629                  if(LCD_Page < 0)        {LCD_Page = LCD_PAGE_MAX;}
   \                     ??TransmitApp_HandleKeys_11:
   \   00007E   12....       LCALL   ?Subroutine12 & 0xFFFF
   \                     ??CrossCallReturnLabel_23:
   \   000081   504A         JNC     ??TransmitApp_HandleKeys_8
   \   000083   7404         MOV     A,#0x4
   \   000085   F0           MOVX    @DPTR,A
   \   000086   8045         SJMP    ??TransmitApp_HandleKeys_8
    630                  break;
    631                }
    632                case 1:  
    633                {
    634                  uint8 switch2;
    635                  if(Relay2_on == 0)  {Relay2_on = 1 ; switch2 = 0x20;}
   \                     ??TransmitApp_HandleKeys_9:
   \   000088   90....       MOV     DPTR,#??Relay2_on
   \   00008B   E0           MOVX    A,@DPTR
   \   00008C   7007         JNZ     ??TransmitApp_HandleKeys_12
   \   00008E   7401         MOV     A,#0x1
   \   000090   F0           MOVX    @DPTR,A
   \   000091   7920         MOV     R1,#0x20
   \   000093   800E         SJMP    ??TransmitApp_HandleKeys_13
    636                  else if(Relay2_on == 1)  {Relay2_on = 0; switch2 = 0x10;}
   \                     ??TransmitApp_HandleKeys_12:
   \   000095   6401         XRL     A,#0x1
   \   000097   7006         JNZ     ??TransmitApp_HandleKeys_14
   \   000099   E4           CLR     A
   \   00009A   F0           MOVX    @DPTR,A
   \   00009B   7910         MOV     R1,#0x10
   \   00009D   8004         SJMP    ??TransmitApp_HandleKeys_13
    637                  else  {Relay2_on = 0; switch2 = 0x01;}       
   \                     ??TransmitApp_HandleKeys_14:
   \   00009F   E4           CLR     A
   \   0000A0   F0           MOVX    @DPTR,A
   \   0000A1   7901         MOV     R1,#0x1
    638                  TransmitApp_SendToRelayMSG(switch2);       
   \                     ??TransmitApp_HandleKeys_13:
   \   0000A3                ; Setup parameters for call to function TransmitApp_SendToRelayMSG
   \   0000A3   12....       LCALL   ??TransmitApp_SendToRelayMSG?relay
    639                  break;
   \   0000A6   8025         SJMP    ??TransmitApp_HandleKeys_8
    640                } 
    641                case 2:
    642                {
    643                  /*
    644                  #define  HAL_MOTOR_STOP            0x01
    645                  #define  HAL_MOTOR_FORWORD         0x02
    646                  #define  HAL_MOTOR_BACKWORD        0x03*/
    647                  if(MotorSpeed > -50)     {MotorSpeed -= 10;}
   \                     ??TransmitApp_HandleKeys_10:
   \   0000A8   90....       MOV     DPTR,#??MotorSpeed
   \   0000AB   12....       LCALL   ?Subroutine18 & 0xFFFF
   \                     ??CrossCallReturnLabel_41:
   \   0000AE   4004         JC      ??TransmitApp_HandleKeys_15
   \   0000B0   E0           MOVX    A,@DPTR
   \   0000B1   24F6         ADD     A,#-0xa
   \   0000B3   F0           MOVX    @DPTR,A
    648                  if(MotorSpeed <= -50)     
   \                     ??TransmitApp_HandleKeys_15:
   \   0000B4   12....       LCALL   ?Subroutine18 & 0xFFFF
   \                     ??CrossCallReturnLabel_42:
   \   0000B7   500F         JNC     ??TransmitApp_HandleKeys_16
    649                  {
    650          #if defined ( LCD_SUPPORTED )
    651                     HalLcdWriteString( "Motor min Speed", HAL_LCD_LINE_4 );
   \   0000B9                ; Setup parameters for call to function HalLcdWriteString
   \   0000B9   7904         MOV     R1,#0x4
   \   0000BB   7A..         MOV     R2,#`?<Constant "Motor min Speed">` & 0xff
   \   0000BD   7B..         MOV     R3,#(`?<Constant "Motor min Speed">` >> 8) & 0xff
   \   0000BF   12....       LCALL   ??HalLcdWriteString?relay
    652          #endif 
    653                     MotorSpeed = -80;
   \   0000C2   90....       MOV     DPTR,#??MotorSpeed
   \   0000C5   74B0         MOV     A,#-0x50
   \   0000C7   F0           MOVX    @DPTR,A
    654                  }
    655                  Smart_home_Motor_cmd(MotorSpeed);
   \                     ??TransmitApp_HandleKeys_16:
   \   0000C8                ; Setup parameters for call to function Smart_home_Motor_cmd
   \   0000C8   E0           MOVX    A,@DPTR
   \   0000C9   F9           MOV     R1,A
   \   0000CA   12....       LCALL   ??Smart_home_Motor_cmd?relay
    656                  break; 
    657                }
    658              }
    659            }
    660            
    661            if ( keys & HAL_KEY_SW_2 )  //RIGHT  
   \                     ??TransmitApp_HandleKeys_8:
   \   0000CD   EE           MOV     A,R6
   \   0000CE   A2E1         MOV     C,0xE0 /* A   */.1
   \   0000D0   5012         JNC     ??TransmitApp_HandleKeys_17
    662            /*3.22 这里在调试时出现问题，具体问题为 点击up时会出现屏幕变为禁止组网
    663              控制方面变为控制电机，问题在于汇编中的key值会出现  keys & HAL_KEY_SW_2 = 2
    664              的情况，暂时禁止，需要等待研究  还有key_7*/
    665            {
    666               if(Ctrlcase < 3)   { Ctrlcase++;}
   \   0000D2   90....       MOV     DPTR,#Ctrlcase
   \   0000D5   12....       LCALL   ?Subroutine19 & 0xFFFF
   \                     ??CrossCallReturnLabel_43:
   \   0000D8   5003         JNC     ??TransmitApp_HandleKeys_18
   \   0000DA   E0           MOVX    A,@DPTR
   \   0000DB   04           INC     A
   \   0000DC   F0           MOVX    @DPTR,A
    667               if(Ctrlcase > 2)   { Ctrlcase=0;}
   \                     ??TransmitApp_HandleKeys_18:
   \   0000DD   12....       LCALL   ?Subroutine19 & 0xFFFF
   \                     ??CrossCallReturnLabel_44:
   \   0000E0   4002         JC      ??TransmitApp_HandleKeys_17
   \   0000E2   E4           CLR     A
   \   0000E3   F0           MOVX    @DPTR,A
    668               //Smart_home_Key_add(Ctrlcase);
    669            }
    670            
    671            if ( keys & HAL_KEY_SW_4 )  //LEFT
   \                     ??TransmitApp_HandleKeys_17:
   \   0000E4   EE           MOV     A,R6
   \   0000E5   A2E3         MOV     C,0xE0 /* A   */.3
   \   0000E7   5013         JNC     ??TransmitApp_HandleKeys_19
    672            {
    673               if(Ctrlcase > -1)   { Ctrlcase--;}
   \   0000E9   90....       MOV     DPTR,#Ctrlcase
   \   0000EC   12....       LCALL   ?Subroutine12 & 0xFFFF
   \                     ??CrossCallReturnLabel_24:
   \   0000EF   4003         JC      ??TransmitApp_HandleKeys_20
   \   0000F1   E0           MOVX    A,@DPTR
   \   0000F2   14           DEC     A
   \   0000F3   F0           MOVX    @DPTR,A
    674               if(Ctrlcase < 0)    { Ctrlcase=2;}
   \                     ??TransmitApp_HandleKeys_20:
   \   0000F4   12....       LCALL   ?Subroutine12 & 0xFFFF
   \                     ??CrossCallReturnLabel_25:
   \   0000F7   5003         JNC     ??TransmitApp_HandleKeys_19
   \   0000F9   7402         MOV     A,#0x2
   \   0000FB   F0           MOVX    @DPTR,A
    675               //Smart_home_Key_add(Ctrlcase);    
    676            }
    677            
    678            if ( keys & HAL_KEY_SW_5 )  //OK
    679            {
    680          
    681            }
    682            
    683            if ( keys & HAL_KEY_SW_7 )  //CENCEL
   \                     ??TransmitApp_HandleKeys_19:
   \   0000FC   EE           MOV     A,R6
   \   0000FD   A2E6         MOV     C,0xE0 /* A   */.6
   \   0000FF   5025         JNC     ??TransmitApp_HandleKeys_21
    684            {
    685               if(NetWorkAllow == 0)
   \   000101   90....       MOV     DPTR,#??NetWorkAllow
   \   000104   E0           MOVX    A,@DPTR
   \   000105   7010         JNZ     ??TransmitApp_HandleKeys_22
    686               {
    687                 NetWorkAllow = 1;
   \   000107   7401         MOV     A,#0x1
   \   000109   F0           MOVX    @DPTR,A
    688                 NLME_PermitJoiningRequest(0xFF); // 组网，允许随时加入
   \   00010A                ; Setup parameters for call to function NLME_PermitJoiningRequest
   \   00010A   79FF         MOV     R1,#-0x1
   \   00010C   12....       LCALL   ??NLME_PermitJoiningRequest?relay
    689                 //HalLedSet(HAL_LED_1, HAL_LED_MODE_ON);
    690                 //HalLedSet(HAL_LED_2, HAL_LED_MODE_ON);
    691          #if defined ( LCD_SUPPORTED )
    692                 HalLcdWriteString( "Allow networking", HAL_LCD_LINE_4 );
   \   00010F                ; Setup parameters for call to function HalLcdWriteString
   \   00010F   7904         MOV     R1,#0x4
   \   000111   7A..         MOV     R2,#`?<Constant "Allow networking">` & 0xff
   \   000113   7B..         MOV     R3,#(`?<Constant "Allow networking">` >> 8) & 0xff
   \   000115   800C         SJMP    ??TransmitApp_HandleKeys_23
    693          #endif
    694               }
    695               else
    696               {
    697                 NetWorkAllow = 0;
   \                     ??TransmitApp_HandleKeys_22:
   \   000117   E4           CLR     A
   \   000118   F0           MOVX    @DPTR,A
    698                 NLME_PermitJoiningRequest(0x00); // 不允许组网
   \   000119                ; Setup parameters for call to function NLME_PermitJoiningRequest
   \   000119   F9           MOV     R1,A
   \   00011A   12....       LCALL   ??NLME_PermitJoiningRequest?relay
    699                 //HalLedSet(HAL_LED_1, HAL_LED_MODE_OFF);  
    700                 //HalLedSet(HAL_LED_2, HAL_LED_MODE_OFF); 
    701          #if defined ( LCD_SUPPORTED )
    702                 HalLcdWriteString( "Ban   networking", HAL_LCD_LINE_4 );
   \   00011D                ; Setup parameters for call to function HalLcdWriteString
   \   00011D   7904         MOV     R1,#0x4
   \   00011F   7A..         MOV     R2,#`?<Constant "Ban   networking">` & 0xff
   \   000121   7B..         MOV     R3,#(`?<Constant "Ban   networking">` >> 8) & 0xff
   \                     ??TransmitApp_HandleKeys_23:
   \   000123   12....       LCALL   ??HalLcdWriteString?relay
    703          #endif        
    704               }
    705            }
    706          }
   \                     ??TransmitApp_HandleKeys_21:
   \   000126   02....       LJMP    ?Subroutine0 & 0xFFFF

   \                                 In  segment BANKED_CODE, align 1, keep-with-next
   \                     ?Subroutine19:
   \   000000   E0           MOVX    A,@DPTR
   \   000001   C3           CLR     C
   \   000002   9403         SUBB    A,#0x3
   \   000004   A2D2         MOV     C,0xD0 /* PSW */.2
   \   000006   65D0         XRL     A,PSW
   \   000008   33           RLC     A
   \   000009   22           RET

   \                                 In  segment BANKED_CODE, align 1, keep-with-next
   \                     ?Subroutine18:
   \   000000   E0           MOVX    A,@DPTR
   \   000001   C3           CLR     C
   \   000002   94CF         SUBB    A,#-0x31
   \   000004   A2D2         MOV     C,0xD0 /* PSW */.2
   \   000006   65D0         XRL     A,PSW
   \   000008   33           RLC     A
   \   000009   22           RET

   \                                 In  segment BANKED_CODE, align 1, keep-with-next
   \                     ?Subroutine17:
   \   000000   E0           MOVX    A,@DPTR
   \   000001   C3           CLR     C
   \   000002   9432         SUBB    A,#0x32
   \   000004   A2D2         MOV     C,0xD0 /* PSW */.2
   \   000006   65D0         XRL     A,PSW
   \   000008   33           RLC     A
   \   000009   22           RET

   \                                 In  segment BANKED_CODE, align 1, keep-with-next
   \                     ?Subroutine15:
   \   000000   E0           MOVX    A,@DPTR
   \   000001   C3           CLR     C
   \   000002   9404         SUBB    A,#0x4
   \   000004   A2D2         MOV     C,0xD0 /* PSW */.2
   \   000006   65D0         XRL     A,PSW
   \   000008   33           RLC     A
   \   000009   22           RET

   \                                 In  segment BANKED_CODE, align 1, keep-with-next
   \                     ?Subroutine12:
   \   000000   E0           MOVX    A,@DPTR
   \   000001   C3           CLR     C
   \   000002   9400         SUBB    A,#0x0
   \   000004   A2D2         MOV     C,0xD0 /* PSW */.2
   \   000006   65D0         XRL     A,PSW
   \   000008   33           RLC     A
   \   000009   22           RET

   \                                 In  segment XDATA_Z, align 1, keep-with-next
   \                     ??MotorSpeed:
   \   000000                DS 1
   \   000001                REQUIRE __INIT_XDATA_Z

   \                                 In  segment XDATA_Z, align 1, keep-with-next
   \                     ??NetWorkAllow:
   \   000000                DS 1
   \   000001                REQUIRE __INIT_XDATA_Z

   \                                 In  segment XDATA_Z, align 1, keep-with-next
   \                     ??Relay1_on:
   \   000000                DS 1
   \   000001                REQUIRE __INIT_XDATA_Z

   \                                 In  segment XDATA_Z, align 1, keep-with-next
   \                     ??Relay2_on:
   \   000000                DS 1
   \   000001                REQUIRE __INIT_XDATA_Z
    707          
    708          
    709          /*******************************************************************************
    710           * LOCAL FUNCTIONS
    711           */
    712          
    713          /*******************************************************************************
    714           * @fn      TransmitApp_MessageMSGCB
    715           *
    716           * @brief   Data message processor callback.  This function processes
    717           *          any incoming data - probably from other devices.  So, based
    718           *          on cluster ID, perform the intended action.
    719           *
    720           * @param   none
    721           *
    722           * @return  none
    723           */

   \                                 In  segment BANKED_CODE, align 1, keep-with-next
    724          void TransmitApp_MessageMSGCB( afIncomingMSGPacket_t *pkt )
   \                     TransmitApp_MessageMSGCB:
    725          {
   \   000000   74F6         MOV     A,#-0xa
   \   000002   12....       LCALL   ?BANKED_ENTER_XDATA
   \   000005                ; Saved register size: 10
   \   000005                ; Auto size: 0
    726          
    727            switch ( pkt->clusterId )
   \   000005   8A82         MOV     DPL,R2
   \   000007   8B83         MOV     DPH,R3
   \   000009   A3           INC     DPTR
   \   00000A   A3           INC     DPTR
   \   00000B   A3           INC     DPTR
   \   00000C   A3           INC     DPTR
   \   00000D   E0           MOVX    A,@DPTR
   \   00000E   F5..         MOV     ?V0 + 0,A
   \   000010   A3           INC     DPTR
   \   000011   E0           MOVX    A,@DPTR
   \   000012   F5..         MOV     ?V0 + 1,A
   \   000014   78..         MOV     R0,#?V0 + 0
   \   000016   12....       LCALL   ?US_SWITCH_DENSE
   \                     `?<Jumptable for TransmitApp_MessageMSGCB>_0`:
   \   000019   0100         DW        1
   \   00001B   07           DB        7
   \   00001C   ....         DW        ??TransmitApp_MessageMSGCB_0
   \   00001E   ....         DW        ??TransmitApp_MessageMSGCB_1
   \   000020   ....         DW        ??TransmitApp_MessageMSGCB_2
   \   000022   ....         DW        ??TransmitApp_MessageMSGCB_3
   \   000024   ....         DW        ??TransmitApp_MessageMSGCB_4
   \   000026   ....         DW        ??TransmitApp_MessageMSGCB_5
   \   000028   ....         DW        ??TransmitApp_MessageMSGCB_6
   \   00002A   ....         DW        ??TransmitApp_MessageMSGCB_7
   \   00002C   ....         DW        ??TransmitApp_MessageMSGCB_8
    728            {
    729              // 温湿度传感器信息
    730              case TRANSMITAPP_CLUSTERID_HUMITMSG:
    731                Humit.deviceNWKStatus = DEVICE_NWK_ONLINE;
   \                     ??TransmitApp_MessageMSGCB_1:
   \   00002E   90....       MOV     DPTR,#Humit
   \   000031   12....       LCALL   ?Subroutine2 & 0xFFFF
    732                Humit.data[0] = pkt->cmd.Data[4]; // 湿度 
   \                     ??CrossCallReturnLabel_0:
   \   000034   90....       MOV     DPTR,#Humit + 1
   \   000037   12....       LCALL   ?Subroutine6 & 0xFFFF
    733                Humit.data[1] = pkt->cmd.Data[5]; // 温度
   \                     ??CrossCallReturnLabel_12:
   \   00003A   90....       MOV     DPTR,#Humit + 2
   \   00003D   02....       LJMP    ??TransmitApp_MessageMSGCB_9 & 0xFFFF
    734                break;
    735              
    736              // 温度与光照度传感器信息  
    737              case TRANSMITAPP_CLUSTERID_TEMPLIGHTMSG:
    738                TempLight.deviceNWKStatus = DEVICE_NWK_ONLINE;
   \                     ??TransmitApp_MessageMSGCB_2:
   \   000040   90....       MOV     DPTR,#TempLight
   \   000043   12....       LCALL   ?Subroutine2 & 0xFFFF
    739                TempLight.data[0] = pkt->cmd.Data[4]; // 温度整数
   \                     ??CrossCallReturnLabel_1:
   \   000046   90....       MOV     DPTR,#TempLight + 1
   \   000049   12....       LCALL   ?Subroutine7 & 0xFFFF
    740                TempLight.data[1] = pkt->cmd.Data[5]; // 温度小数
   \                     ??CrossCallReturnLabel_14:
   \   00004C   90....       MOV     DPTR,#TempLight + 2
   \   00004F   12....       LCALL   ?Subroutine5 & 0xFFFF
    741                TempLight.data[2] = pkt->cmd.Data[6]; // 光照
   \                     ??CrossCallReturnLabel_10:
   \   000052   90....       MOV     DPTR,#TempLight + 3
   \   000055   12....       LCALL   ?Subroutine4 & 0xFFFF
    742                TempLight.data[3] = pkt->cmd.Data[7]; // 光照
   \                     ??CrossCallReturnLabel_8:
   \   000058   E0           MOVX    A,@DPTR
   \   000059   90....       MOV     DPTR,#TempLight + 4
   \   00005C   02....       LJMP    ??TransmitApp_MessageMSGCB_9 & 0xFFFF
    743                break;
    744              
    745              // RFID射频卡信息 
    746              case TRANSMITAPP_CLUSTERID_RFIDMSG:
    747                RfID.deviceNWKStatus = DEVICE_NWK_ONLINE;
   \                     ??TransmitApp_MessageMSGCB_3:
   \   00005F   90....       MOV     DPTR,#RfID
   \   000062   12....       LCALL   ?Subroutine2 & 0xFFFF
    748                RfID.data[0] = pkt->cmd.Data[4]; // 射频卡类型
   \                     ??CrossCallReturnLabel_2:
   \   000065   90....       MOV     DPTR,#RfID + 1
   \   000068   12....       LCALL   ?Subroutine7 & 0xFFFF
    749                RfID.data[1] = pkt->cmd.Data[5]; // 4个字节的ID号
   \                     ??CrossCallReturnLabel_15:
   \   00006B   90....       MOV     DPTR,#RfID + 2
   \   00006E   12....       LCALL   ?Subroutine5 & 0xFFFF
    750                RfID.data[2] = pkt->cmd.Data[6]; //
   \                     ??CrossCallReturnLabel_11:
   \   000071   90....       MOV     DPTR,#RfID + 3
   \   000074   12....       LCALL   ?Subroutine23 & 0xFFFF
    751                RfID.data[3] = pkt->cmd.Data[7]; //
   \                     ??CrossCallReturnLabel_52:
   \   000077   A3           INC     DPTR
   \   000078   E0           MOVX    A,@DPTR
   \   000079   90....       MOV     DPTR,#RfID + 4
   \   00007C   12....       LCALL   ?Subroutine4 & 0xFFFF
    752                RfID.data[4] = pkt->cmd.Data[8]; //           
   \                     ??CrossCallReturnLabel_9:
   \   00007F   A3           INC     DPTR
   \   000080   E0           MOVX    A,@DPTR
   \   000081   90....       MOV     DPTR,#RfID + 5
   \   000084   8063         SJMP    ??TransmitApp_MessageMSGCB_9
    753                break;
    754              
    755              // 烟雾与火焰报警信息  
    756              case TRANSMITAPP_CLUSTERID_GASFLAMEMSG:
    757                gasFlame.deviceNWKStatus = DEVICE_NWK_ONLINE;
   \                     ??TransmitApp_MessageMSGCB_4:
   \   000086   90....       MOV     DPTR,#gasFlame
   \   000089   12....       LCALL   ?Subroutine3 & 0xFFFF
    758                gasFlame.data[0] = pkt->cmd.Data[4]; // 烟雾与火焰报警信息
   \                     ??CrossCallReturnLabel_4:
   \   00008C   90....       MOV     DPTR,#gasFlame + 1
   \   00008F   8058         SJMP    ??TransmitApp_MessageMSGCB_9
    759                break;
    760              
    761              // 人体红外检测信息  
    762              case TRANSMITAPP_CLUSTERID_INFRAREDMSG:
    763                infrared.deviceNWKStatus = DEVICE_NWK_ONLINE;
   \                     ??TransmitApp_MessageMSGCB_5:
   \   000091   90....       MOV     DPTR,#infrared
   \   000094   12....       LCALL   ?Subroutine3 & 0xFFFF
    764                infrared.data[0] = pkt->cmd.Data[4]; // 人体红外 
   \                     ??CrossCallReturnLabel_5:
   \   000097   90....       MOV     DPTR,#infrared + 1
   \   00009A   804D         SJMP    ??TransmitApp_MessageMSGCB_9
    765                break;
    766              
    767              // 声音与振动传感器信息  
    768              case TRANSMITAPP_CLUSTERID_SOUNDVBMSG:
    769                soundVb.deviceNWKStatus = DEVICE_NWK_ONLINE;
   \                     ??TransmitApp_MessageMSGCB_6:
   \   00009C   90....       MOV     DPTR,#soundVb
   \   00009F   12....       LCALL   ?Subroutine3 & 0xFFFF
    770                soundVb.data[0] = pkt->cmd.Data[4]; // 声音震动信息
   \                     ??CrossCallReturnLabel_6:
   \   0000A2   90....       MOV     DPTR,#soundVb + 1
   \   0000A5   8042         SJMP    ??TransmitApp_MessageMSGCB_9
    771                break;
    772              
    773              // 电机状态信息  
    774              case TRANSMITAPP_CLUSTERID_MOTORSTATUSMSG:
    775                motor.deviceNWKStatus = DEVICE_NWK_ONLINE;
   \                     ??TransmitApp_MessageMSGCB_7:
   \   0000A7   90....       MOV     DPTR,#motor
   \   0000AA   7401         MOV     A,#0x1
   \   0000AC   F0           MOVX    @DPTR,A
    776                
    777                // 储存电机设备的网络地址，用于发送控制命令
    778                TransmitApp_DstMotorAddr.addrMode = (afAddrMode_t)Addr16Bit;
   \   0000AD   90....       MOV     DPTR,#TransmitApp_DstMotorAddr + 8
   \   0000B0   12....       LCALL   ?Subroutine8 & 0xFFFF
    779                TransmitApp_DstMotorAddr.addr.shortAddr = pkt->srcAddr.addr.shortAddr;
   \                     ??CrossCallReturnLabel_16:
   \   0000B3   90....       MOV     DPTR,#TransmitApp_DstMotorAddr
   \   0000B6   E8           MOV     A,R0
   \   0000B7   F0           MOVX    @DPTR,A
   \   0000B8   A3           INC     DPTR
   \   0000B9   E9           MOV     A,R1
   \   0000BA   F0           MOVX    @DPTR,A
    780                
    781                TransmitApp_DstMotorAddr.endPoint = 1;  // 目的节点的端口号
   \   0000BB   90....       MOV     DPTR,#TransmitApp_DstMotorAddr + 9
   \   0000BE   12....       LCALL   ?Subroutine2 & 0xFFFF
    782                //TransmitApp_DstMotorAddr.endPoint = TRANSMITAPP_ENDPOINT;
    783               
    784                motor.data[0] = pkt->cmd.Data[4]; // 电机转速
   \                     ??CrossCallReturnLabel_3:
   \   0000C1   90....       MOV     DPTR,#motor + 1
   \   0000C4   12....       LCALL   ?Subroutine6 & 0xFFFF
    785                motor.data[1] = pkt->cmd.Data[5]; // 电机状态
   \                     ??CrossCallReturnLabel_13:
   \   0000C7   90....       MOV     DPTR,#motor + 2
   \   0000CA   801D         SJMP    ??TransmitApp_MessageMSGCB_9
    786                break;
    787              
    788              // 继电器状态信息   
    789              case TRANSMITAPP_CLUSTERID_RELAYSTATUSMSG:
    790                relay.deviceNWKStatus = DEVICE_NWK_ONLINE;
   \                     ??TransmitApp_MessageMSGCB_8:
   \   0000CC   90....       MOV     DPTR,#relay
   \   0000CF   7401         MOV     A,#0x1
   \   0000D1   F0           MOVX    @DPTR,A
    791                
    792                // 储存继电器设备的网络地址，用于发送控制命令
    793                TransmitApp_DstRelayAddr.addrMode = (afAddrMode_t)Addr16Bit;
   \   0000D2   90....       MOV     DPTR,#TransmitApp_DstRelayAddr + 8
   \   0000D5   12....       LCALL   ?Subroutine8 & 0xFFFF
    794                TransmitApp_DstRelayAddr.addr.shortAddr = pkt->srcAddr.addr.shortAddr;
   \                     ??CrossCallReturnLabel_17:
   \   0000D8   90....       MOV     DPTR,#TransmitApp_DstRelayAddr
   \   0000DB   E8           MOV     A,R0
   \   0000DC   F0           MOVX    @DPTR,A
   \   0000DD   A3           INC     DPTR
   \   0000DE   E9           MOV     A,R1
   \   0000DF   F0           MOVX    @DPTR,A
    795                
    796                TransmitApp_DstRelayAddr.endPoint = 1; // 目的节点的端口号
   \   0000E0   90....       MOV     DPTR,#TransmitApp_DstRelayAddr + 9
   \   0000E3   12....       LCALL   ?Subroutine3 & 0xFFFF
    797                //TransmitApp_DstRelayAddr.endPoint = TRANSMITAPP_ENDPOINT;  
    798                
    799                relay.data[0] = pkt->cmd.Data[4]; 
   \                     ??CrossCallReturnLabel_7:
   \   0000E6   90....       MOV     DPTR,#relay + 1
   \                     ??TransmitApp_MessageMSGCB_9:
   \   0000E9   F0           MOVX    @DPTR,A
    800                break;
    801                
    802              // 同上面一样，可以在将来添加更多的控制信息
    803              default:
    804                break;
    805            }
    806          }
   \                     ??TransmitApp_MessageMSGCB_0:
   \   0000EA   02....       LJMP    ?Subroutine1 & 0xFFFF

   \                                 In  segment BANKED_CODE, align 1, keep-with-next
   \                     ?Subroutine8:
   \   000000   04           INC     A
   \   000001   F0           MOVX    @DPTR,A
   \   000002   8A82         MOV     DPL,R2
   \   000004   8B83         MOV     DPH,R3
   \   000006   A3           INC     DPTR
   \   000007   A3           INC     DPTR
   \   000008   A3           INC     DPTR
   \   000009   A3           INC     DPTR
   \   00000A   A3           INC     DPTR
   \   00000B   A3           INC     DPTR
   \   00000C   E0           MOVX    A,@DPTR
   \   00000D   F8           MOV     R0,A
   \   00000E   A3           INC     DPTR
   \   00000F   E0           MOVX    A,@DPTR
   \   000010   F9           MOV     R1,A
   \   000011   22           RET

   \                                 In  segment BANKED_CODE, align 1, keep-with-next
   \                     ?Subroutine7:
   \   000000   F0           MOVX    @DPTR,A
   \   000001   12....       LCALL   ?Subroutine25 & 0xFFFF
   \                     ??CrossCallReturnLabel_57:
   \   000004   A3           INC     DPTR
   \   000005   E0           MOVX    A,@DPTR
   \   000006   22           RET

   \                                 In  segment BANKED_CODE, align 1, keep-with-next
   \                     ?Subroutine6:
   \   000000   12....       LCALL   ?Subroutine24 & 0xFFFF
   \                     ??CrossCallReturnLabel_54:
   \   000003   E0           MOVX    A,@DPTR
   \   000004   22           RET

   \                                 In  segment BANKED_CODE, align 1, keep-with-next
   \                     ?Subroutine5:
   \   000000   12....       LCALL   ?Subroutine23 & 0xFFFF
   \                     ??CrossCallReturnLabel_53:
   \   000003   E0           MOVX    A,@DPTR
   \   000004   22           RET

   \                                 In  segment BANKED_CODE, align 1, keep-with-next
   \                     ?Subroutine23:
   \   000000   F0           MOVX    @DPTR,A
   \   000001   12....       LCALL   ?Subroutine27 & 0xFFFF
   \                     ??CrossCallReturnLabel_58:
   \   000004   A3           INC     DPTR
   \   000005   A3           INC     DPTR
   \   000006   22           RET

   \                                 In  segment BANKED_CODE, align 1, keep-with-next
   \                     ?Subroutine4:
   \   000000   12....       LCALL   ?Subroutine24 & 0xFFFF
   \                     ??CrossCallReturnLabel_55:
   \   000003   A3           INC     DPTR
   \   000004   A3           INC     DPTR
   \   000005   22           RET

   \                                 In  segment BANKED_CODE, align 1, keep-with-next
   \                     ?Subroutine24:
   \   000000   F0           MOVX    @DPTR,A
   \   000001   8882         MOV     DPL,R0
   \   000003   8983         MOV     DPH,R1
   \   000005   12....       LCALL   ?Subroutine28 & 0xFFFF
   \                     ??CrossCallReturnLabel_61:
   \   000008   A3           INC     DPTR
   \   000009   22           RET

   \                                 In  segment BANKED_CODE, align 1, keep-with-next
   \                     ?Subroutine3:
   \   000000   7401         MOV     A,#0x1
   \   000002   F0           MOVX    @DPTR,A
   \   000003   EA           MOV     A,R2
   \   000004   2422         ADD     A,#0x22
   \   000006   F582         MOV     DPL,A
   \   000008   EB           MOV     A,R3
   \   000009   3400         ADDC    A,#0x0
   \   00000B   F583         MOV     DPH,A
   \   00000D   12....       LCALL   ?Subroutine28 & 0xFFFF
   \                     ??CrossCallReturnLabel_60:
   \   000010   E0           MOVX    A,@DPTR
   \   000011   22           RET

   \                                 In  segment BANKED_CODE, align 1, keep-with-next
   \                     ?Subroutine28:
   \   000000   E0           MOVX    A,@DPTR
   \   000001   F8           MOV     R0,A
   \   000002   A3           INC     DPTR
   \   000003   E0           MOVX    A,@DPTR
   \   000004   F583         MOV     DPH,A
   \   000006   8882         MOV     DPL,R0
   \   000008   A3           INC     DPTR
   \   000009   A3           INC     DPTR
   \   00000A   A3           INC     DPTR
   \   00000B   A3           INC     DPTR
   \   00000C   22           RET

   \                                 In  segment BANKED_CODE, align 1, keep-with-next
   \                     ?Subroutine2:
   \   000000   7401         MOV     A,#0x1
   \   000002   F0           MOVX    @DPTR,A
   \   000003   EA           MOV     A,R2
   \   000004   2422         ADD     A,#0x22
   \   000006   F8           MOV     R0,A
   \   000007   EB           MOV     A,R3
   \   000008   3400         ADDC    A,#0x0
   \   00000A   F9           MOV     R1,A
   \   00000B   12....       LCALL   ?Subroutine25 & 0xFFFF
   \                     ??CrossCallReturnLabel_56:
   \   00000E   E0           MOVX    A,@DPTR
   \   00000F   22           RET

   \                                 In  segment BANKED_CODE, align 1, keep-with-next
   \                     ?Subroutine25:
   \   000000   12....       LCALL   ?Subroutine27 & 0xFFFF
   \                     ??CrossCallReturnLabel_59:
   \   000003   22           RET

   \                                 In  segment BANKED_CODE, align 1, keep-with-next
   \                     ?Subroutine27:
   \   000000   8882         MOV     DPL,R0
   \   000002   8983         MOV     DPH,R1
   \   000004   E0           MOVX    A,@DPTR
   \   000005   FA           MOV     R2,A
   \   000006   A3           INC     DPTR
   \   000007   E0           MOVX    A,@DPTR
   \   000008   F583         MOV     DPH,A
   \   00000A   8A82         MOV     DPL,R2
   \   00000C   A3           INC     DPTR
   \   00000D   A3           INC     DPTR
   \   00000E   A3           INC     DPTR
   \   00000F   A3           INC     DPTR
   \   000010   22           RET

   \                                 In  segment BANKED_CODE, align 1, keep-with-next
   \                     ?Subroutine1:
   \   000000   7F02         MOV     R7,#0x2
   \   000002   02....       LJMP    ?BANKED_LEAVE_XDATA
    807          
    808          /*******************************************************************************
    809           * @fn      TransmitApp_DeviceNWKCheck
    810           *
    811           * @brief   check the device NWK status: online or offline.
    812           *          由宏定义TRANSMITAPP_DEVICE_CHECK_TIMER确定周期是2秒
    813           *
    814           * @param   none
    815           *
    816           * @return  none
    817           */

   \                                 In  segment BANKED_CODE, align 1, keep-with-next
    818          void TransmitApp_DeviceNWKCheck(void)
   \                     TransmitApp_DeviceNWKCheck:
    819          {
   \   000000   C082         PUSH    DPL
   \   000002   C083         PUSH    DPH
   \   000004                ; Saved register size: 2
   \   000004                ; Auto size: 0
    820            // 设备离线计数器，超过临界值判定设备离线
    821            static uint8 humitCnt, tempLightCnt, rfIDCnt, gasFlameCnt, infraredCnt;
    822            static uint8 motorCnt, relayStatusCnt, soundVbCnt;
    823            
    824            // 温湿度传感器
    825            if (Humit.deviceNWKStatus != DEVICE_NWK_ONLINE) // 设备离线，计数+1
   \   000004   90....       MOV     DPTR,#Humit
   \   000007   E0           MOVX    A,@DPTR
   \   000008   6401         XRL     A,#0x1
   \   00000A   600E         JZ      ??TransmitApp_DeviceNWKCheck_0
    826            {
    827              humitCnt++;
   \   00000C   90....       MOV     DPTR,#??humitCnt
   \   00000F   E0           MOVX    A,@DPTR
   \   000010   04           INC     A
   \   000011   F0           MOVX    @DPTR,A
    828            }
    829            if (Humit.deviceNWKStatus == DEVICE_NWK_ONLINE) // 设备在线，计数清零
   \   000012   90....       MOV     DPTR,#Humit
   \   000015   E0           MOVX    A,@DPTR
   \   000016   6401         XRL     A,#0x1
   \   000018   700A         JNZ     ??TransmitApp_DeviceNWKCheck_1
    830            {
    831              humitCnt = 0;
   \                     ??TransmitApp_DeviceNWKCheck_0:
   \   00001A   90....       MOV     DPTR,#??humitCnt
   \   00001D   E4           CLR     A
   \   00001E   F0           MOVX    @DPTR,A
    832              Humit.deviceNWKStatus = 0;
   \   00001F   90....       MOV     DPTR,#Humit
   \   000022   800F         SJMP    ??TransmitApp_DeviceNWKCheck_2
    833            }
    834            if (humitCnt > DEVICE_NWK_CNT_LIMIT)            // 超时, 判为离线
   \                     ??TransmitApp_DeviceNWKCheck_1:
   \   000024   90....       MOV     DPTR,#??humitCnt
   \   000027   12....       LCALL   ?Subroutine16 & 0xFFFF
   \                     ??CrossCallReturnLabel_31:
   \   00002A   4008         JC      ??TransmitApp_DeviceNWKCheck_3
    835            {
    836              humitCnt = DEVICE_NWK_CNT_LIMIT;
   \   00002C   7403         MOV     A,#0x3
   \   00002E   F0           MOVX    @DPTR,A
    837              Humit.deviceNWKStatus = DEVICE_NWK_OFFLINE;
   \   00002F   90....       MOV     DPTR,#Humit
   \   000032   14           DEC     A
   \                     ??TransmitApp_DeviceNWKCheck_2:
   \   000033   F0           MOVX    @DPTR,A
    838            }
    839            
    840            // 温度与光照度传感器
    841            if (TempLight.deviceNWKStatus != DEVICE_NWK_ONLINE) // 设备离线，计数+1
   \                     ??TransmitApp_DeviceNWKCheck_3:
   \   000034   90....       MOV     DPTR,#TempLight
   \   000037   E0           MOVX    A,@DPTR
   \   000038   6401         XRL     A,#0x1
   \   00003A   600E         JZ      ??TransmitApp_DeviceNWKCheck_4
    842            {
    843              tempLightCnt++;
   \   00003C   90....       MOV     DPTR,#??tempLightCnt
   \   00003F   E0           MOVX    A,@DPTR
   \   000040   04           INC     A
   \   000041   F0           MOVX    @DPTR,A
    844            }
    845            if (TempLight.deviceNWKStatus == DEVICE_NWK_ONLINE) // 设备在线，计数清零
   \   000042   90....       MOV     DPTR,#TempLight
   \   000045   E0           MOVX    A,@DPTR
   \   000046   6401         XRL     A,#0x1
   \   000048   700A         JNZ     ??TransmitApp_DeviceNWKCheck_5
    846            {
    847              tempLightCnt = 0;
   \                     ??TransmitApp_DeviceNWKCheck_4:
   \   00004A   90....       MOV     DPTR,#??tempLightCnt
   \   00004D   E4           CLR     A
   \   00004E   F0           MOVX    @DPTR,A
    848              TempLight.deviceNWKStatus = 0;
   \   00004F   90....       MOV     DPTR,#TempLight
   \   000052   800F         SJMP    ??TransmitApp_DeviceNWKCheck_6
    849            }
    850            if (tempLightCnt > DEVICE_NWK_CNT_LIMIT)            // 超时, 判为离线
   \                     ??TransmitApp_DeviceNWKCheck_5:
   \   000054   90....       MOV     DPTR,#??tempLightCnt
   \   000057   12....       LCALL   ?Subroutine16 & 0xFFFF
   \                     ??CrossCallReturnLabel_32:
   \   00005A   4008         JC      ??TransmitApp_DeviceNWKCheck_7
    851            {
    852              tempLightCnt = DEVICE_NWK_CNT_LIMIT;
   \   00005C   7403         MOV     A,#0x3
   \   00005E   F0           MOVX    @DPTR,A
    853              TempLight.deviceNWKStatus = DEVICE_NWK_OFFLINE;
   \   00005F   90....       MOV     DPTR,#TempLight
   \   000062   14           DEC     A
   \                     ??TransmitApp_DeviceNWKCheck_6:
   \   000063   F0           MOVX    @DPTR,A
    854            }
    855            
    856            // RFID读卡器
    857            if (RfID.deviceNWKStatus != DEVICE_NWK_ONLINE) // 设备离线，计数+1
   \                     ??TransmitApp_DeviceNWKCheck_7:
   \   000064   90....       MOV     DPTR,#RfID
   \   000067   E0           MOVX    A,@DPTR
   \   000068   6401         XRL     A,#0x1
   \   00006A   600E         JZ      ??TransmitApp_DeviceNWKCheck_8
    858            {
    859                rfIDCnt++;
   \   00006C   90....       MOV     DPTR,#??rfIDCnt
   \   00006F   E0           MOVX    A,@DPTR
   \   000070   04           INC     A
   \   000071   F0           MOVX    @DPTR,A
    860            }
    861            if (RfID.deviceNWKStatus == DEVICE_NWK_ONLINE) // 设备在线，计数清零
   \   000072   90....       MOV     DPTR,#RfID
   \   000075   E0           MOVX    A,@DPTR
   \   000076   6401         XRL     A,#0x1
   \   000078   700A         JNZ     ??TransmitApp_DeviceNWKCheck_9
    862            {
    863                rfIDCnt = 0;
   \                     ??TransmitApp_DeviceNWKCheck_8:
   \   00007A   90....       MOV     DPTR,#??rfIDCnt
   \   00007D   E4           CLR     A
   \   00007E   F0           MOVX    @DPTR,A
    864                RfID.deviceNWKStatus = 0;
   \   00007F   90....       MOV     DPTR,#RfID
   \   000082   800F         SJMP    ??TransmitApp_DeviceNWKCheck_10
    865            }
    866            if (rfIDCnt > DEVICE_NWK_CNT_LIMIT)            // 超时, 判为离线
   \                     ??TransmitApp_DeviceNWKCheck_9:
   \   000084   90....       MOV     DPTR,#??rfIDCnt
   \   000087   12....       LCALL   ?Subroutine16 & 0xFFFF
   \                     ??CrossCallReturnLabel_33:
   \   00008A   4008         JC      ??TransmitApp_DeviceNWKCheck_11
    867            {
    868                rfIDCnt = DEVICE_NWK_CNT_LIMIT;
   \   00008C   7403         MOV     A,#0x3
   \   00008E   F0           MOVX    @DPTR,A
    869                RfID.deviceNWKStatus = DEVICE_NWK_OFFLINE;
   \   00008F   90....       MOV     DPTR,#RfID
   \   000092   14           DEC     A
   \                     ??TransmitApp_DeviceNWKCheck_10:
   \   000093   F0           MOVX    @DPTR,A
    870            }
    871              
    872            // 烟雾与火焰传感器  
    873            if (gasFlame.deviceNWKStatus != DEVICE_NWK_ONLINE) // 设备离线，计数+1
   \                     ??TransmitApp_DeviceNWKCheck_11:
   \   000094   90....       MOV     DPTR,#gasFlame
   \   000097   E0           MOVX    A,@DPTR
   \   000098   6401         XRL     A,#0x1
   \   00009A   600E         JZ      ??TransmitApp_DeviceNWKCheck_12
    874            {
    875              gasFlameCnt++;
   \   00009C   90....       MOV     DPTR,#??gasFlameCnt
   \   00009F   E0           MOVX    A,@DPTR
   \   0000A0   04           INC     A
   \   0000A1   F0           MOVX    @DPTR,A
    876            }
    877            if (gasFlame.deviceNWKStatus == DEVICE_NWK_ONLINE) // 设备在线，计数清零
   \   0000A2   90....       MOV     DPTR,#gasFlame
   \   0000A5   E0           MOVX    A,@DPTR
   \   0000A6   6401         XRL     A,#0x1
   \   0000A8   700A         JNZ     ??TransmitApp_DeviceNWKCheck_13
    878            {
    879              gasFlameCnt = 0;
   \                     ??TransmitApp_DeviceNWKCheck_12:
   \   0000AA   90....       MOV     DPTR,#??gasFlameCnt
   \   0000AD   E4           CLR     A
   \   0000AE   F0           MOVX    @DPTR,A
    880              gasFlame.deviceNWKStatus = 0;
   \   0000AF   90....       MOV     DPTR,#gasFlame
   \   0000B2   800F         SJMP    ??TransmitApp_DeviceNWKCheck_14
    881            }
    882            if (gasFlameCnt > DEVICE_NWK_CNT_LIMIT)            // 超时, 判为离线
   \                     ??TransmitApp_DeviceNWKCheck_13:
   \   0000B4   90....       MOV     DPTR,#??gasFlameCnt
   \   0000B7   12....       LCALL   ?Subroutine16 & 0xFFFF
   \                     ??CrossCallReturnLabel_34:
   \   0000BA   4008         JC      ??TransmitApp_DeviceNWKCheck_15
    883            {
    884              gasFlameCnt = DEVICE_NWK_CNT_LIMIT;
   \   0000BC   7403         MOV     A,#0x3
   \   0000BE   F0           MOVX    @DPTR,A
    885              gasFlame.deviceNWKStatus = DEVICE_NWK_OFFLINE;
   \   0000BF   90....       MOV     DPTR,#gasFlame
   \   0000C2   14           DEC     A
   \                     ??TransmitApp_DeviceNWKCheck_14:
   \   0000C3   F0           MOVX    @DPTR,A
    886            }
    887            
    888            // 人体红外检测传感器
    889            if (infrared.deviceNWKStatus != DEVICE_NWK_ONLINE)  // 设备离线，计数+1
   \                     ??TransmitApp_DeviceNWKCheck_15:
   \   0000C4   90....       MOV     DPTR,#infrared
   \   0000C7   E0           MOVX    A,@DPTR
   \   0000C8   6401         XRL     A,#0x1
   \   0000CA   600E         JZ      ??TransmitApp_DeviceNWKCheck_16
    890            {
    891              infraredCnt++;
   \   0000CC   90....       MOV     DPTR,#??infraredCnt
   \   0000CF   E0           MOVX    A,@DPTR
   \   0000D0   04           INC     A
   \   0000D1   F0           MOVX    @DPTR,A
    892            }
    893            if (infrared.deviceNWKStatus == DEVICE_NWK_ONLINE)  // 设备在线，计数清零
   \   0000D2   90....       MOV     DPTR,#infrared
   \   0000D5   E0           MOVX    A,@DPTR
   \   0000D6   6401         XRL     A,#0x1
   \   0000D8   700A         JNZ     ??TransmitApp_DeviceNWKCheck_17
    894            {
    895              infraredCnt = 0;
   \                     ??TransmitApp_DeviceNWKCheck_16:
   \   0000DA   90....       MOV     DPTR,#??infraredCnt
   \   0000DD   E4           CLR     A
   \   0000DE   F0           MOVX    @DPTR,A
    896              infrared.deviceNWKStatus = 0;
   \   0000DF   90....       MOV     DPTR,#infrared
   \   0000E2   800F         SJMP    ??TransmitApp_DeviceNWKCheck_18
    897            }
    898            if (infraredCnt > DEVICE_NWK_CNT_LIMIT)             // 超时, 判为离线
   \                     ??TransmitApp_DeviceNWKCheck_17:
   \   0000E4   90....       MOV     DPTR,#??infraredCnt
   \   0000E7   12....       LCALL   ?Subroutine16 & 0xFFFF
   \                     ??CrossCallReturnLabel_35:
   \   0000EA   4008         JC      ??TransmitApp_DeviceNWKCheck_19
    899            {
    900              infraredCnt = DEVICE_NWK_CNT_LIMIT;
   \   0000EC   7403         MOV     A,#0x3
   \   0000EE   F0           MOVX    @DPTR,A
    901              infrared.deviceNWKStatus = DEVICE_NWK_OFFLINE;
   \   0000EF   90....       MOV     DPTR,#infrared
   \   0000F2   14           DEC     A
   \                     ??TransmitApp_DeviceNWKCheck_18:
   \   0000F3   F0           MOVX    @DPTR,A
    902            }
    903              
    904            // 声音振动传感器  
    905            if (soundVb.deviceNWKStatus != DEVICE_NWK_ONLINE) // 设备离线，计数+1
   \                     ??TransmitApp_DeviceNWKCheck_19:
   \   0000F4   90....       MOV     DPTR,#soundVb
   \   0000F7   E0           MOVX    A,@DPTR
   \   0000F8   6401         XRL     A,#0x1
   \   0000FA   600E         JZ      ??TransmitApp_DeviceNWKCheck_20
    906            {
    907              soundVbCnt++;
   \   0000FC   90....       MOV     DPTR,#??soundVbCnt
   \   0000FF   E0           MOVX    A,@DPTR
   \   000100   04           INC     A
   \   000101   F0           MOVX    @DPTR,A
    908            }
    909            if (soundVb.deviceNWKStatus == DEVICE_NWK_ONLINE) // 设备在线，计数清零
   \   000102   90....       MOV     DPTR,#soundVb
   \   000105   E0           MOVX    A,@DPTR
   \   000106   6401         XRL     A,#0x1
   \   000108   700B         JNZ     ??TransmitApp_DeviceNWKCheck_21
    910            {
    911              soundVbCnt++;
   \                     ??TransmitApp_DeviceNWKCheck_20:
   \   00010A   90....       MOV     DPTR,#??soundVbCnt
   \   00010D   E0           MOVX    A,@DPTR
   \   00010E   04           INC     A
   \   00010F   F0           MOVX    @DPTR,A
    912              soundVb.deviceNWKStatus = 0;
   \   000110   90....       MOV     DPTR,#soundVb
   \   000113   E4           CLR     A
   \   000114   F0           MOVX    @DPTR,A
    913            }
    914            if (soundVbCnt > DEVICE_NWK_CNT_LIMIT)            // 超时, 判为离线
   \                     ??TransmitApp_DeviceNWKCheck_21:
   \   000115   90....       MOV     DPTR,#??soundVbCnt
   \   000118   12....       LCALL   ?Subroutine16 & 0xFFFF
   \                     ??CrossCallReturnLabel_36:
   \   00011B   4008         JC      ??TransmitApp_DeviceNWKCheck_22
    915            {
    916              soundVbCnt = DEVICE_NWK_CNT_LIMIT;
   \   00011D   7403         MOV     A,#0x3
   \   00011F   F0           MOVX    @DPTR,A
    917              soundVb.deviceNWKStatus = DEVICE_NWK_OFFLINE;
   \   000120   90....       MOV     DPTR,#soundVb
   \   000123   14           DEC     A
   \   000124   F0           MOVX    @DPTR,A
    918            }
    919              
    920            // 微型直流电机RF-310T/QJT310AH 
    921            if (motor.deviceNWKStatus != DEVICE_NWK_ONLINE) // 设备离线，计数+1
   \                     ??TransmitApp_DeviceNWKCheck_22:
   \   000125   90....       MOV     DPTR,#motor
   \   000128   E0           MOVX    A,@DPTR
   \   000129   6401         XRL     A,#0x1
   \   00012B   600E         JZ      ??TransmitApp_DeviceNWKCheck_23
    922            {
    923              motorCnt++;
   \   00012D   90....       MOV     DPTR,#??motorCnt
   \   000130   E0           MOVX    A,@DPTR
   \   000131   04           INC     A
   \   000132   F0           MOVX    @DPTR,A
    924            }
    925            if (motor.deviceNWKStatus == DEVICE_NWK_ONLINE) // 设备在线，计数清零
   \   000133   90....       MOV     DPTR,#motor
   \   000136   E0           MOVX    A,@DPTR
   \   000137   6401         XRL     A,#0x1
   \   000139   700A         JNZ     ??TransmitApp_DeviceNWKCheck_24
    926            {
    927              motorCnt = 0;
   \                     ??TransmitApp_DeviceNWKCheck_23:
   \   00013B   90....       MOV     DPTR,#??motorCnt
   \   00013E   E4           CLR     A
   \   00013F   F0           MOVX    @DPTR,A
    928              motor.deviceNWKStatus = 0;
   \   000140   90....       MOV     DPTR,#motor
   \   000143   800F         SJMP    ??TransmitApp_DeviceNWKCheck_25
    929            }
    930            if (motorCnt > DEVICE_NWK_CNT_LIMIT)            // 超时, 判为离线
   \                     ??TransmitApp_DeviceNWKCheck_24:
   \   000145   90....       MOV     DPTR,#??motorCnt
   \   000148   12....       LCALL   ?Subroutine16 & 0xFFFF
   \                     ??CrossCallReturnLabel_37:
   \   00014B   4008         JC      ??TransmitApp_DeviceNWKCheck_26
    931            {
    932              motorCnt = DEVICE_NWK_CNT_LIMIT;
   \   00014D   7403         MOV     A,#0x3
   \   00014F   F0           MOVX    @DPTR,A
    933              motor.deviceNWKStatus = DEVICE_NWK_OFFLINE;
   \   000150   90....       MOV     DPTR,#motor
   \   000153   14           DEC     A
   \                     ??TransmitApp_DeviceNWKCheck_25:
   \   000154   F0           MOVX    @DPTR,A
    934            }
    935              
    936            // 继电器  
    937            if (relay.deviceNWKStatus != DEVICE_NWK_ONLINE) // 设备离线，计数+1
   \                     ??TransmitApp_DeviceNWKCheck_26:
   \   000155   90....       MOV     DPTR,#relay
   \   000158   E0           MOVX    A,@DPTR
   \   000159   6401         XRL     A,#0x1
   \   00015B   600E         JZ      ??TransmitApp_DeviceNWKCheck_27
    938            {
    939              relayStatusCnt++;
   \   00015D   90....       MOV     DPTR,#??relayStatusCnt
   \   000160   E0           MOVX    A,@DPTR
   \   000161   04           INC     A
   \   000162   F0           MOVX    @DPTR,A
    940            }
    941            if (relay.deviceNWKStatus == DEVICE_NWK_ONLINE) // 设备在线，计数清零
   \   000163   90....       MOV     DPTR,#relay
   \   000166   E0           MOVX    A,@DPTR
   \   000167   6401         XRL     A,#0x1
   \   000169   700A         JNZ     ??TransmitApp_DeviceNWKCheck_28
    942            {
    943              relayStatusCnt = 0;
   \                     ??TransmitApp_DeviceNWKCheck_27:
   \   00016B   90....       MOV     DPTR,#??relayStatusCnt
   \   00016E   E4           CLR     A
   \   00016F   F0           MOVX    @DPTR,A
    944              relay.deviceNWKStatus = 0;
   \   000170   90....       MOV     DPTR,#relay
   \   000173   800F         SJMP    ??TransmitApp_DeviceNWKCheck_29
    945            }
    946            if (relayStatusCnt > DEVICE_NWK_CNT_LIMIT)      // 超时, 判为离线
   \                     ??TransmitApp_DeviceNWKCheck_28:
   \   000175   90....       MOV     DPTR,#??relayStatusCnt
   \   000178   12....       LCALL   ?Subroutine16 & 0xFFFF
   \                     ??CrossCallReturnLabel_38:
   \   00017B   4008         JC      ??TransmitApp_DeviceNWKCheck_30
    947            {
    948              relayStatusCnt = DEVICE_NWK_CNT_LIMIT;
   \   00017D   7403         MOV     A,#0x3
   \   00017F   F0           MOVX    @DPTR,A
    949              relay.deviceNWKStatus = DEVICE_NWK_OFFLINE;
   \   000180   90....       MOV     DPTR,#relay
   \   000183   14           DEC     A
   \                     ??TransmitApp_DeviceNWKCheck_29:
   \   000184   F0           MOVX    @DPTR,A
    950            }  
    951          }
   \                     ??TransmitApp_DeviceNWKCheck_30:
   \   000185   D083         POP     DPH
   \   000187   D082         POP     DPL
   \   000189   02....       LJMP    ?BRET

   \                                 In  segment BANKED_CODE, align 1, keep-with-next
   \                     ?Subroutine16:
   \   000000   E0           MOVX    A,@DPTR
   \   000001   C3           CLR     C
   \   000002   9404         SUBB    A,#0x4
   \   000004   22           RET

   \                                 In  segment XDATA_Z, align 1, keep-with-next
   \                     ??humitCnt:
   \   000000                DS 1
   \   000001                REQUIRE __INIT_XDATA_Z

   \                                 In  segment XDATA_Z, align 1, keep-with-next
   \                     ??tempLightCnt:
   \   000000                DS 1
   \   000001                REQUIRE __INIT_XDATA_Z

   \                                 In  segment XDATA_Z, align 1, keep-with-next
   \                     ??rfIDCnt:
   \   000000                DS 1
   \   000001                REQUIRE __INIT_XDATA_Z

   \                                 In  segment XDATA_Z, align 1, keep-with-next
   \                     ??gasFlameCnt:
   \   000000                DS 1
   \   000001                REQUIRE __INIT_XDATA_Z

   \                                 In  segment XDATA_Z, align 1, keep-with-next
   \                     ??infraredCnt:
   \   000000                DS 1
   \   000001                REQUIRE __INIT_XDATA_Z

   \                                 In  segment XDATA_Z, align 1, keep-with-next
   \                     ??motorCnt:
   \   000000                DS 1
   \   000001                REQUIRE __INIT_XDATA_Z

   \                                 In  segment XDATA_Z, align 1, keep-with-next
   \                     ??relayStatusCnt:
   \   000000                DS 1
   \   000001                REQUIRE __INIT_XDATA_Z

   \                                 In  segment XDATA_Z, align 1, keep-with-next
   \                     ??soundVbCnt:
   \   000000                DS 1
   \   000001                REQUIRE __INIT_XDATA_Z
    952          
    953          /*******************************************************************************
    954           * @fn      TransmitApp_SendToRelayMSG
    955           *
    956           * @brief   Send control message to relay, if relay is in the network.
    957           *
    958           * @param   uint8 cmd: Relay control command
    959           *
    960           * @return  none
    961           */

   \                                 In  segment BANKED_CODE, align 1, keep-with-next
    962          void TransmitApp_SendToRelayMSG( uint8 cmd )
   \                     TransmitApp_SendToRelayMSG:
    963          {
   \   000000   74F6         MOV     A,#-0xa
   \   000002   12....       LCALL   ?BANKED_ENTER_XDATA
   \   000005                ; Saved register size: 10
   \   000005                ; Auto size: 0
   \   000005   E9           MOV     A,R1
   \   000006   FE           MOV     R6,A
    964            uint8 tmp;
    965            
    966            // 只有设备在线时, 方发送控制命令
    967            if (relay.deviceNWKStatus != DEVICE_NWK_OFFLINE)
   \   000007   90....       MOV     DPTR,#relay
   \   00000A   E0           MOVX    A,@DPTR
   \   00000B   6402         XRL     A,#0x2
   \   00000D   6068         JZ      ??TransmitApp_SendToRelayMSG_0
    968            {
    969              // put the sequence number in the message
    970              tmp = HI_UINT8( TransmitApp_RelayTransID );
   \   00000F   90....       MOV     DPTR,#TransmitApp_RelayTransID
   \   000012   12....       LCALL   ?Subroutine20 & 0xFFFF
    971              tmp += (tmp <= 9) ? ('0') : ('A' - 0x0A);
   \                     ??CrossCallReturnLabel_45:
   \   000015   5004         JNC     ??TransmitApp_SendToRelayMSG_1
   \   000017   7830         MOV     R0,#0x30
   \   000019   8002         SJMP    ??TransmitApp_SendToRelayMSG_2
   \                     ??TransmitApp_SendToRelayMSG_1:
   \   00001B   7837         MOV     R0,#0x37
    972              TransmitApp_Msg[2] = tmp;
   \                     ??TransmitApp_SendToRelayMSG_2:
   \   00001D   E8           MOV     A,R0
   \   00001E   2A           ADD     A,R2
   \   00001F   90....       MOV     DPTR,#TransmitApp_Msg + 2
   \   000022   F0           MOVX    @DPTR,A
    973              tmp = LO_UINT8( TransmitApp_RelayTransID );
   \   000023   90....       MOV     DPTR,#TransmitApp_RelayTransID
   \   000026   12....       LCALL   ?Subroutine26 & 0xFFFF
    974              tmp += (tmp <= 9) ? ('0') : ('A' - 0x0A);
   \                     ??CrossCallReturnLabel_66:
   \   000029   5004         JNC     ??TransmitApp_SendToRelayMSG_3
   \   00002B   7830         MOV     R0,#0x30
   \   00002D   8002         SJMP    ??TransmitApp_SendToRelayMSG_4
   \                     ??TransmitApp_SendToRelayMSG_3:
   \   00002F   7837         MOV     R0,#0x37
    975              TransmitApp_Msg[3] = tmp;
   \                     ??TransmitApp_SendToRelayMSG_4:
   \   000031   E8           MOV     A,R0
   \   000032   2A           ADD     A,R2
   \   000033   90....       MOV     DPTR,#TransmitApp_Msg + 3
   \   000036   12....       LCALL   ?Subroutine10 & 0xFFFF
    976              
    977              // 发送给继电器的控制命令 
    978              TransmitApp_Msg[4] = cmd;
    979              
    980              // TransmitApp_epDesc.endPoint = TRANSMITAPP_CLUSTERID_RELAYCTLMSG; // 20201225
    981              tmp = AF_DataRequest( &TransmitApp_DstRelayAddr,           \
    982                                    &TransmitApp_epDesc,                 \
    983                                     TRANSMITAPP_CLUSTERID_RELAYCTLMSG,  \
    984                                     TRANSMITAPP_RELAY_DATA_LEN,         \
    985                                     TransmitApp_Msg,                    \
    986                                    &TransmitApp_RelayTransID,           \
    987                                     TRANSMITAPP_TX_OPTIONS,             \
    988                                     AF_DEFAULT_RADIUS );
    989            }
   \                     ??CrossCallReturnLabel_20:
   \   000039   12....       LCALL   ?PUSH_XSTACK_I_ONE
   \   00003C   75....       MOV     ?V0 + 0,#TransmitApp_RelayTransID & 0xff
   \   00003F   75....       MOV     ?V0 + 1,#(TransmitApp_RelayTransID >> 8) & 0xff
   \   000042   78..         MOV     R0,#?V0 + 0
   \   000044   12....       LCALL   ?PUSH_XSTACK_I_TWO
   \   000047   75....       MOV     ?V0 + 0,#TransmitApp_Msg & 0xff
   \   00004A   75....       MOV     ?V0 + 1,#(TransmitApp_Msg >> 8) & 0xff
   \   00004D   78..         MOV     R0,#?V0 + 0
   \   00004F   12....       LCALL   ?PUSH_XSTACK_I_TWO
   \   000052   75..05       MOV     ?V0 + 0,#0x5
   \   000055   75..00       MOV     ?V0 + 1,#0x0
   \   000058   78..         MOV     R0,#?V0 + 0
   \   00005A   12....       LCALL   ?PUSH_XSTACK_I_TWO
   \   00005D   75..0A       MOV     ?V0 + 0,#0xa
   \   000060   78..         MOV     R0,#?V0 + 0
   \   000062   12....       LCALL   ?PUSH_XSTACK_I_TWO
   \   000065   7920         MOV     R1,#0x20
   \   000067   7C..         MOV     R4,#TransmitApp_epDesc & 0xff
   \   000069   7D..         MOV     R5,#(TransmitApp_epDesc >> 8) & 0xff
   \   00006B   7A..         MOV     R2,#TransmitApp_DstRelayAddr & 0xff
   \   00006D   7B..         MOV     R3,#(TransmitApp_DstRelayAddr >> 8) & 0xff
   \   00006F   12....       LCALL   ??AF_DataRequest?relay
   \   000072   7409         MOV     A,#0x9
   \   000074   12....       LCALL   ?DEALLOC_XSTACK8
    990          }
   \                     ??TransmitApp_SendToRelayMSG_0:
   \   000077   02....       LJMP    ?Subroutine1 & 0xFFFF

   \                                 In  segment BANKED_CODE, align 1, keep-with-next
   \                     ?Subroutine26:
   \   000000   E0           MOVX    A,@DPTR
   \   000001                REQUIRE ??Subroutine30_0
   \   000001                ; // Fall through to label ??Subroutine30_0

   \                                 In  segment BANKED_CODE, align 1, keep-with-next
   \                     ??Subroutine30_0:
   \   000000   540F         ANL     A,#0xf
   \   000002   FA           MOV     R2,A
   \   000003   C3           CLR     C
   \   000004   940A         SUBB    A,#0xa
   \   000006   22           RET

   \                                 In  segment BANKED_CODE, align 1, keep-with-next
   \                     ?Subroutine20:
   \   000000   E0           MOVX    A,@DPTR
   \   000001   C4           SWAP    A
   \   000002   12....       LCALL   ??Subroutine30_0 & 0xFFFF
   \                     ??CrossCallReturnLabel_68:
   \   000005   22           RET

   \                                 In  segment BANKED_CODE, align 1, keep-with-next
   \                     ?Subroutine10:
   \   000000   F0           MOVX    @DPTR,A
   \   000001   EE           MOV     A,R6
   \   000002   A3           INC     DPTR
   \   000003   F0           MOVX    @DPTR,A
   \   000004                ; Setup parameters for call to function AF_DataRequest
   \   000004                ; Setup parameters for call to function AF_DataRequest
   \   000004   75..1E       MOV     ?V0 + 0,#0x1e
   \   000007   78..         MOV     R0,#?V0 + 0
   \   000009   22           RET
    991          
    992          /*******************************************************************************
    993           * @fn      TransmitApp_SendToMotorMSG
    994           *
    995           * @brief   Send  message to motor.
    996           *
    997           * @param   uint8 cmd: motor command
    998           *
    999           * @return  none
   1000           */

   \                                 In  segment BANKED_CODE, align 1, keep-with-next
   1001          void TransmitApp_SendToMotorMSG( uint8 cmd, uint8 speed )
   \                     TransmitApp_SendToMotorMSG:
   1002          {
   \   000000   74F6         MOV     A,#-0xa
   \   000002   12....       LCALL   ?BANKED_ENTER_XDATA
   \   000005                ; Saved register size: 10
   \   000005                ; Auto size: 0
   \   000005   E9           MOV     A,R1
   \   000006   FE           MOV     R6,A
   \   000007   EA           MOV     A,R2
   \   000008   FF           MOV     R7,A
   1003            uint8 tmp;
   1004            
   1005            // 只有设备在线时, 方发送控制命令
   1006            if (motor.deviceNWKStatus != DEVICE_NWK_OFFLINE)
   \   000009   90....       MOV     DPTR,#motor
   \   00000C   E0           MOVX    A,@DPTR
   \   00000D   6402         XRL     A,#0x2
   \   00000F   606B         JZ      ??TransmitApp_SendToMotorMSG_0
   1007            {
   1008              // put the sequence number in the message
   1009              tmp = HI_UINT8( TransmitApp_MotorTransID );
   \   000011   90....       MOV     DPTR,#TransmitApp_MotorTransID
   \   000014   12....       LCALL   ?Subroutine20 & 0xFFFF
   1010              tmp += (tmp <= 9) ? ('0') : ('A' - 0x0A);
   \                     ??CrossCallReturnLabel_46:
   \   000017   5004         JNC     ??TransmitApp_SendToMotorMSG_1
   \   000019   7830         MOV     R0,#0x30
   \   00001B   8002         SJMP    ??TransmitApp_SendToMotorMSG_2
   \                     ??TransmitApp_SendToMotorMSG_1:
   \   00001D   7837         MOV     R0,#0x37
   1011              TransmitApp_Msg[2] = tmp;
   \                     ??TransmitApp_SendToMotorMSG_2:
   \   00001F   E8           MOV     A,R0
   \   000020   2A           ADD     A,R2
   \   000021   90....       MOV     DPTR,#TransmitApp_Msg + 2
   \   000024   F0           MOVX    @DPTR,A
   1012              tmp = LO_UINT8( TransmitApp_MotorTransID );
   \   000025   90....       MOV     DPTR,#TransmitApp_MotorTransID
   \   000028   12....       LCALL   ?Subroutine26 & 0xFFFF
   1013              tmp += (tmp <= 9) ? ('0') : ('A' - 0x0A);
   \                     ??CrossCallReturnLabel_67:
   \   00002B   5004         JNC     ??TransmitApp_SendToMotorMSG_3
   \   00002D   7830         MOV     R0,#0x30
   \   00002F   8002         SJMP    ??TransmitApp_SendToMotorMSG_4
   \                     ??TransmitApp_SendToMotorMSG_3:
   \   000031   7837         MOV     R0,#0x37
   1014              TransmitApp_Msg[3] = tmp;
   \                     ??TransmitApp_SendToMotorMSG_4:
   \   000033   E8           MOV     A,R0
   \   000034   2A           ADD     A,R2
   \   000035   90....       MOV     DPTR,#TransmitApp_Msg + 3
   \   000038   F0           MOVX    @DPTR,A
   1015              
   1016              TransmitApp_Msg[4] = speed; // 电机速度
   \   000039   EF           MOV     A,R7
   \   00003A   A3           INC     DPTR
   \   00003B   12....       LCALL   ?Subroutine10 & 0xFFFF
   1017              TransmitApp_Msg[5] = cmd;   // 电机控制状态(方向)
   1018            
   1019              //TransmitApp_epDesc.endPoint = TRANSMITAPP_CLUSTERID_MOTORCTLMSG; // 20201225
   1020              tmp = AF_DataRequest( &TransmitApp_DstMotorAddr,            \
   1021                                    &TransmitApp_epDesc,                  \
   1022                                     TRANSMITAPP_CLUSTERID_MOTORCTLMSG,   \
   1023                                     TRANSMITAPP_MOTOR_DATA_LEN,          \
   1024                                     TransmitApp_Msg,                     \
   1025                                    &TransmitApp_MotorTransID,            \
   1026                                     TRANSMITAPP_TX_OPTIONS,              \
   1027                                     AF_DEFAULT_RADIUS );
   1028            }
   \                     ??CrossCallReturnLabel_21:
   \   00003E   12....       LCALL   ?PUSH_XSTACK_I_ONE
   \   000041   75....       MOV     ?V0 + 0,#TransmitApp_MotorTransID & 0xff
   \   000044   75....       MOV     ?V0 + 1,#(TransmitApp_MotorTransID >> 8) & 0xff
   \   000047   78..         MOV     R0,#?V0 + 0
   \   000049   12....       LCALL   ?PUSH_XSTACK_I_TWO
   \   00004C   75....       MOV     ?V0 + 0,#TransmitApp_Msg & 0xff
   \   00004F   75....       MOV     ?V0 + 1,#(TransmitApp_Msg >> 8) & 0xff
   \   000052   78..         MOV     R0,#?V0 + 0
   \   000054   12....       LCALL   ?PUSH_XSTACK_I_TWO
   \   000057   75..06       MOV     ?V0 + 0,#0x6
   \   00005A   75..00       MOV     ?V0 + 1,#0x0
   \   00005D   78..         MOV     R0,#?V0 + 0
   \   00005F   12....       LCALL   ?PUSH_XSTACK_I_TWO
   \   000062   75..0B       MOV     ?V0 + 0,#0xb
   \   000065   78..         MOV     R0,#?V0 + 0
   \   000067   12....       LCALL   ?PUSH_XSTACK_I_TWO
   \   00006A   7920         MOV     R1,#0x20
   \   00006C   7C..         MOV     R4,#TransmitApp_epDesc & 0xff
   \   00006E   7D..         MOV     R5,#(TransmitApp_epDesc >> 8) & 0xff
   \   000070   7A..         MOV     R2,#TransmitApp_DstMotorAddr & 0xff
   \   000072   7B..         MOV     R3,#(TransmitApp_DstMotorAddr >> 8) & 0xff
   \   000074   12....       LCALL   ??AF_DataRequest?relay
   \   000077   7409         MOV     A,#0x9
   \   000079   12....       LCALL   ?DEALLOC_XSTACK8
   1029          }
   \                     ??TransmitApp_SendToMotorMSG_0:
   \   00007C                REQUIRE ?Subroutine1
   \   00007C                ; // Fall through to label ?Subroutine1
   1030          
   1031          /*******************************************************************************
   1032           * @fn      TransmitAPP_CallBack
   1033           *
   1034           * @brief   Send data OTA.
   1035           *
   1036           * @param   port - UART port.
   1037           * @param   event - the UART port event flag.
   1038           *
   1039           * @return  none
   1040           */

   \                                 In  segment BANKED_CODE, align 1, keep-with-next
   1041          void TransmitAPP_CallBack(uint8 port, uint8 event)
   \                     TransmitAPP_CallBack:
   1042          { 
   \   000000                ; Saved register size: 0
   \   000000                ; Auto size: 0
   1043          }
   \   000000   02....       LJMP    ?BRET
   1044          
   1045          /*******************************************************************************
   1046          *******************************************************************************/
   1047          /*********************************************************************
   1048           * @fn      Smart_home_Display
   1049           *
   1050           * @brief   屏幕回显函数，定义了内容如何显示.
   1051           *
   1052           * @param   port - UART port.
   1053           * @param   event - the UART port event flag.
   1054           *
   1055           * @return  none
   1056           */

   \                                 In  segment BANKED_CODE, align 1, keep-with-next
   1057          static void Smart_home_Display(void)
   \                     Smart_home_Display:
   1058          {
   \   000000   74F6         MOV     A,#-0xa
   \   000002   12....       LCALL   ?BANKED_ENTER_XDATA
   \   000005                ; Saved register size: 10
   \   000005                ; Auto size: 0
   1059          #if defined LCD_SUPPORTED
   1060            static uint8 percent;
   1061            switch(Ctrlcase)
   \   000005   90....       MOV     DPTR,#Ctrlcase
   \   000008   E0           MOVX    A,@DPTR
   \   000009   14           DEC     A
   \   00000A   7003         JNZ     $+5
   \   00000C   02....       LJMP    ??Smart_home_Display_0 & 0xFFFF
   \   00000F   14           DEC     A
   \   000010   7003         JNZ     $+5
   \   000012   02....       LJMP    ??Smart_home_Display_1 & 0xFFFF
   1062            {
   1063              default:    
   1064              case 0:
   1065                HalLcdWriteString( "      Menu      ", HAL_LCD_LINE_1 );
   \   000015                ; Setup parameters for call to function HalLcdWriteString
   \   000015   7901         MOV     R1,#0x1
   \   000017   7A..         MOV     R2,#`?<Constant "      Menu      ">` & 0xff
   \   000019   7B..         MOV     R3,#(`?<Constant "      Menu      ">` >> 8) & 0xff
   \   00001B   12....       LCALL   ?Subroutine21 & 0xFFFF
   1066                //HalLcdWriteString( "Flip use UP/DOWN", HAL_LCD_LINE_4 ); 
   1067                //清除屏幕显示
   1068                HalLcdWriteString( " ", HAL_LCD_LINE_2 ); 
   1069                HalLcdWriteString( " ", HAL_LCD_LINE_3 );
   1070                
   1071                switch(LCD_Page)
   \                     ??CrossCallReturnLabel_47:
   \   00001E   90....       MOV     DPTR,#LCD_Page
   \   000021   E0           MOVX    A,@DPTR
   \   000022   14           DEC     A
   \   000023   7003         JNZ     $+5
   \   000025   02....       LJMP    ??Smart_home_Display_2 & 0xFFFF
   \   000028   14           DEC     A
   \   000029   7003         JNZ     $+5
   \   00002B   02....       LJMP    ??Smart_home_Display_3 & 0xFFFF
   \   00002E   14           DEC     A
   \   00002F   7003         JNZ     $+5
   \   000031   02....       LJMP    ??Smart_home_Display_4 & 0xFFFF
   1072                {
   1073                  default:
   1074                  case 0:
   1075                  { 
   1076                    //DeviceInfo* Devhum = &DeviceList[Humit];
   1077                    //DeviceInfo* DevSound = &DeviceList[soundVb];
   1078                    //第一页第二行显示温度
   1079                    //      第三行显示光照
   1080                    if(Humit.deviceNWKStatus != DEVICE_NWK_OFFLINE)
   \   000034   90....       MOV     DPTR,#Humit
   \   000037   E0           MOVX    A,@DPTR
   \   000038   6402         XRL     A,#0x2
   \   00003A   6040         JZ      ??Smart_home_Display_5
   1081                    {    
   1082                        HalLcdWriteStringValueValue( "Hum:", Humit.data[0], 10, "% T_1:", Humit.data[1], 10, HAL_LCD_LINE_2 );
   \   00003C                ; Setup parameters for call to function HalLcdWriteStringValueValue
   \   00003C   75..02       MOV     ?V0 + 0,#0x2
   \   00003F   78..         MOV     R0,#?V0 + 0
   \   000041   12....       LCALL   ?PUSH_XSTACK_I_ONE
   \   000044   75..0A       MOV     ?V0 + 0,#0xa
   \   000047   78..         MOV     R0,#?V0 + 0
   \   000049   12....       LCALL   ?PUSH_XSTACK_I_ONE
   \   00004C   90....       MOV     DPTR,#Humit + 2
   \   00004F   E0           MOVX    A,@DPTR
   \   000050   F5..         MOV     ?V0 + 0,A
   \   000052   75..00       MOV     ?V0 + 1,#0x0
   \   000055   78..         MOV     R0,#?V0 + 0
   \   000057   12....       LCALL   ?PUSH_XSTACK_I_TWO
   \   00005A   75....       MOV     ?V0 + 0,#`?<Constant "% T_1:">` & 0xff
   \   00005D   75....       MOV     ?V0 + 1,#(`?<Constant "% T_1:">` >> 8) & 0xff
   \   000060   78..         MOV     R0,#?V0 + 0
   \   000062   12....       LCALL   ?PUSH_XSTACK_I_TWO
   \   000065   790A         MOV     R1,#0xa
   \   000067   90....       MOV     DPTR,#Humit + 1
   \   00006A   E0           MOVX    A,@DPTR
   \   00006B   FC           MOV     R4,A
   \   00006C   7D00         MOV     R5,#0x0
   \   00006E   7A..         MOV     R2,#`?<Constant "Hum:">` & 0xff
   \   000070   7B..         MOV     R3,#(`?<Constant "Hum:">` >> 8) & 0xff
   \   000072   12....       LCALL   ??HalLcdWriteStringValueValue?relay
   \   000075   7406         MOV     A,#0x6
   \   000077   12....       LCALL   ?DEALLOC_XSTACK8
   \   00007A   8009         SJMP    ??Smart_home_Display_6
   1083                    }
   1084                    else
   1085                    {
   1086                        HalLcdWriteString( "Hum:OFF T_1:OFF", HAL_LCD_LINE_2 ); 
   \                     ??Smart_home_Display_5:
   \   00007C                ; Setup parameters for call to function HalLcdWriteString
   \   00007C   7902         MOV     R1,#0x2
   \   00007E   7A..         MOV     R2,#`?<Constant "Hum:OFF T_1:OFF">` & 0xff
   \   000080   7B..         MOV     R3,#(`?<Constant "Hum:OFF T_1:OFF">` >> 8) & 0xff
   \   000082   12....       LCALL   ??HalLcdWriteString?relay
   1087                    }
   1088                    
   1089                    
   1090                    if(soundVb.deviceNWKStatus  != DEVICE_NWK_OFFLINE)
   \                     ??Smart_home_Display_6:
   \   000085   90....       MOV     DPTR,#soundVb
   \   000088   E0           MOVX    A,@DPTR
   \   000089   6402         XRL     A,#0x2
   \   00008B   6014         JZ      ??Smart_home_Display_7
   1091                    {    
   1092                        if(soundVb.data[0] & 0x01 == 0x01) { HalLcdWriteString( "Sound: Voice", HAL_LCD_LINE_3 ); }
   \   00008D   A3           INC     DPTR
   \   00008E   E0           MOVX    A,@DPTR
   \   00008F   A2E0         MOV     C,0xE0 /* A   */.0
   \   000091   7903         MOV     R1,#0x3
   \   000093   5006         JNC     ??Smart_home_Display_8
   \   000095                ; Setup parameters for call to function HalLcdWriteString
   \   000095   7A..         MOV     R2,#`?<Constant "Sound: Voice">` & 0xff
   \   000097   7B..         MOV     R3,#(`?<Constant "Sound: Voice">` >> 8) & 0xff
   \   000099   800C         SJMP    ??Smart_home_Display_9
   1093                        else if(soundVb.data[0] & 0x02 == 0x02) { HalLcdWriteString( "Sound: Vibration", HAL_LCD_LINE_3 ); }
   1094                        else if(soundVb.data[0] & 0x03 == 0x03) { HalLcdWriteString( "Sound: All", HAL_LCD_LINE_3 ); }
   1095                        else {HalLcdWriteString( "Sound: None", HAL_LCD_LINE_3 );}
   \                     ??Smart_home_Display_8:
   \   00009B                ; Setup parameters for call to function HalLcdWriteString
   \   00009B   7A..         MOV     R2,#`?<Constant "Sound: None">` & 0xff
   \   00009D   7B..         MOV     R3,#(`?<Constant "Sound: None">` >> 8) & 0xff
   \   00009F   8006         SJMP    ??Smart_home_Display_9
   1096                    }
   1097                    else
   1098                    {
   1099                        HalLcdWriteString( "Sound:OFFLINE", HAL_LCD_LINE_3 ); 
   \                     ??Smart_home_Display_7:
   \   0000A1                ; Setup parameters for call to function HalLcdWriteString
   \   0000A1   7903         MOV     R1,#0x3
   \   0000A3   7A..         MOV     R2,#`?<Constant "Sound:OFFLINE">` & 0xff
   \   0000A5   7B..         MOV     R3,#(`?<Constant "Sound:OFFLINE">` >> 8) & 0xff
   \                     ??Smart_home_Display_9:
   \   0000A7   12....       LCALL   ??HalLcdWriteString?relay
   1100                    }
   1101                 
   1102                    //HalLcdWriteStringValue( "Sound:", SoundVb, 16, HAL_LCD_LINE_3 );
   1103                    
   1104                    
   1105                    //显示最下面的百分比条
   1106                    percent = (1 * 100) / LCD_PAGE_MAX;
   \   0000AA   90....       MOV     DPTR,#??percent
   \   0000AD   7419         MOV     A,#0x19
   \                     ??Smart_home_Display_10:
   \   0000AF   12....       LCALL   ?Subroutine9 & 0xFFFF
   1107                    HalLcdDisplayPercentBar("",percent);
   1108                    break;
   \                     ??CrossCallReturnLabel_18:
   \   0000B2   02....       LJMP    ??Smart_home_Display_11 & 0xFFFF
   1109                  }
   1110                  case 1:
   1111                  {
   1112                    //第二页只有光照
   1113                    //第一页第二行显示温度
   1114                    //      第三行显示光照
   1115                    //DeviceInfo* Devtmp = &DeviceList[TempLight];
   1116                    if(TempLight.deviceNWKStatus  != DEVICE_NWK_OFFLINE)
   \                     ??Smart_home_Display_2:
   \   0000B5   90....       MOV     DPTR,#TempLight
   \   0000B8   E0           MOVX    A,@DPTR
   \   0000B9   6402         XRL     A,#0x2
   \   0000BB   7003         JNZ     $+5
   \   0000BD   02....       LJMP    ??Smart_home_Display_12 & 0xFFFF
   1117                    {    
   1118                        static uint16 Light;
   1119                        static uint8 lightmp;
   1120                    
   1121          
   1122                        lightmp = TempLight.data[3];
   \   0000C0   90....       MOV     DPTR,#TempLight + 4
   \   0000C3   E0           MOVX    A,@DPTR
   \   0000C4   90....       MOV     DPTR,#??lightmp
   \   0000C7   F0           MOVX    @DPTR,A
   1123                        Light = (uint16)TempLight.data[4];
   \   0000C8   90....       MOV     DPTR,#TempLight + 5
   \   0000CB   E0           MOVX    A,@DPTR
   \   0000CC   90....       MOV     DPTR,#??Light
   \   0000CF   12....       LCALL   ??Subroutine31_0 & 0xFFFF
   1124                        memcpy(&Light,&lightmp,sizeof(lightmp));
   \                     ??CrossCallReturnLabel_72:
   \   0000D2                ; Setup parameters for call to function memcpy
   \   0000D2   75..01       MOV     ?V0 + 0,#0x1
   \   0000D5   F5..         MOV     ?V0 + 1,A
   \   0000D7   78..         MOV     R0,#?V0 + 0
   \   0000D9   12....       LCALL   ?PUSH_XSTACK_I_TWO
   \   0000DC   7C..         MOV     R4,#??lightmp & 0xff
   \   0000DE   7D..         MOV     R5,#(??lightmp >> 8) & 0xff
   \   0000E0   7A..         MOV     R2,#??Light & 0xff
   \   0000E2   7B..         MOV     R3,#(??Light >> 8) & 0xff
   \   0000E4   12....       LCALL   ??memcpy?relay
   \   0000E7   7402         MOV     A,#0x2
   \   0000E9   12....       LCALL   ?DEALLOC_XSTACK8
   1125                    
   1126                        HalLcdWriteStringValueValue( "Temper_2:", TempLight.data[0], 10, ".", TempLight.data[1], 10, HAL_LCD_LINE_2 );
   \   0000EC                ; Setup parameters for call to function HalLcdWriteStringValueValue
   \   0000EC   75..02       MOV     ?V0 + 0,#0x2
   \   0000EF   78..         MOV     R0,#?V0 + 0
   \   0000F1   12....       LCALL   ?PUSH_XSTACK_I_ONE
   \   0000F4   75..0A       MOV     ?V0 + 0,#0xa
   \   0000F7   78..         MOV     R0,#?V0 + 0
   \   0000F9   12....       LCALL   ?PUSH_XSTACK_I_ONE
   \   0000FC   90....       MOV     DPTR,#TempLight + 2
   \   0000FF   E0           MOVX    A,@DPTR
   \   000100   F5..         MOV     ?V0 + 0,A
   \   000102   78..         MOV     R0,#?V0 + 0
   \   000104   12....       LCALL   ?PUSH_XSTACK_I_TWO
   \   000107   75....       MOV     ?V0 + 0,#`?<Constant ".">` & 0xff
   \   00010A   75....       MOV     ?V0 + 1,#(`?<Constant ".">` >> 8) & 0xff
   \   00010D   78..         MOV     R0,#?V0 + 0
   \   00010F   12....       LCALL   ?PUSH_XSTACK_I_TWO
   \   000112   790A         MOV     R1,#0xa
   \   000114   90....       MOV     DPTR,#TempLight + 1
   \   000117   E0           MOVX    A,@DPTR
   \   000118   FC           MOV     R4,A
   \   000119   7D00         MOV     R5,#0x0
   \   00011B   7A..         MOV     R2,#`?<Constant "Temper_2:">` & 0xff
   \   00011D   7B..         MOV     R3,#(`?<Constant "Temper_2:">` >> 8) & 0xff
   \   00011F   12....       LCALL   ??HalLcdWriteStringValueValue?relay
   \   000122   7406         MOV     A,#0x6
   \   000124   12....       LCALL   ?DEALLOC_XSTACK8
   1127                        HalLcdWriteStringValue( "Light:", Light, 10, HAL_LCD_LINE_3 );
   \   000127                ; Setup parameters for call to function HalLcdWriteStringValue
   \   000127   75..03       MOV     ?V0 + 0,#0x3
   \   00012A   78..         MOV     R0,#?V0 + 0
   \   00012C   12....       LCALL   ?PUSH_XSTACK_I_ONE
   \   00012F   790A         MOV     R1,#0xa
   \   000131   90....       MOV     DPTR,#??Light
   \   000134   E0           MOVX    A,@DPTR
   \   000135   FC           MOV     R4,A
   \   000136   A3           INC     DPTR
   \   000137   E0           MOVX    A,@DPTR
   \   000138   FD           MOV     R5,A
   \   000139   7A..         MOV     R2,#`?<Constant "Light:">` & 0xff
   \   00013B   7B..         MOV     R3,#(`?<Constant "Light:">` >> 8) & 0xff
   \   00013D   12....       LCALL   ??HalLcdWriteStringValue?relay
   \   000140   7401         MOV     A,#0x1
   \   000142   12....       LCALL   ?DEALLOC_XSTACK8
   1128                        
   1129                        osal_msg_deallocate((uint8*)Light);
   \   000145                ; Setup parameters for call to function osal_msg_deallocate
   \   000145   90....       MOV     DPTR,#??Light
   \   000148   12....       LCALL   ?Subroutine13 & 0xFFFF
   1130                    }
   \                     ??CrossCallReturnLabel_26:
   \   00014B   8012         SJMP    ??Smart_home_Display_13
   1131                    else
   1132                    {
   1133                        HalLcdWriteString( "Temper_2:OFF", HAL_LCD_LINE_2 ); 
   \                     ??Smart_home_Display_12:
   \   00014D                ; Setup parameters for call to function HalLcdWriteString
   \   00014D   7902         MOV     R1,#0x2
   \   00014F   7A..         MOV     R2,#`?<Constant "Temper_2:OFF">` & 0xff
   \   000151   7B..         MOV     R3,#(`?<Constant "Temper_2:OFF">` >> 8) & 0xff
   \   000153   12....       LCALL   ??HalLcdWriteString?relay
   1134                        HalLcdWriteString( "Light:OFF", HAL_LCD_LINE_3 ); 
   \   000156                ; Setup parameters for call to function HalLcdWriteString
   \   000156   7903         MOV     R1,#0x3
   \   000158   7A..         MOV     R2,#`?<Constant "Light:OFF">` & 0xff
   \   00015A   7B..         MOV     R3,#(`?<Constant "Light:OFF">` >> 8) & 0xff
   \   00015C   12....       LCALL   ??HalLcdWriteString?relay
   1135                    }
   1136                    
   1137                    //显示最下面的百分比条
   1138                    percent = (2 * 100) / LCD_PAGE_MAX;
   \                     ??Smart_home_Display_13:
   \   00015F   90....       MOV     DPTR,#??percent
   \   000162   7432         MOV     A,#0x32
   \   000164   02....       LJMP    ??Smart_home_Display_10 & 0xFFFF
   1139                    HalLcdDisplayPercentBar("",percent);
   1140                    break;
   1141                    
   1142                    
   1143                  }
   1144                  
   1145                case 2:
   1146                {
   1147                    static uint16 Data1;
   1148                    static uint16 Data2;
   1149                    //显示最下面的百分比条
   1150                    //DeviceInfo* rfid = &DeviceList[RfID];
   1151                    
   1152                    Data1 = ( RfID.data[1] << 8) | RfID.data[2];
   \                     ??Smart_home_Display_3:
   \   000167   90....       MOV     DPTR,#RfID + 2
   \   00016A   E0           MOVX    A,@DPTR
   \   00016B   F9           MOV     R1,A
   \   00016C   A3           INC     DPTR
   \   00016D   E0           MOVX    A,@DPTR
   \   00016E   90....       MOV     DPTR,#??Data1
   \   000171   F0           MOVX    @DPTR,A
   \   000172   A3           INC     DPTR
   \   000173   E9           MOV     A,R1
   \   000174   F0           MOVX    @DPTR,A
   1153                    Data2 = ( RfID.data[3] << 8) | RfID.data[4];
   \   000175   90....       MOV     DPTR,#RfID + 4
   \   000178   E0           MOVX    A,@DPTR
   \   000179   F9           MOV     R1,A
   \   00017A   A3           INC     DPTR
   \   00017B   E0           MOVX    A,@DPTR
   \   00017C   90....       MOV     DPTR,#??Data2
   \   00017F   F0           MOVX    @DPTR,A
   \   000180   A3           INC     DPTR
   \   000181   E9           MOV     A,R1
   \   000182   F0           MOVX    @DPTR,A
   1154                    
   1155                    switch(RfID.data[0])
   \   000183   90....       MOV     DPTR,#RfID + 1
   \   000186   E0           MOVX    A,@DPTR
   \   000187   14           DEC     A
   \   000188   600E         JZ      ??Smart_home_Display_14
   \   00018A   14           DEC     A
   \   00018B   6013         JZ      ??Smart_home_Display_15
   \   00018D   14           DEC     A
   \   00018E   6018         JZ      ??Smart_home_Display_16
   \   000190   14           DEC     A
   \   000191   601D         JZ      ??Smart_home_Display_17
   \   000193   14           DEC     A
   \   000194   6022         JZ      ??Smart_home_Display_18
   \   000196   8028         SJMP    ??Smart_home_Display_19
   1156                    {
   1157                    case 0x01:
   1158                      HalLcdWriteString( "MFOne-S50", HAL_LCD_LINE_2 );
   \                     ??Smart_home_Display_14:
   \   000198                ; Setup parameters for call to function HalLcdWriteString
   \   000198   7902         MOV     R1,#0x2
   \   00019A   7A..         MOV     R2,#`?<Constant "MFOne-S50">` & 0xff
   \   00019C   7B..         MOV     R3,#(`?<Constant "MFOne-S50">` >> 8) & 0xff
   \   00019E   8026         SJMP    ??Smart_home_Display_20
   1159                      break;
   1160                    case 0x02:
   1161                      HalLcdWriteString( "MFOne-S70", HAL_LCD_LINE_2 );
   \                     ??Smart_home_Display_15:
   \   0001A0                ; Setup parameters for call to function HalLcdWriteString
   \   0001A0   7902         MOV     R1,#0x2
   \   0001A2   7A..         MOV     R2,#`?<Constant "MFOne-S70">` & 0xff
   \   0001A4   7B..         MOV     R3,#(`?<Constant "MFOne-S70">` >> 8) & 0xff
   \   0001A6   801E         SJMP    ??Smart_home_Display_20
   1162                      break;
   1163                    case 0x03:
   1164                      HalLcdWriteString( "MF-UltraLight", HAL_LCD_LINE_2 );
   \                     ??Smart_home_Display_16:
   \   0001A8                ; Setup parameters for call to function HalLcdWriteString
   \   0001A8   7902         MOV     R1,#0x2
   \   0001AA   7A..         MOV     R2,#`?<Constant "MF-UltraLight">` & 0xff
   \   0001AC   7B..         MOV     R3,#(`?<Constant "MF-UltraLight">` >> 8) & 0xff
   \   0001AE   8016         SJMP    ??Smart_home_Display_20
   1165                      break;
   1166                    case 0x04:
   1167                      HalLcdWriteString( "MF-Pro", HAL_LCD_LINE_2 );
   \                     ??Smart_home_Display_17:
   \   0001B0                ; Setup parameters for call to function HalLcdWriteString
   \   0001B0   7902         MOV     R1,#0x2
   \   0001B2   7A..         MOV     R2,#`?<Constant "MF-Pro">` & 0xff
   \   0001B4   7B..         MOV     R3,#(`?<Constant "MF-Pro">` >> 8) & 0xff
   \   0001B6   800E         SJMP    ??Smart_home_Display_20
   1168                      break;
   1169                    case 0x05:
   1170                      HalLcdWriteString( "MF-DesFire", HAL_LCD_LINE_2 );
   \                     ??Smart_home_Display_18:
   \   0001B8                ; Setup parameters for call to function HalLcdWriteString
   \   0001B8   7902         MOV     R1,#0x2
   \   0001BA   7A..         MOV     R2,#`?<Constant "MF-DesFire">` & 0xff
   \   0001BC   7B..         MOV     R3,#(`?<Constant "MF-DesFire">` >> 8) & 0xff
   \   0001BE   8006         SJMP    ??Smart_home_Display_20
   1171                      break;
   1172                      
   1173                    default:
   1174                      HalLcdWriteString( "No Card", HAL_LCD_LINE_2 );
   \                     ??Smart_home_Display_19:
   \   0001C0                ; Setup parameters for call to function HalLcdWriteString
   \   0001C0   7902         MOV     R1,#0x2
   \   0001C2   7A..         MOV     R2,#`?<Constant "No Card">` & 0xff
   \   0001C4   7B..         MOV     R3,#(`?<Constant "No Card">` >> 8) & 0xff
   1175                      break;
   1176                    }
   \                     ??Smart_home_Display_20:
   \   0001C6   12....       LCALL   ?Subroutine22 & 0xFFFF
   1177                    
   1178                    HalLcdWriteStringValueValue( "ID: ", Data1, 16, "-", Data2, 16, HAL_LCD_LINE_3 );
   \                     ??CrossCallReturnLabel_50:
   \   0001C9   12....       LCALL   ?PUSH_XSTACK_I_ONE
   \   0001CC   75..10       MOV     ?V0 + 0,#0x10
   \   0001CF   78..         MOV     R0,#?V0 + 0
   \   0001D1   12....       LCALL   ?PUSH_XSTACK_I_ONE
   \   0001D4   90....       MOV     DPTR,#??Data2
   \   0001D7   12....       LCALL   ?PUSH_XSTACK8_X_TWO
   \   0001DA   75....       MOV     ?V0 + 0,#`?<Constant "-">` & 0xff
   \   0001DD   75....       MOV     ?V0 + 1,#(`?<Constant "-">` >> 8) & 0xff
   \   0001E0   78..         MOV     R0,#?V0 + 0
   \   0001E2   12....       LCALL   ?PUSH_XSTACK_I_TWO
   \   0001E5   7910         MOV     R1,#0x10
   \   0001E7   90....       MOV     DPTR,#??Data1
   \   0001EA   E0           MOVX    A,@DPTR
   \   0001EB   FC           MOV     R4,A
   \   0001EC   A3           INC     DPTR
   \   0001ED   E0           MOVX    A,@DPTR
   \   0001EE   FD           MOV     R5,A
   \   0001EF   7A..         MOV     R2,#`?<Constant "ID: ">` & 0xff
   \   0001F1   7B..         MOV     R3,#(`?<Constant "ID: ">` >> 8) & 0xff
   \   0001F3   12....       LCALL   ??HalLcdWriteStringValueValue?relay
   \   0001F6   7406         MOV     A,#0x6
   \   0001F8   12....       LCALL   ?DEALLOC_XSTACK8
   1179                    
   1180                    percent = (3 * 100) / LCD_PAGE_MAX;
   \   0001FB   90....       MOV     DPTR,#??percent
   \   0001FE   744B         MOV     A,#0x4b
   \   000200   12....       LCALL   ?Subroutine9 & 0xFFFF
   1181                    HalLcdDisplayPercentBar("",percent);
   1182                    
   1183                    osal_msg_deallocate((uint8*)Data1);
   \                     ??CrossCallReturnLabel_19:
   \   000203                ; Setup parameters for call to function osal_msg_deallocate
   \   000203   90....       MOV     DPTR,#??Data1
   \   000206   12....       LCALL   ?Subroutine13 & 0xFFFF
   1184                    osal_msg_deallocate((uint8*)Data2);
   \                     ??CrossCallReturnLabel_27:
   \   000209                ; Setup parameters for call to function osal_msg_deallocate
   \   000209   90....       MOV     DPTR,#??Data2
   \   00020C   12....       LCALL   ?Subroutine13 & 0xFFFF
   1185                    
   1186                    break;
   \                     ??CrossCallReturnLabel_28:
   \   00020F   02....       LJMP    ??Smart_home_Display_11 & 0xFFFF
   1187                }
   1188                
   1189                case 3:
   1190                {        
   1191                    //DeviceInfo* DevGas = &DeviceList[gasFlame];
   1192                    //DeviceInfo* DevInf = &DeviceList[infrared];         
   1193                    
   1194                    if(gasFlame.deviceNWKStatus  != DEVICE_NWK_OFFLINE)
   \                     ??Smart_home_Display_4:
   \   000212   90....       MOV     DPTR,#gasFlame
   \   000215   E0           MOVX    A,@DPTR
   \   000216   6402         XRL     A,#0x2
   \   000218   6014         JZ      ??Smart_home_Display_21
   1195                    {    
   1196                        if(gasFlame.data[0] & 0x01 == 0x01) { HalLcdWriteString( "GasFlame: Flame", HAL_LCD_LINE_2 ); }         //0位是火焰
   \   00021A   A3           INC     DPTR
   \   00021B   E0           MOVX    A,@DPTR
   \   00021C   A2E0         MOV     C,0xE0 /* A   */.0
   \   00021E   7902         MOV     R1,#0x2
   \   000220   5006         JNC     ??Smart_home_Display_22
   \   000222                ; Setup parameters for call to function HalLcdWriteString
   \   000222   7A..         MOV     R2,#`?<Constant "GasFlame: Flame">` & 0xff
   \   000224   7B..         MOV     R3,#(`?<Constant "GasFlame: Flame">` >> 8) & 0xff
   \   000226   800C         SJMP    ??Smart_home_Display_23
   1197                        else if(gasFlame.data[0] & 0x02 == 0x02) { HalLcdWriteString( "GasFlame: Gas", HAL_LCD_LINE_2 ); }//1位是气体
   1198                        else if(gasFlame.data[0] & 0x03 == 0x03) { HalLcdWriteString( "GasFlame: All", HAL_LCD_LINE_2 ); }
   1199                        else {HalLcdWriteString( "GasFlame: None", HAL_LCD_LINE_2 );}
   \                     ??Smart_home_Display_22:
   \   000228                ; Setup parameters for call to function HalLcdWriteString
   \   000228   7A..         MOV     R2,#`?<Constant "GasFlame: None">` & 0xff
   \   00022A   7B..         MOV     R3,#(`?<Constant "GasFlame: None">` >> 8) & 0xff
   \   00022C   8006         SJMP    ??Smart_home_Display_23
   1200                    }
   1201                    else
   1202                    {
   1203                        HalLcdWriteString( "GasFlame: OFF", HAL_LCD_LINE_2 ); 
   \                     ??Smart_home_Display_21:
   \   00022E                ; Setup parameters for call to function HalLcdWriteString
   \   00022E   7902         MOV     R1,#0x2
   \   000230   7A..         MOV     R2,#`?<Constant "GasFlame: OFF">` & 0xff
   \   000232   7B..         MOV     R3,#(`?<Constant "GasFlame: OFF">` >> 8) & 0xff
   \                     ??Smart_home_Display_23:
   \   000234   12....       LCALL   ??HalLcdWriteString?relay
   1204                    }
   1205                    
   1206                    
   1207                    if(infrared.deviceNWKStatus  != DEVICE_NWK_OFFLINE)
   \   000237   90....       MOV     DPTR,#infrared
   \   00023A   E0           MOVX    A,@DPTR
   \   00023B   6402         XRL     A,#0x2
   \   00023D   6014         JZ      ??Smart_home_Display_24
   1208                    {    
   1209                        if(infrared.data[0] == 0x01)
   \   00023F   A3           INC     DPTR
   \   000240   E0           MOVX    A,@DPTR
   \   000241   6401         XRL     A,#0x1
   \   000243   7903         MOV     R1,#0x3
   \   000245   7006         JNZ     ??Smart_home_Display_25
   1210                        {
   1211                          HalLcdWriteString("Infrared: Human", HAL_LCD_LINE_3 );
   \   000247                ; Setup parameters for call to function HalLcdWriteString
   \   000247   7A..         MOV     R2,#`?<Constant "Infrared: Human">` & 0xff
   \   000249   7B..         MOV     R3,#(`?<Constant "Infrared: Human">` >> 8) & 0xff
   \   00024B   800C         SJMP    ??Smart_home_Display_26
   1212                        }
   1213                        else{
   1214                          HalLcdWriteString("Infrared: NoHuman", HAL_LCD_LINE_3 );
   \                     ??Smart_home_Display_25:
   \   00024D                ; Setup parameters for call to function HalLcdWriteString
   \   00024D   7A..         MOV     R2,#`?<Constant "Infrared: NoHuman">` & 0xff
   \   00024F   7B..         MOV     R3,#(`?<Constant "Infrared: NoHuman">` >> 8) & 0xff
   \   000251   8006         SJMP    ??Smart_home_Display_26
   1215                        }
   1216                    }
   1217                    else
   1218                    {
   1219                        HalLcdWriteString( "Infrared: OFF", HAL_LCD_LINE_3 ); 
   \                     ??Smart_home_Display_24:
   \   000253                ; Setup parameters for call to function HalLcdWriteString
   \   000253   7903         MOV     R1,#0x3
   \   000255   7A..         MOV     R2,#`?<Constant "Infrared: OFF">` & 0xff
   \   000257   7B..         MOV     R3,#(`?<Constant "Infrared: OFF">` >> 8) & 0xff
   \                     ??Smart_home_Display_26:
   \   000259   12....       LCALL   ??HalLcdWriteString?relay
   1220                    }         
   1221          
   1222                    
   1223                    
   1224                    //显示最下面的百分比条
   1225                    percent = (4 * 100) / LCD_PAGE_MAX;
   \   00025C   90....       MOV     DPTR,#??percent
   \   00025F   7464         MOV     A,#0x64
   \   000261   02....       LJMP    ??Smart_home_Display_10 & 0xFFFF
   1226                    HalLcdDisplayPercentBar("",percent);
   1227                    break;
   1228                }
   1229                    
   1230              }
   1231                
   1232                break;
   1233              
   1234              case 1:
   1235                HalLcdWriteString( "Relay Contrling", HAL_LCD_LINE_4 ); 
   \                     ??Smart_home_Display_0:
   \   000264                ; Setup parameters for call to function HalLcdWriteString
   \   000264   7904         MOV     R1,#0x4
   \   000266   7A..         MOV     R2,#`?<Constant "Relay Contrling">` & 0xff
   \   000268   7B..         MOV     R3,#(`?<Constant "Relay Contrling">` >> 8) & 0xff
   \   00026A   12....       LCALL   ?Subroutine21 & 0xFFFF
   1236                //清除屏幕显示
   1237                HalLcdWriteString( " ", HAL_LCD_LINE_2 ); 
   1238                HalLcdWriteString( " ", HAL_LCD_LINE_3 );
   1239                //这里的deviceStatus 可能是0x00,所以会出现bug 这个0在Device检查时被设置 2.24
   1240                if(relay.deviceNWKStatus == DEVICE_NWK_OFFLINE)
   \                     ??CrossCallReturnLabel_48:
   \   00026D   90....       MOV     DPTR,#relay
   \   000270   E0           MOVX    A,@DPTR
   \   000271   6402         XRL     A,#0x2
   \   000273   7901         MOV     R1,#0x1
   \   000275   700A         JNZ     ??Smart_home_Display_27
   1241                {
   1242                  HalLcdWriteString( "Relay Offline", HAL_LCD_LINE_1 );      
   \   000277                ; Setup parameters for call to function HalLcdWriteString
   \   000277   7A..         MOV     R2,#`?<Constant "Relay Offline">` & 0xff
   \   000279   7B..         MOV     R3,#(`?<Constant "Relay Offline">` >> 8) & 0xff
   \                     ??Smart_home_Display_28:
   \   00027B   12....       LCALL   ??HalLcdWriteString?relay
   \   00027E   02....       LJMP    ??Smart_home_Display_11 & 0xFFFF
   1243                }
   1244                else  //设备在线回显  设备在线可能是 0/1
   1245                {
   1246                  HalLcdWriteString( "Relay Online", HAL_LCD_LINE_1 ); 
   \                     ??Smart_home_Display_27:
   \   000281                ; Setup parameters for call to function HalLcdWriteString
   \   000281   7A..         MOV     R2,#`?<Constant "Relay Online">` & 0xff
   \   000283   7B..         MOV     R3,#(`?<Constant "Relay Online">` >> 8) & 0xff
   \   000285   12....       LCALL   ??HalLcdWriteString?relay
   1247                  //继电器控制界面
   1248          
   1249                  if((relay.data[0]& 0x02) == 0x02) {HalLcdWriteString( "K1:ON", HAL_LCD_LINE_2 );}
   \   000288   90....       MOV     DPTR,#relay + 1
   \   00028B   E0           MOVX    A,@DPTR
   \   00028C   A2E1         MOV     C,0xE0 /* A   */.1
   \   00028E   5009         JNC     ??Smart_home_Display_29
   \   000290                ; Setup parameters for call to function HalLcdWriteString
   \   000290   7902         MOV     R1,#0x2
   \   000292   7A..         MOV     R2,#`?<Constant "K1:ON">` & 0xff
   \   000294   7B..         MOV     R3,#(`?<Constant "K1:ON">` >> 8) & 0xff
   \   000296   12....       LCALL   ??HalLcdWriteString?relay
   1250                  if((relay.data[0] & 0x01) == 0x01) {HalLcdWriteString( "K1:OFF", HAL_LCD_LINE_2 );}
   \                     ??Smart_home_Display_29:
   \   000299   90....       MOV     DPTR,#relay + 1
   \   00029C   E0           MOVX    A,@DPTR
   \   00029D   A2E0         MOV     C,0xE0 /* A   */.0
   \   00029F   5009         JNC     ??Smart_home_Display_30
   \   0002A1                ; Setup parameters for call to function HalLcdWriteString
   \   0002A1   7902         MOV     R1,#0x2
   \   0002A3   7A..         MOV     R2,#`?<Constant "K1:OFF">` & 0xff
   \   0002A5   7B..         MOV     R3,#(`?<Constant "K1:OFF">` >> 8) & 0xff
   \   0002A7   12....       LCALL   ??HalLcdWriteString?relay
   1251                  if((relay.data[0] & 0x20) == 0x20) {HalLcdWriteString( "K2:ON", HAL_LCD_LINE_3 );}
   \                     ??Smart_home_Display_30:
   \   0002AA   90....       MOV     DPTR,#relay + 1
   \   0002AD   E0           MOVX    A,@DPTR
   \   0002AE   A2E5         MOV     C,0xE0 /* A   */.5
   \   0002B0   5009         JNC     ??Smart_home_Display_31
   \   0002B2                ; Setup parameters for call to function HalLcdWriteString
   \   0002B2   7903         MOV     R1,#0x3
   \   0002B4   7A..         MOV     R2,#`?<Constant "K2:ON">` & 0xff
   \   0002B6   7B..         MOV     R3,#(`?<Constant "K2:ON">` >> 8) & 0xff
   \   0002B8   12....       LCALL   ??HalLcdWriteString?relay
   1252                  if((relay.data[0] & 0x10) == 0x10) {HalLcdWriteString( "K2:OFF", HAL_LCD_LINE_3 );}      
   \                     ??Smart_home_Display_31:
   \   0002BB   90....       MOV     DPTR,#relay + 1
   \   0002BE   E0           MOVX    A,@DPTR
   \   0002BF   A2E4         MOV     C,0xE0 /* A   */.4
   \   0002C1   5062         JNC     ??Smart_home_Display_11
   \   0002C3                ; Setup parameters for call to function HalLcdWriteString
   \   0002C3   7903         MOV     R1,#0x3
   \   0002C5   7A..         MOV     R2,#`?<Constant "K2:OFF">` & 0xff
   \   0002C7   7B..         MOV     R3,#(`?<Constant "K2:OFF">` >> 8) & 0xff
   \   0002C9   80B0         SJMP    ??Smart_home_Display_28
   1253                }
   1254          
   1255                break;
   1256              
   1257              case 2:
   1258                HalLcdWriteString( "Motor Contrling", HAL_LCD_LINE_4 );
   \                     ??Smart_home_Display_1:
   \   0002CB                ; Setup parameters for call to function HalLcdWriteString
   \   0002CB   7904         MOV     R1,#0x4
   \   0002CD   7A..         MOV     R2,#`?<Constant "Motor Contrling">` & 0xff
   \   0002CF   7B..         MOV     R3,#(`?<Constant "Motor Contrling">` >> 8) & 0xff
   \   0002D1   12....       LCALL   ?Subroutine21 & 0xFFFF
   1259                //清除屏幕显示
   1260                HalLcdWriteString( " ", HAL_LCD_LINE_2 ); 
   1261                HalLcdWriteString( " ", HAL_LCD_LINE_3 );
   1262                if(motor.deviceNWKStatus == DEVICE_NWK_OFFLINE)
   \                     ??CrossCallReturnLabel_49:
   \   0002D4   90....       MOV     DPTR,#motor
   \   0002D7   E0           MOVX    A,@DPTR
   \   0002D8   6402         XRL     A,#0x2
   \   0002DA   7901         MOV     R1,#0x1
   \   0002DC   7006         JNZ     ??Smart_home_Display_32
   1263                {
   1264                  HalLcdWriteString( "Motor Offline", HAL_LCD_LINE_1 );      
   \   0002DE                ; Setup parameters for call to function HalLcdWriteString
   \   0002DE   7A..         MOV     R2,#`?<Constant "Motor Offline">` & 0xff
   \   0002E0   7B..         MOV     R3,#(`?<Constant "Motor Offline">` >> 8) & 0xff
   \   0002E2   8097         SJMP    ??Smart_home_Display_28
   1265                }
   1266                else  //设备在线回显  设备在线可能是 0/1
   1267                {
   1268                  HalLcdWriteString( "Motor Online", HAL_LCD_LINE_1 ); 
   \                     ??Smart_home_Display_32:
   \   0002E4                ; Setup parameters for call to function HalLcdWriteString
   \   0002E4   7A..         MOV     R2,#`?<Constant "Motor Online">` & 0xff
   \   0002E6   7B..         MOV     R3,#(`?<Constant "Motor Online">` >> 8) & 0xff
   \   0002E8   12....       LCALL   ??HalLcdWriteString?relay
   1269                  //电机控制界面
   1270                  switch(motor.data[1])
   \   0002EB   90....       MOV     DPTR,#motor + 2
   \   0002EE   E0           MOVX    A,@DPTR
   \   0002EF   24FE         ADD     A,#-0x2
   \   0002F1   600B         JZ      ??Smart_home_Display_33
   \   0002F3   14           DEC     A
   \   0002F4   7902         MOV     R1,#0x2
   \   0002F6   600E         JZ      ??Smart_home_Display_34
   1271                  {
   1272                  default:
   1273                  case 1:
   1274                    HalLcdWriteString( "Status: STOP", HAL_LCD_LINE_2 );
   \   0002F8                ; Setup parameters for call to function HalLcdWriteString
   \   0002F8   7A..         MOV     R2,#`?<Constant "Status: STOP">` & 0xff
   \   0002FA   7B..         MOV     R3,#(`?<Constant "Status: STOP">` >> 8) & 0xff
   \   0002FC   800C         SJMP    ??Smart_home_Display_35
   1275                    break;
   1276                  case 2:
   1277                    HalLcdWriteString( "Status: FORWARD", HAL_LCD_LINE_2 );
   \                     ??Smart_home_Display_33:
   \   0002FE                ; Setup parameters for call to function HalLcdWriteString
   \   0002FE   7902         MOV     R1,#0x2
   \   000300   7A..         MOV     R2,#`?<Constant "Status: FORWARD">` & 0xff
   \   000302   7B..         MOV     R3,#(`?<Constant "Status: FORWARD">` >> 8) & 0xff
   \   000304   8004         SJMP    ??Smart_home_Display_35
   1278                    break;
   1279                  case 3:
   1280                    HalLcdWriteString( "Status: BACKWARD", HAL_LCD_LINE_2 );
   \                     ??Smart_home_Display_34:
   \   000306                ; Setup parameters for call to function HalLcdWriteString
   \   000306   7A..         MOV     R2,#`?<Constant "Status: BACKWARD">` & 0xff
   \   000308   7B..         MOV     R3,#(`?<Constant "Status: BACKWARD">` >> 8) & 0xff
   1281                    break;
   1282                  }
   1283                  
   1284                  HalLcdWriteStringValue( "Speed:", motor.data[0], 10, HAL_LCD_LINE_3 );
   1285                
   1286                }
   1287            }
   \                     ??Smart_home_Display_35:
   \   00030A   12....       LCALL   ?Subroutine22 & 0xFFFF
   \                     ??CrossCallReturnLabel_51:
   \   00030D   12....       LCALL   ?PUSH_XSTACK_I_ONE
   \   000310   790A         MOV     R1,#0xa
   \   000312   90....       MOV     DPTR,#motor + 1
   \   000315   E0           MOVX    A,@DPTR
   \   000316   FC           MOV     R4,A
   \   000317   7D00         MOV     R5,#0x0
   \   000319   7A..         MOV     R2,#`?<Constant "Speed:">` & 0xff
   \   00031B   7B..         MOV     R3,#(`?<Constant "Speed:">` >> 8) & 0xff
   \   00031D   12....       LCALL   ??HalLcdWriteStringValue?relay
   \   000320   7401         MOV     A,#0x1
   \   000322   12....       LCALL   ?DEALLOC_XSTACK8
   1288            
   1289          #endif // LCD_SUPPORTED  
   1290          }
   \                     ??Smart_home_Display_11:
   \   000325   02....       LJMP    ?Subroutine1 & 0xFFFF

   \                                 In  segment BANKED_CODE, align 1, keep-with-next
   \                     ?Subroutine22:
   \   000000   12....       LCALL   ??HalLcdWriteString?relay
   \   000003                ; Setup parameters for call to function HalLcdWriteStringValueValue
   \   000003                ; Setup parameters for call to function HalLcdWriteStringValue
   \   000003   75..03       MOV     ?V0 + 0,#0x3
   \   000006   78..         MOV     R0,#?V0 + 0
   \   000008   22           RET

   \                                 In  segment BANKED_CODE, align 1, keep-with-next
   \                     ?Subroutine21:
   \   000000   12....       LCALL   ??HalLcdWriteString?relay
   \   000003                ; Setup parameters for call to function HalLcdWriteString
   \   000003                ; Setup parameters for call to function HalLcdWriteString
   \   000003                ; Setup parameters for call to function HalLcdWriteString
   \   000003   7902         MOV     R1,#0x2
   \   000005   7A..         MOV     R2,#`?<Constant " ">` & 0xff
   \   000007   7B..         MOV     R3,#(`?<Constant " ">` >> 8) & 0xff
   \   000009   12....       LCALL   ??HalLcdWriteString?relay
   \   00000C                ; Setup parameters for call to function HalLcdWriteString
   \   00000C                ; Setup parameters for call to function HalLcdWriteString
   \   00000C                ; Setup parameters for call to function HalLcdWriteString
   \   00000C   7903         MOV     R1,#0x3
   \   00000E   7A..         MOV     R2,#`?<Constant " ">` & 0xff
   \   000010   7B..         MOV     R3,#(`?<Constant " ">` >> 8) & 0xff
   \   000012   12....       LCALL   ??HalLcdWriteString?relay
   \   000015   22           RET

   \                                 In  segment BANKED_CODE, align 1, keep-with-next
   \                     ?Subroutine13:
   \   000000   E0           MOVX    A,@DPTR
   \   000001   FA           MOV     R2,A
   \   000002   A3           INC     DPTR
   \   000003   E0           MOVX    A,@DPTR
   \   000004   FB           MOV     R3,A
   \   000005   12....       LCALL   ??osal_msg_deallocate?relay
   \   000008   22           RET

   \                                 In  segment BANKED_CODE, align 1, keep-with-next
   \                     ?Subroutine9:
   \   000000   F0           MOVX    @DPTR,A
   \   000001                ; Setup parameters for call to function HalLcdDisplayPercentBar
   \   000001                ; Setup parameters for call to function HalLcdDisplayPercentBar
   \   000001   F9           MOV     R1,A
   \   000002   7A..         MOV     R2,#`?<Constant "">` & 0xff
   \   000004   7B..         MOV     R3,#(`?<Constant "">` >> 8) & 0xff
   \   000006   12....       LCALL   ??HalLcdDisplayPercentBar?relay
   \   000009   22           RET

   \                                 In  segment XDATA_Z, align 1, keep-with-next
   \                     ??percent:
   \   000000                DS 1
   \   000001                REQUIRE __INIT_XDATA_Z

   \                                 In  segment XDATA_Z, align 1, keep-with-next
   \                     ??Light:
   \   000000                DS 2
   \   000002                REQUIRE __INIT_XDATA_Z

   \                                 In  segment XDATA_Z, align 1, keep-with-next
   \                     ??lightmp:
   \   000000                DS 1
   \   000001                REQUIRE __INIT_XDATA_Z

   \                                 In  segment XDATA_Z, align 1, keep-with-next
   \                     ??Data1:
   \   000000                DS 2
   \   000002                REQUIRE __INIT_XDATA_Z

   \                                 In  segment XDATA_Z, align 1, keep-with-next
   \                     ??Data2:
   \   000000                DS 2
   \   000002                REQUIRE __INIT_XDATA_Z

   \                                 In  segment XDATA_ID, align 1, keep-with-next
   \                     `?<Initializer for autoScrollEnable>`:
   \   000000   01           DB 1

   \                                 In  segment BANK_RELAYS, align 1
   \                     ??TransmitApp_Init?relay:
   \   000000   12....       LCALL   ?BDISPATCH
   \   000003   ......       DC24    TransmitApp_Init

   \                                 In  segment BANK_RELAYS, align 1
   \                     ??TransmitApp_ProcessEvent?relay:
   \   000000   12....       LCALL   ?BDISPATCH
   \   000003   ......       DC24    TransmitApp_ProcessEvent

   \                                 In  segment BANK_RELAYS, align 1
   \                     ??TransmitApp_ProcessZDOMsgs?relay:
   \   000000   12....       LCALL   ?BDISPATCH
   \   000003   ......       DC24    TransmitApp_ProcessZDOMsgs

   \                                 In  segment BANK_RELAYS, align 1
   \                     ??Smart_home_Motor_cmd?relay:
   \   000000   12....       LCALL   ?BDISPATCH
   \   000003   ......       DC24    Smart_home_Motor_cmd

   \                                 In  segment BANK_RELAYS, align 1
   \                     ??TransmitApp_HandleKeys?relay:
   \   000000   12....       LCALL   ?BDISPATCH
   \   000003   ......       DC24    TransmitApp_HandleKeys

   \                                 In  segment BANK_RELAYS, align 1
   \                     ??TransmitApp_MessageMSGCB?relay:
   \   000000   12....       LCALL   ?BDISPATCH
   \   000003   ......       DC24    TransmitApp_MessageMSGCB

   \                                 In  segment BANK_RELAYS, align 1
   \                     ??TransmitApp_DeviceNWKCheck?relay:
   \   000000   12....       LCALL   ?BDISPATCH
   \   000003   ......       DC24    TransmitApp_DeviceNWKCheck

   \                                 In  segment BANK_RELAYS, align 1
   \                     ??TransmitApp_SendToRelayMSG?relay:
   \   000000   12....       LCALL   ?BDISPATCH
   \   000003   ......       DC24    TransmitApp_SendToRelayMSG

   \                                 In  segment BANK_RELAYS, align 1
   \                     ??TransmitApp_SendToMotorMSG?relay:
   \   000000   12....       LCALL   ?BDISPATCH
   \   000003   ......       DC24    TransmitApp_SendToMotorMSG

   \                                 In  segment BANK_RELAYS, align 1
   \                     ??TransmitAPP_CallBack?relay:
   \   000000   12....       LCALL   ?BDISPATCH
   \   000003   ......       DC24    TransmitAPP_CallBack

   \                                 In  segment BANK_RELAYS, align 1
   \                     ??Smart_home_Display?relay:
   \   000000   12....       LCALL   ?BDISPATCH
   \   000003   ......       DC24    Smart_home_Display

   \                                 In  segment XDATA_ROM_C, align 1
   \                     `?<Constant "TransmitApp">`:
   \   000000   5472616E     DB "TransmitApp"
   \            736D6974
   \            41707000

   \                                 In  segment XDATA_ROM_C, align 1
   \                     `?<Constant "Motor max Speed">`:
   \   000000   4D6F746F     DB "Motor max Speed"
   \            72206D61
   \            78205370
   \            65656400

   \                                 In  segment XDATA_ROM_C, align 1
   \                     `?<Constant "Motor min Speed">`:
   \   000000   4D6F746F     DB "Motor min Speed"
   \            72206D69
   \            6E205370
   \            65656400

   \                                 In  segment XDATA_ROM_C, align 1
   \                     `?<Constant "Allow networking">`:
   \   000000   416C6C6F     DB "Allow networking"
   \            77206E65
   \            74776F72
   \            6B696E67
   \            00      

   \                                 In  segment XDATA_ROM_C, align 1
   \                     `?<Constant "Ban   networking">`:
   \   000000   42616E20     DB "Ban   networking"
   \            20206E65
   \            74776F72
   \            6B696E67
   \            00      

   \                                 In  segment XDATA_ROM_C, align 1
   \                     `?<Constant "      Menu      ">`:
   \   000000   20202020     DB "      Menu      "
   \            20204D65
   \            6E752020
   \            20202020
   \            00      

   \                                 In  segment XDATA_ROM_C, align 1
   \                     `?<Constant " ">`:
   \   000000   2000         DB " "

   \                                 In  segment XDATA_ROM_C, align 1
   \                     `?<Constant "Hum:">`:
   \   000000   48756D3A     DB "Hum:"
   \            00      

   \                                 In  segment XDATA_ROM_C, align 1
   \                     `?<Constant "% T_1:">`:
   \   000000   2520545F     DB "% T_1:"
   \            313A00  

   \                                 In  segment XDATA_ROM_C, align 1
   \                     `?<Constant "Hum:OFF T_1:OFF">`:
   \   000000   48756D3A     DB "Hum:OFF T_1:OFF"
   \            4F464620
   \            545F313A
   \            4F464600

   \                                 In  segment XDATA_ROM_C, align 1
   \                     `?<Constant "Sound: Voice">`:
   \   000000   536F756E     DB "Sound: Voice"
   \            643A2056
   \            6F696365
   \            00      

   \                                 In  segment XDATA_ROM_C, align 1
   \   000000   536F756E     DB "Sound: Vibration"
   \            643A2056
   \            69627261
   \            74696F6E
   \            00      

   \                                 In  segment XDATA_ROM_C, align 1
   \   000000   536F756E     DB "Sound: All"
   \            643A2041
   \            6C6C00  

   \                                 In  segment XDATA_ROM_C, align 1
   \                     `?<Constant "Sound: None">`:
   \   000000   536F756E     DB "Sound: None"
   \            643A204E
   \            6F6E6500

   \                                 In  segment XDATA_ROM_C, align 1
   \                     `?<Constant "Sound:OFFLINE">`:
   \   000000   536F756E     DB "Sound:OFFLINE"
   \            643A4F46
   \            464C494E
   \            4500    

   \                                 In  segment XDATA_ROM_C, align 1
   \                     `?<Constant "">`:
   \   000000   00           DB ""

   \                                 In  segment XDATA_ROM_C, align 1
   \                     `?<Constant "Temper_2:">`:
   \   000000   54656D70     DB "Temper_2:"
   \            65725F32
   \            3A00    

   \                                 In  segment XDATA_ROM_C, align 1
   \                     `?<Constant ".">`:
   \   000000   2E00         DB "."

   \                                 In  segment XDATA_ROM_C, align 1
   \                     `?<Constant "Light:">`:
   \   000000   4C696768     DB "Light:"
   \            743A00  

   \                                 In  segment XDATA_ROM_C, align 1
   \                     `?<Constant "Temper_2:OFF">`:
   \   000000   54656D70     DB "Temper_2:OFF"
   \            65725F32
   \            3A4F4646
   \            00      

   \                                 In  segment XDATA_ROM_C, align 1
   \                     `?<Constant "Light:OFF">`:
   \   000000   4C696768     DB "Light:OFF"
   \            743A4F46
   \            4600    

   \                                 In  segment XDATA_ROM_C, align 1
   \                     `?<Constant "MFOne-S50">`:
   \   000000   4D464F6E     DB "MFOne-S50"
   \            652D5335
   \            3000    

   \                                 In  segment XDATA_ROM_C, align 1
   \                     `?<Constant "MFOne-S70">`:
   \   000000   4D464F6E     DB "MFOne-S70"
   \            652D5337
   \            3000    

   \                                 In  segment XDATA_ROM_C, align 1
   \                     `?<Constant "MF-UltraLight">`:
   \   000000   4D462D55     DB "MF-UltraLight"
   \            6C747261
   \            4C696768
   \            7400    

   \                                 In  segment XDATA_ROM_C, align 1
   \                     `?<Constant "MF-Pro">`:
   \   000000   4D462D50     DB "MF-Pro"
   \            726F00  

   \                                 In  segment XDATA_ROM_C, align 1
   \                     `?<Constant "MF-DesFire">`:
   \   000000   4D462D44     DB "MF-DesFire"
   \            65734669
   \            726500  

   \                                 In  segment XDATA_ROM_C, align 1
   \                     `?<Constant "No Card">`:
   \   000000   4E6F2043     DB "No Card"
   \            61726400

   \                                 In  segment XDATA_ROM_C, align 1
   \                     `?<Constant "ID: ">`:
   \   000000   49443A20     DB "ID: "
   \            00      

   \                                 In  segment XDATA_ROM_C, align 1
   \                     `?<Constant "-">`:
   \   000000   2D00         DB "-"

   \                                 In  segment XDATA_ROM_C, align 1
   \                     `?<Constant "GasFlame: Flame">`:
   \   000000   47617346     DB "GasFlame: Flame"
   \            6C616D65
   \            3A20466C
   \            616D6500

   \                                 In  segment XDATA_ROM_C, align 1
   \   000000   47617346     DB "GasFlame: Gas"
   \            6C616D65
   \            3A204761
   \            7300    

   \                                 In  segment XDATA_ROM_C, align 1
   \   000000   47617346     DB "GasFlame: All"
   \            6C616D65
   \            3A20416C
   \            6C00    

   \                                 In  segment XDATA_ROM_C, align 1
   \                     `?<Constant "GasFlame: None">`:
   \   000000   47617346     DB "GasFlame: None"
   \            6C616D65
   \            3A204E6F
   \            6E6500  

   \                                 In  segment XDATA_ROM_C, align 1
   \                     `?<Constant "GasFlame: OFF">`:
   \   000000   47617346     DB "GasFlame: OFF"
   \            6C616D65
   \            3A204F46
   \            4600    

   \                                 In  segment XDATA_ROM_C, align 1
   \                     `?<Constant "Infrared: Human">`:
   \   000000   496E6672     DB "Infrared: Human"
   \            61726564
   \            3A204875
   \            6D616E00

   \                                 In  segment XDATA_ROM_C, align 1
   \                     `?<Constant "Infrared: NoHuman">`:
   \   000000   496E6672     DB "Infrared: NoHuman"
   \            61726564
   \            3A204E6F
   \            48756D61
   \            6E00    

   \                                 In  segment XDATA_ROM_C, align 1
   \                     `?<Constant "Infrared: OFF">`:
   \   000000   496E6672     DB "Infrared: OFF"
   \            61726564
   \            3A204F46
   \            4600    

   \                                 In  segment XDATA_ROM_C, align 1
   \                     `?<Constant "Relay Contrling">`:
   \   000000   52656C61     DB "Relay Contrling"
   \            7920436F
   \            6E74726C
   \            696E6700

   \                                 In  segment XDATA_ROM_C, align 1
   \                     `?<Constant "Relay Offline">`:
   \   000000   52656C61     DB "Relay Offline"
   \            79204F66
   \            666C696E
   \            6500    

   \                                 In  segment XDATA_ROM_C, align 1
   \                     `?<Constant "Relay Online">`:
   \   000000   52656C61     DB "Relay Online"
   \            79204F6E
   \            6C696E65
   \            00      

   \                                 In  segment XDATA_ROM_C, align 1
   \                     `?<Constant "K1:ON">`:
   \   000000   4B313A4F     DB "K1:ON"
   \            4E00    

   \                                 In  segment XDATA_ROM_C, align 1
   \                     `?<Constant "K1:OFF">`:
   \   000000   4B313A4F     DB "K1:OFF"
   \            464600  

   \                                 In  segment XDATA_ROM_C, align 1
   \                     `?<Constant "K2:ON">`:
   \   000000   4B323A4F     DB "K2:ON"
   \            4E00    

   \                                 In  segment XDATA_ROM_C, align 1
   \                     `?<Constant "K2:OFF">`:
   \   000000   4B323A4F     DB "K2:OFF"
   \            464600  

   \                                 In  segment XDATA_ROM_C, align 1
   \                     `?<Constant "Motor Contrling">`:
   \   000000   4D6F746F     DB "Motor Contrling"
   \            7220436F
   \            6E74726C
   \            696E6700

   \                                 In  segment XDATA_ROM_C, align 1
   \                     `?<Constant "Motor Offline">`:
   \   000000   4D6F746F     DB "Motor Offline"
   \            72204F66
   \            666C696E
   \            6500    

   \                                 In  segment XDATA_ROM_C, align 1
   \                     `?<Constant "Motor Online">`:
   \   000000   4D6F746F     DB "Motor Online"
   \            72204F6E
   \            6C696E65
   \            00      

   \                                 In  segment XDATA_ROM_C, align 1
   \                     `?<Constant "Status: STOP">`:
   \   000000   53746174     DB "Status: STOP"
   \            75733A20
   \            53544F50
   \            00      

   \                                 In  segment XDATA_ROM_C, align 1
   \                     `?<Constant "Status: FORWARD">`:
   \   000000   53746174     DB "Status: FORWARD"
   \            75733A20
   \            464F5257
   \            41524400

   \                                 In  segment XDATA_ROM_C, align 1
   \                     `?<Constant "Status: BACKWARD">`:
   \   000000   53746174     DB "Status: BACKWARD"
   \            75733A20
   \            4241434B
   \            57415244
   \            00      

   \                                 In  segment XDATA_ROM_C, align 1
   \                     `?<Constant "Speed:">`:
   \   000000   53706565     DB "Speed:"
   \            643A00  
   1291          

   Maximum stack usage in bytes:

     Function                       ISTACK PSTACK XSTACK
     --------                       ------ ------ ------
     Smart_home_Display                 0      0     28
       -> HalLcdWriteString             0      0     20
       -> HalLcdWriteString             0      0     20
       -> HalLcdWriteString             0      0     20
       -> HalLcdWriteStringValueValue
                                        0      0     32
       -> HalLcdWriteString             0      0     20
       -> HalLcdWriteString             0      0     20
       -> HalLcdWriteString             0      0     20
       -> HalLcdWriteString             0      0     20
       -> HalLcdDisplayPercentBar       0      0     20
       -> memcpy                        0      0     24
       -> HalLcdWriteStringValueValue
                                        0      0     32
       -> HalLcdWriteStringValue        0      0     22
       -> osal_msg_deallocate           0      0     20
       -> HalLcdWriteString             0      0     20
       -> HalLcdWriteString             0      0     20
       -> HalLcdDisplayPercentBar       0      0     20
       -> HalLcdWriteString             0      0     20
       -> HalLcdWriteString             0      0     20
       -> HalLcdWriteString             0      0     20
       -> HalLcdWriteString             0      0     20
       -> HalLcdWriteString             0      0     20
       -> HalLcdWriteString             0      0     20
       -> HalLcdWriteStringValueValue
                                        0      0     32
       -> HalLcdDisplayPercentBar       0      0     20
       -> osal_msg_deallocate           0      0     20
       -> osal_msg_deallocate           0      0     20
       -> HalLcdWriteString             0      0     20
       -> HalLcdWriteString             0      0     20
       -> HalLcdWriteString             0      0     20
       -> HalLcdWriteString             0      0     20
       -> HalLcdWriteString             0      0     20
       -> HalLcdWriteString             0      0     20
       -> HalLcdDisplayPercentBar       0      0     20
       -> HalLcdWriteString             0      0     20
       -> HalLcdWriteString             0      0     20
       -> HalLcdWriteString             0      0     20
       -> HalLcdWriteString             0      0     20
       -> HalLcdWriteString             0      0     20
       -> HalLcdWriteString             0      0     20
       -> HalLcdWriteString             0      0     20
       -> HalLcdWriteString             0      0     20
       -> HalLcdWriteString             0      0     20
       -> HalLcdWriteString             0      0     20
       -> HalLcdWriteString             0      0     20
       -> HalLcdWriteString             0      0     20
       -> HalLcdWriteString             0      0     20
       -> HalLcdWriteString             0      0     20
       -> HalLcdWriteString             0      0     20
       -> HalLcdWriteString             0      0     20
       -> HalLcdWriteString             0      0     20
       -> HalLcdWriteStringValue        0      0     22
     Smart_home_Motor_cmd               0      0     18
       -> TransmitApp_SendToMotorMSG
                                        0      0     18
     TransmitAPP_CallBack               0      0      0
     TransmitApp_DeviceNWKCheck         2      0     12
     TransmitApp_HandleKeys             0      0     21
       -> TransmitApp_SendToRelayMSG
                                        0      0     18
       -> HalLcdWriteString             0      0     18
       -> Smart_home_Motor_cmd          0      0     18
       -> TransmitApp_SendToRelayMSG
                                        0      0     18
       -> HalLcdWriteString             0      0     18
       -> Smart_home_Motor_cmd          0      0     18
       -> NLME_PermitJoiningRequest     0      0     18
       -> HalLcdWriteString             0      0     18
       -> NLME_PermitJoiningRequest     0      0     18
       -> HalLcdWriteString             0      0     18
     TransmitApp_Init                   0      0     40
       -> HalUARTOpen                   0      0     80
       -> afRegister                    0      0     80
       -> RegisterForKeys               0      0     80
       -> HalLcdWriteString             0      0     80
       -> afDataReqMTU                  0      0     80
       -> ZDO_RegisterForZDOMsg         0      0     80
       -> ZDO_RegisterForZDOMsg         0      0     80
       -> osal_start_timerEx            0      0     80
       -> osal_start_timerEx            0      0     80
       -> NLME_PermitJoiningRequest     0      0     80
       -> HalLedSet                     0      0     80
     TransmitApp_MessageMSGCB           0      0     22
     TransmitApp_ProcessEvent           0      0     12
       -> osal_msg_receive              0      0     24
       -> TransmitApp_MessageMSGCB      0      0     24
       -> osal_msg_deallocate           0      0     24
       -> osal_msg_receive              0      0     24
       -> TransmitApp_HandleKeys        0      0     24
       -> TransmitApp_DeviceNWKCheck
                                        0      0     24
       -> osal_start_timerEx            0      0     24
       -> Smart_home_Display            0      0     24
       -> osal_start_timerEx            0      0     24
     TransmitApp_ProcessZDOMsgs         0      0      0
     TransmitApp_SendToMotorMSG         0      0     28
       -> AF_DataRequest                0      0     38
     TransmitApp_SendToRelayMSG         0      0     28
       -> AF_DataRequest                0      0     38


   Segment part sizes:

     Function/Label                      Bytes
     --------------                      -----
     TransmitApp_Msg                      102
     TransmitApp_InClusterList             16
     TransmitApp_OutClusterList             6
     TransmitApp_SimpleDesc                12
     TransmitApp_epDesc                     6
     Ctrlcase                               1
     LCD_Page                               1
     Humit                                  6
     TempLight                              6
     RfID                                   6
     gasFlame                               6
     infrared                               6
     motor                                  6
     relay                                  6
     soundVb                                6
     TransmitApp_TaskID                     1
     TransmitApp_RelayTransID               1
     TransmitApp_MotorTransID               1
     TransmitApp_DstAddr                   12
     TransmitApp_DstRelayAddr              12
     TransmitApp_DstMotorAddr              12
     TransmitApp_MaxDataLength              2
     scrollLine                             1
     autoScrollEnable                       1
     TransmitApp_Init                     314
     ?Subroutine0                           5
     ?Subroutine14                          2
     ??Subroutine29_0                      11
     ?Subroutine11                          2
     ??Subroutine31_0                       5
     TransmitApp_ProcessEvent             186
     TransmitApp_ProcessZDOMsgs             3
     Smart_home_Motor_cmd                  56
     TransmitApp_HandleKeys               297
     ?Subroutine19                         10
     ?Subroutine18                         10
     ?Subroutine17                         10
     ?Subroutine15                         10
     ?Subroutine12                         10
     MotorSpeed                             1
     NetWorkAllow                           1
     Relay1_on                              1
     Relay2_on                              1
     TransmitApp_MessageMSGCB             237
     ?Subroutine8                          18
     ?Subroutine7                           7
     ?Subroutine6                           5
     ?Subroutine5                           5
     ?Subroutine23                          7
     ?Subroutine4                           6
     ?Subroutine24                         10
     ?Subroutine3                          18
     ?Subroutine28                         13
     ?Subroutine2                          16
     ?Subroutine25                          4
     ?Subroutine27                         17
     ?Subroutine1                           5
     TransmitApp_DeviceNWKCheck           396
     ?Subroutine16                          5
     humitCnt                               1
     tempLightCnt                           1
     rfIDCnt                                1
     gasFlameCnt                            1
     infraredCnt                            1
     motorCnt                               1
     relayStatusCnt                         1
     soundVbCnt                             1
     TransmitApp_SendToRelayMSG           122
     ?Subroutine26                          1
     ??Subroutine30_0                       7
     ?Subroutine20                          6
     ?Subroutine10                         10
     TransmitApp_SendToMotorMSG           124
     TransmitAPP_CallBack                   3
     Smart_home_Display                   808
     ?Subroutine22                          9
     ?Subroutine21                         22
     ?Subroutine13                          9
     ?Subroutine9                          10
     percent                                1
     Light                                  2
     lightmp                                1
     Data1                                  2
     Data2                                  2
     ?<Initializer for autoScrollEnable>    1
     ??TransmitApp_Init?relay               6
     ??TransmitApp_ProcessEvent?relay       6
     ??TransmitApp_ProcessZDOMsgs?relay     6
     ??Smart_home_Motor_cmd?relay           6
     ??TransmitApp_HandleKeys?relay         6
     ??TransmitApp_MessageMSGCB?relay       6
     ??TransmitApp_DeviceNWKCheck?relay     6
     ??TransmitApp_SendToRelayMSG?relay     6
     ??TransmitApp_SendToMotorMSG?relay     6
     ??TransmitAPP_CallBack?relay           6
     ??Smart_home_Display?relay             6
     ?<Constant "TransmitApp">             12
     ?<Constant "Motor max Speed">         16
     ?<Constant "Motor min Speed">         16
     ?<Constant "Allow networking">        17
     ?<Constant "Ban   networking">        17
     ?<Constant "      Menu      ">        17
     ?<Constant " ">                        2
     ?<Constant "Hum:">                     5
     ?<Constant "% T_1:">                   7
     ?<Constant "Hum:OFF T_1:OFF">         16
     ?<Constant "Sound: Voice">            13
     ?<Constant "Sound: Vibration">        17
     ?<Constant "Sound: All">              11
     ?<Constant "Sound: None">             12
     ?<Constant "Sound:OFFLINE">           14
     ?<Constant "">                         1
     ?<Constant "Temper_2:">               10
     ?<Constant ".">                        2
     ?<Constant "Light:">                   7
     ?<Constant "Temper_2:OFF">            13
     ?<Constant "Light:OFF">               10
     ?<Constant "MFOne-S50">               10
     ?<Constant "MFOne-S70">               10
     ?<Constant "MF-UltraLight">           14
     ?<Constant "MF-Pro">                   7
     ?<Constant "MF-DesFire">              11
     ?<Constant "No Card">                  8
     ?<Constant "ID: ">                     5
     ?<Constant "-">                        2
     ?<Constant "GasFlame: Flame">         16
     ?<Constant "GasFlame: Gas">           14
     ?<Constant "GasFlame: All">           14
     ?<Constant "GasFlame: None">          15
     ?<Constant "GasFlame: OFF">           14
     ?<Constant "Infrared: Human">         16
     ?<Constant "Infrared: NoHuman">       18
     ?<Constant "Infrared: OFF">           14
     ?<Constant "Relay Contrling">         16
     ?<Constant "Relay Offline">           14
     ?<Constant "Relay Online">            13
     ?<Constant "K1:ON">                    6
     ?<Constant "K1:OFF">                   7
     ?<Constant "K2:ON">                    6
     ?<Constant "K2:OFF">                   7
     ?<Constant "Motor Contrling">         16
     ?<Constant "Motor Offline">           14
     ?<Constant "Motor Online">            13
     ?<Constant "Status: STOP">            13
     ?<Constant "Status: FORWARD">         16
     ?<Constant "Status: BACKWARD">        17
     ?<Constant "Speed:">                   7

 
 2 831 bytes in segment BANKED_CODE
    66 bytes in segment BANK_RELAYS
     1 byte  in segment XDATA_I
     1 byte  in segment XDATA_ID
   622 bytes in segment XDATA_ROM_C
   220 bytes in segment XDATA_Z
 
 2 898 bytes of CODE  memory
   622 bytes of CONST memory
   221 bytes of XDATA memory

Errors: none
Warnings: 1
