///////////////////////////////////////////////////////////////////////////////
//                                                                            /
// IAR C/C++ Compiler V8.10.1.10194/W32 for 8051        24/Mar/2021  16:13:19 /
// Copyright 2004-2011 IAR Systems AB.                                        /
//                                                                            /
//    Core               =  plain                                             /
//    Code model         =  banked                                            /
//    Data model         =  large                                             /
//    Calling convention =  xdata reentrant                                   /
//    Constant location  =  data_rom                                          /
//    Dptr setup         =  1,16                                              /
//    Source file        =  D:\毕设\CC2530-smart_home\Components\hal\target\C /
//                          C2530MB\hal_key.c                                 /
//    Command line       =  -f D:\毕设\CC2530-smart_home\Projects\zstack\Util /
//                          ities\Smart_home\CC2530DB\..\..\..\Tools\CC2530DB /
//                          \f8wCoord.cfg (-DCPU32MHZ -DROOT=__near_func      /
//                          -DMAC_CFG_APP_PENDING_QUEUE=TRUE                  /
//                          -DMAC_CFG_TX_DATA_MAX=5 -DMAC_CFG_TX_MAX=8        /
//                          -DMAC_CFG_RX_MAX=5 -DZDO_COORDINATOR -DRTR_NWK)   /
//                          -f D:\毕设\CC2530-smart_home\Projects\zstack\Util /
//                          ities\Smart_home\CC2530DB\..\..\..\Tools\CC2530DB /
//                          \f8wConfig.cfg (-DZIGBEEPRO -DSECURE=0            /
//                          -DZG_SECURE_DYNAMIC=0 -DREFLECTOR                 /
//                          -DDEFAULT_CHANLIST=0x02000000                     /
//                          -DZDAPP_CONFIG_PAN_ID=0x1001                      /
//                          -DNWK_START_DELAY=100 -DEXTENDED_JOINING_RANDOM_M /
//                          ASK=0x007F -DBEACON_REQUEST_DELAY=100             /
//                          -DBEACON_REQ_DELAY_MASK=0x00FF                    /
//                          -DLINK_STATUS_JITTER_MASK=0x007F                  /
//                          -DROUTE_EXPIRY_TIME=30 -DAPSC_ACK_WAIT_DURATION_P /
//                          OLLED=3000 -DNWK_INDIRECT_MSG_TIMEOUT=7           /
//                          -DMAX_RREQ_ENTRIES=8 -DAPSC_MAX_FRAME_RETRIES=3   /
//                          -DNWK_MAX_DATA_RETRIES=2                          /
//                          -DMAX_POLL_FAILURE_RETRIES=2 -DMAX_BCAST=9        /
//                          -DAPS_MAX_GROUPS=16 -DMAX_RTG_ENTRIES=40          /
//                          -DNWK_MAX_BINDING_ENTRIES=4                       /
//                          -DMAX_BINDING_CLUSTER_IDS=4                       /
//                          "-DDEFAULT_KEY={0x01, 0x03, 0x05, 0x07, 0x09,     /
//                          0x0B, 0x0D, 0x0F, 0x00, 0x02, 0x04, 0x06, 0x08,   /
//                          0x0A, 0x0C, 0x0D}" -DMAC_MAX_FRAME_SIZE=116       /
//                          -DZDNWKMGR_MIN_TRANSMISSIONS=20 "-DCONST=const    /
//                          __code" -DGENERIC=__generic                       /
//                          -DRFD_RCVC_ALWAYS_ON=FALSE -DPOLL_RATE=1000       /
//                          -DQUEUED_POLL_RATE=100 -DRESPONSE_POLL_RATE=100)  /
//                          -DREJOIN_POLL_RATE=440 D:\毕设\CC2530-smart_home\ /
//                          Components\hal\target\CC2530MB\hal_key.c -D       /
//                          LCD_SUPPORTED -D ZDO_COORDINATOR -D xNV_RESTORE   /
//                          -D xNV_INIT -D xREFLECTOR -D xHAL_UART=TRUE -D    /
//                          xHAL_UART_TEST -lC D:\毕设\CC2530-smart_home\Proj /
//                          ects\zstack\Utilities\Smart_home\CC2530DB\Coordin /
//                          atorMB\List\ -lA D:\毕设\CC2530-smart_home\Projec /
//                          ts\zstack\Utilities\Smart_home\CC2530DB\Coordinat /
//                          orMB\List\ --diag_suppress Pe001,Pa010 -o         /
//                          D:\毕设\CC2530-smart_home\Projects\zstack\Utiliti /
//                          es\Smart_home\CC2530DB\CoordinatorMB\Obj\ -e      /
//                          --no_code_motion --debug --core=plain             /
//                          --dptr=16,1 --data_model=large                    /
//                          --code_model=banked --calling_convention=xdata_re /
//                          entrant --place_constants=data_rom                /
//                          --nr_virtual_regs 16 -I                           /
//                          D:\毕设\CC2530-smart_home\Projects\zstack\Utiliti /
//                          es\Smart_home\CC2530DB\ -I                        /
//                          D:\毕设\CC2530-smart_home\Projects\zstack\Utiliti /
//                          es\Smart_home\CC2530DB\..\Source\ -I              /
//                          D:\毕设\CC2530-smart_home\Projects\zstack\Utiliti /
//                          es\Smart_home\CC2530DB\..\..\..\ZMain\TI2530DB\   /
//                          -I D:\毕设\CC2530-smart_home\Projects\zstack\Util /
//                          ities\Smart_home\CC2530DB\..\..\..\..\..\Componen /
//                          ts\hal\include\ -I D:\毕设\CC2530-smart_home\Proj /
//                          ects\zstack\Utilities\Smart_home\CC2530DB\..\..\. /
//                          .\..\..\Components\hal\target\CC2530MB\ -I        /
//                          D:\毕设\CC2530-smart_home\Projects\zstack\Utiliti /
//                          es\Smart_home\CC2530DB\..\..\..\..\..\Components\ /
//                          mac\include\ -I D:\毕设\CC2530-smart_home\Project /
//                          s\zstack\Utilities\Smart_home\CC2530DB\..\..\..\. /
//                          .\..\Components\mac\high_level\ -I                /
//                          D:\毕设\CC2530-smart_home\Projects\zstack\Utiliti /
//                          es\Smart_home\CC2530DB\..\..\..\..\..\Components\ /
//                          mac\low_level\srf04\ -I                           /
//                          D:\毕设\CC2530-smart_home\Projects\zstack\Utiliti /
//                          es\Smart_home\CC2530DB\..\..\..\..\..\Components\ /
//                          mac\low_level\srf04\single_chip\ -I               /
//                          D:\毕设\CC2530-smart_home\Projects\zstack\Utiliti /
//                          es\Smart_home\CC2530DB\..\..\..\..\..\Components\ /
//                          mt\ -I D:\毕设\CC2530-smart_home\Projects\zstack\ /
//                          Utilities\Smart_home\CC2530DB\..\..\..\..\..\Comp /
//                          onents\osal\include\ -I                           /
//                          D:\毕设\CC2530-smart_home\Projects\zstack\Utiliti /
//                          es\Smart_home\CC2530DB\..\..\..\..\..\Components\ /
//                          services\saddr\ -I D:\毕设\CC2530-smart_home\Proj /
//                          ects\zstack\Utilities\Smart_home\CC2530DB\..\..\. /
//                          .\..\..\Components\services\sdata\ -I             /
//                          D:\毕设\CC2530-smart_home\Projects\zstack\Utiliti /
//                          es\Smart_home\CC2530DB\..\..\..\..\..\Components\ /
//                          stack\af\ -I D:\毕设\CC2530-smart_home\Projects\z /
//                          stack\Utilities\Smart_home\CC2530DB\..\..\..\..\. /
//                          .\Components\stack\nwk\ -I                        /
//                          D:\毕设\CC2530-smart_home\Projects\zstack\Utiliti /
//                          es\Smart_home\CC2530DB\..\..\..\..\..\Components\ /
//                          stack\sapi\ -I D:\毕设\CC2530-smart_home\Projects /
//                          \zstack\Utilities\Smart_home\CC2530DB\..\..\..\.. /
//                          \..\Components\stack\sec\ -I                      /
//                          D:\毕设\CC2530-smart_home\Projects\zstack\Utiliti /
//                          es\Smart_home\CC2530DB\..\..\..\..\..\Components\ /
//                          stack\sys\ -I D:\毕设\CC2530-smart_home\Projects\ /
//                          zstack\Utilities\Smart_home\CC2530DB\..\..\..\..\ /
//                          ..\Components\stack\zdo\ -I                       /
//                          D:\毕设\CC2530-smart_home\Projects\zstack\Utiliti /
//                          es\Smart_home\CC2530DB\..\..\..\..\..\Components\ /
//                          zmac\ -I D:\毕设\CC2530-smart_home\Projects\zstac /
//                          k\Utilities\Smart_home\CC2530DB\..\..\..\..\..\Co /
//                          mponents\zmac\f8w\ -Ohz                           /
//    List file          =  D:\毕设\CC2530-smart_home\Projects\zstack\Utiliti /
//                          es\Smart_home\CC2530DB\CoordinatorMB\List\hal_key /
//                          .s51                                              /
//                                                                            /
//                                                                            /
///////////////////////////////////////////////////////////////////////////////

        NAME hal_key

        RTMODEL "__SystemLibrary", "CLib"
        RTMODEL "__calling_convention", "xdata_reentrant"
        RTMODEL "__code_model", "banked"
        RTMODEL "__core", "plain"
        RTMODEL "__data_model", "large"
        RTMODEL "__dptr_size", "16"
        RTMODEL "__extended_stack", "disabled"
        RTMODEL "__location_for_constants", "data"
        RTMODEL "__number_of_dptrs", "1"
        RTMODEL "__rt_version", "1"

        RSEG DOVERLAY:DATA:NOROOT(0)
        RSEG IOVERLAY:IDATA:NOROOT(0)
        RSEG ISTACK:IDATA:NOROOT(0)
        RSEG PSTACK:XDATA:NOROOT(0)
        RSEG XSTACK:XDATA:NOROOT(0)

        EXTERN ?BANKED_ENTER_XDATA
        EXTERN ?BANKED_LEAVE_XDATA
        EXTERN ?BDISPATCH
        EXTERN ?BRET
        EXTERN ?CALL_IND
        EXTERN ?INTERRUPT_ENTER_XSP
        EXTERN ?INTERRUPT_LEAVE_XSP
        EXTERN __INIT_XDATA_Z

        PUBLIC ??HalKeyConfig?relay
        FUNCTION ??HalKeyConfig?relay,0203H
        PUBLIC ??HalKeyEnterSleep?relay
        FUNCTION ??HalKeyEnterSleep?relay,0203H
        PUBLIC ??HalKeyExitSleep?relay
        FUNCTION ??HalKeyExitSleep?relay,0203H
        PUBLIC ??HalKeyInit?relay
        FUNCTION ??HalKeyInit?relay,0203H
        PUBLIC ??HalKeyPoll?relay
        FUNCTION ??HalKeyPoll?relay,0203H
        PUBLIC ??HalKeyRead?relay
        FUNCTION ??HalKeyRead?relay,0203H
        PUBLIC ??halGetJoyKeyInput?relay
        FUNCTION ??halGetJoyKeyInput?relay,0203H
        PUBWEAK `??halKeyPort0Isr??INTVEC 107`
        PUBWEAK `??halKeyPort1Isr??INTVEC 123`
        PUBLIC ??halProcessKeyInterrupt?relay
        FUNCTION ??halProcessKeyInterrupt?relay,0203H
        PUBLIC HalKeyConfig
        FUNCTION HalKeyConfig,021203H
        ARGFRAME XSTACK, 0, STACK
        LOCFRAME XSTACK, 9, STACK
        PUBLIC HalKeyEnterSleep
        FUNCTION HalKeyEnterSleep,0203H
        ARGFRAME XSTACK, 0, STACK
        PUBLIC HalKeyExitSleep
        FUNCTION HalKeyExitSleep,021203H
        ARGFRAME XSTACK, 0, STACK
        LOCFRAME ISTACK, 2, STACK
        PUBLIC HalKeyInit
        FUNCTION HalKeyInit,0203H
        ARGFRAME XSTACK, 0, STACK
        LOCFRAME ISTACK, 2, STACK
        PUBLIC HalKeyPoll
        FUNCTION HalKeyPoll,021203H
        ARGFRAME XSTACK, 0, STACK
        LOCFRAME ISTACK, 2, STACK
        PUBLIC HalKeyRead
        FUNCTION HalKeyRead,021203H
        ARGFRAME XSTACK, 0, STACK
        ARGFRAME IOVERLAY, 0, STATIC
        ARGFRAME DOVERLAY, 0, STATIC
        LOCFRAME XSTACK, 9, STACK
        PUBLIC Hal_KeyIntEnable
        PUBWEAK IEN2
        PUBWEAK P0DIR
        PUBWEAK P0IFG
        PUBWEAK P0SEL
        PUBWEAK P1DIR
        PUBWEAK P1IEN
        PUBWEAK P1IFG
        PUBWEAK P1SEL
        PUBWEAK PICTL
        PUBWEAK _A_IEN0
        PUBWEAK _A_IRCON
        PUBWEAK _A_IRCON2
        PUBWEAK _A_P1
        PUBLIC halGetJoyKeyInput
        FUNCTION halGetJoyKeyInput,021203H
        ARGFRAME XSTACK, 9, STACK
        ARGFRAME IOVERLAY, 0, STATIC
        ARGFRAME DOVERLAY, 0, STATIC
        LOCFRAME XSTACK, 9, STACK
        PUBLIC halKeyPort0Isr
        FUNCTION halKeyPort0Isr,021233H
        ARGFRAME XSTACK, 0, STACK
        LOCFRAME ISTACK, 15, STACK
        PUBLIC halKeyPort1Isr
        FUNCTION halKeyPort1Isr,021233H
        ARGFRAME XSTACK, 0, STACK
        LOCFRAME ISTACK, 15, STACK
        PUBLIC halProcessKeyInterrupt
        FUNCTION halProcessKeyInterrupt,021203H
        ARGFRAME XSTACK, 0, STACK
        ARGFRAME IOVERLAY, 0, STATIC
        ARGFRAME DOVERLAY, 0, STATIC
        LOCFRAME ISTACK, 2, STACK
        
        CFI Names cfiNames0
        CFI StackFrame CFA_SP SP IDATA
        CFI StackFrame CFA_PSP16 PSP16 XDATA
        CFI StackFrame CFA_XSP16 XSP16 XDATA
        CFI StaticOverlayFrame CFA_IOVERLAY IOVERLAY
        CFI StaticOverlayFrame CFA_DOVERLAY DOVERLAY
        CFI Resource `PSW.CY`:1, `B.BR0`:1, `B.BR1`:1, `B.BR2`:1, `B.BR3`:1
        CFI Resource `B.BR4`:1, `B.BR5`:1, `B.BR6`:1, `B.BR7`:1, `VB.BR8`:1
        CFI Resource `VB.BR9`:1, `VB.BR10`:1, `VB.BR11`:1, `VB.BR12`:1
        CFI Resource `VB.BR13`:1, `VB.BR14`:1, `VB.BR15`:1, VB:8, B:8, A:8
        CFI Resource PSW:8, DPL0:8, DPH0:8, R0:8, R1:8, R2:8, R3:8, R4:8, R5:8
        CFI Resource R6:8, R7:8, V0:8, V1:8, V2:8, V3:8, V4:8, V5:8, V6:8, V7:8
        CFI Resource V8:8, V9:8, V10:8, V11:8, V12:8, V13:8, V14:8, V15:8, SP:8
        CFI Resource PSPH:8, PSPL:8, PSP16:16, XSPH:8, XSPL:8, XSP16:16
        CFI VirtualResource ?RET:24
        CFI Resource ?BRET_EXT:8
        CFI VirtualResource ?RET_HIGH:8, ?RET_LOW:8
        CFI ResourceParts PSP16 PSPH, PSPL
        CFI ResourceParts XSP16 XSPH, XSPL
        CFI ResourceParts ?RET ?BRET_EXT, ?RET_HIGH, ?RET_LOW
        CFI EndNames cfiNames0
        
        CFI Common cfiCommon0 Using cfiNames0
        CFI CodeAlign 1
        CFI DataAlign -1
        CFI ReturnAddress ?RET CODE
        CFI CFA_DOVERLAY Used
        CFI CFA_IOVERLAY Used
        CFI CFA_SP SP+-3
        CFI CFA_PSP16 PSP16+0
        CFI CFA_XSP16 XSP16+0
        CFI `PSW.CY` SameValue
        CFI `B.BR0` SameValue
        CFI `B.BR1` SameValue
        CFI `B.BR2` SameValue
        CFI `B.BR3` SameValue
        CFI `B.BR4` SameValue
        CFI `B.BR5` SameValue
        CFI `B.BR6` SameValue
        CFI `B.BR7` SameValue
        CFI `VB.BR8` SameValue
        CFI `VB.BR9` SameValue
        CFI `VB.BR10` SameValue
        CFI `VB.BR11` SameValue
        CFI `VB.BR12` SameValue
        CFI `VB.BR13` SameValue
        CFI `VB.BR14` SameValue
        CFI `VB.BR15` SameValue
        CFI VB SameValue
        CFI B Undefined
        CFI A Undefined
        CFI PSW SameValue
        CFI DPL0 SameValue
        CFI DPH0 SameValue
        CFI R0 Undefined
        CFI R1 Undefined
        CFI R2 Undefined
        CFI R3 Undefined
        CFI R4 Undefined
        CFI R5 Undefined
        CFI R6 SameValue
        CFI R7 SameValue
        CFI V0 SameValue
        CFI V1 SameValue
        CFI V2 SameValue
        CFI V3 SameValue
        CFI V4 SameValue
        CFI V5 SameValue
        CFI V6 SameValue
        CFI V7 SameValue
        CFI V8 SameValue
        CFI V9 SameValue
        CFI V10 SameValue
        CFI V11 SameValue
        CFI V12 SameValue
        CFI V13 SameValue
        CFI V14 SameValue
        CFI V15 SameValue
        CFI PSPH Undefined
        CFI PSPL Undefined
        CFI XSPH Undefined
        CFI XSPL Undefined
        CFI ?RET Concat
        CFI ?BRET_EXT Frame(CFA_SP, 3)
        CFI ?RET_HIGH Frame(CFA_SP, 2)
        CFI ?RET_LOW Frame(CFA_SP, 1)
        CFI EndCommon cfiCommon0
        
        
        CFI Common cfiCommon1 Using cfiNames0
        CFI CodeAlign 1
        CFI DataAlign -1
        CFI ReturnAddress ?RET CODE
        CFI CFA_DOVERLAY Used
        CFI CFA_IOVERLAY Used
        CFI CFA_SP SP+-2
        CFI CFA_PSP16 PSP16+0
        CFI CFA_XSP16 XSP16+0
        CFI `PSW.CY` SameValue
        CFI `B.BR0` SameValue
        CFI `B.BR1` SameValue
        CFI `B.BR2` SameValue
        CFI `B.BR3` SameValue
        CFI `B.BR4` SameValue
        CFI `B.BR5` SameValue
        CFI `B.BR6` SameValue
        CFI `B.BR7` SameValue
        CFI `VB.BR8` SameValue
        CFI `VB.BR9` SameValue
        CFI `VB.BR10` SameValue
        CFI `VB.BR11` SameValue
        CFI `VB.BR12` SameValue
        CFI `VB.BR13` SameValue
        CFI `VB.BR14` SameValue
        CFI `VB.BR15` SameValue
        CFI VB SameValue
        CFI B SameValue
        CFI A SameValue
        CFI PSW SameValue
        CFI DPL0 SameValue
        CFI DPH0 SameValue
        CFI R0 SameValue
        CFI R1 SameValue
        CFI R2 SameValue
        CFI R3 SameValue
        CFI R4 SameValue
        CFI R5 SameValue
        CFI R6 SameValue
        CFI R7 SameValue
        CFI V0 SameValue
        CFI V1 SameValue
        CFI V2 SameValue
        CFI V3 SameValue
        CFI V4 SameValue
        CFI V5 SameValue
        CFI V6 SameValue
        CFI V7 SameValue
        CFI V8 SameValue
        CFI V9 SameValue
        CFI V10 SameValue
        CFI V11 SameValue
        CFI V12 SameValue
        CFI V13 SameValue
        CFI V14 SameValue
        CFI V15 SameValue
        CFI PSPH Undefined
        CFI PSPL Undefined
        CFI XSPH Undefined
        CFI XSPL Undefined
        CFI ?RET Concat
        CFI ?BRET_EXT SameValue
        CFI ?RET_HIGH Frame(CFA_SP, 2)
        CFI ?RET_LOW Frame(CFA_SP, 1)
        CFI EndCommon cfiCommon1
        
osal_stop_timerEx   SYMBOL "osal_stop_timerEx"
osal_set_event      SYMBOL "osal_set_event"
HalAdcRead          SYMBOL "HalAdcRead"
osal_start_timerEx  SYMBOL "osal_start_timerEx"
??HalAdcRead?relay  SYMBOL "?relay", HalAdcRead
??osal_set_event?relay SYMBOL "?relay", osal_set_event
??osal_start_timerEx?relay SYMBOL "?relay", osal_start_timerEx
??osal_stop_timerEx?relay SYMBOL "?relay", osal_stop_timerEx
HalKeyConfig        SYMBOL "HalKeyConfig"
??HalKeyConfig?relay SYMBOL "?relay", HalKeyConfig
HalKeyEnterSleep    SYMBOL "HalKeyEnterSleep"
??HalKeyEnterSleep?relay SYMBOL "?relay", HalKeyEnterSleep
HalKeyExitSleep     SYMBOL "HalKeyExitSleep"
??HalKeyExitSleep?relay SYMBOL "?relay", HalKeyExitSleep
HalKeyInit          SYMBOL "HalKeyInit"
??HalKeyInit?relay  SYMBOL "?relay", HalKeyInit
HalKeyPoll          SYMBOL "HalKeyPoll"
??HalKeyPoll?relay  SYMBOL "?relay", HalKeyPoll
HalKeyRead          SYMBOL "HalKeyRead"
??HalKeyRead?relay  SYMBOL "?relay", HalKeyRead
halGetJoyKeyInput   SYMBOL "halGetJoyKeyInput"
??halGetJoyKeyInput?relay SYMBOL "?relay", halGetJoyKeyInput
halKeyPort0Isr      SYMBOL "halKeyPort0Isr"
`??halKeyPort0Isr??INTVEC 107` SYMBOL "??INTVEC 107", halKeyPort0Isr
halKeyPort1Isr      SYMBOL "halKeyPort1Isr"
`??halKeyPort1Isr??INTVEC 123` SYMBOL "??INTVEC 123", halKeyPort1Isr
halProcessKeyInterrupt SYMBOL "halProcessKeyInterrupt"
??halProcessKeyInterrupt?relay SYMBOL "?relay", halProcessKeyInterrupt

        EXTERN osal_stop_timerEx
        FUNCTION osal_stop_timerEx,0202H
        ARGFRAME ISTACK, 0, STACK
        ARGFRAME PSTACK, 0, STACK
        ARGFRAME XSTACK, 9, STACK
        ARGFRAME IOVERLAY, 0, STATIC
        ARGFRAME DOVERLAY, 0, STATIC
        EXTERN osal_set_event
        FUNCTION osal_set_event,0202H
        ARGFRAME ISTACK, 0, STACK
        ARGFRAME PSTACK, 0, STACK
        ARGFRAME XSTACK, 9, STACK
        ARGFRAME IOVERLAY, 0, STATIC
        ARGFRAME DOVERLAY, 0, STATIC
        EXTERN HalAdcRead
        FUNCTION HalAdcRead,0202H
        ARGFRAME ISTACK, 0, STACK
        ARGFRAME PSTACK, 0, STACK
        ARGFRAME XSTACK, 9, STACK
        ARGFRAME IOVERLAY, 0, STATIC
        ARGFRAME DOVERLAY, 0, STATIC
        EXTERN osal_start_timerEx
        FUNCTION osal_start_timerEx,0202H
        ARGFRAME ISTACK, 2, STACK
        ARGFRAME PSTACK, 0, STACK
        ARGFRAME XSTACK, 0, STACK
        ARGFRAME IOVERLAY, 0, STATIC
        ARGFRAME DOVERLAY, 0, STATIC
        EXTERN ??HalAdcRead?relay
        FUNCTION ??HalAdcRead?relay,00H
        EXTERN ??osal_set_event?relay
        FUNCTION ??osal_set_event?relay,00H
        EXTERN ??osal_start_timerEx?relay
        FUNCTION ??osal_start_timerEx?relay,00H
        EXTERN ??osal_stop_timerEx?relay
        FUNCTION ??osal_stop_timerEx?relay,00H
        EXTERN Hal_TaskID

// D:\毕设\CC2530-smart_home\Components\hal\target\CC2530MB\hal_key.c
//    1 /**************************************************************************************************
//    2   Filename:       hal_key.c
//    3   Revised:        $Date: 2010-09-15 19:02:45 -0700 (Wed, 15 Sep 2010) $
//    4   Revision:       $Revision: 23815 $
//    5 
//    6   Description:    This file contains the interface to the HAL KEY Service.
//    7 
//    8 
//    9   Copyright 2006-2010 Texas Instruments Incorporated. All rights reserved.
//   10 
//   11   IMPORTANT: Your use of this Software is limited to those specific rights
//   12   granted under the terms of a software license agreement between the user
//   13   who downloaded the software, his/her employer (which must be your employer)
//   14   and Texas Instruments Incorporated (the "License").  You may not use this
//   15   Software unless you agree to abide by the terms of the License. The License
//   16   limits your use, and you acknowledge, that the Software may not be modified,
//   17   copied or distributed unless embedded on a Texas Instruments microcontroller
//   18   or used solely and exclusively in conjunction with a Texas Instruments radio
//   19   frequency transceiver, which is integrated into your product.  Other than for
//   20   the foregoing purpose, you may not use, reproduce, copy, prepare derivative
//   21   works of, modify, distribute, perform, display or sell this Software and/or
//   22   its documentation for any purpose.
//   23 
//   24   YOU FURTHER ACKNOWLEDGE AND AGREE THAT THE SOFTWARE AND DOCUMENTATION ARE
//   25   PROVIDED AS IS?WITHOUT WARRANTY OF ANY KIND, EITHER EXPRESS OR IMPLIED,
//   26   INCLUDING WITHOUT LIMITATION, ANY WARRANTY OF MERCHANTABILITY, TITLE,
//   27   NON-INFRINGEMENT AND FITNESS FOR A PARTICULAR PURPOSE. IN NO EVENT SHALL
//   28   TEXAS INSTRUMENTS OR ITS LICENSORS BE LIABLE OR OBLIGATED UNDER CONTRACT,
//   29   NEGLIGENCE, STRICT LIABILITY, CONTRIBUTION, BREACH OF WARRANTY, OR OTHER
//   30   LEGAL EQUITABLE THEORY ANY DIRECT OR INDIRECT DAMAGES OR EXPENSES
//   31   INCLUDING BUT NOT LIMITED TO ANY INCIDENTAL, SPECIAL, INDIRECT, PUNITIVE
//   32   OR CONSEQUENTIAL DAMAGES, LOST PROFITS OR LOST DATA, COST OF PROCUREMENT
//   33   OF SUBSTITUTE GOODS, TECHNOLOGY, SERVICES, OR ANY CLAIMS BY THIRD PARTIES
//   34   (INCLUDING BUT NOT LIMITED TO ANY DEFENSE THEREOF), OR OTHER SIMILAR COSTS.
//   35 
//   36   Should you have any questions regarding your right to use this Software,
//   37   contact Texas Instruments Incorporated at www.TI.com.
//   38 **************************************************************************************************/
//   39 /*********************************************************************
//   40  NOTE: If polling is used, the hal_driver task schedules the KeyRead()
//   41        to occur every 100ms.  This should be long enough to naturally
//   42        debounce the keys.  The KeyRead() function remembers the key
//   43        state of the previous poll and will only return a non-zero
//   44        value if the key state changes.
//   45 
//   46  NOTE: If interrupts are used, the KeyRead() function is scheduled
//   47        25ms after the interrupt occurs by the ISR.  This delay is used
//   48        for key debouncing.  The ISR disables any further Key interrupt
//   49        until KeyRead() is executed.  KeyRead() will re-enable Key
//   50        interrupts after executing.  Unlike polling, when interrupts
//   51        are enabled, the previous key state is not remembered.  This
//   52        means that KeyRead() will return the current state of the keys
//   53        (not a change in state of the keys).
//   54 
//   55  NOTE: If interrupts are used, the KeyRead() fucntion is scheduled by
//   56        the ISR.  Therefore, the joystick movements will only be detected
//   57        during a pushbutton interrupt caused by S1 or the center joystick
//   58        pushbutton.
//   59 
//   60  NOTE: When a switch like S1 is pushed, the S1 signal goes from a normally
//   61        high state to a low state.  This transition is typically clean.  The
//   62        duration of the low state is around 200ms.  When the signal returns
//   63        to the high state, there is a high likelihood of signal bounce, which
//   64        causes a unwanted interrupts.  Normally, we would set the interrupt
//   65        edge to falling edge to generate an interrupt when S1 is pushed, but
//   66        because of the signal bounce, it is better to set the edge to rising
//   67        edge to generate an interrupt when S1 is released.  The debounce logic
//   68        can then filter out the signal bounce.  The result is that we typically
//   69        get only 1 interrupt per button push.  This mechanism is not totally
//   70        foolproof because occasionally, signal bound occurs during the falling
//   71        edge as well.  A similar mechanism is used to handle the joystick
//   72        pushbutton on the DB.  For the EB, we do not have independent control
//   73        of the interrupt edge for the S1 and center joystick pushbutton.  As
//   74        a result, only one or the other pushbuttons work reasonably well with
//   75        interrupts.  The default is the make the S1 switch on the EB work more
//   76        reliably.
//   77 
//   78 *********************************************************************/
//   79 
//   80 /**************************************************************************************************
//   81  *                                            INCLUDES
//   82  **************************************************************************************************/
//   83 #include "hal_mcu.h"

        ASEGN SFR_AN:DATA:NOROOT,089H
// unsigned char volatile __sfr P0IFG
P0IFG:
        DATA8
        DS 1

        ASEGN SFR_AN:DATA:NOROOT,08aH
// unsigned char volatile __sfr P1IFG
P1IFG:
        DATA8
        DS 1

        ASEGN SFR_AN:DATA:NOROOT,08cH
// unsigned char volatile __sfr PICTL
PICTL:
        DATA8
        DS 1

        ASEGN SFR_AN:DATA:NOROOT,08dH
// unsigned char volatile __sfr P1IEN
P1IEN:
        DATA8
        DS 1

        ASEGN SFR_AN:DATA:NOROOT,090H
// union <unnamed> volatile __sfr _A_P1
_A_P1:
        DATA8
        DS 1

        ASEGN SFR_AN:DATA:NOROOT,09aH
// unsigned char volatile __sfr IEN2
IEN2:
        DATA8
        DS 1

        ASEGN SFR_AN:DATA:NOROOT,0a8H
// union <unnamed> volatile __sfr _A_IEN0
_A_IEN0:
        DATA8
        DS 1

        ASEGN SFR_AN:DATA:NOROOT,0c0H
// union <unnamed> volatile __sfr _A_IRCON
_A_IRCON:
        DATA8
        DS 1

        ASEGN SFR_AN:DATA:NOROOT,0e8H
// union <unnamed> volatile __sfr _A_IRCON2
_A_IRCON2:
        DATA8
        DS 1

        ASEGN SFR_AN:DATA:NOROOT,0f3H
// unsigned char volatile __sfr P0SEL
P0SEL:
        DATA8
        DS 1

        ASEGN SFR_AN:DATA:NOROOT,0f4H
// unsigned char volatile __sfr P1SEL
P1SEL:
        DATA8
        DS 1

        ASEGN SFR_AN:DATA:NOROOT,0fdH
// unsigned char volatile __sfr P0DIR
P0DIR:
        DATA8
        DS 1

        ASEGN SFR_AN:DATA:NOROOT,0feH
// unsigned char volatile __sfr P1DIR
P1DIR:
        DATA8
        DS 1
//   84 #include "hal_defs.h"
//   85 #include "hal_types.h"
//   86 #include "hal_board.h"
//   87 #include "hal_drivers.h"
//   88 #include "hal_adc.h"
//   89 #include "hal_key.h"
//   90 #include "osal.h"
//   91 
//   92 #if (defined HAL_KEY) && (HAL_KEY == TRUE)
//   93 
//   94 /**************************************************************************************************
//   95  *                                              MACROS
//   96  **************************************************************************************************/
//   97 
//   98 /**************************************************************************************************
//   99  *                                            CONSTANTS
//  100  **************************************************************************************************/
//  101 #define HAL_KEY_RISING_EDGE   0
//  102 #define HAL_KEY_FALLING_EDGE  1
//  103 
//  104 #define HAL_KEY_DEBOUNCE_VALUE  25
//  105 
//  106 /* CPU port interrupt */
//  107 #define HAL_KEY_CPU_PORT_0_IF P0IF
//  108 #define HAL_KEY_CPU_PORT_1_IF P1IF
//  109 
//  110 /* SW_7(CANCEL) is at P1.3 */
//  111 #define HAL_KEY_SW_7_PORT   P1
//  112 #define HAL_KEY_SW_7_BIT    BV(3)
//  113 #define HAL_KEY_SW_7_SEL    P1SEL
//  114 #define HAL_KEY_SW_7_DIR    P1DIR
//  115 
//  116 /* edge interrupt */
//  117 #define HAL_KEY_SW_7_EDGEBIT  BV(1) /* P1.0 - P1.3中断边沿控制位 */
//  118 #define HAL_KEY_SW_7_EDGE     HAL_KEY_FALLING_EDGE
//  119 
//  120 /* SW_7 interrupts */
//  121 #define HAL_KEY_SW_7_IEN      IEN2  /* P1口中断屏蔽寄存器 */
//  122 #define HAL_KEY_SW_7_IENBIT   BV(4) /* 针对P1口的中断屏蔽控制位 */
//  123 #define HAL_KEY_SW_7_ICTL     P1IEN /* Port Interrupt Control register */
//  124 #define HAL_KEY_SW_7_ICTLBIT  BV(3) /* P1IEN - P1.3 enable/disable bit */
//  125 #define HAL_KEY_SW_7_PXIFG    P1IFG /* Interrupt flag at source */
//  126 
//  127 /* SW_5(OK) is at P1.2 */
//  128 #define HAL_KEY_SW_5_PORT   P1
//  129 #define HAL_KEY_SW_5_BIT    BV(2) 
//  130 #define HAL_KEY_SW_5_SEL    P1SEL
//  131 #define HAL_KEY_SW_5_DIR    P1DIR
//  132 
//  133 /* edge interrupt */
//  134 #define HAL_KEY_SW_5_EDGEBIT  BV(1) /* P1.0 - P1.3中断边沿控制位 */
//  135 #define HAL_KEY_SW_5_EDGE     HAL_KEY_FALLING_EDGE
//  136 
//  137 /* SW_5 interrupts */
//  138 #define HAL_KEY_SW_5_IEN      IEN2  /* P1口中断屏蔽寄存器 */
//  139 #define HAL_KEY_SW_5_IENBIT   BV(4) /* 针对P1口的中断屏蔽控制位 */
//  140 #define HAL_KEY_SW_5_ICTL     P1IEN /* Port Interrupt Control register */
//  141 #define HAL_KEY_SW_5_ICTLBIT  BV(2) /* P1IEN - P1.2 enable/disable bit */
//  142 #define HAL_KEY_SW_5_PXIFG    P1IFG /* Interrupt flag at source */
//  143 
//  144 /* Joy stick move at P0.6 */
//  145 #define HAL_KEY_JOY_MOVE_PORT   P0
//  146 #define HAL_KEY_JOY_MOVE_BIT    BV(6)
//  147 #define HAL_KEY_JOY_MOVE_SEL    P0SEL
//  148 #define HAL_KEY_JOY_MOVE_DIR    P0DIR
//  149 
//  150 /* edge interrupt */
//  151 #define HAL_KEY_JOY_MOVE_EDGEBIT  BV(0) /* P0.0 - P0.7中断边沿控制位 */
//  152 #define HAL_KEY_JOY_MOVE_EDGE     HAL_KEY_FALLING_EDGE
//  153 
//  154 /* Joy move interrupts */
//  155 #define HAL_KEY_JOY_MOVE_IEN      IEN1  /* P0口中断屏蔽寄存器 */
//  156 #define HAL_KEY_JOY_MOVE_IENBIT   BV(5) /* 针对P0口的中断屏蔽控制位 */
//  157 #define HAL_KEY_JOY_MOVE_ICTL     P0IEN /* Port Interrupt Control register */
//  158 #define HAL_KEY_JOY_MOVE_ICTLBIT  BV(6) /* P0IEN - P0.6 enable/disable bit */
//  159 #define HAL_KEY_JOY_MOVE_PXIFG    P0IFG /* Interrupt flag at source */
//  160 
//  161 #define HAL_KEY_JOY_CHN   HAL_ADC_CHANNEL_6
//  162 
//  163 
//  164 /**************************************************************************************************
//  165  *                                            TYPEDEFS
//  166  **************************************************************************************************/
//  167 
//  168 
//  169 /**************************************************************************************************
//  170  *                                        GLOBAL VARIABLES
//  171  **************************************************************************************************/

        RSEG XDATA_Z:XDATA:NOROOT(0)
        DATA8
//  172 static uint8 halKeySavedKeys;     /* used to store previous key state in polling mode */
halKeySavedKeys:
        DS 1
        REQUIRE __INIT_XDATA_Z

        RSEG XDATA_Z:XDATA:NOROOT(0)
        DATA16
//  173 static halKeyCBack_t pHalKeyProcessFunction;
pHalKeyProcessFunction:
        DS 2
        REQUIRE __INIT_XDATA_Z

        RSEG XDATA_Z:XDATA:NOROOT(0)
        DATA8
//  174 static uint8 HalKeyConfigured;
HalKeyConfigured:
        DS 1
        REQUIRE __INIT_XDATA_Z

        RSEG XDATA_Z:XDATA:NOROOT(0)
        DATA8
//  175 bool Hal_KeyIntEnable;            /* interrupt enable/disable flag */
Hal_KeyIntEnable:
        DS 1
        REQUIRE __INIT_XDATA_Z
//  176 
//  177 /**************************************************************************************************
//  178  *                                        FUNCTIONS - Local
//  179  **************************************************************************************************/
//  180 void halProcessKeyInterrupt(void);
//  181 uint8 halGetJoyKeyInput(void);
//  182 
//  183 
//  184 
//  185 /**************************************************************************************************
//  186  *                                        FUNCTIONS - API
//  187  **************************************************************************************************/
//  188 
//  189 
//  190 /**************************************************************************************************
//  191  * @fn      HalKeyInit
//  192  *
//  193  * @brief   Initilize Key Service
//  194  *
//  195  * @param   none
//  196  *
//  197  * @return  None
//  198  **************************************************************************************************/

        RSEG BANKED_CODE:CODE:NOROOT(0)
//  199 void HalKeyInit( void )
HalKeyInit:
        CFI Block cfiBlock0 Using cfiCommon0
        CFI Function HalKeyInit
        CODE
//  200 {
        PUSH    DPL
        CFI DPL0 Frame(CFA_SP, 4)
        CFI CFA_SP SP+-4
        PUSH    DPH
        CFI DPH0 Frame(CFA_SP, 5)
        CFI CFA_SP SP+-5
        ; Saved register size: 2
        ; Auto size: 0
//  201     /* Initialize previous key to 0 */
//  202     halKeySavedKeys = 0;
        MOV     DPTR,#halKeySavedKeys
        CLR     A
        MOVX    @DPTR,A
//  203 
//  204     HAL_KEY_SW_5_SEL &= ~(HAL_KEY_SW_5_BIT);
        ANL     0xf4,#0xfb
//  205     HAL_KEY_SW_5_DIR &= ~(HAL_KEY_SW_5_BIT);
        ANL     0xfe,#0xfb
//  206 
//  207     HAL_KEY_SW_7_SEL &= ~(HAL_KEY_SW_7_BIT);    /* Set pin function to GPIO */
        ANL     0xf4,#0xf7
//  208     HAL_KEY_SW_7_DIR &= ~(HAL_KEY_SW_7_BIT);    /* Set pin direction to Input */
        ANL     0xfe,#0xf7
//  209 
//  210     HAL_KEY_JOY_MOVE_SEL &= ~(HAL_KEY_JOY_MOVE_BIT); /* Set pin function to GPIO */
        ANL     0xf3,#0xbf
//  211     HAL_KEY_JOY_MOVE_DIR &= ~(HAL_KEY_JOY_MOVE_BIT); /* Set pin direction to Input */
        ANL     0xfd,#0xbf
//  212 
//  213     /* Initialize callback function */
//  214     pHalKeyProcessFunction  = NULL;
        MOV     DPTR,#pHalKeyProcessFunction
        MOVX    @DPTR,A
        INC     DPTR
        MOVX    @DPTR,A
//  215 
//  216     /* Start with key is not configured */
//  217     HalKeyConfigured = FALSE;
        MOV     DPTR,#HalKeyConfigured
        MOVX    @DPTR,A
//  218 }
        LJMP    ?Subroutine0 & 0xFFFF
        CFI EndBlock cfiBlock0
        REQUIRE P1SEL
        REQUIRE P1DIR
        REQUIRE P0SEL
        REQUIRE P0DIR
//  219 
//  220 
//  221 /**************************************************************************************************
//  222  * @fn      HalKeyConfig
//  223  *
//  224  * @brief   Configure the Key serivce
//  225  *
//  226  * @param   interruptEnable - TRUE/FALSE, enable/disable interrupt
//  227  *          cback - pointer to the CallBack function
//  228  *
//  229  * @return  None
//  230  **************************************************************************************************/

        RSEG BANKED_CODE:CODE:NOROOT(0)
//  231 void HalKeyConfig (bool interruptEnable, halKeyCBack_t cback)
HalKeyConfig:
        CFI Block cfiBlock1 Using cfiCommon0
        CFI Function HalKeyConfig
        CODE
//  232 {
        FUNCALL HalKeyConfig, osal_stop_timerEx
        LOCFRAME ISTACK, 0, STACK
        LOCFRAME PSTACK, 0, STACK
        LOCFRAME XSTACK, 9, STACK
        LOCFRAME IOVERLAY, 0, STATIC
        LOCFRAME DOVERLAY, 0, STATIC
        ARGFRAME ISTACK, 0, STACK
        ARGFRAME PSTACK, 0, STACK
        ARGFRAME XSTACK, 9, STACK
        ARGFRAME IOVERLAY, 0, STATIC
        ARGFRAME DOVERLAY, 0, STATIC
        FUNCALL HalKeyConfig, osal_set_event
        LOCFRAME ISTACK, 0, STACK
        LOCFRAME PSTACK, 0, STACK
        LOCFRAME XSTACK, 9, STACK
        LOCFRAME IOVERLAY, 0, STATIC
        LOCFRAME DOVERLAY, 0, STATIC
        ARGFRAME ISTACK, 0, STACK
        ARGFRAME PSTACK, 0, STACK
        ARGFRAME XSTACK, 9, STACK
        ARGFRAME IOVERLAY, 0, STATIC
        ARGFRAME DOVERLAY, 0, STATIC
        MOV     A,#-0x9
        LCALL   ?BANKED_ENTER_XDATA
        CFI DPH0 load(1, XDATA, add(CFA_XSP16, literal(-1)))
        CFI DPL0 load(1, XDATA, add(CFA_XSP16, literal(-2)))
        CFI ?BRET_EXT load(1, XDATA, add(CFA_XSP16, literal(-3)))
        CFI ?RET_HIGH load(1, XDATA, add(CFA_XSP16, literal(-4)))
        CFI ?RET_LOW load(1, XDATA, add(CFA_XSP16, literal(-5)))
        CFI R7 load(1, XDATA, add(CFA_XSP16, literal(-6)))
        CFI V0 load(1, XDATA, add(CFA_XSP16, literal(-7)))
        CFI VB load(1, XDATA, add(CFA_XSP16, literal(-8)))
        CFI R6 load(1, XDATA, add(CFA_XSP16, literal(-9)))
        CFI CFA_SP SP+0
        CFI CFA_XSP16 add(XSP16, 9)
        ; Saved register size: 9
        ; Auto size: 0
        MOV     A,R1
//  233     /* Enable/Disable Interrupt or */
//  234     Hal_KeyIntEnable = interruptEnable;
        MOV     DPTR,#Hal_KeyIntEnable
        MOVX    @DPTR,A
//  235 
//  236     /* Register the callback fucntion */
//  237     pHalKeyProcessFunction = cback;
        MOV     DPTR,#pHalKeyProcessFunction
        MOV     A,R2
        MOVX    @DPTR,A
        INC     DPTR
        MOV     A,R3
        MOVX    @DPTR,A
//  238 
//  239     /* Determine if interrupt is enable or not */
//  240     if (Hal_KeyIntEnable)
        MOV     DPTR,#Hal_KeyIntEnable
        MOVX    A,@DPTR
        JZ      ??HalKeyConfig_0
//  241     {
//  242         /* Rising/Falling edge configuratinn */
//  243         PICTL &= ~(HAL_KEY_SW_7_EDGEBIT);    /* Clear the edge bit */
        ANL     0x8c,#0xfd
//  244         PICTL &= ~(HAL_KEY_SW_5_EDGEBIT);    /* Clear the edge bit */
        ANL     0x8c,#0xfd
//  245         /* For falling edge, the bit must be set. */
//  246         #if (HAL_KEY_SW_7_EDGE == HAL_KEY_FALLING_EDGE)
//  247         PICTL |= HAL_KEY_SW_7_EDGEBIT;
        ORL     0x8c,#0x2
//  248         #endif
//  249         #if (HAL_KEY_SW_5_EDGE == HAL_KEY_FALLING_EDGE)
//  250         PICTL |= HAL_KEY_SW_5_EDGEBIT;
        ORL     0x8c,#0x2
//  251         #endif
//  252         
//  253         /* Interrupt configuration:
//  254          * - Enable interrupt generation at the port
//  255          * - Enable CPU interrupt
//  256          * - Clear any pending interrupt
//  257          */
//  258         HAL_KEY_SW_7_ICTL |= HAL_KEY_SW_7_ICTLBIT;
        ORL     0x8d,#0x8
//  259         HAL_KEY_SW_7_IEN |= HAL_KEY_SW_7_IENBIT;
        ORL     0x9a,#0x10
//  260         HAL_KEY_SW_7_PXIFG = ~(HAL_KEY_SW_7_BIT);
        MOV     0x8a,#-0x9
//  261         
//  262         HAL_KEY_SW_5_ICTL |= HAL_KEY_SW_5_ICTLBIT;
        ORL     0x8d,#0x4
//  263         HAL_KEY_SW_5_IEN |= HAL_KEY_SW_5_IENBIT;
        ORL     0x9a,#0x10
//  264         HAL_KEY_SW_5_PXIFG = ~(HAL_KEY_SW_5_BIT);
        MOV     0x8a,#-0x5
//  265 
//  266         /* Do this only after the hal_key is configured - to work with sleep stuff */
//  267         if (HalKeyConfigured == TRUE)
        MOV     DPTR,#HalKeyConfigured
        MOVX    A,@DPTR
        XRL     A,#0x1
        JNZ     ??HalKeyConfig_1
//  268         {
//  269             osal_stop_timerEx(Hal_TaskID, HAL_KEY_EVENT);  /* Cancel polling if active */
        ; Setup parameters for call to function osal_stop_timerEx
        MOV     R2,#0x1
        MOV     R3,#0x0
        MOV     DPTR,#Hal_TaskID
        MOVX    A,@DPTR
        MOV     R1,A
        LCALL   ??osal_stop_timerEx?relay
        SJMP    ??HalKeyConfig_1
//  270         }
//  271     }
//  272     else    /* Interrupts NOT enabled */
//  273     {
//  274         HAL_KEY_SW_7_ICTL &= ~(HAL_KEY_SW_7_ICTLBIT); /* don't generate interrupt */
??HalKeyConfig_0:
        ANL     0x8d,#0xf7
//  275         HAL_KEY_SW_7_IEN &= ~(HAL_KEY_SW_7_IENBIT);   /* Clear interrupt enable bit */
        ANL     0x9a,#0xef
//  276         HAL_KEY_SW_5_ICTL &= ~(HAL_KEY_SW_5_ICTLBIT); /* don't generate interrupt */
        ANL     0x8d,#0xfb
//  277         HAL_KEY_SW_5_IEN &= ~(HAL_KEY_SW_5_IENBIT);   /* Clear interrupt enable bit */
        ANL     0x9a,#0xef
//  278         
//  279         osal_set_event(Hal_TaskID, HAL_KEY_EVENT);    /* 设置按键事件 */
        ; Setup parameters for call to function osal_set_event
        MOV     R2,#0x1
        MOV     R3,#0x0
        MOV     DPTR,#Hal_TaskID
        MOVX    A,@DPTR
        MOV     R1,A
        LCALL   ??osal_set_event?relay
//  280     }
//  281 
//  282     /* Key now is configured */
//  283     HalKeyConfigured = TRUE;
??HalKeyConfig_1:
        MOV     DPTR,#HalKeyConfigured
        MOV     A,#0x1
        MOVX    @DPTR,A
//  284 }
        MOV     R7,A
        LJMP    ?BANKED_LEAVE_XDATA
        CFI EndBlock cfiBlock1
        REQUIRE PICTL
        REQUIRE P1IEN
        REQUIRE IEN2
        REQUIRE P1IFG
//  285 
//  286 
//  287 /**************************************************************************************************
//  288  * @fn      HalKeyRead
//  289  *
//  290  * @brief   Read the current value of a key
//  291  *
//  292  * @param   None
//  293  *
//  294  * @return  keys - current keys status
//  295  **************************************************************************************************/

        RSEG BANKED_CODE:CODE:NOROOT(0)
//  296 uint8 HalKeyRead ( void )
HalKeyRead:
        CFI Block cfiBlock2 Using cfiCommon0
        CFI Function HalKeyRead
        CODE
//  297 {
        FUNCALL HalKeyRead, halGetJoyKeyInput
        LOCFRAME ISTACK, 0, STACK
        LOCFRAME PSTACK, 0, STACK
        LOCFRAME XSTACK, 9, STACK
        LOCFRAME IOVERLAY, 0, STATIC
        LOCFRAME DOVERLAY, 0, STATIC
        ARGFRAME ISTACK, 0, STACK
        ARGFRAME PSTACK, 0, STACK
        ARGFRAME XSTACK, 9, STACK
        ARGFRAME IOVERLAY, 0, STATIC
        ARGFRAME DOVERLAY, 0, STATIC
        MOV     A,#-0x9
        LCALL   ?BANKED_ENTER_XDATA
        CFI DPH0 load(1, XDATA, add(CFA_XSP16, literal(-1)))
        CFI DPL0 load(1, XDATA, add(CFA_XSP16, literal(-2)))
        CFI ?BRET_EXT load(1, XDATA, add(CFA_XSP16, literal(-3)))
        CFI ?RET_HIGH load(1, XDATA, add(CFA_XSP16, literal(-4)))
        CFI ?RET_LOW load(1, XDATA, add(CFA_XSP16, literal(-5)))
        CFI R7 load(1, XDATA, add(CFA_XSP16, literal(-6)))
        CFI V0 load(1, XDATA, add(CFA_XSP16, literal(-7)))
        CFI VB load(1, XDATA, add(CFA_XSP16, literal(-8)))
        CFI R6 load(1, XDATA, add(CFA_XSP16, literal(-9)))
        CFI CFA_SP SP+0
        CFI CFA_XSP16 add(XSP16, 9)
        ; Saved register size: 9
        ; Auto size: 0
//  298     uint8 keys = 0;
        MOV     R6,#0x0
//  299     // CANCEL
//  300     if (HAL_PUSH_BUTTON1())
        MOV     C,0x90.3
        JC      ??HalKeyRead_0
//  301     {
//  302         keys |= HAL_KEY_SW_7;
        MOV     R6,#0x40
//  303     }
//  304     // OK
//  305     if (HAL_PUSH_BUTTON2())
??HalKeyRead_0:
        MOV     C,0x90.2
        JC      ??HalKeyRead_1
//  306     {
//  307         keys |= HAL_KEY_SW_5;
        MOV     A,R6
        SETB    0xE0 /* A   */.2
        MOV     R6,A
//  308     }
//  309 
//  310     keys |= halGetJoyKeyInput();
//  311 
//  312     return keys;
??HalKeyRead_1:
        ; Setup parameters for call to function halGetJoyKeyInput
        LCALL   ??halGetJoyKeyInput?relay
        MOV     A,R1
        ORL     A,R6
        CFI EndBlock cfiBlock2
        REQUIRE ?Subroutine1
        REQUIRE _A_P1
        ; // Fall through to label ?Subroutine1
//  313 }

        RSEG BANKED_CODE:CODE:NOROOT(0)
?Subroutine1:
        CFI Block cfiBlock3 Using cfiCommon0
        CFI NoFunction
        CFI CFA_SP SP+0
        CFI CFA_XSP16 add(XSP16, 9)
        CFI VB load(1, XDATA, add(CFA_XSP16, literal(-8)))
        CFI DPL0 load(1, XDATA, add(CFA_XSP16, literal(-2)))
        CFI DPH0 load(1, XDATA, add(CFA_XSP16, literal(-1)))
        CFI R6 load(1, XDATA, add(CFA_XSP16, literal(-9)))
        CFI R7 load(1, XDATA, add(CFA_XSP16, literal(-6)))
        CFI V0 load(1, XDATA, add(CFA_XSP16, literal(-7)))
        CFI ?BRET_EXT load(1, XDATA, add(CFA_XSP16, literal(-3)))
        CFI ?RET_HIGH load(1, XDATA, add(CFA_XSP16, literal(-4)))
        CFI ?RET_LOW load(1, XDATA, add(CFA_XSP16, literal(-5)))
        MOV     R1,A
        MOV     R7,#0x1
        LJMP    ?BANKED_LEAVE_XDATA
        CFI EndBlock cfiBlock3
//  314 
//  315 
//  316 /**************************************************************************************************
//  317  * @fn      HalKeyPoll
//  318  *
//  319  * @brief   Called by hal_driver to poll the keys
//  320  *
//  321  * @param   None
//  322  *
//  323  * @return  None
//  324  **************************************************************************************************/

        RSEG BANKED_CODE:CODE:NOROOT(0)
//  325 void HalKeyPoll (void)
HalKeyPoll:
        CFI Block cfiBlock4 Using cfiCommon0
        CFI Function HalKeyPoll
        CODE
//  326 {
        FUNCALL HalKeyPoll, halGetJoyKeyInput
        LOCFRAME ISTACK, 2, STACK
        LOCFRAME PSTACK, 0, STACK
        LOCFRAME XSTACK, 0, STACK
        LOCFRAME IOVERLAY, 0, STATIC
        LOCFRAME DOVERLAY, 0, STATIC
        ARGFRAME ISTACK, 2, STACK
        ARGFRAME PSTACK, 0, STACK
        ARGFRAME XSTACK, 0, STACK
        ARGFRAME IOVERLAY, 0, STATIC
        ARGFRAME DOVERLAY, 0, STATIC
        PUSH    DPL
        CFI DPL0 Frame(CFA_SP, 4)
        CFI CFA_SP SP+-4
        PUSH    DPH
        CFI DPH0 Frame(CFA_SP, 5)
        CFI CFA_SP SP+-5
        ; Saved register size: 2
        ; Auto size: 0
//  327     uint8 keys = 0;
//  328 
//  329     keys = halGetJoyKeyInput();
        ; Setup parameters for call to function halGetJoyKeyInput
        LCALL   ??halGetJoyKeyInput?relay
//  330 
//  331     if (HAL_PUSH_BUTTON1())
        MOV     C,0x90.3
        JC      ??HalKeyPoll_0
//  332     {
//  333         keys |= HAL_KEY_SW_7;
        MOV     A,R1
        SETB    0xE0 /* A   */.6
        MOV     R1,A
//  334     }
//  335      
//  336     if (HAL_PUSH_BUTTON2())
??HalKeyPoll_0:
        MOV     C,0x90.2
        JC      ??HalKeyPoll_1
//  337     {
//  338         keys |= HAL_KEY_SW_5;
        MOV     A,R1
        SETB    0xE0 /* A   */.2
        MOV     R1,A
//  339     }
//  340   
//  341     /* If interrupts are not enabled, previous key status and current key status
//  342      * are compared to find out if a key has changed status.
//  343      */
//  344     if (!Hal_KeyIntEnable)
??HalKeyPoll_1:
        MOV     DPTR,#Hal_KeyIntEnable
        MOVX    A,@DPTR
        JNZ     ??HalKeyPoll_2
//  345     {
//  346         if (keys == halKeySavedKeys)
        MOV     DPTR,#halKeySavedKeys
        MOVX    A,@DPTR
        XRL     A,R1
        JZ      ??HalKeyPoll_3
//  347         {
//  348             /* Exit - since no keys have changed */
//  349             return;
//  350         }
//  351         /* Store the current keys for comparation next time */
//  352         halKeySavedKeys = keys;
        MOV     A,R1
        MOVX    @DPTR,A
//  353     }
//  354     else
//  355     {
//  356         /* Key interrupt handled here */
//  357     }
//  358 
//  359     /* Invoke Callback if new keys were depressed */
//  360     if (keys && (pHalKeyProcessFunction))
??HalKeyPoll_2:
        MOV     A,R1
        JZ      ??HalKeyPoll_3
        MOV     DPTR,#pHalKeyProcessFunction
        MOVX    A,@DPTR
        MOV     R2,A
        INC     DPTR
        MOVX    A,@DPTR
        MOV     R3,A
        MOV     A,R2
        ORL     A,R3
        JZ      ??HalKeyPoll_3
//  361     {
//  362         (pHalKeyProcessFunction) (keys, HAL_KEY_STATE_NORMAL);
        ; Setup parameters for indirect call
        MOV     R2,#0x0
        MOV     DPTR,#pHalKeyProcessFunction
        MOVX    A,@DPTR
        MOV     R0,A
        INC     DPTR
        MOVX    A,@DPTR
        MOV     DPH,A
        MOV     DPL,R0
        LCALL   ?CALL_IND
//  363     }
??HalKeyPoll_3:
        LJMP    ?Subroutine0 & 0xFFFF
        CFI EndBlock cfiBlock4
        REQUIRE _A_P1
//  364 }
//  365 
//  366 /**************************************************************************************************
//  367  * @fn      halGetJoyKeyInput
//  368  *
//  369  * @brief   Map the ADC value to its corresponding key.
//  370  *
//  371  * @param   None
//  372  *
//  373  * @return  keys - current joy key status
//  374  **************************************************************************************************/

        RSEG BANKED_CODE:CODE:NOROOT(0)
//  375 uint8 halGetJoyKeyInput(void)
halGetJoyKeyInput:
        CFI Block cfiBlock5 Using cfiCommon0
        CFI Function halGetJoyKeyInput
        CODE
//  376 {
        FUNCALL halGetJoyKeyInput, HalAdcRead
        LOCFRAME ISTACK, 0, STACK
        LOCFRAME PSTACK, 0, STACK
        LOCFRAME XSTACK, 9, STACK
        LOCFRAME IOVERLAY, 0, STATIC
        LOCFRAME DOVERLAY, 0, STATIC
        ARGFRAME ISTACK, 0, STACK
        ARGFRAME PSTACK, 0, STACK
        ARGFRAME XSTACK, 9, STACK
        ARGFRAME IOVERLAY, 0, STATIC
        ARGFRAME DOVERLAY, 0, STATIC
        MOV     A,#-0x9
        LCALL   ?BANKED_ENTER_XDATA
        CFI DPH0 load(1, XDATA, add(CFA_XSP16, literal(-1)))
        CFI DPL0 load(1, XDATA, add(CFA_XSP16, literal(-2)))
        CFI ?BRET_EXT load(1, XDATA, add(CFA_XSP16, literal(-3)))
        CFI ?RET_HIGH load(1, XDATA, add(CFA_XSP16, literal(-4)))
        CFI ?RET_LOW load(1, XDATA, add(CFA_XSP16, literal(-5)))
        CFI R7 load(1, XDATA, add(CFA_XSP16, literal(-6)))
        CFI V0 load(1, XDATA, add(CFA_XSP16, literal(-7)))
        CFI VB load(1, XDATA, add(CFA_XSP16, literal(-8)))
        CFI R6 load(1, XDATA, add(CFA_XSP16, literal(-9)))
        CFI CFA_SP SP+0
        CFI CFA_XSP16 add(XSP16, 9)
        ; Saved register size: 9
        ; Auto size: 0
//  377     /* The joystick control is encoded as an analog voltage.
//  378      * Read the JOY_LEVEL analog value and map it to joy movement.
//  379      */
//  380     uint8 adc;
//  381     uint8 ksave0 = 0;
        MOV     R6,#0x0
//  382     uint8 ksave1;
//  383 
//  384     /* Keep on reading the ADC until two consecutive key decisions are the same. */
//  385     do
//  386     {
//  387         ksave1 = ksave0;    /* save previouse key reading */
??halGetJoyKeyInput_0:
        MOV     A,R6
        MOV     R7,A
//  388     
//  389         adc = HalAdcRead (HAL_KEY_JOY_CHN, HAL_ADC_RESOLUTION_8);
        ; Setup parameters for call to function HalAdcRead
        MOV     R2,#0x1
        MOV     R1,#0x6
        LCALL   ??HalAdcRead?relay
        MOV     A,R2
        MOV     R0,A
//  390         
//  391         if ((adc >= 88) && (adc <= 104))
        MOV     A,#-0x58
        ADD     A,R0
        CLR     C
        SUBB    A,#0x11
        JNC     ??halGetJoyKeyInput_1
//  392         {
//  393             ksave0 |= HAL_KEY_UP;
        MOV     A,R6
        SETB    0xE0 /* A   */.0
        SJMP    ??halGetJoyKeyInput_2
//  394         }
//  395         else if (adc < 10)
??halGetJoyKeyInput_1:
        MOV     A,R0
        CLR     C
        SUBB    A,#0xa
        JNC     ??halGetJoyKeyInput_3
//  396         {
//  397             ksave0 |= HAL_KEY_RIGHT;
        MOV     A,R6
        SETB    0xE0 /* A   */.1
        SJMP    ??halGetJoyKeyInput_2
//  398         }
//  399         else if ((adc >= 24) && (adc <= 46))
??halGetJoyKeyInput_3:
        MOV     A,#-0x18
        ADD     A,R0
        CLR     C
        SUBB    A,#0x17
        JNC     ??halGetJoyKeyInput_4
//  400         {
//  401             ksave0 |= HAL_KEY_LEFT;
        MOV     A,R6
        SETB    0xE0 /* A   */.3
        SJMP    ??halGetJoyKeyInput_2
//  402         }
//  403         else if ((adc >= 56) && (adc <= 78))
??halGetJoyKeyInput_4:
        MOV     A,#-0x38
        ADD     A,R0
        CLR     C
        SUBB    A,#0x17
        JNC     ??halGetJoyKeyInput_5
//  404         {
//  405             ksave0 |= HAL_KEY_DOWN;
        MOV     A,R6
        SETB    0xE0 /* A   */.4
??halGetJoyKeyInput_2:
        MOV     R6,A
//  406         }
//  407         else
//  408         {
//  409         }
//  410         /*
//  411         if ((adc >= 0x58) && (adc <= 0x68))
//  412         {
//  413             ksave0 |= HAL_KEY_UP;
//  414         }
//  415         else if (adc < 0x0A)
//  416         {
//  417             ksave0 |= HAL_KEY_RIGHT;
//  418         }
//  419         else if ((adc >= 0x18) && (adc <= 0x2E))
//  420         {
//  421             ksave0 |= HAL_KEY_LEFT;
//  422         }
//  423         else if ((adc >= 0x38) && (adc <= 0x4E))
//  424         {
//  425             ksave0 |= HAL_KEY_DOWN;
//  426         }
//  427         else
//  428         {
//  429         }*/
//  430         /*
//  431         if ((adc >= 100) && (adc <= 110))
//  432         {
//  433             ksave0 |= HAL_KEY_UP;
//  434         }
//  435         else if (adc < 10)
//  436         {
//  437             ksave0 |= HAL_KEY_RIGHT;
//  438         }
//  439         else if ((adc >= 60) && (adc <= 70))
//  440         {
//  441             ksave0 |= HAL_KEY_LEFT;
//  442         }
//  443         else if ((adc >= 80) && (adc <= 95))
//  444         {
//  445             ksave0 |= HAL_KEY_DOWN;
//  446         }
//  447         else
//  448         {
//  449         }*/
//  450     } while (ksave0 != ksave1);
??halGetJoyKeyInput_5:
        MOV     A,R7
        XRL     A,R6
        JNZ     ??halGetJoyKeyInput_0
//  451 
//  452     return ksave0;
        MOV     A,R6
        LJMP    ?Subroutine1 & 0xFFFF
        CFI EndBlock cfiBlock5
//  453 }
//  454 
//  455 /**************************************************************************************************
//  456  * @fn      halProcessKeyInterrupt
//  457  *
//  458  * @brief   Checks to see if it's a valid key interrupt, saves interrupt driven key states for
//  459  *          processing by HalKeyRead(), and debounces keys by scheduling HalKeyRead() 25ms later.
//  460  *
//  461  * @param
//  462  *
//  463  * @return
//  464  **************************************************************************************************/

        RSEG BANKED_CODE:CODE:NOROOT(0)
//  465 void halProcessKeyInterrupt (void)
halProcessKeyInterrupt:
        CFI Block cfiBlock6 Using cfiCommon0
        CFI Function halProcessKeyInterrupt
        CODE
//  466 {
        FUNCALL halProcessKeyInterrupt, osal_start_timerEx
        LOCFRAME ISTACK, 2, STACK
        LOCFRAME PSTACK, 0, STACK
        LOCFRAME XSTACK, 0, STACK
        LOCFRAME IOVERLAY, 0, STATIC
        LOCFRAME DOVERLAY, 0, STATIC
        ARGFRAME ISTACK, 2, STACK
        ARGFRAME PSTACK, 0, STACK
        ARGFRAME XSTACK, 0, STACK
        ARGFRAME IOVERLAY, 0, STATIC
        ARGFRAME DOVERLAY, 0, STATIC
        PUSH    DPL
        CFI DPL0 Frame(CFA_SP, 4)
        CFI CFA_SP SP+-4
        PUSH    DPH
        CFI DPH0 Frame(CFA_SP, 5)
        CFI CFA_SP SP+-5
        ; Saved register size: 2
        ; Auto size: 0
//  467     bool valid=FALSE;
        MOV     R0,#0x0
//  468 
//  469     if (HAL_KEY_SW_7_PXIFG & HAL_KEY_SW_7_BIT)  /* Interrupt Flag has been set */
        MOV     A,0x8a
        MOV     C,0xE0 /* A   */.3
        JNC     ??halProcessKeyInterrupt_0
//  470     {
//  471         HAL_KEY_SW_7_PXIFG = ~(HAL_KEY_SW_7_BIT); /* Clear Interrupt Flag */
        MOV     0x8a,#-0x9
//  472         valid = TRUE;
        INC     R0
//  473     }
//  474     
//  475     if (HAL_KEY_SW_5_PXIFG & HAL_KEY_SW_5_BIT)  /* Interrupt Flag has been set */
??halProcessKeyInterrupt_0:
        MOV     A,0x8a
        MOV     C,0xE0 /* A   */.2
        JNC     ??halProcessKeyInterrupt_1
//  476     {
//  477         HAL_KEY_SW_5_PXIFG = ~(HAL_KEY_SW_5_BIT); /* Clear Interrupt Flag */
        MOV     0x8a,#-0x5
//  478         valid = TRUE;
        MOV     R0,#0x1
//  479     }
//  480 
//  481     if (HAL_KEY_JOY_MOVE_PXIFG & HAL_KEY_JOY_MOVE_BIT)  /* Interrupt Flag has been set */
??halProcessKeyInterrupt_1:
        MOV     A,0x89
        MOV     C,0xE0 /* A   */.6
        JNC     ??halProcessKeyInterrupt_2
//  482     {
//  483         HAL_KEY_JOY_MOVE_PXIFG = ~(HAL_KEY_JOY_MOVE_BIT); /* Clear Interrupt Flag */
        MOV     0x89,#-0x41
//  484         valid = TRUE;
        SJMP    ??halProcessKeyInterrupt_3
//  485     }
//  486 
//  487     if (valid)
??halProcessKeyInterrupt_2:
        MOV     A,R0
        MOV     C,0xE0 /* A   */.0
        JNC     ??halProcessKeyInterrupt_4
//  488     {
//  489         osal_start_timerEx (Hal_TaskID, HAL_KEY_EVENT, HAL_KEY_DEBOUNCE_VALUE);
??halProcessKeyInterrupt_3:
        ; Setup parameters for call to function osal_start_timerEx
        MOV     R4,#0x19
        MOV     R5,#0x0
        MOV     R2,#0x1
        MOV     R3,#0x0
        MOV     DPTR,#Hal_TaskID
        MOVX    A,@DPTR
        MOV     R1,A
        LCALL   ??osal_start_timerEx?relay
        CFI EndBlock cfiBlock6
//  490     }
//  491 }
??halProcessKeyInterrupt_4:
        REQUIRE ?Subroutine0
        REQUIRE P1IFG
        REQUIRE P0IFG
        ; // Fall through to label ?Subroutine0

        RSEG BANKED_CODE:CODE:NOROOT(0)
?Subroutine0:
        CFI Block cfiBlock7 Using cfiCommon0
        CFI NoFunction
        CFI CFA_SP SP+-5
        CFI DPL0 Frame(CFA_SP, 4)
        CFI DPH0 Frame(CFA_SP, 5)
        POP     DPH
        CFI CFA_SP SP+-4
        CFI DPH0 SameValue
        POP     DPL
        CFI CFA_SP SP+-3
        CFI DPL0 SameValue
        LJMP    ?BRET
        CFI EndBlock cfiBlock7
//  492 
//  493 /**************************************************************************************************
//  494  * @fn      HalKeyEnterSleep
//  495  *
//  496  * @brief  - Get called to enter sleep mode
//  497  *
//  498  * @param
//  499  *
//  500  * @return
//  501  **************************************************************************************************/

        RSEG BANKED_CODE:CODE:NOROOT(0)
//  502 void HalKeyEnterSleep ( void )
HalKeyEnterSleep:
        CFI Block cfiBlock8 Using cfiCommon0
        CFI Function HalKeyEnterSleep
        CODE
//  503 {
        ; Saved register size: 0
        ; Auto size: 0
//  504 }
        LJMP    ?BRET
        CFI EndBlock cfiBlock8
//  505 
//  506 /**************************************************************************************************
//  507  * @fn      HalKeyExitSleep
//  508  *
//  509  * @brief   - Get called when sleep is over
//  510  *
//  511  * @param
//  512  *
//  513  * @return  - return saved keys
//  514  **************************************************************************************************/

        RSEG BANKED_CODE:CODE:NOROOT(0)
//  515 uint8 HalKeyExitSleep ( void )
HalKeyExitSleep:
        CFI Block cfiBlock9 Using cfiCommon0
        CFI Function HalKeyExitSleep
        CODE
//  516 {
        FUNCALL HalKeyExitSleep, HalKeyRead
        LOCFRAME ISTACK, 2, STACK
        LOCFRAME PSTACK, 0, STACK
        LOCFRAME XSTACK, 0, STACK
        LOCFRAME IOVERLAY, 0, STATIC
        LOCFRAME DOVERLAY, 0, STATIC
        ARGFRAME ISTACK, 2, STACK
        ARGFRAME PSTACK, 0, STACK
        ARGFRAME XSTACK, 0, STACK
        ARGFRAME IOVERLAY, 0, STATIC
        ARGFRAME DOVERLAY, 0, STATIC
        PUSH    DPL
        CFI DPL0 Frame(CFA_SP, 4)
        CFI CFA_SP SP+-4
        PUSH    DPH
        CFI DPH0 Frame(CFA_SP, 5)
        CFI CFA_SP SP+-5
        ; Saved register size: 2
        ; Auto size: 0
//  517     /* Wake up and read keys */
//  518     return ( HalKeyRead () );
        ; Setup parameters for call to function HalKeyRead
        LCALL   ??HalKeyRead?relay
        SJMP    ?Subroutine0
        CFI EndBlock cfiBlock9
//  519 }
//  520 
//  521 /***************************************************************************************************
//  522  *                                    INTERRUPT SERVICE ROUTINE
//  523  ***************************************************************************************************/
//  524 
//  525 /**************************************************************************************************
//  526  * @fn      halKeyPort1Isr
//  527  *
//  528  * @brief   Port1 ISR
//  529  *
//  530  * @param
//  531  *
//  532  * @return
//  533  **************************************************************************************************/

        RSEG NEAR_CODE:CODE:NOROOT(0)
//  534 HAL_ISR_FUNCTION( halKeyPort1Isr, P1INT_VECTOR )
halKeyPort1Isr:
        CFI Block cfiBlock10 Using cfiCommon1
        CFI Function halKeyPort1Isr
        CODE
//  535 {
        FUNCALL halKeyPort1Isr, halProcessKeyInterrupt
        LOCFRAME ISTACK, 15, STACK
        LOCFRAME PSTACK, 0, STACK
        LOCFRAME XSTACK, 0, STACK
        LOCFRAME IOVERLAY, 0, STATIC
        LOCFRAME DOVERLAY, 0, STATIC
        ARGFRAME ISTACK, 15, STACK
        ARGFRAME PSTACK, 0, STACK
        ARGFRAME XSTACK, 0, STACK
        ARGFRAME IOVERLAY, 0, STATIC
        ARGFRAME DOVERLAY, 0, STATIC
        PUSH    A
        CFI A Frame(CFA_SP, 3)
        CFI CFA_SP SP+-3
        MOV     A,#-0xe
        LCALL   ?INTERRUPT_ENTER_XSP
        CFI B load(1, XDATA, add(CFA_XSP16, literal(-1)))
        CFI VB load(1, XDATA, add(CFA_XSP16, literal(-2)))
        CFI PSW load(1, XDATA, add(CFA_XSP16, literal(-3)))
        CFI DPL0 load(1, XDATA, add(CFA_XSP16, literal(-4)))
        CFI DPH0 load(1, XDATA, add(CFA_XSP16, literal(-5)))
        CFI R7 load(1, XDATA, add(CFA_XSP16, literal(-6)))
        CFI R6 load(1, XDATA, add(CFA_XSP16, literal(-7)))
        CFI R5 load(1, XDATA, add(CFA_XSP16, literal(-8)))
        CFI R4 load(1, XDATA, add(CFA_XSP16, literal(-9)))
        CFI V0 load(1, XDATA, add(CFA_XSP16, literal(-10)))
        CFI R3 load(1, XDATA, add(CFA_XSP16, literal(-11)))
        CFI R2 load(1, XDATA, add(CFA_XSP16, literal(-12)))
        CFI R1 load(1, XDATA, add(CFA_XSP16, literal(-13)))
        CFI R0 load(1, XDATA, add(CFA_XSP16, literal(-14)))
        CFI CFA_XSP16 add(XSP16, 14)
        ; Saved register size: 15
        ; Auto size: 0
//  536     HAL_ENTER_ISR();
        MOV     C,0xa8.7
        CLR     A
        RLC     A
        MOV     R6,A
        SETB    0xa8.7
//  537 
//  538     if ( (HAL_KEY_SW_7_PXIFG & HAL_KEY_SW_7_BIT) || (HAL_KEY_SW_5_PXIFG & HAL_KEY_SW_5_BIT) )
        MOV     A,0x8a
        MOV     C,0xE0 /* A   */.3
        JC      ??halKeyPort1Isr_0
        MOV     A,0x8a
        MOV     C,0xE0 /* A   */.2
        JNC     ??halKeyPort1Isr_1
//  539     {
//  540         halProcessKeyInterrupt();
??halKeyPort1Isr_0:
        ; Setup parameters for call to function halProcessKeyInterrupt
        LCALL   ??halProcessKeyInterrupt?relay
//  541     }
//  542 
//  543     /*
//  544       Clear the CPU interrupt flag for Port_1
//  545       PxIFG has to be cleared before PxIF
//  546     */
//  547     HAL_KEY_SW_7_PXIFG = 0;
??halKeyPort1Isr_1:
        MOV     0x8a,#0x0
//  548     HAL_KEY_SW_5_PXIFG = 0;
        MOV     0x8a,#0x0
//  549     HAL_KEY_CPU_PORT_1_IF = 0;
        CLR     0xe8.3
        CFI EndBlock cfiBlock10
//  550 
//  551     CLEAR_SLEEP_MODE();
//  552     HAL_EXIT_ISR();
        REQUIRE ?Subroutine2
        REQUIRE _A_IEN0
        REQUIRE P1IFG
        REQUIRE _A_IRCON2
        ; // Fall through to label ?Subroutine2
//  553 }

        RSEG NEAR_CODE:CODE:NOROOT(0)
?Subroutine2:
        CFI Block cfiBlock11 Using cfiCommon1
        CFI NoFunction
        CFI CFA_SP SP+-3
        CFI CFA_XSP16 add(XSP16, 14)
        CFI VB load(1, XDATA, add(CFA_XSP16, literal(-2)))
        CFI B load(1, XDATA, add(CFA_XSP16, literal(-1)))
        CFI A Frame(CFA_SP, 3)
        CFI PSW load(1, XDATA, add(CFA_XSP16, literal(-3)))
        CFI DPL0 load(1, XDATA, add(CFA_XSP16, literal(-4)))
        CFI DPH0 load(1, XDATA, add(CFA_XSP16, literal(-5)))
        CFI R0 load(1, XDATA, add(CFA_XSP16, literal(-14)))
        CFI R1 load(1, XDATA, add(CFA_XSP16, literal(-13)))
        CFI R2 load(1, XDATA, add(CFA_XSP16, literal(-12)))
        CFI R3 load(1, XDATA, add(CFA_XSP16, literal(-11)))
        CFI R4 load(1, XDATA, add(CFA_XSP16, literal(-9)))
        CFI R5 load(1, XDATA, add(CFA_XSP16, literal(-8)))
        CFI R6 load(1, XDATA, add(CFA_XSP16, literal(-7)))
        CFI R7 load(1, XDATA, add(CFA_XSP16, literal(-6)))
        CFI V0 load(1, XDATA, add(CFA_XSP16, literal(-10)))
        MOV     A,R6
        MOV     C,0xE0 /* A   */.0
        MOV     0xa8.7,C
        MOV     R7,#0x1
        LJMP    ?INTERRUPT_LEAVE_XSP
        CFI EndBlock cfiBlock11
//  554 
//  555 
//  556 /**************************************************************************************************
//  557  * @fn      halKeyPort0Isr
//  558  *
//  559  * @brief   Port0 ISR
//  560  *
//  561  * @param
//  562  *
//  563  * @return
//  564  **************************************************************************************************/

        RSEG NEAR_CODE:CODE:NOROOT(0)
//  565 HAL_ISR_FUNCTION( halKeyPort0Isr, P0INT_VECTOR )
halKeyPort0Isr:
        CFI Block cfiBlock12 Using cfiCommon1
        CFI Function halKeyPort0Isr
        CODE
//  566 {
        FUNCALL halKeyPort0Isr, halProcessKeyInterrupt
        LOCFRAME ISTACK, 15, STACK
        LOCFRAME PSTACK, 0, STACK
        LOCFRAME XSTACK, 0, STACK
        LOCFRAME IOVERLAY, 0, STATIC
        LOCFRAME DOVERLAY, 0, STATIC
        ARGFRAME ISTACK, 15, STACK
        ARGFRAME PSTACK, 0, STACK
        ARGFRAME XSTACK, 0, STACK
        ARGFRAME IOVERLAY, 0, STATIC
        ARGFRAME DOVERLAY, 0, STATIC
        PUSH    A
        CFI A Frame(CFA_SP, 3)
        CFI CFA_SP SP+-3
        MOV     A,#-0xe
        LCALL   ?INTERRUPT_ENTER_XSP
        CFI B load(1, XDATA, add(CFA_XSP16, literal(-1)))
        CFI VB load(1, XDATA, add(CFA_XSP16, literal(-2)))
        CFI PSW load(1, XDATA, add(CFA_XSP16, literal(-3)))
        CFI DPL0 load(1, XDATA, add(CFA_XSP16, literal(-4)))
        CFI DPH0 load(1, XDATA, add(CFA_XSP16, literal(-5)))
        CFI R7 load(1, XDATA, add(CFA_XSP16, literal(-6)))
        CFI R6 load(1, XDATA, add(CFA_XSP16, literal(-7)))
        CFI R5 load(1, XDATA, add(CFA_XSP16, literal(-8)))
        CFI R4 load(1, XDATA, add(CFA_XSP16, literal(-9)))
        CFI V0 load(1, XDATA, add(CFA_XSP16, literal(-10)))
        CFI R3 load(1, XDATA, add(CFA_XSP16, literal(-11)))
        CFI R2 load(1, XDATA, add(CFA_XSP16, literal(-12)))
        CFI R1 load(1, XDATA, add(CFA_XSP16, literal(-13)))
        CFI R0 load(1, XDATA, add(CFA_XSP16, literal(-14)))
        CFI CFA_XSP16 add(XSP16, 14)
        ; Saved register size: 15
        ; Auto size: 0
//  567     HAL_ENTER_ISR();
        MOV     C,0xa8.7
        CLR     A
        RLC     A
        MOV     R6,A
        SETB    0xa8.7
//  568 
//  569     if (HAL_KEY_JOY_MOVE_PXIFG & HAL_KEY_JOY_MOVE_BIT)
        MOV     A,0x89
        MOV     C,0xE0 /* A   */.6
        JNC     ??halKeyPort0Isr_0
//  570     {
//  571         halProcessKeyInterrupt();
        ; Setup parameters for call to function halProcessKeyInterrupt
        LCALL   ??halProcessKeyInterrupt?relay
//  572     }
//  573 
//  574     /*
//  575       Clear the CPU interrupt flag for Port_0
//  576       PxIFG has to be cleared before PxIF
//  577     */
//  578     HAL_KEY_JOY_MOVE_PXIFG = 0;
??halKeyPort0Isr_0:
        MOV     0x89,#0x0
//  579     HAL_KEY_CPU_PORT_0_IF = 0;
        CLR     0xc0.5
//  580 
//  581     CLEAR_SLEEP_MODE();
//  582     HAL_EXIT_ISR();
        SJMP    ?Subroutine2
        CFI EndBlock cfiBlock12
        REQUIRE _A_IEN0
        REQUIRE P0IFG
        REQUIRE _A_IRCON
//  583 }

        COMMON INTVEC:CODE:ROOT(0)
        ORG 107
`??halKeyPort0Isr??INTVEC 107`:
        LJMP       (halKeyPort0Isr)

        COMMON INTVEC:CODE:ROOT(0)
        ORG 123
`??halKeyPort1Isr??INTVEC 123`:
        LJMP       (halKeyPort1Isr)

        RSEG BANK_RELAYS:CODE:REORDER:NOROOT(0)
??HalKeyInit?relay:
        LCALL   ?BDISPATCH
        DATA
        DC24    HalKeyInit

        RSEG BANK_RELAYS:CODE:REORDER:NOROOT(0)
??HalKeyConfig?relay:
        LCALL   ?BDISPATCH
        DATA
        DC24    HalKeyConfig

        RSEG BANK_RELAYS:CODE:REORDER:NOROOT(0)
??HalKeyRead?relay:
        LCALL   ?BDISPATCH
        DATA
        DC24    HalKeyRead

        RSEG BANK_RELAYS:CODE:REORDER:NOROOT(0)
??HalKeyPoll?relay:
        LCALL   ?BDISPATCH
        DATA
        DC24    HalKeyPoll

        RSEG BANK_RELAYS:CODE:REORDER:NOROOT(0)
??halGetJoyKeyInput?relay:
        LCALL   ?BDISPATCH
        DATA
        DC24    halGetJoyKeyInput

        RSEG BANK_RELAYS:CODE:REORDER:NOROOT(0)
??halProcessKeyInterrupt?relay:
        LCALL   ?BDISPATCH
        DATA
        DC24    halProcessKeyInterrupt

        RSEG BANK_RELAYS:CODE:REORDER:NOROOT(0)
??HalKeyEnterSleep?relay:
        LCALL   ?BDISPATCH
        DATA
        DC24    HalKeyEnterSleep

        RSEG BANK_RELAYS:CODE:REORDER:NOROOT(0)
??HalKeyExitSleep?relay:
        LCALL   ?BDISPATCH
        DATA
        DC24    HalKeyExitSleep

        END
//  584 
//  585 #else
//  586 
//  587 
//  588 void HalKeyInit(void){}
//  589 void HalKeyConfig(bool interruptEnable, halKeyCBack_t cback){}
//  590 uint8 HalKeyRead(void){ return 0;}
//  591 void HalKeyPoll(void){}
//  592 
//  593 #endif /* HAL_KEY */
//  594 
//  595 
//  596 
//  597 
//  598 
//  599 /**************************************************************************************************
//  600 **************************************************************************************************/
//  601 
//  602 
//  603 
// 
// 407 bytes in segment BANKED_CODE
//  48 bytes in segment BANK_RELAYS
//   6 bytes in segment INTVEC
//  77 bytes in segment NEAR_CODE
//  13 bytes in segment SFR_AN
//   5 bytes in segment XDATA_Z
// 
// 532 bytes of CODE  memory (+  6 bytes shared)
//   0 bytes of DATA  memory (+ 13 bytes shared)
//   5 bytes of XDATA memory
//
//Errors: none
//Warnings: none
