///////////////////////////////////////////////////////////////////////////////
//                                                                            /
// IAR C/C++ Compiler V8.10.1.10194/W32 for 8051        24/Mar/2021  16:13:26 /
// Copyright 2004-2011 IAR Systems AB.                                        /
//                                                                            /
//    Core               =  plain                                             /
//    Code model         =  banked                                            /
//    Data model         =  large                                             /
//    Calling convention =  xdata reentrant                                   /
//    Constant location  =  data_rom                                          /
//    Dptr setup         =  1,16                                              /
//    Source file        =  D:\毕设\CC2530-smart_home\Components\hal\target\C /
//                          C2530MB\hal_lcd.c                                 /
//    Command line       =  -f D:\毕设\CC2530-smart_home\Projects\zstack\Util /
//                          ities\Smart_home\CC2530DB\..\..\..\Tools\CC2530DB /
//                          \f8wCoord.cfg (-DCPU32MHZ -DROOT=__near_func      /
//                          -DMAC_CFG_APP_PENDING_QUEUE=TRUE                  /
//                          -DMAC_CFG_TX_DATA_MAX=5 -DMAC_CFG_TX_MAX=8        /
//                          -DMAC_CFG_RX_MAX=5 -DZDO_COORDINATOR -DRTR_NWK)   /
//                          -f D:\毕设\CC2530-smart_home\Projects\zstack\Util /
//                          ities\Smart_home\CC2530DB\..\..\..\Tools\CC2530DB /
//                          \f8wConfig.cfg (-DZIGBEEPRO -DSECURE=0            /
//                          -DZG_SECURE_DYNAMIC=0 -DREFLECTOR                 /
//                          -DDEFAULT_CHANLIST=0x02000000                     /
//                          -DZDAPP_CONFIG_PAN_ID=0x1001                      /
//                          -DNWK_START_DELAY=100 -DEXTENDED_JOINING_RANDOM_M /
//                          ASK=0x007F -DBEACON_REQUEST_DELAY=100             /
//                          -DBEACON_REQ_DELAY_MASK=0x00FF                    /
//                          -DLINK_STATUS_JITTER_MASK=0x007F                  /
//                          -DROUTE_EXPIRY_TIME=30 -DAPSC_ACK_WAIT_DURATION_P /
//                          OLLED=3000 -DNWK_INDIRECT_MSG_TIMEOUT=7           /
//                          -DMAX_RREQ_ENTRIES=8 -DAPSC_MAX_FRAME_RETRIES=3   /
//                          -DNWK_MAX_DATA_RETRIES=2                          /
//                          -DMAX_POLL_FAILURE_RETRIES=2 -DMAX_BCAST=9        /
//                          -DAPS_MAX_GROUPS=16 -DMAX_RTG_ENTRIES=40          /
//                          -DNWK_MAX_BINDING_ENTRIES=4                       /
//                          -DMAX_BINDING_CLUSTER_IDS=4                       /
//                          "-DDEFAULT_KEY={0x01, 0x03, 0x05, 0x07, 0x09,     /
//                          0x0B, 0x0D, 0x0F, 0x00, 0x02, 0x04, 0x06, 0x08,   /
//                          0x0A, 0x0C, 0x0D}" -DMAC_MAX_FRAME_SIZE=116       /
//                          -DZDNWKMGR_MIN_TRANSMISSIONS=20 "-DCONST=const    /
//                          __code" -DGENERIC=__generic                       /
//                          -DRFD_RCVC_ALWAYS_ON=FALSE -DPOLL_RATE=1000       /
//                          -DQUEUED_POLL_RATE=100 -DRESPONSE_POLL_RATE=100)  /
//                          -DREJOIN_POLL_RATE=440 D:\毕设\CC2530-smart_home\ /
//                          Components\hal\target\CC2530MB\hal_lcd.c -D       /
//                          LCD_SUPPORTED -D ZDO_COORDINATOR -D xNV_RESTORE   /
//                          -D xNV_INIT -D xREFLECTOR -D xHAL_UART=TRUE -D    /
//                          xHAL_UART_TEST -lC D:\毕设\CC2530-smart_home\Proj /
//                          ects\zstack\Utilities\Smart_home\CC2530DB\Coordin /
//                          atorMB\List\ -lA D:\毕设\CC2530-smart_home\Projec /
//                          ts\zstack\Utilities\Smart_home\CC2530DB\Coordinat /
//                          orMB\List\ --diag_suppress Pe001,Pa010 -o         /
//                          D:\毕设\CC2530-smart_home\Projects\zstack\Utiliti /
//                          es\Smart_home\CC2530DB\CoordinatorMB\Obj\ -e      /
//                          --no_code_motion --debug --core=plain             /
//                          --dptr=16,1 --data_model=large                    /
//                          --code_model=banked --calling_convention=xdata_re /
//                          entrant --place_constants=data_rom                /
//                          --nr_virtual_regs 16 -I                           /
//                          D:\毕设\CC2530-smart_home\Projects\zstack\Utiliti /
//                          es\Smart_home\CC2530DB\ -I                        /
//                          D:\毕设\CC2530-smart_home\Projects\zstack\Utiliti /
//                          es\Smart_home\CC2530DB\..\Source\ -I              /
//                          D:\毕设\CC2530-smart_home\Projects\zstack\Utiliti /
//                          es\Smart_home\CC2530DB\..\..\..\ZMain\TI2530DB\   /
//                          -I D:\毕设\CC2530-smart_home\Projects\zstack\Util /
//                          ities\Smart_home\CC2530DB\..\..\..\..\..\Componen /
//                          ts\hal\include\ -I D:\毕设\CC2530-smart_home\Proj /
//                          ects\zstack\Utilities\Smart_home\CC2530DB\..\..\. /
//                          .\..\..\Components\hal\target\CC2530MB\ -I        /
//                          D:\毕设\CC2530-smart_home\Projects\zstack\Utiliti /
//                          es\Smart_home\CC2530DB\..\..\..\..\..\Components\ /
//                          mac\include\ -I D:\毕设\CC2530-smart_home\Project /
//                          s\zstack\Utilities\Smart_home\CC2530DB\..\..\..\. /
//                          .\..\Components\mac\high_level\ -I                /
//                          D:\毕设\CC2530-smart_home\Projects\zstack\Utiliti /
//                          es\Smart_home\CC2530DB\..\..\..\..\..\Components\ /
//                          mac\low_level\srf04\ -I                           /
//                          D:\毕设\CC2530-smart_home\Projects\zstack\Utiliti /
//                          es\Smart_home\CC2530DB\..\..\..\..\..\Components\ /
//                          mac\low_level\srf04\single_chip\ -I               /
//                          D:\毕设\CC2530-smart_home\Projects\zstack\Utiliti /
//                          es\Smart_home\CC2530DB\..\..\..\..\..\Components\ /
//                          mt\ -I D:\毕设\CC2530-smart_home\Projects\zstack\ /
//                          Utilities\Smart_home\CC2530DB\..\..\..\..\..\Comp /
//                          onents\osal\include\ -I                           /
//                          D:\毕设\CC2530-smart_home\Projects\zstack\Utiliti /
//                          es\Smart_home\CC2530DB\..\..\..\..\..\Components\ /
//                          services\saddr\ -I D:\毕设\CC2530-smart_home\Proj /
//                          ects\zstack\Utilities\Smart_home\CC2530DB\..\..\. /
//                          .\..\..\Components\services\sdata\ -I             /
//                          D:\毕设\CC2530-smart_home\Projects\zstack\Utiliti /
//                          es\Smart_home\CC2530DB\..\..\..\..\..\Components\ /
//                          stack\af\ -I D:\毕设\CC2530-smart_home\Projects\z /
//                          stack\Utilities\Smart_home\CC2530DB\..\..\..\..\. /
//                          .\Components\stack\nwk\ -I                        /
//                          D:\毕设\CC2530-smart_home\Projects\zstack\Utiliti /
//                          es\Smart_home\CC2530DB\..\..\..\..\..\Components\ /
//                          stack\sapi\ -I D:\毕设\CC2530-smart_home\Projects /
//                          \zstack\Utilities\Smart_home\CC2530DB\..\..\..\.. /
//                          \..\Components\stack\sec\ -I                      /
//                          D:\毕设\CC2530-smart_home\Projects\zstack\Utiliti /
//                          es\Smart_home\CC2530DB\..\..\..\..\..\Components\ /
//                          stack\sys\ -I D:\毕设\CC2530-smart_home\Projects\ /
//                          zstack\Utilities\Smart_home\CC2530DB\..\..\..\..\ /
//                          ..\Components\stack\zdo\ -I                       /
//                          D:\毕设\CC2530-smart_home\Projects\zstack\Utiliti /
//                          es\Smart_home\CC2530DB\..\..\..\..\..\Components\ /
//                          zmac\ -I D:\毕设\CC2530-smart_home\Projects\zstac /
//                          k\Utilities\Smart_home\CC2530DB\..\..\..\..\..\Co /
//                          mponents\zmac\f8w\ -Ohz                           /
//    List file          =  D:\毕设\CC2530-smart_home\Projects\zstack\Utiliti /
//                          es\Smart_home\CC2530DB\CoordinatorMB\List\hal_lcd /
//                          .s51                                              /
//                                                                            /
//                                                                            /
///////////////////////////////////////////////////////////////////////////////

        NAME hal_lcd

        RTMODEL "__SystemLibrary", "CLib"
        RTMODEL "__calling_convention", "xdata_reentrant"
        RTMODEL "__code_model", "banked"
        RTMODEL "__core", "plain"
        RTMODEL "__data_model", "large"
        RTMODEL "__dptr_size", "16"
        RTMODEL "__extended_stack", "disabled"
        RTMODEL "__location_for_constants", "data"
        RTMODEL "__number_of_dptrs", "1"
        RTMODEL "__rt_version", "1"

        RSEG DOVERLAY:DATA:NOROOT(0)
        RSEG IOVERLAY:IDATA:NOROOT(0)
        RSEG ISTACK:IDATA:NOROOT(0)
        RSEG PSTACK:XDATA:NOROOT(0)
        RSEG XSTACK:XDATA:NOROOT(0)

        EXTERN ?ALLOC_XSTACK8
        EXTERN ?BANKED_ENTER_XDATA
        EXTERN ?BANKED_LEAVE_XDATA
        EXTERN ?BDISPATCH
        EXTERN ?BRET
        EXTERN ?DEALLOC_XSTACK8
        EXTERN ?PUSH_XSTACK_I_THREE
        EXTERN ?PUSH_XSTACK_I_TWO
        EXTERN ?S_SHL
        EXTERN ?V0
        EXTERN ?XSP
        EXTERN ?XSTACK_DISP0_8
        EXTERN __INIT_XDATA_Z

        PUBLIC ??HalLcdDisplayPercentBar?relay
        FUNCTION ??HalLcdDisplayPercentBar?relay,0203H
        PUBLIC ??HalLcdInit?relay
        FUNCTION ??HalLcdInit?relay,0203H
        PUBLIC ??HalLcdWriteScreen?relay
        FUNCTION ??HalLcdWriteScreen?relay,0203H
        PUBLIC ??HalLcdWriteString?relay
        FUNCTION ??HalLcdWriteString?relay,0203H
        PUBLIC ??HalLcdWriteStringValue?relay
        FUNCTION ??HalLcdWriteStringValue?relay,0203H
        PUBLIC ??HalLcdWriteStringValueValue?relay
        FUNCTION ??HalLcdWriteStringValueValue?relay,0203H
        PUBLIC ??HalLcdWriteValue?relay
        FUNCTION ??HalLcdWriteValue?relay,0203H
        PUBLIC ??HalLcd_HW_Clear?relay
        FUNCTION ??HalLcd_HW_Clear?relay,0203H
        PUBLIC ??HalLcd_HW_Control?relay
        FUNCTION ??HalLcd_HW_Control?relay,0203H
        PUBLIC ??HalLcd_HW_Init?relay
        FUNCTION ??HalLcd_HW_Init?relay,0203H
        PUBLIC ??HalLcd_HW_SET_DDRAM_ADDR?relay
        FUNCTION ??HalLcd_HW_SET_DDRAM_ADDR?relay,0203H
        PUBLIC ??HalLcd_HW_SetContrast?relay
        FUNCTION ??HalLcd_HW_SetContrast?relay,0203H
        PUBLIC ??HalLcd_HW_SetVoltage?relay
        FUNCTION ??HalLcd_HW_SetVoltage?relay,0203H
        PUBLIC ??HalLcd_HW_WaitUs?relay
        FUNCTION ??HalLcd_HW_WaitUs?relay,0203H
        PUBLIC ??HalLcd_HW_Write?relay
        FUNCTION ??HalLcd_HW_Write?relay,0203H
        PUBLIC ??HalLcd_HW_WriteChar?relay
        FUNCTION ??HalLcd_HW_WriteChar?relay,0203H
        PUBLIC ??HalLcd_HW_WriteLine?relay
        FUNCTION ??HalLcd_HW_WriteLine?relay,0203H
        FUNCTION ??halLcd_ConfigIO?relay,0203H
        PUBLIC HalLcdDisplayPercentBar
        FUNCTION HalLcdDisplayPercentBar,021203H
        ARGFRAME XSTACK, 0, STACK
        LOCFRAME XSTACK, 32, STACK
        PUBLIC HalLcdInit
        FUNCTION HalLcdInit,021203H
        ARGFRAME XSTACK, 0, STACK
        LOCFRAME ISTACK, 2, STACK
        PUBLIC HalLcdWriteScreen
        FUNCTION HalLcdWriteScreen,021203H
        ARGFRAME XSTACK, 0, STACK
        LOCFRAME XSTACK, 9, STACK
        PUBLIC HalLcdWriteString
        FUNCTION HalLcdWriteString,021203H
        ARGFRAME XSTACK, 44, STACK
        ARGFRAME IOVERLAY, 0, STATIC
        ARGFRAME DOVERLAY, 0, STATIC
        LOCFRAME XSTACK, 20, STACK
        PUBLIC HalLcdWriteStringValue
        FUNCTION HalLcdWriteStringValue,021203H
        ARGFRAME XSTACK, 1, STACK
        LOCFRAME XSTACK, 46, STACK
        PUBLIC HalLcdWriteStringValueValue
        FUNCTION HalLcdWriteStringValueValue,021203H
        ARGFRAME XSTACK, 4, STACK
        LOCFRAME XSTACK, 47, STACK
        PUBLIC HalLcdWriteValue
        FUNCTION HalLcdWriteValue,021203H
        ARGFRAME XSTACK, 1, STACK
        LOCFRAME XSTACK, 43, STACK
        PUBLIC HalLcd_HW_Clear
        FUNCTION HalLcd_HW_Clear,021203H
        ARGFRAME XSTACK, 0, STACK
        ARGFRAME IOVERLAY, 0, STATIC
        ARGFRAME DOVERLAY, 0, STATIC
        LOCFRAME XSTACK, 9, STACK
        PUBLIC HalLcd_HW_Control
        FUNCTION HalLcd_HW_Control,0203H
        ARGFRAME XSTACK, 9, STACK
        ARGFRAME IOVERLAY, 0, STATIC
        ARGFRAME DOVERLAY, 0, STATIC
        PUBLIC HalLcd_HW_Init
        FUNCTION HalLcd_HW_Init,021203H
        ARGFRAME XSTACK, 0, STACK
        ARGFRAME IOVERLAY, 0, STATIC
        ARGFRAME DOVERLAY, 0, STATIC
        LOCFRAME ISTACK, 2, STACK
        PUBLIC HalLcd_HW_SET_DDRAM_ADDR
        FUNCTION HalLcd_HW_SET_DDRAM_ADDR,021203H
        ARGFRAME XSTACK, 16, STACK
        ARGFRAME IOVERLAY, 0, STATIC
        ARGFRAME DOVERLAY, 0, STATIC
        LOCFRAME XSTACK, 9, STACK
        PUBLIC HalLcd_HW_SetContrast
        FUNCTION HalLcd_HW_SetContrast,021203H
        ARGFRAME XSTACK, 0, STACK
        ARGFRAME IOVERLAY, 0, STATIC
        ARGFRAME DOVERLAY, 0, STATIC
        LOCFRAME XSTACK, 9, STACK
        PUBLIC HalLcd_HW_SetVoltage
        FUNCTION HalLcd_HW_SetVoltage,021203H
        ARGFRAME XSTACK, 0, STACK
        ARGFRAME IOVERLAY, 0, STATIC
        ARGFRAME DOVERLAY, 0, STATIC
        LOCFRAME XSTACK, 9, STACK
        PUBLIC HalLcd_HW_WaitUs
        FUNCTION HalLcd_HW_WaitUs,080203H
        ARGFRAME XSTACK, 0, STACK
        ARGFRAME IOVERLAY, 0, STATIC
        ARGFRAME DOVERLAY, 0, STATIC
        PUBLIC HalLcd_HW_Write
        FUNCTION HalLcd_HW_Write,0203H
        ARGFRAME XSTACK, 16, STACK
        ARGFRAME IOVERLAY, 0, STATIC
        ARGFRAME DOVERLAY, 0, STATIC
        PUBLIC HalLcd_HW_WriteChar
        FUNCTION HalLcd_HW_WriteChar,021203H
        ARGFRAME XSTACK, 11, STACK
        ARGFRAME IOVERLAY, 0, STATIC
        ARGFRAME DOVERLAY, 0, STATIC
        LOCFRAME XSTACK, 16, STACK
        PUBLIC HalLcd_HW_WriteLine
        FUNCTION HalLcd_HW_WriteLine,021203H
        ARGFRAME XSTACK, 17, STACK
        ARGFRAME IOVERLAY, 0, STATIC
        ARGFRAME DOVERLAY, 0, STATIC
        LOCFRAME XSTACK, 11, STACK
        PUBWEAK P1DIR
        PUBWEAK P1SEL
        PUBWEAK P2DIR
        PUBWEAK P2SEL
        PUBWEAK _A_P1
        PUBWEAK _A_P2
        PUBLIC ascii_table_8x16
        FUNCTION halLcd_ConfigIO,0203H
        ARGFRAME XSTACK, 0, STACK
        ARGFRAME IOVERLAY, 0, STATIC
        ARGFRAME DOVERLAY, 0, STATIC
        
        CFI Names cfiNames0
        CFI StackFrame CFA_SP SP IDATA
        CFI StackFrame CFA_PSP16 PSP16 XDATA
        CFI StackFrame CFA_XSP16 XSP16 XDATA
        CFI StaticOverlayFrame CFA_IOVERLAY IOVERLAY
        CFI StaticOverlayFrame CFA_DOVERLAY DOVERLAY
        CFI Resource `PSW.CY`:1, `B.BR0`:1, `B.BR1`:1, `B.BR2`:1, `B.BR3`:1
        CFI Resource `B.BR4`:1, `B.BR5`:1, `B.BR6`:1, `B.BR7`:1, `VB.BR8`:1
        CFI Resource `VB.BR9`:1, `VB.BR10`:1, `VB.BR11`:1, `VB.BR12`:1
        CFI Resource `VB.BR13`:1, `VB.BR14`:1, `VB.BR15`:1, VB:8, B:8, A:8
        CFI Resource PSW:8, DPL0:8, DPH0:8, R0:8, R1:8, R2:8, R3:8, R4:8, R5:8
        CFI Resource R6:8, R7:8, V0:8, V1:8, V2:8, V3:8, V4:8, V5:8, V6:8, V7:8
        CFI Resource V8:8, V9:8, V10:8, V11:8, V12:8, V13:8, V14:8, V15:8, SP:8
        CFI Resource PSPH:8, PSPL:8, PSP16:16, XSPH:8, XSPL:8, XSP16:16
        CFI VirtualResource ?RET:24
        CFI Resource ?BRET_EXT:8
        CFI VirtualResource ?RET_HIGH:8, ?RET_LOW:8
        CFI ResourceParts PSP16 PSPH, PSPL
        CFI ResourceParts XSP16 XSPH, XSPL
        CFI ResourceParts ?RET ?BRET_EXT, ?RET_HIGH, ?RET_LOW
        CFI EndNames cfiNames0
        
        CFI Common cfiCommon0 Using cfiNames0
        CFI CodeAlign 1
        CFI DataAlign -1
        CFI ReturnAddress ?RET CODE
        CFI CFA_DOVERLAY Used
        CFI CFA_IOVERLAY Used
        CFI CFA_SP SP+-3
        CFI CFA_PSP16 PSP16+0
        CFI CFA_XSP16 XSP16+0
        CFI `PSW.CY` SameValue
        CFI `B.BR0` SameValue
        CFI `B.BR1` SameValue
        CFI `B.BR2` SameValue
        CFI `B.BR3` SameValue
        CFI `B.BR4` SameValue
        CFI `B.BR5` SameValue
        CFI `B.BR6` SameValue
        CFI `B.BR7` SameValue
        CFI `VB.BR8` SameValue
        CFI `VB.BR9` SameValue
        CFI `VB.BR10` SameValue
        CFI `VB.BR11` SameValue
        CFI `VB.BR12` SameValue
        CFI `VB.BR13` SameValue
        CFI `VB.BR14` SameValue
        CFI `VB.BR15` SameValue
        CFI VB SameValue
        CFI B Undefined
        CFI A Undefined
        CFI PSW SameValue
        CFI DPL0 SameValue
        CFI DPH0 SameValue
        CFI R0 Undefined
        CFI R1 Undefined
        CFI R2 Undefined
        CFI R3 Undefined
        CFI R4 Undefined
        CFI R5 Undefined
        CFI R6 SameValue
        CFI R7 SameValue
        CFI V0 SameValue
        CFI V1 SameValue
        CFI V2 SameValue
        CFI V3 SameValue
        CFI V4 SameValue
        CFI V5 SameValue
        CFI V6 SameValue
        CFI V7 SameValue
        CFI V8 SameValue
        CFI V9 SameValue
        CFI V10 SameValue
        CFI V11 SameValue
        CFI V12 SameValue
        CFI V13 SameValue
        CFI V14 SameValue
        CFI V15 SameValue
        CFI PSPH Undefined
        CFI PSPL Undefined
        CFI XSPH Undefined
        CFI XSPL Undefined
        CFI ?RET Concat
        CFI ?BRET_EXT Frame(CFA_SP, 3)
        CFI ?RET_HIGH Frame(CFA_SP, 2)
        CFI ?RET_LOW Frame(CFA_SP, 1)
        CFI EndCommon cfiCommon0
        
        
        CFI Common cfiCommon1 Using cfiNames0
        CFI CodeAlign 1
        CFI DataAlign -1
        CFI ReturnAddress ?RET CODE
        CFI CFA_DOVERLAY Used
        CFI CFA_IOVERLAY Used
        CFI CFA_SP SP+-2
        CFI CFA_PSP16 PSP16+0
        CFI CFA_XSP16 XSP16+0
        CFI `PSW.CY` SameValue
        CFI `B.BR0` SameValue
        CFI `B.BR1` SameValue
        CFI `B.BR2` SameValue
        CFI `B.BR3` SameValue
        CFI `B.BR4` SameValue
        CFI `B.BR5` SameValue
        CFI `B.BR6` SameValue
        CFI `B.BR7` SameValue
        CFI `VB.BR8` SameValue
        CFI `VB.BR9` SameValue
        CFI `VB.BR10` SameValue
        CFI `VB.BR11` SameValue
        CFI `VB.BR12` SameValue
        CFI `VB.BR13` SameValue
        CFI `VB.BR14` SameValue
        CFI `VB.BR15` SameValue
        CFI VB SameValue
        CFI B SameValue
        CFI A SameValue
        CFI PSW SameValue
        CFI DPL0 SameValue
        CFI DPH0 SameValue
        CFI R0 SameValue
        CFI R1 SameValue
        CFI R2 SameValue
        CFI R3 SameValue
        CFI R4 SameValue
        CFI R5 SameValue
        CFI R6 SameValue
        CFI R7 SameValue
        CFI V0 SameValue
        CFI V1 SameValue
        CFI V2 SameValue
        CFI V3 SameValue
        CFI V4 SameValue
        CFI V5 SameValue
        CFI V6 SameValue
        CFI V7 SameValue
        CFI V8 SameValue
        CFI V9 SameValue
        CFI V10 SameValue
        CFI V11 SameValue
        CFI V12 SameValue
        CFI V13 SameValue
        CFI V14 SameValue
        CFI V15 SameValue
        CFI PSPH Undefined
        CFI PSPL Undefined
        CFI XSPH Undefined
        CFI XSPL Undefined
        CFI ?RET Concat
        CFI ?BRET_EXT SameValue
        CFI ?RET_HIGH Frame(CFA_SP, 2)
        CFI ?RET_LOW Frame(CFA_SP, 1)
        CFI EndCommon cfiCommon1
        
osal_mem_alloc      SYMBOL "osal_mem_alloc"
osal_strlen         SYMBOL "osal_strlen"
osal_memcpy         SYMBOL "osal_memcpy"
osal_mem_free       SYMBOL "osal_mem_free"
_ltoa               SYMBOL "_ltoa"
??_ltoa?relay       SYMBOL "?relay", _ltoa
??osal_mem_alloc?relay SYMBOL "?relay", osal_mem_alloc
??osal_mem_free?relay SYMBOL "?relay", osal_mem_free
??osal_memcpy?relay SYMBOL "?relay", osal_memcpy
??osal_strlen?relay SYMBOL "?relay", osal_strlen
HalLcdDisplayPercentBar SYMBOL "HalLcdDisplayPercentBar"
??HalLcdDisplayPercentBar?relay SYMBOL "?relay", HalLcdDisplayPercentBar
HalLcdInit          SYMBOL "HalLcdInit"
??HalLcdInit?relay  SYMBOL "?relay", HalLcdInit
HalLcdWriteScreen   SYMBOL "HalLcdWriteScreen"
??HalLcdWriteScreen?relay SYMBOL "?relay", HalLcdWriteScreen
HalLcdWriteString   SYMBOL "HalLcdWriteString"
??HalLcdWriteString?relay SYMBOL "?relay", HalLcdWriteString
HalLcdWriteStringValue SYMBOL "HalLcdWriteStringValue"
??HalLcdWriteStringValue?relay SYMBOL "?relay", HalLcdWriteStringValue
HalLcdWriteStringValueValue SYMBOL "HalLcdWriteStringValueValue"
??HalLcdWriteStringValueValue?relay SYMBOL "?relay", HalLcdWriteStringValueValue
HalLcdWriteValue    SYMBOL "HalLcdWriteValue"
??HalLcdWriteValue?relay SYMBOL "?relay", HalLcdWriteValue
HalLcd_HW_Clear     SYMBOL "HalLcd_HW_Clear"
??HalLcd_HW_Clear?relay SYMBOL "?relay", HalLcd_HW_Clear
HalLcd_HW_Control   SYMBOL "HalLcd_HW_Control"
??HalLcd_HW_Control?relay SYMBOL "?relay", HalLcd_HW_Control
HalLcd_HW_Init      SYMBOL "HalLcd_HW_Init"
??HalLcd_HW_Init?relay SYMBOL "?relay", HalLcd_HW_Init
HalLcd_HW_SET_DDRAM_ADDR SYMBOL "HalLcd_HW_SET_DDRAM_ADDR"
??HalLcd_HW_SET_DDRAM_ADDR?relay SYMBOL "?relay", HalLcd_HW_SET_DDRAM_ADDR
HalLcd_HW_SetContrast SYMBOL "HalLcd_HW_SetContrast"
??HalLcd_HW_SetContrast?relay SYMBOL "?relay", HalLcd_HW_SetContrast
HalLcd_HW_SetVoltage SYMBOL "HalLcd_HW_SetVoltage"
??HalLcd_HW_SetVoltage?relay SYMBOL "?relay", HalLcd_HW_SetVoltage
HalLcd_HW_WaitUs    SYMBOL "HalLcd_HW_WaitUs"
??HalLcd_HW_WaitUs?relay SYMBOL "?relay", HalLcd_HW_WaitUs
HalLcd_HW_Write     SYMBOL "HalLcd_HW_Write"
??HalLcd_HW_Write?relay SYMBOL "?relay", HalLcd_HW_Write
HalLcd_HW_WriteChar SYMBOL "HalLcd_HW_WriteChar"
??HalLcd_HW_WriteChar?relay SYMBOL "?relay", HalLcd_HW_WriteChar
HalLcd_HW_WriteLine SYMBOL "HalLcd_HW_WriteLine"
??HalLcd_HW_WriteLine?relay SYMBOL "?relay", HalLcd_HW_WriteLine

        EXTERN osal_mem_alloc
        FUNCTION osal_mem_alloc,0202H
        ARGFRAME ISTACK, 0, STACK
        ARGFRAME PSTACK, 0, STACK
        ARGFRAME XSTACK, 17, STACK
        ARGFRAME IOVERLAY, 0, STATIC
        ARGFRAME DOVERLAY, 0, STATIC
        EXTERN osal_strlen
        FUNCTION osal_strlen,0202H
        ARGFRAME ISTACK, 0, STACK
        ARGFRAME PSTACK, 0, STACK
        ARGFRAME XSTACK, 44, STACK
        ARGFRAME IOVERLAY, 0, STATIC
        ARGFRAME DOVERLAY, 0, STATIC
        EXTERN osal_memcpy
        FUNCTION osal_memcpy,0202H
        ARGFRAME ISTACK, 0, STACK
        ARGFRAME PSTACK, 0, STACK
        ARGFRAME XSTACK, 47, STACK
        ARGFRAME IOVERLAY, 0, STATIC
        ARGFRAME DOVERLAY, 0, STATIC
        EXTERN osal_mem_free
        FUNCTION osal_mem_free,0202H
        ARGFRAME ISTACK, 0, STACK
        ARGFRAME PSTACK, 0, STACK
        ARGFRAME XSTACK, 17, STACK
        ARGFRAME IOVERLAY, 0, STATIC
        ARGFRAME DOVERLAY, 0, STATIC
        EXTERN _ltoa
        FUNCTION _ltoa,0202H
        ARGFRAME ISTACK, 0, STACK
        ARGFRAME PSTACK, 0, STACK
        ARGFRAME XSTACK, 46, STACK
        ARGFRAME IOVERLAY, 0, STATIC
        ARGFRAME DOVERLAY, 0, STATIC
        EXTERN ??_ltoa?relay
        FUNCTION ??_ltoa?relay,00H
        EXTERN ??osal_mem_alloc?relay
        FUNCTION ??osal_mem_alloc?relay,00H
        EXTERN ??osal_mem_free?relay
        FUNCTION ??osal_mem_free?relay,00H
        EXTERN ??osal_memcpy?relay
        FUNCTION ??osal_memcpy?relay,00H
        EXTERN ??osal_strlen?relay
        FUNCTION ??osal_strlen?relay,00H

// D:\毕设\CC2530-smart_home\Components\hal\target\CC2530MB\hal_lcd.c
//    1 /****************************************************************************************
//    2   Filename:       hal_lcd.c
//    3   Revised:        $Date: 2019-03-16 $
//    4   
//    5   Description:    
//    6   This file contains the interface to the HAL LCD Service.
//    7 
//    8 
//    9   Copyright 2007-2019 Texas Instruments Incorporated. All rights reserved.
//   10 
//   11   IMPORTANT: Your use of this Software is limited to those specific rights
//   12   granted under the terms of a software license agreement between the user
//   13   who downloaded the software, his/her employer (which must be your employer)
//   14   and Texas Instruments Incorporated (the "License").  You may not use this
//   15   Software unless you agree to abide by the terms of the License. The License
//   16   limits your use, and you acknowledge, that the Software may not be modified,
//   17   copied or distributed unless embedded on a Texas Instruments microcontroller
//   18   or used solely and exclusively in conjunction with a Texas Instruments radio
//   19   frequency transceiver, which is integrated into your product.  Other than for
//   20   the foregoing purpose, you may not use, reproduce, copy, prepare derivative
//   21   works of, modify, distribute, perform, display or sell this Software and/or
//   22   its documentation for any purpose.
//   23 
//   24   YOU FURTHER ACKNOWLEDGE AND AGREE THAT THE SOFTWARE AND DOCUMENTATION ARE
//   25   PROVIDED AS IS?WITHOUT WARRANTY OF ANY KIND, EITHER EXPRESS OR IMPLIED,
//   26   INCLUDING WITHOUT LIMITATION, ANY WARRANTY OF MERCHANTABILITY, TITLE,
//   27   NON-INFRINGEMENT AND FITNESS FOR A PARTICULAR PURPOSE. IN NO EVENT SHALL
//   28   TEXAS INSTRUMENTS OR ITS LICENSORS BE LIABLE OR OBLIGATED UNDER CONTRACT,
//   29   NEGLIGENCE, STRICT LIABILITY, CONTRIBUTION, BREACH OF WARRANTY, OR OTHER
//   30   LEGAL EQUITABLE THEORY ANY DIRECT OR INDIRECT DAMAGES OR EXPENSES
//   31   INCLUDING BUT NOT LIMITED TO ANY INCIDENTAL, SPECIAL, INDIRECT, PUNITIVE
//   32   OR CONSEQUENTIAL DAMAGES, LOST PROFITS OR LOST DATA, COST OF PROCUREMENT
//   33   OF SUBSTITUTE GOODS, TECHNOLOGY, SERVICES, OR ANY CLAIMS BY THIRD PARTIES
//   34   (INCLUDING BUT NOT LIMITED TO ANY DEFENSE THEREOF), OR OTHER SIMILAR COSTS.
//   35 
//   36   Should you have any questions regarding your right to use this Software,
//   37   contact Texas Instruments Incorporated at www.TI.com.
//   38 **************************************************************************************************/
//   39 
//   40 /**************************************************************************************************
//   41  *                                           INCLUDES
//   42  **************************************************************************************************/
//   43 //#include <ioCC2530.h>
//   44 #include "hal_types.h"
//   45 #include "hal_lcd.h"

        ASEGN SFR_AN:DATA:NOROOT,090H
// union <unnamed> volatile __sfr _A_P1
_A_P1:
        DATA8
        DS 1

        ASEGN SFR_AN:DATA:NOROOT,0a0H
// union <unnamed> volatile __sfr _A_P2
_A_P2:
        DATA8
        DS 1

        ASEGN SFR_AN:DATA:NOROOT,0f4H
// unsigned char volatile __sfr P1SEL
P1SEL:
        DATA8
        DS 1

        ASEGN SFR_AN:DATA:NOROOT,0f5H
// unsigned char volatile __sfr P2SEL
P2SEL:
        DATA8
        DS 1

        ASEGN SFR_AN:DATA:NOROOT,0feH
// unsigned char volatile __sfr P1DIR
P1DIR:
        DATA8
        DS 1

        ASEGN SFR_AN:DATA:NOROOT,0ffH
// unsigned char volatile __sfr P2DIR
P2DIR:
        DATA8
        DS 1
//   46 #include "OSAL.h"
//   47 #include "OnBoard.h"
//   48 #include "hal_assert.h"
//   49 #include "hal_defs.h"
//   50 #include "font.h"

        RSEG XDATA_ROM_C:CONST:REORDER:NOROOT(0)
        DATA8
// unsigned char const __xdata_rom ascii_table_8x16[95][16]
ascii_table_8x16:
        DB 0
        DB 0
        DB 0
        DB 0
        DB 0
        DB 0
        DB 0
        DB 0
        DB 0
        DB 0
        DB 0
        DB 0
        DB 0
        DB 0
        DB 0
        DB 0
        DB 0
        DB 0
        DB 0
        DB 248
        DB 0
        DB 0
        DB 0
        DB 0
        DB 0
        DB 0
        DB 0
        DB 51
        DB 48
        DB 0
        DB 0
        DB 0
        DB 0
        DB 16
        DB 12
        DB 6
        DB 16
        DB 12
        DB 6
        DB 0
        DB 0
        DB 0
        DB 0
        DB 0
        DB 0
        DB 0
        DB 0
        DB 0
        DB 64
        DB 192
        DB 120
        DB 64
        DB 192
        DB 120
        DB 64
        DB 0
        DB 4
        DB 63
        DB 4
        DB 4
        DB 63
        DB 4
        DB 4
        DB 0
        DB 0
        DB 112
        DB 136
        DB 252
        DB 8
        DB 48
        DB 0
        DB 0
        DB 0
        DB 24
        DB 32
        DB 255
        DB 33
        DB 30
        DB 0
        DB 0
        DB 240
        DB 8
        DB 240
        DB 0
        DB 224
        DB 24
        DB 0
        DB 0
        DB 0
        DB 33
        DB 28
        DB 3
        DB 30
        DB 33
        DB 30
        DB 0
        DB 0
        DB 240
        DB 8
        DB 136
        DB 112
        DB 0
        DB 0
        DB 0
        DB 30
        DB 33
        DB 35
        DB 36
        DB 25
        DB 39
        DB 33
        DB 16
        DB 16
        DB 22
        DB 14
        DB 0
        DB 0
        DB 0
        DB 0
        DB 0
        DB 0
        DB 0
        DB 0
        DB 0
        DB 0
        DB 0
        DB 0
        DB 0
        DB 0
        DB 0
        DB 0
        DB 224
        DB 24
        DB 4
        DB 2
        DB 0
        DB 0
        DB 0
        DB 0
        DB 7
        DB 24
        DB 32
        DB 64
        DB 0
        DB 0
        DB 2
        DB 4
        DB 24
        DB 224
        DB 0
        DB 0
        DB 0
        DB 0
        DB 64
        DB 32
        DB 24
        DB 7
        DB 0
        DB 0
        DB 0
        DB 64
        DB 64
        DB 128
        DB 240
        DB 128
        DB 64
        DB 64
        DB 0
        DB 2
        DB 2
        DB 1
        DB 15
        DB 1
        DB 2
        DB 2
        DB 0
        DB 0
        DB 0
        DB 0
        DB 240
        DB 0
        DB 0
        DB 0
        DB 0
        DB 1
        DB 1
        DB 1
        DB 31
        DB 1
        DB 1
        DB 1
        DB 0
        DB 0
        DB 0
        DB 0
        DB 0
        DB 0
        DB 0
        DB 0
        DB 0
        DB 128
        DB 176
        DB 112
        DB 0
        DB 0
        DB 0
        DB 0
        DB 0
        DB 0
        DB 0
        DB 0
        DB 0
        DB 0
        DB 0
        DB 0
        DB 0
        DB 0
        DB 1
        DB 1
        DB 1
        DB 1
        DB 1
        DB 1
        DB 1
        DB 0
        DB 0
        DB 0
        DB 0
        DB 0
        DB 0
        DB 0
        DB 0
        DB 0
        DB 48
        DB 48
        DB 0
        DB 0
        DB 0
        DB 0
        DB 0
        DB 0
        DB 0
        DB 0
        DB 0
        DB 128
        DB 96
        DB 24
        DB 4
        DB 0
        DB 96
        DB 24
        DB 6
        DB 1
        DB 0
        DB 0
        DB 0
        DB 0
        DB 224
        DB 16
        DB 8
        DB 8
        DB 16
        DB 224
        DB 0
        DB 0
        DB 15
        DB 16
        DB 32
        DB 32
        DB 16
        DB 15
        DB 0
        DB 0
        DB 16
        DB 16
        DB 248
        DB 0
        DB 0
        DB 0
        DB 0
        DB 0
        DB 32
        DB 32
        DB 63
        DB 32
        DB 32
        DB 0
        DB 0
        DB 0
        DB 112
        DB 8
        DB 8
        DB 8
        DB 136
        DB 112
        DB 0
        DB 0
        DB 48
        DB 40
        DB 36
        DB 34
        DB 33
        DB 48
        DB 0
        DB 0
        DB 48
        DB 8
        DB 136
        DB 136
        DB 72
        DB 48
        DB 0
        DB 0
        DB 24
        DB 32
        DB 32
        DB 32
        DB 17
        DB 14
        DB 0
        DB 0
        DB 0
        DB 192
        DB 32
        DB 16
        DB 248
        DB 0
        DB 0
        DB 0
        DB 7
        DB 4
        DB 36
        DB 36
        DB 63
        DB 36
        DB 0
        DB 0
        DB 248
        DB 8
        DB 136
        DB 136
        DB 8
        DB 8
        DB 0
        DB 0
        DB 25
        DB 33
        DB 32
        DB 32
        DB 17
        DB 14
        DB 0
        DB 0
        DB 224
        DB 16
        DB 136
        DB 136
        DB 24
        DB 0
        DB 0
        DB 0
        DB 15
        DB 17
        DB 32
        DB 32
        DB 17
        DB 14
        DB 0
        DB 0
        DB 56
        DB 8
        DB 8
        DB 200
        DB 56
        DB 8
        DB 0
        DB 0
        DB 0
        DB 0
        DB 63
        DB 0
        DB 0
        DB 0
        DB 0
        DB 0
        DB 112
        DB 136
        DB 8
        DB 8
        DB 136
        DB 112
        DB 0
        DB 0
        DB 28
        DB 34
        DB 33
        DB 33
        DB 34
        DB 28
        DB 0
        DB 0
        DB 224
        DB 16
        DB 8
        DB 8
        DB 16
        DB 224
        DB 0
        DB 0
        DB 0
        DB 49
        DB 34
        DB 34
        DB 17
        DB 15
        DB 0
        DB 0
        DB 0
        DB 0
        DB 192
        DB 192
        DB 0
        DB 0
        DB 0
        DB 0
        DB 0
        DB 0
        DB 48
        DB 48
        DB 0
        DB 0
        DB 0
        DB 0
        DB 0
        DB 0
        DB 128
        DB 0
        DB 0
        DB 0
        DB 0
        DB 0
        DB 0
        DB 128
        DB 96
        DB 0
        DB 0
        DB 0
        DB 0
        DB 0
        DB 0
        DB 128
        DB 64
        DB 32
        DB 16
        DB 8
        DB 0
        DB 0
        DB 1
        DB 2
        DB 4
        DB 8
        DB 16
        DB 32
        DB 0
        DB 64
        DB 64
        DB 64
        DB 64
        DB 64
        DB 64
        DB 64
        DB 0
        DB 4
        DB 4
        DB 4
        DB 4
        DB 4
        DB 4
        DB 4
        DB 0
        DB 0
        DB 8
        DB 16
        DB 32
        DB 64
        DB 128
        DB 0
        DB 0
        DB 0
        DB 32
        DB 16
        DB 8
        DB 4
        DB 2
        DB 1
        DB 0
        DB 0
        DB 112
        DB 72
        DB 8
        DB 8
        DB 8
        DB 240
        DB 0
        DB 0
        DB 0
        DB 0
        DB 48
        DB 54
        DB 1
        DB 0
        DB 0
        DB 192
        DB 48
        DB 200
        DB 40
        DB 232
        DB 16
        DB 224
        DB 0
        DB 7
        DB 24
        DB 39
        DB 36
        DB 35
        DB 20
        DB 11
        DB 0
        DB 0
        DB 0
        DB 192
        DB 56
        DB 224
        DB 0
        DB 0
        DB 0
        DB 32
        DB 60
        DB 35
        DB 2
        DB 2
        DB 39
        DB 56
        DB 32
        DB 8
        DB 248
        DB 136
        DB 136
        DB 136
        DB 112
        DB 0
        DB 0
        DB 32
        DB 63
        DB 32
        DB 32
        DB 32
        DB 17
        DB 14
        DB 0
        DB 192
        DB 48
        DB 8
        DB 8
        DB 8
        DB 8
        DB 56
        DB 0
        DB 7
        DB 24
        DB 32
        DB 32
        DB 32
        DB 16
        DB 8
        DB 0
        DB 8
        DB 248
        DB 8
        DB 8
        DB 8
        DB 16
        DB 224
        DB 0
        DB 32
        DB 63
        DB 32
        DB 32
        DB 32
        DB 16
        DB 15
        DB 0
        DB 8
        DB 248
        DB 136
        DB 136
        DB 232
        DB 8
        DB 16
        DB 0
        DB 32
        DB 63
        DB 32
        DB 32
        DB 35
        DB 32
        DB 24
        DB 0
        DB 8
        DB 248
        DB 136
        DB 136
        DB 232
        DB 8
        DB 16
        DB 0
        DB 32
        DB 63
        DB 32
        DB 0
        DB 3
        DB 0
        DB 0
        DB 0
        DB 192
        DB 48
        DB 8
        DB 8
        DB 8
        DB 56
        DB 0
        DB 0
        DB 7
        DB 24
        DB 32
        DB 32
        DB 34
        DB 30
        DB 2
        DB 0
        DB 8
        DB 248
        DB 8
        DB 0
        DB 0
        DB 8
        DB 248
        DB 8
        DB 32
        DB 63
        DB 33
        DB 1
        DB 1
        DB 33
        DB 63
        DB 32
        DB 0
        DB 8
        DB 8
        DB 248
        DB 8
        DB 8
        DB 0
        DB 0
        DB 0
        DB 32
        DB 32
        DB 63
        DB 32
        DB 32
        DB 0
        DB 0
        DB 0
        DB 0
        DB 8
        DB 8
        DB 248
        DB 8
        DB 8
        DB 0
        DB 192
        DB 128
        DB 128
        DB 128
        DB 127
        DB 0
        DB 0
        DB 0
        DB 8
        DB 248
        DB 136
        DB 192
        DB 40
        DB 24
        DB 8
        DB 0
        DB 32
        DB 63
        DB 32
        DB 1
        DB 38
        DB 56
        DB 32
        DB 0
        DB 8
        DB 248
        DB 8
        DB 0
        DB 0
        DB 0
        DB 0
        DB 0
        DB 32
        DB 63
        DB 32
        DB 32
        DB 32
        DB 32
        DB 48
        DB 0
        DB 8
        DB 248
        DB 248
        DB 0
        DB 248
        DB 248
        DB 8
        DB 0
        DB 32
        DB 63
        DB 0
        DB 63
        DB 0
        DB 63
        DB 32
        DB 0
        DB 8
        DB 248
        DB 48
        DB 192
        DB 0
        DB 8
        DB 248
        DB 8
        DB 32
        DB 63
        DB 32
        DB 0
        DB 7
        DB 24
        DB 63
        DB 0
        DB 224
        DB 16
        DB 8
        DB 8
        DB 8
        DB 16
        DB 224
        DB 0
        DB 15
        DB 16
        DB 32
        DB 32
        DB 32
        DB 16
        DB 15
        DB 0
        DB 8
        DB 248
        DB 8
        DB 8
        DB 8
        DB 8
        DB 240
        DB 0
        DB 32
        DB 63
        DB 33
        DB 1
        DB 1
        DB 1
        DB 0
        DB 0
        DB 224
        DB 16
        DB 8
        DB 8
        DB 8
        DB 16
        DB 224
        DB 0
        DB 15
        DB 24
        DB 36
        DB 36
        DB 56
        DB 80
        DB 79
        DB 0
        DB 8
        DB 248
        DB 136
        DB 136
        DB 136
        DB 136
        DB 112
        DB 0
        DB 32
        DB 63
        DB 32
        DB 0
        DB 3
        DB 12
        DB 48
        DB 32
        DB 0
        DB 112
        DB 136
        DB 8
        DB 8
        DB 8
        DB 56
        DB 0
        DB 0
        DB 56
        DB 32
        DB 33
        DB 33
        DB 34
        DB 28
        DB 0
        DB 24
        DB 8
        DB 8
        DB 248
        DB 8
        DB 8
        DB 24
        DB 0
        DB 0
        DB 0
        DB 32
        DB 63
        DB 32
        DB 0
        DB 0
        DB 0
        DB 8
        DB 248
        DB 8
        DB 0
        DB 0
        DB 8
        DB 248
        DB 8
        DB 0
        DB 31
        DB 32
        DB 32
        DB 32
        DB 32
        DB 31
        DB 0
        DB 8
        DB 120
        DB 136
        DB 0
        DB 0
        DB 200
        DB 56
        DB 8
        DB 0
        DB 0
        DB 7
        DB 56
        DB 14
        DB 1
        DB 0
        DB 0
        DB 248
        DB 8
        DB 0
        DB 248
        DB 0
        DB 8
        DB 248
        DB 0
        DB 3
        DB 60
        DB 7
        DB 0
        DB 7
        DB 60
        DB 3
        DB 0
        DB 8
        DB 24
        DB 104
        DB 128
        DB 128
        DB 104
        DB 24
        DB 8
        DB 32
        DB 48
        DB 44
        DB 3
        DB 3
        DB 44
        DB 48
        DB 32
        DB 8
        DB 56
        DB 200
        DB 0
        DB 200
        DB 56
        DB 8
        DB 0
        DB 0
        DB 0
        DB 32
        DB 63
        DB 32
        DB 0
        DB 0
        DB 0
        DB 16
        DB 8
        DB 8
        DB 8
        DB 200
        DB 56
        DB 8
        DB 0
        DB 32
        DB 56
        DB 38
        DB 33
        DB 32
        DB 32
        DB 24
        DB 0
        DB 0
        DB 0
        DB 0
        DB 254
        DB 2
        DB 2
        DB 2
        DB 0
        DB 0
        DB 0
        DB 0
        DB 127
        DB 64
        DB 64
        DB 64
        DB 0
        DB 0
        DB 12
        DB 48
        DB 192
        DB 0
        DB 0
        DB 0
        DB 0
        DB 0
        DB 0
        DB 0
        DB 1
        DB 6
        DB 56
        DB 192
        DB 0
        DB 0
        DB 2
        DB 2
        DB 2
        DB 254
        DB 0
        DB 0
        DB 0
        DB 0
        DB 64
        DB 64
        DB 64
        DB 127
        DB 0
        DB 0
        DB 0
        DB 0
        DB 0
        DB 4
        DB 2
        DB 2
        DB 2
        DB 4
        DB 0
        DB 0
        DB 0
        DB 0
        DB 0
        DB 0
        DB 0
        DB 0
        DB 0
        DB 0
        DB 0
        DB 0
        DB 0
        DB 0
        DB 0
        DB 0
        DB 0
        DB 128
        DB 128
        DB 128
        DB 128
        DB 128
        DB 128
        DB 128
        DB 128
        DB 0
        DB 2
        DB 2
        DB 4
        DB 0
        DB 0
        DB 0
        DB 0
        DB 0
        DB 0
        DB 0
        DB 0
        DB 0
        DB 0
        DB 0
        DB 0
        DB 0
        DB 0
        DB 128
        DB 128
        DB 128
        DB 128
        DB 0
        DB 0
        DB 0
        DB 25
        DB 36
        DB 34
        DB 34
        DB 34
        DB 63
        DB 32
        DB 8
        DB 248
        DB 0
        DB 128
        DB 128
        DB 0
        DB 0
        DB 0
        DB 0
        DB 63
        DB 17
        DB 32
        DB 32
        DB 17
        DB 14
        DB 0
        DB 0
        DB 0
        DB 0
        DB 128
        DB 128
        DB 128
        DB 0
        DB 0
        DB 0
        DB 14
        DB 17
        DB 32
        DB 32
        DB 32
        DB 17
        DB 0
        DB 0
        DB 0
        DB 0
        DB 128
        DB 128
        DB 136
        DB 248
        DB 0
        DB 0
        DB 14
        DB 17
        DB 32
        DB 32
        DB 16
        DB 63
        DB 32
        DB 0
        DB 0
        DB 128
        DB 128
        DB 128
        DB 128
        DB 0
        DB 0
        DB 0
        DB 31
        DB 34
        DB 34
        DB 34
        DB 34
        DB 19
        DB 0
        DB 0
        DB 128
        DB 128
        DB 240
        DB 136
        DB 136
        DB 136
        DB 24
        DB 0
        DB 32
        DB 32
        DB 63
        DB 32
        DB 32
        DB 0
        DB 0
        DB 0
        DB 0
        DB 128
        DB 128
        DB 128
        DB 128
        DB 128
        DB 0
        DB 0
        DB 107
        DB 148
        DB 148
        DB 148
        DB 147
        DB 96
        DB 0
        DB 8
        DB 248
        DB 0
        DB 128
        DB 128
        DB 128
        DB 0
        DB 0
        DB 32
        DB 63
        DB 33
        DB 0
        DB 0
        DB 32
        DB 63
        DB 32
        DB 0
        DB 128
        DB 152
        DB 152
        DB 0
        DB 0
        DB 0
        DB 0
        DB 0
        DB 32
        DB 32
        DB 63
        DB 32
        DB 32
        DB 0
        DB 0
        DB 0
        DB 0
        DB 0
        DB 128
        DB 152
        DB 152
        DB 0
        DB 0
        DB 0
        DB 192
        DB 128
        DB 128
        DB 128
        DB 127
        DB 0
        DB 0
        DB 8
        DB 248
        DB 0
        DB 0
        DB 128
        DB 128
        DB 128
        DB 0
        DB 32
        DB 63
        DB 36
        DB 2
        DB 45
        DB 48
        DB 32
        DB 0
        DB 0
        DB 8
        DB 8
        DB 248
        DB 0
        DB 0
        DB 0
        DB 0
        DB 0
        DB 32
        DB 32
        DB 63
        DB 32
        DB 32
        DB 0
        DB 0
        DB 128
        DB 128
        DB 128
        DB 128
        DB 128
        DB 128
        DB 128
        DB 0
        DB 32
        DB 63
        DB 32
        DB 0
        DB 63
        DB 32
        DB 0
        DB 63
        DB 128
        DB 128
        DB 0
        DB 128
        DB 128
        DB 128
        DB 0
        DB 0
        DB 32
        DB 63
        DB 33
        DB 0
        DB 0
        DB 32
        DB 63
        DB 32
        DB 0
        DB 0
        DB 128
        DB 128
        DB 128
        DB 128
        DB 0
        DB 0
        DB 0
        DB 31
        DB 32
        DB 32
        DB 32
        DB 32
        DB 31
        DB 0
        DB 128
        DB 128
        DB 0
        DB 128
        DB 128
        DB 0
        DB 0
        DB 0
        DB 128
        DB 255
        DB 161
        DB 32
        DB 32
        DB 17
        DB 14
        DB 0
        DB 0
        DB 0
        DB 0
        DB 128
        DB 128
        DB 128
        DB 128
        DB 0
        DB 0
        DB 14
        DB 17
        DB 32
        DB 32
        DB 160
        DB 255
        DB 128
        DB 128
        DB 128
        DB 128
        DB 0
        DB 128
        DB 128
        DB 128
        DB 0
        DB 32
        DB 32
        DB 63
        DB 33
        DB 32
        DB 0
        DB 1
        DB 0
        DB 0
        DB 0
        DB 128
        DB 128
        DB 128
        DB 128
        DB 128
        DB 0
        DB 0
        DB 51
        DB 36
        DB 36
        DB 36
        DB 36
        DB 25
        DB 0
        DB 0
        DB 128
        DB 128
        DB 224
        DB 128
        DB 128
        DB 0
        DB 0
        DB 0
        DB 0
        DB 0
        DB 31
        DB 32
        DB 32
        DB 0
        DB 0
        DB 128
        DB 128
        DB 0
        DB 0
        DB 0
        DB 128
        DB 128
        DB 0
        DB 0
        DB 31
        DB 32
        DB 32
        DB 32
        DB 16
        DB 63
        DB 32
        DB 128
        DB 128
        DB 128
        DB 0
        DB 0
        DB 128
        DB 128
        DB 128
        DB 0
        DB 1
        DB 14
        DB 48
        DB 8
        DB 6
        DB 1
        DB 0
        DB 128
        DB 128
        DB 0
        DB 128
        DB 0
        DB 128
        DB 128
        DB 128
        DB 15
        DB 48
        DB 12
        DB 3
        DB 12
        DB 48
        DB 15
        DB 0
        DB 0
        DB 128
        DB 128
        DB 0
        DB 128
        DB 128
        DB 128
        DB 0
        DB 0
        DB 32
        DB 49
        DB 46
        DB 14
        DB 49
        DB 32
        DB 0
        DB 128
        DB 128
        DB 128
        DB 0
        DB 0
        DB 128
        DB 128
        DB 128
        DB 128
        DB 129
        DB 142
        DB 112
        DB 24
        DB 6
        DB 1
        DB 0
        DB 0
        DB 128
        DB 128
        DB 128
        DB 128
        DB 128
        DB 128
        DB 0
        DB 0
        DB 33
        DB 48
        DB 44
        DB 34
        DB 33
        DB 48
        DB 0
        DB 0
        DB 0
        DB 0
        DB 0
        DB 128
        DB 124
        DB 2
        DB 2
        DB 0
        DB 0
        DB 0
        DB 0
        DB 0
        DB 63
        DB 64
        DB 64
        DB 0
        DB 0
        DB 0
        DB 0
        DB 255
        DB 0
        DB 0
        DB 0
        DB 0
        DB 0
        DB 0
        DB 0
        DB 255
        DB 0
        DB 0
        DB 0
        DB 0
        DB 2
        DB 2
        DB 124
        DB 128
        DB 0
        DB 0
        DB 0
        DB 0
        DB 64
        DB 64
        DB 63
        DB 0
        DB 0
        DB 0
        DB 0
        DB 0
        DB 6
        DB 1
        DB 1
        DB 2
        DB 2
        DB 4
        DB 4
        DB 0
        DB 0
        DB 0
        DB 0
        DB 0
        DB 0
        DB 0
        DB 0
//   51 
//   52 #if defined (ZTOOL_P1) || defined (ZTOOL_P2)
//   53     #include "DebugTrace.h"
//   54 #endif
//   55 
//   56 /**************************************************************************************************
//   57  *                                          CONSTANTS
//   58  **************************************************************************************************/
//   59 /*
//   60     LCD pins
//   61     // control
//   62     P1.1 - LCD_BACKLIGHT
//   63     P2.0 - LCD_RESET
//   64     
//   65     // spi
//   66     P1.7 - LCD_CS
//   67     P1.5 - RS
//   68     P1.4 - SCLK
//   69     P1.6 - SDA
//   70 */
//   71 
//   72 /* LCD Control lines */
//   73 // control
//   74 #define HAL_LCD_BACKLIGHT_PORT 1
//   75 #define HAL_LCD_BACKLIGHT_PIN  1
//   76 
//   77 #define HAL_LCD_RESET_PORT 2
//   78 #define HAL_LCD_RESET_PIN  0
//   79 
//   80 // spi
//   81 #define HAL_LCD_CS_PORT 1
//   82 #define HAL_LCD_CS_PIN  7
//   83 
//   84 #define HAL_LCD_RS_PORT 1
//   85 #define HAL_LCD_RS_PIN  5
//   86 
//   87 #define HAL_LCD_SCLK_PORT 1
//   88 #define HAL_LCD_SCLK_PIN  4
//   89 
//   90 #define HAL_LCD_SDA_PORT 1
//   91 #define HAL_LCD_SDA_PIN  6
//   92 
//   93 /* LCD Parameters */
//   94 #define LCD_MAX_LINE_COUNT              4
//   95 #define LCD_MAX_LINE_LENGTH             16
//   96 #define LCD_MAX_BUF                     25
//   97 
//   98 /* Defines for HW LCD */
//   99 
//  100 /* Bias control */
//  101 #define BIAS_1_7                        0x01
//  102 #define BIAS_1_9                        0x00
//  103 #define SET_BIAS_CTRL(bias)             HalLcd_HW_Control(0xA2 | (bias))
//  104 
//  105 /* Power control */
//  106 #define LCD_POWER_CONTROL_1             0x04
//  107 #define LCD_POWER_CONTROL_2             0x06
//  108 #define LCD_POWER_CONTROL_3             0x07
//  109 #define LCD_POWER_CONTROL(options)      HalLcd_HW_Control(0x28 + options)
//  110 
//  111 /* LCD commands */
//  112 #define LCD_SOFT_RESET                  0xE2
//  113 #define LCD_CMD_SET_CONTRAST            0x20
//  114 
//  115 
//  116 /**************************************************************************************************
//  117  *                                           MACROS
//  118  **************************************************************************************************/
//  119 
//  120 #define HAL_IO_SET(port, pin, val)                HAL_IO_SET_PREP(port, pin, val)
//  121 #define HAL_IO_SET_PREP(port, pin, val)           st( P##port##_##pin = val; )
//  122 
//  123 #define HAL_CONFIG_IO_OUTPUT(port, pin, val)      HAL_CONFIG_IO_OUTPUT_PREP(port, pin, val)
//  124 #define HAL_CONFIG_IO_OUTPUT_PREP(port, pin, val) st( P##port##SEL &= ~BV(pin); \ 
//  125                                                       P##port##_##pin = val; \ 
//  126                                                       P##port##DIR |= BV(pin); )
//  127 
//  128 #define HAL_CONFIG_IO_PERIPHERAL(port, pin)       HAL_CONFIG_IO_PERIPHERAL_PREP(port, pin)
//  129 #define HAL_CONFIG_IO_PERIPHERAL_PREP(port, pin)  st( P##port##SEL |= BV(pin); )
//  130 
//  131 
//  132 /* Control macros */
//  133 #define LCD_BACKLIGHT_OFF()     HAL_IO_SET(HAL_LCD_BACKLIGHT_PORT, HAL_LCD_BACKLIGHT_PIN, 1);
//  134 #define LCD_BACKLIGHT_ON()      HAL_IO_SET(HAL_LCD_BACKLIGHT_PORT, HAL_LCD_BACKLIGHT_PIN, 0);
//  135 
//  136 #define LCD_SCLK_H              HAL_IO_SET(HAL_LCD_SCLK_PORT, HAL_LCD_SCLK_PIN, 1);
//  137 #define LCD_SCLK_L              HAL_IO_SET(HAL_LCD_SCLK_PORT, HAL_LCD_SCLK_PIN, 0);
//  138 
//  139 #define LCD_SDA_H               HAL_IO_SET(HAL_LCD_SDA_PORT, HAL_LCD_SDA_PIN, 1);
//  140 #define LCD_SDA_L               HAL_IO_SET(HAL_LCD_SDA_PORT, HAL_LCD_SDA_PIN, 0);
//  141 
//  142 #define LCD_ACTIVATE_CS()       HAL_IO_SET(HAL_LCD_CS_PORT, HAL_LCD_CS_PIN, 0);
//  143 #define LCD_RELEASE_CS()        HAL_IO_SET(HAL_LCD_CS_PORT, HAL_LCD_CS_PIN, 1);
//  144 
//  145 #define LCD_RS_CMD()            HAL_IO_SET(HAL_LCD_RS_PORT, HAL_LCD_RS_PIN, 0);
//  146 #define LCD_RS_DATA()           HAL_IO_SET(HAL_LCD_RS_PORT, HAL_LCD_RS_PIN, 1);
//  147 
//  148 #define LCD_ACTIVATE_RESET()    HAL_IO_SET(HAL_LCD_RESET_PORT, HAL_LCD_RESET_PIN, 0);//低电平复位
//  149 #define LCD_RELEASE_RESET()     HAL_IO_SET(HAL_LCD_RESET_PORT, HAL_LCD_RESET_PIN, 1);
//  150 
//  151 #if (HAL_LCD == TRUE)
//  152 /**************************************************************************************************
//  153  *                                       LOCAL VARIABLES
//  154  **************************************************************************************************/
//  155 

        RSEG XDATA_Z:XDATA:NOROOT(0)
        DATA16
//  156 static uint8 *Lcd_Line1;
Lcd_Line1:
        DS 2
        REQUIRE __INIT_XDATA_Z
//  157 
//  158 /**************************************************************************************************
//  159  *                                       FUNCTIONS - API
//  160  **************************************************************************************************/
//  161 
//  162 void HalLcd_HW_Init(void);
//  163 void HalLcd_HW_WaitUs(uint16 i);
//  164 void HalLcd_HW_SET_DDRAM_ADDR(uint8 page, uint8 column);
//  165 void HalLcd_HW_Clear(void);
//  166 void HalLcd_HW_Control(uint8 cmd);
//  167 void HalLcd_HW_Write(uint8 data);
//  168 void HalLcd_HW_SetContrast(uint8 value);
//  169 void HalLcd_HW_SetVoltage(uint8 value);
//  170 void HalLcd_HW_WriteChar(uint8 line, uint8 col, char text);
//  171 void HalLcd_HW_WriteLine(uint8 line, const char *pText);
//  172 #endif //LCD
//  173 
//  174 /**************************************************************************************************
//  175  * @fn      HalLcdInit
//  176  *
//  177  * @brief   Initilize LCD Service
//  178  *
//  179  * @param   init - pointer to void that contains the initialized value
//  180  *
//  181  * @return  None
//  182  **************************************************************************************************/

        RSEG BANKED_CODE:CODE:NOROOT(0)
//  183 void HalLcdInit(void)
HalLcdInit:
        CFI Block cfiBlock0 Using cfiCommon0
        CFI Function HalLcdInit
        CODE
//  184 {
        FUNCALL HalLcdInit, HalLcd_HW_Init
        LOCFRAME ISTACK, 2, STACK
        LOCFRAME PSTACK, 0, STACK
        LOCFRAME XSTACK, 0, STACK
        LOCFRAME IOVERLAY, 0, STATIC
        LOCFRAME DOVERLAY, 0, STATIC
        ARGFRAME ISTACK, 2, STACK
        ARGFRAME PSTACK, 0, STACK
        ARGFRAME XSTACK, 0, STACK
        ARGFRAME IOVERLAY, 0, STATIC
        ARGFRAME DOVERLAY, 0, STATIC
        PUSH    DPL
        CFI DPL0 Frame(CFA_SP, 4)
        CFI CFA_SP SP+-4
        PUSH    DPH
        CFI DPH0 Frame(CFA_SP, 5)
        CFI CFA_SP SP+-5
        ; Saved register size: 2
        ; Auto size: 0
//  185 #if (HAL_LCD == TRUE)
//  186     Lcd_Line1 = NULL;
        MOV     DPTR,#Lcd_Line1
        CLR     A
        MOVX    @DPTR,A
        INC     DPTR
        MOVX    @DPTR,A
//  187     HalLcd_HW_Init();
        ; Setup parameters for call to function HalLcd_HW_Init
        LCALL   ??HalLcd_HW_Init?relay
        CFI EndBlock cfiBlock0
//  188 #endif
//  189 }
        REQUIRE ?Subroutine0
        ; // Fall through to label ?Subroutine0

        RSEG BANKED_CODE:CODE:NOROOT(0)
?Subroutine0:
        CFI Block cfiBlock1 Using cfiCommon0
        CFI NoFunction
        CFI CFA_SP SP+-5
        CFI DPL0 Frame(CFA_SP, 4)
        CFI DPH0 Frame(CFA_SP, 5)
        POP     DPH
        CFI CFA_SP SP+-4
        CFI DPH0 SameValue
        POP     DPL
        CFI CFA_SP SP+-3
        CFI DPL0 SameValue
        LJMP    ?BRET
        CFI EndBlock cfiBlock1
//  190 
//  191 /*************************************************************************************************
//  192  *                    LCD EMULATION FUNCTIONS
//  193  *
//  194  * Some evaluation boards are equipped with Liquid Crystal Displays
//  195  * (LCD) which may be used to display diagnostic information. These
//  196  * functions provide LCD emulation, sending the diagnostic strings
//  197  * to Z-Tool via the RS232 serial port. These functions are enabled
//  198  * when the "LCD_SUPPORTED" compiler flag is placed in the makefile.
//  199  *
//  200  * Most applications update both lines (1 and 2) of the LCD whenever
//  201  * text is posted to the device. This emulator assumes that line 1 is
//  202  * updated first (saved locally) and the formatting and send operation
//  203  * is triggered by receipt of line 2. Nothing will be transmitted if
//  204  * only line 1 is updated.
//  205  *
//  206  *************************************************************************************************/
//  207 
//  208 /**************************************************************************************************
//  209  * @fn      HalLcdWriteString
//  210  *
//  211  * @brief   Write a string to the LCD
//  212  *
//  213  * @param   str    - pointer to the string that will be displayed
//  214  *          option - display options
//  215  *
//  216  * @return  None
//  217  **************************************************************************************************/

        RSEG BANKED_CODE:CODE:NOROOT(0)
//  218 void HalLcdWriteString ( char *str, uint8 option)
HalLcdWriteString:
        CFI Block cfiBlock2 Using cfiCommon0
        CFI Function HalLcdWriteString
        CODE
//  219 {
        FUNCALL HalLcdWriteString, osal_mem_alloc
        LOCFRAME ISTACK, 0, STACK
        LOCFRAME PSTACK, 0, STACK
        LOCFRAME XSTACK, 17, STACK
        LOCFRAME IOVERLAY, 0, STATIC
        LOCFRAME DOVERLAY, 0, STATIC
        ARGFRAME ISTACK, 0, STACK
        ARGFRAME PSTACK, 0, STACK
        ARGFRAME XSTACK, 17, STACK
        ARGFRAME IOVERLAY, 0, STATIC
        ARGFRAME DOVERLAY, 0, STATIC
        FUNCALL HalLcdWriteString, HalLcdWriteString
        LOCFRAME ISTACK, 0, STACK
        LOCFRAME PSTACK, 0, STACK
        LOCFRAME XSTACK, 17, STACK
        LOCFRAME IOVERLAY, 0, STATIC
        LOCFRAME DOVERLAY, 0, STATIC
        ARGFRAME ISTACK, 0, STACK
        ARGFRAME PSTACK, 0, STACK
        ARGFRAME XSTACK, 17, STACK
        ARGFRAME IOVERLAY, 0, STATIC
        ARGFRAME DOVERLAY, 0, STATIC
        FUNCALL HalLcdWriteString, osal_strlen
        LOCFRAME ISTACK, 0, STACK
        LOCFRAME PSTACK, 0, STACK
        LOCFRAME XSTACK, 17, STACK
        LOCFRAME IOVERLAY, 0, STATIC
        LOCFRAME DOVERLAY, 0, STATIC
        ARGFRAME ISTACK, 0, STACK
        ARGFRAME PSTACK, 0, STACK
        ARGFRAME XSTACK, 17, STACK
        ARGFRAME IOVERLAY, 0, STATIC
        ARGFRAME DOVERLAY, 0, STATIC
        FUNCALL HalLcdWriteString, osal_memcpy
        LOCFRAME ISTACK, 0, STACK
        LOCFRAME PSTACK, 0, STACK
        LOCFRAME XSTACK, 20, STACK
        LOCFRAME IOVERLAY, 0, STATIC
        LOCFRAME DOVERLAY, 0, STATIC
        ARGFRAME ISTACK, 0, STACK
        ARGFRAME PSTACK, 0, STACK
        ARGFRAME XSTACK, 20, STACK
        ARGFRAME IOVERLAY, 0, STATIC
        ARGFRAME DOVERLAY, 0, STATIC
        FUNCALL HalLcdWriteString, osal_strlen
        LOCFRAME ISTACK, 0, STACK
        LOCFRAME PSTACK, 0, STACK
        LOCFRAME XSTACK, 17, STACK
        LOCFRAME IOVERLAY, 0, STATIC
        LOCFRAME DOVERLAY, 0, STATIC
        ARGFRAME ISTACK, 0, STACK
        ARGFRAME PSTACK, 0, STACK
        ARGFRAME XSTACK, 17, STACK
        ARGFRAME IOVERLAY, 0, STATIC
        ARGFRAME DOVERLAY, 0, STATIC
        FUNCALL HalLcdWriteString, osal_mem_alloc
        LOCFRAME ISTACK, 0, STACK
        LOCFRAME PSTACK, 0, STACK
        LOCFRAME XSTACK, 17, STACK
        LOCFRAME IOVERLAY, 0, STATIC
        LOCFRAME DOVERLAY, 0, STATIC
        ARGFRAME ISTACK, 0, STACK
        ARGFRAME PSTACK, 0, STACK
        ARGFRAME XSTACK, 17, STACK
        ARGFRAME IOVERLAY, 0, STATIC
        ARGFRAME DOVERLAY, 0, STATIC
        FUNCALL HalLcdWriteString, osal_memcpy
        LOCFRAME ISTACK, 0, STACK
        LOCFRAME PSTACK, 0, STACK
        LOCFRAME XSTACK, 20, STACK
        LOCFRAME IOVERLAY, 0, STATIC
        LOCFRAME DOVERLAY, 0, STATIC
        ARGFRAME ISTACK, 0, STACK
        ARGFRAME PSTACK, 0, STACK
        ARGFRAME XSTACK, 20, STACK
        ARGFRAME IOVERLAY, 0, STATIC
        ARGFRAME DOVERLAY, 0, STATIC
        FUNCALL HalLcdWriteString, osal_memcpy
        LOCFRAME ISTACK, 0, STACK
        LOCFRAME PSTACK, 0, STACK
        LOCFRAME XSTACK, 20, STACK
        LOCFRAME IOVERLAY, 0, STATIC
        LOCFRAME DOVERLAY, 0, STATIC
        ARGFRAME ISTACK, 0, STACK
        ARGFRAME PSTACK, 0, STACK
        ARGFRAME XSTACK, 20, STACK
        ARGFRAME IOVERLAY, 0, STATIC
        ARGFRAME DOVERLAY, 0, STATIC
        FUNCALL HalLcdWriteString, osal_mem_free
        LOCFRAME ISTACK, 0, STACK
        LOCFRAME PSTACK, 0, STACK
        LOCFRAME XSTACK, 17, STACK
        LOCFRAME IOVERLAY, 0, STATIC
        LOCFRAME DOVERLAY, 0, STATIC
        ARGFRAME ISTACK, 0, STACK
        ARGFRAME PSTACK, 0, STACK
        ARGFRAME XSTACK, 17, STACK
        ARGFRAME IOVERLAY, 0, STATIC
        ARGFRAME DOVERLAY, 0, STATIC
        FUNCALL HalLcdWriteString, HalLcd_HW_WriteLine
        LOCFRAME ISTACK, 0, STACK
        LOCFRAME PSTACK, 0, STACK
        LOCFRAME XSTACK, 17, STACK
        LOCFRAME IOVERLAY, 0, STATIC
        LOCFRAME DOVERLAY, 0, STATIC
        ARGFRAME ISTACK, 0, STACK
        ARGFRAME PSTACK, 0, STACK
        ARGFRAME XSTACK, 17, STACK
        ARGFRAME IOVERLAY, 0, STATIC
        ARGFRAME DOVERLAY, 0, STATIC
        MOV     A,#-0x11
        LCALL   ?BANKED_ENTER_XDATA
        CFI DPH0 load(1, XDATA, add(CFA_XSP16, literal(-1)))
        CFI DPL0 load(1, XDATA, add(CFA_XSP16, literal(-2)))
        CFI ?BRET_EXT load(1, XDATA, add(CFA_XSP16, literal(-3)))
        CFI ?RET_HIGH load(1, XDATA, add(CFA_XSP16, literal(-4)))
        CFI ?RET_LOW load(1, XDATA, add(CFA_XSP16, literal(-5)))
        CFI R7 load(1, XDATA, add(CFA_XSP16, literal(-6)))
        CFI V8 load(1, XDATA, add(CFA_XSP16, literal(-7)))
        CFI V7 load(1, XDATA, add(CFA_XSP16, literal(-8)))
        CFI V6 load(1, XDATA, add(CFA_XSP16, literal(-9)))
        CFI V5 load(1, XDATA, add(CFA_XSP16, literal(-10)))
        CFI V4 load(1, XDATA, add(CFA_XSP16, literal(-11)))
        CFI V3 load(1, XDATA, add(CFA_XSP16, literal(-12)))
        CFI V2 load(1, XDATA, add(CFA_XSP16, literal(-13)))
        CFI V1 load(1, XDATA, add(CFA_XSP16, literal(-14)))
        CFI V0 load(1, XDATA, add(CFA_XSP16, literal(-15)))
        CFI VB load(1, XDATA, add(CFA_XSP16, literal(-16)))
        CFI R6 load(1, XDATA, add(CFA_XSP16, literal(-17)))
        CFI CFA_SP SP+0
        CFI CFA_XSP16 add(XSP16, 17)
        ; Saved register size: 17
        ; Auto size: 0
        MOV     A,R2
        MOV     R6,A
        MOV     A,R3
        MOV     R7,A
        MOV     ?V0 + 8,R1
//  220 #if (HAL_LCD == TRUE)
//  221     uint8 strLen = 0;
//  222     uint8 totalLen = 0;
//  223     uint8 *buf;
//  224     uint8 tmpLen;
//  225   
//  226     if ( Lcd_Line1 == NULL )
        MOV     DPTR,#Lcd_Line1
        MOVX    A,@DPTR
        MOV     R0,A
        INC     DPTR
        MOVX    A,@DPTR
        MOV     R1,A
        MOV     A,R0
        ORL     A,R1
        JNZ     ??HalLcdWriteString_0
//  227     {
//  228         Lcd_Line1 = osal_mem_alloc( HAL_LCD_MAX_CHARS+1 );
        ; Setup parameters for call to function osal_mem_alloc
        MOV     R2,#0x11
        MOV     R3,#0x0
        LCALL   ??osal_mem_alloc?relay
        MOV     DPTR,#Lcd_Line1
        MOV     A,R2
        MOVX    @DPTR,A
        INC     DPTR
        MOV     A,R3
        MOVX    @DPTR,A
//  229         HalLcdWriteString( "TexasInstruments", 1 );
        ; Setup parameters for call to function HalLcdWriteString
        MOV     R1,#0x1
        MOV     R2,#`?<Constant "TexasInstruments">` & 0xff
        MOV     R3,#(`?<Constant "TexasInstruments">` >> 8) & 0xff
        LCALL   ??HalLcdWriteString?relay
//  230     }
//  231   
//  232     strLen = (uint8)osal_strlen( (char*)str );
??HalLcdWriteString_0:
        ; Setup parameters for call to function osal_strlen
        MOV     A,R6
        MOV     R2,A
        MOV     A,R7
        MOV     R3,A
        LCALL   ??osal_strlen?relay
        MOV     A,R2
        MOV     ?V0 + 7,A
//  233   
//  234     /* Check boundries */
//  235     if ( strLen > HAL_LCD_MAX_CHARS )
        CLR     C
        SUBB    A,#0x11
        JC      ??HalLcdWriteString_1
//  236         strLen = HAL_LCD_MAX_CHARS;
        MOV     ?V0 + 7,#0x10
//  237   
//  238     if ( option == HAL_LCD_LINE_1 )
??HalLcdWriteString_1:
        MOV     A,#0x1
        XRL     A,?V0 + 8
        JNZ     ??HalLcdWriteString_2
//  239     {
//  240         /* Line 1 gets saved for later */
//  241         osal_memcpy( Lcd_Line1, str, strLen );
        ; Setup parameters for call to function osal_memcpy
        MOV     ?V0 + 0,R6
        MOV     ?V0 + 1,R7
        MOV     ?V0 + 2,#0x0
        MOV     R0,#?V0 + 0
        LCALL   ?PUSH_XSTACK_I_THREE
        CFI CFA_XSP16 add(XSP16, 20)
        MOV     ?V0 + 0,?V0 + 7
        MOV     R4,?V0 + 0
        MOV     R5,#0x0
        MOV     DPTR,#Lcd_Line1
        MOVX    A,@DPTR
        MOV     R2,A
        INC     DPTR
        MOVX    A,@DPTR
        MOV     R3,A
        LCALL   ??Subroutine11_0 & 0xFFFF
??CrossCallReturnLabel_17:
        LCALL   ?DEALLOC_XSTACK8
        CFI CFA_XSP16 add(XSP16, 17)
//  242         Lcd_Line1[strLen] = '\0';
        MOV     R0,?V0 + 7
        MOV     DPTR,#Lcd_Line1
        MOVX    A,@DPTR
        ADD     A,R0
        MOV     R2,A
        INC     DPTR
        MOVX    A,@DPTR
        ADDC    A,#0x0
        MOV     DPL,R2
        MOV     DPH,A
        CLR     A
        MOVX    @DPTR,A
        LJMP    ??HalLcdWriteString_3 & 0xFFFF
//  243     }
//  244     else
//  245     {
//  246         /* Line 2 triggers action */
//  247         tmpLen = (uint8)osal_strlen( (char*)Lcd_Line1 );
??HalLcdWriteString_2:
        ; Setup parameters for call to function osal_strlen
        MOV     DPTR,#Lcd_Line1
        MOVX    A,@DPTR
        MOV     R2,A
        INC     DPTR
        MOVX    A,@DPTR
        MOV     R3,A
        LCALL   ?Subroutine6 & 0xFFFF
//  248         totalLen =  tmpLen + 1 + strLen + 1;
//  249         buf = osal_mem_alloc( totalLen );
??CrossCallReturnLabel_0:
        ; Setup parameters for call to function osal_mem_alloc
        ADD     A,?V0 + 7
        ADD     A,#0x2
        MOV     R2,A
        MOV     R3,#0x0
        LCALL   ??osal_mem_alloc?relay
        MOV     ?V0 + 0,R2
        MOV     ?V0 + 1,R3
//  250         if ( buf != NULL )
        MOV     A,R2
        ORL     A,?V0 + 1
        JZ      ??HalLcdWriteString_3
//  251         {
//  252             /* Concatenate strings */
//  253             osal_memcpy( buf, Lcd_Line1, tmpLen );
        ; Setup parameters for call to function osal_memcpy
        MOV     DPTR,#Lcd_Line1
        MOVX    A,@DPTR
        MOV     ?V0 + 4,A
        INC     DPTR
        MOVX    A,@DPTR
        MOV     ?V0 + 5,A
        MOV     ?V0 + 6,#0x0
        MOV     R0,#?V0 + 4
        LCALL   ?PUSH_XSTACK_I_THREE
        CFI CFA_XSP16 add(XSP16, 20)
        MOV     ?V0 + 4,?V0 + 2
        MOV     R4,?V0 + 4
        MOV     R5,#0x0
        LCALL   ??Subroutine11_0 & 0xFFFF
??CrossCallReturnLabel_18:
        LCALL   ?DEALLOC_XSTACK8
        CFI CFA_XSP16 add(XSP16, 17)
//  254             buf[tmpLen++] = ' ';
        MOV     A,?V0 + 0
        ADD     A,?V0 + 4
        MOV     DPL,A
        MOV     A,?V0 + 1
        LCALL   ??Subroutine13_0 & 0xFFFF
??CrossCallReturnLabel_20:
        INC     ?V0 + 2
//  255             osal_memcpy( &buf[tmpLen], str, strLen );
        ; Setup parameters for call to function osal_memcpy
        MOV     ?V0 + 4,R6
        MOV     ?V0 + 5,R7
        MOV     R0,#?V0 + 4
        LCALL   ?PUSH_XSTACK_I_THREE
        CFI CFA_XSP16 add(XSP16, 20)
        MOV     ?V0 + 4,?V0 + 7
        MOV     R4,?V0 + 4
        MOV     R5,#0x0
        MOV     A,?V0 + 0
        ADD     A,?V0 + 2
        MOV     R2,A
        MOV     A,?V0 + 1
        ADDC    A,#0x0
        MOV     R3,A
        LCALL   ??Subroutine11_0 & 0xFFFF
??CrossCallReturnLabel_19:
        LCALL   ?DEALLOC_XSTACK8
        CFI CFA_XSP16 add(XSP16, 17)
//  256             buf[tmpLen+strLen] = '\0';
        MOV     A,?V0 + 2
        ADD     A,?V0 + 4
        MOV     R0,A
        CLR     A
        ADDC    A,#0x0
        MOV     R1,A
        MOV     A,?V0 + 0
        ADD     A,R0
        MOV     DPL,A
        MOV     A,?V0 + 1
        ADDC    A,R1
        MOV     DPH,A
        CLR     A
        MOVX    @DPTR,A
//  257   
//  258             /* Send it out */
//  259 #if defined (ZTOOL_P1) || defined (ZTOOL_P2)
//  260 #if defined(SERIAL_DEBUG_SUPPORTED)
//  261             debug_str( (uint8*)buf );
//  262 #endif //LCD_SUPPORTED
//  263 #endif //ZTOOL_P1
//  264             /* Free mem */
//  265             osal_mem_free( buf );
        ; Setup parameters for call to function osal_mem_free
        MOV     R2,?V0 + 0
        MOV     R3,?V0 + 1
        LCALL   ??osal_mem_free?relay
//  266         }
//  267     }
//  268   
//  269     /* Display the string */
//  270     HalLcd_HW_WriteLine (option, str);
??HalLcdWriteString_3:
        ; Setup parameters for call to function HalLcd_HW_WriteLine
        MOV     A,R6
        MOV     R2,A
        MOV     A,R7
        MOV     R3,A
        MOV     R1,?V0 + 8
        LCALL   ??HalLcd_HW_WriteLine?relay
//  271 #endif //HAL_LCD
//  272 }
        MOV     R7,#0x9
        LJMP    ?BANKED_LEAVE_XDATA
        CFI EndBlock cfiBlock2
//  273 
//  274 /**************************************************************************************************
//  275  * @fn      HalLcdWriteValue
//  276  *
//  277  * @brief   Write a value to the LCD
//  278  *
//  279  * @param   value  - value that will be displayed
//  280  *          radix  - 8, 10, 16(进制)
//  281  *          option - display options
//  282  *
//  283  * @return  None
//  284  **************************************************************************************************/

        RSEG BANKED_CODE:CODE:NOROOT(0)
//  285 void HalLcdWriteValue ( uint32 value, const uint8 radix, uint8 option)
HalLcdWriteValue:
        CFI Block cfiBlock3 Using cfiCommon0
        CFI Function HalLcdWriteValue
        CODE
//  286 {
        FUNCALL HalLcdWriteValue, _ltoa
        LOCFRAME ISTACK, 0, STACK
        LOCFRAME PSTACK, 0, STACK
        LOCFRAME XSTACK, 43, STACK
        LOCFRAME IOVERLAY, 0, STATIC
        LOCFRAME DOVERLAY, 0, STATIC
        ARGFRAME ISTACK, 0, STACK
        ARGFRAME PSTACK, 0, STACK
        ARGFRAME XSTACK, 43, STACK
        ARGFRAME IOVERLAY, 0, STATIC
        ARGFRAME DOVERLAY, 0, STATIC
        FUNCALL HalLcdWriteValue, HalLcdWriteString
        LOCFRAME ISTACK, 0, STACK
        LOCFRAME PSTACK, 0, STACK
        LOCFRAME XSTACK, 41, STACK
        LOCFRAME IOVERLAY, 0, STATIC
        LOCFRAME DOVERLAY, 0, STATIC
        ARGFRAME ISTACK, 0, STACK
        ARGFRAME PSTACK, 0, STACK
        ARGFRAME XSTACK, 41, STACK
        ARGFRAME IOVERLAY, 0, STATIC
        ARGFRAME DOVERLAY, 0, STATIC
        MOV     A,#-0x10
        LCALL   ?BANKED_ENTER_XDATA
        CFI DPH0 load(1, XDATA, add(CFA_XSP16, literal(-1)))
        CFI DPL0 load(1, XDATA, add(CFA_XSP16, literal(-2)))
        CFI ?BRET_EXT load(1, XDATA, add(CFA_XSP16, literal(-3)))
        CFI ?RET_HIGH load(1, XDATA, add(CFA_XSP16, literal(-4)))
        CFI ?RET_LOW load(1, XDATA, add(CFA_XSP16, literal(-5)))
        CFI R7 load(1, XDATA, add(CFA_XSP16, literal(-6)))
        CFI V7 load(1, XDATA, add(CFA_XSP16, literal(-7)))
        CFI V6 load(1, XDATA, add(CFA_XSP16, literal(-8)))
        CFI V5 load(1, XDATA, add(CFA_XSP16, literal(-9)))
        CFI V4 load(1, XDATA, add(CFA_XSP16, literal(-10)))
        CFI V3 load(1, XDATA, add(CFA_XSP16, literal(-11)))
        CFI V2 load(1, XDATA, add(CFA_XSP16, literal(-12)))
        CFI V1 load(1, XDATA, add(CFA_XSP16, literal(-13)))
        CFI V0 load(1, XDATA, add(CFA_XSP16, literal(-14)))
        CFI VB load(1, XDATA, add(CFA_XSP16, literal(-15)))
        CFI R6 load(1, XDATA, add(CFA_XSP16, literal(-16)))
        CFI CFA_SP SP+0
        CFI CFA_XSP16 add(XSP16, 16)
        ; Saved register size: 16
        ; Auto size: 25
        MOV     A,#-0x19
        LCALL   ?ALLOC_XSTACK8
        CFI CFA_XSP16 add(XSP16, 41)
        MOV     A,#0x29
        LCALL   ?XSTACK_DISP0_8
        MOVX    A,@DPTR
        MOV     R6,A
//  287 #if (HAL_LCD == TRUE)
//  288     uint8 buf[LCD_MAX_BUF];
//  289 
//  290     // 将value按照radix的进制转换存到buf中
//  291     _ltoa( value, &buf[0], radix ); 
        ; Setup parameters for call to function _ltoa
        MOV     DPL,?XSP + 0
        MOV     DPH,?XSP + 1
        MOV     ?V0 + 0,DPL
        MOV     ?V0 + 1,DPH
        MOV     R0,#?V0 + 0
        LCALL   ?PUSH_XSTACK_I_TWO
        CFI CFA_XSP16 add(XSP16, 43)
        LCALL   ??Subroutine10_0 & 0xFFFF
??CrossCallReturnLabel_13:
        LCALL   ?DEALLOC_XSTACK8
        CFI CFA_XSP16 add(XSP16, 41)
//  292     HalLcdWriteString( (char*)buf, option );
        ; Setup parameters for call to function HalLcdWriteString
        MOV     A,R6
        MOV     R1,A
        MOV     DPL,?XSP + 0
        MOV     DPH,?XSP + 1
        MOV     R2,DPL
        MOV     R3,DPH
        LCALL   ??HalLcdWriteString?relay
//  293 #endif
//  294 }
        MOV     A,#0x19
        LCALL   ?DEALLOC_XSTACK8
        CFI EndBlock cfiBlock3
        REQUIRE ?Subroutine1
        ; // Fall through to label ?Subroutine1

        RSEG BANKED_CODE:CODE:NOROOT(0)
?Subroutine1:
        CFI Block cfiBlock4 Using cfiCommon0
        CFI NoFunction
        CFI CFA_SP SP+0
        CFI CFA_XSP16 add(XSP16, 16)
        CFI VB load(1, XDATA, add(CFA_XSP16, literal(-15)))
        CFI DPL0 load(1, XDATA, add(CFA_XSP16, literal(-2)))
        CFI DPH0 load(1, XDATA, add(CFA_XSP16, literal(-1)))
        CFI R6 load(1, XDATA, add(CFA_XSP16, literal(-16)))
        CFI R7 load(1, XDATA, add(CFA_XSP16, literal(-6)))
        CFI V0 load(1, XDATA, add(CFA_XSP16, literal(-14)))
        CFI V1 load(1, XDATA, add(CFA_XSP16, literal(-13)))
        CFI V2 load(1, XDATA, add(CFA_XSP16, literal(-12)))
        CFI V3 load(1, XDATA, add(CFA_XSP16, literal(-11)))
        CFI V4 load(1, XDATA, add(CFA_XSP16, literal(-10)))
        CFI V5 load(1, XDATA, add(CFA_XSP16, literal(-9)))
        CFI V6 load(1, XDATA, add(CFA_XSP16, literal(-8)))
        CFI V7 load(1, XDATA, add(CFA_XSP16, literal(-7)))
        CFI ?BRET_EXT load(1, XDATA, add(CFA_XSP16, literal(-3)))
        CFI ?RET_HIGH load(1, XDATA, add(CFA_XSP16, literal(-4)))
        CFI ?RET_LOW load(1, XDATA, add(CFA_XSP16, literal(-5)))
        MOV     R7,#0x8
        LJMP    ?BANKED_LEAVE_XDATA
        CFI EndBlock cfiBlock4
//  295 
//  296 /**************************************************************************************************
//  297  * @fn      HalLcdWriteScreen
//  298  *
//  299  * @brief   Write a value to the LCD
//  300  *
//  301  * @param   line1  - string that will be displayed on line 1
//  302  *          line2  - string that will be displayed on line 2
//  303  *
//  304  * @return  None
//  305  **************************************************************************************************/

        RSEG BANKED_CODE:CODE:NOROOT(0)
//  306 void HalLcdWriteScreen( char *line1, char *line2 )
HalLcdWriteScreen:
        CFI Block cfiBlock5 Using cfiCommon0
        CFI Function HalLcdWriteScreen
        CODE
//  307 {
        FUNCALL HalLcdWriteScreen, HalLcdWriteString
        LOCFRAME ISTACK, 0, STACK
        LOCFRAME PSTACK, 0, STACK
        LOCFRAME XSTACK, 9, STACK
        LOCFRAME IOVERLAY, 0, STATIC
        LOCFRAME DOVERLAY, 0, STATIC
        ARGFRAME ISTACK, 0, STACK
        ARGFRAME PSTACK, 0, STACK
        ARGFRAME XSTACK, 9, STACK
        ARGFRAME IOVERLAY, 0, STATIC
        ARGFRAME DOVERLAY, 0, STATIC
        FUNCALL HalLcdWriteScreen, HalLcdWriteString
        LOCFRAME ISTACK, 0, STACK
        LOCFRAME PSTACK, 0, STACK
        LOCFRAME XSTACK, 9, STACK
        LOCFRAME IOVERLAY, 0, STATIC
        LOCFRAME DOVERLAY, 0, STATIC
        ARGFRAME ISTACK, 0, STACK
        ARGFRAME PSTACK, 0, STACK
        ARGFRAME XSTACK, 9, STACK
        ARGFRAME IOVERLAY, 0, STATIC
        ARGFRAME DOVERLAY, 0, STATIC
        MOV     A,#-0x9
        LCALL   ?BANKED_ENTER_XDATA
        CFI DPH0 load(1, XDATA, add(CFA_XSP16, literal(-1)))
        CFI DPL0 load(1, XDATA, add(CFA_XSP16, literal(-2)))
        CFI ?BRET_EXT load(1, XDATA, add(CFA_XSP16, literal(-3)))
        CFI ?RET_HIGH load(1, XDATA, add(CFA_XSP16, literal(-4)))
        CFI ?RET_LOW load(1, XDATA, add(CFA_XSP16, literal(-5)))
        CFI R7 load(1, XDATA, add(CFA_XSP16, literal(-6)))
        CFI V0 load(1, XDATA, add(CFA_XSP16, literal(-7)))
        CFI VB load(1, XDATA, add(CFA_XSP16, literal(-8)))
        CFI R6 load(1, XDATA, add(CFA_XSP16, literal(-9)))
        CFI CFA_SP SP+0
        CFI CFA_XSP16 add(XSP16, 9)
        ; Saved register size: 9
        ; Auto size: 0
        MOV     A,R4
        MOV     R6,A
        MOV     A,R5
        MOV     R7,A
//  308 #if (HAL_LCD == TRUE)
//  309     HalLcdWriteString( line1, 1 );
        ; Setup parameters for call to function HalLcdWriteString
        MOV     R1,#0x1
        LCALL   ??HalLcdWriteString?relay
//  310     HalLcdWriteString( line2, 2 );
        ; Setup parameters for call to function HalLcdWriteString
        MOV     R1,#0x2
        MOV     A,R6
        MOV     R2,A
        MOV     A,R7
        MOV     R3,A
        LCALL   ??HalLcdWriteString?relay
//  311 #endif
//  312 }
        LJMP    ??Subroutine14_0 & 0xFFFF
        CFI EndBlock cfiBlock5
//  313 
//  314 /**************************************************************************************************
//  315  * @fn      HalLcdWriteStringValue
//  316  *
//  317  * @brief   Write a string followed by a value to the LCD
//  318  *
//  319  * @param   title  - Title that will be displayed before the value
//  320  *          value  - value
//  321  *          format - redix
//  322  *          line   - line number
//  323  *
//  324  * @return  None
//  325  **************************************************************************************************/

        RSEG BANKED_CODE:CODE:NOROOT(0)
//  326 void HalLcdWriteStringValue( char *title, uint16 value, uint8 format, uint8 line )
HalLcdWriteStringValue:
        CFI Block cfiBlock6 Using cfiCommon0
        CFI Function HalLcdWriteStringValue
        CODE
//  327 {
        FUNCALL HalLcdWriteStringValue, osal_strlen
        LOCFRAME ISTACK, 0, STACK
        LOCFRAME PSTACK, 0, STACK
        LOCFRAME XSTACK, 43, STACK
        LOCFRAME IOVERLAY, 0, STATIC
        LOCFRAME DOVERLAY, 0, STATIC
        ARGFRAME ISTACK, 0, STACK
        ARGFRAME PSTACK, 0, STACK
        ARGFRAME XSTACK, 43, STACK
        ARGFRAME IOVERLAY, 0, STATIC
        ARGFRAME DOVERLAY, 0, STATIC
        FUNCALL HalLcdWriteStringValue, osal_memcpy
        LOCFRAME ISTACK, 0, STACK
        LOCFRAME PSTACK, 0, STACK
        LOCFRAME XSTACK, 46, STACK
        LOCFRAME IOVERLAY, 0, STATIC
        LOCFRAME DOVERLAY, 0, STATIC
        ARGFRAME ISTACK, 0, STACK
        ARGFRAME PSTACK, 0, STACK
        ARGFRAME XSTACK, 46, STACK
        ARGFRAME IOVERLAY, 0, STATIC
        ARGFRAME DOVERLAY, 0, STATIC
        FUNCALL HalLcdWriteStringValue, _ltoa
        LOCFRAME ISTACK, 0, STACK
        LOCFRAME PSTACK, 0, STACK
        LOCFRAME XSTACK, 45, STACK
        LOCFRAME IOVERLAY, 0, STATIC
        LOCFRAME DOVERLAY, 0, STATIC
        ARGFRAME ISTACK, 0, STACK
        ARGFRAME PSTACK, 0, STACK
        ARGFRAME XSTACK, 45, STACK
        ARGFRAME IOVERLAY, 0, STATIC
        ARGFRAME DOVERLAY, 0, STATIC
        FUNCALL HalLcdWriteStringValue, HalLcdWriteString
        LOCFRAME ISTACK, 0, STACK
        LOCFRAME PSTACK, 0, STACK
        LOCFRAME XSTACK, 43, STACK
        LOCFRAME IOVERLAY, 0, STATIC
        LOCFRAME DOVERLAY, 0, STATIC
        ARGFRAME ISTACK, 0, STACK
        ARGFRAME PSTACK, 0, STACK
        ARGFRAME XSTACK, 43, STACK
        ARGFRAME IOVERLAY, 0, STATIC
        ARGFRAME DOVERLAY, 0, STATIC
        MOV     A,#-0x12
        LCALL   ?BANKED_ENTER_XDATA
        CFI DPH0 load(1, XDATA, add(CFA_XSP16, literal(-1)))
        CFI DPL0 load(1, XDATA, add(CFA_XSP16, literal(-2)))
        CFI ?BRET_EXT load(1, XDATA, add(CFA_XSP16, literal(-3)))
        CFI ?RET_HIGH load(1, XDATA, add(CFA_XSP16, literal(-4)))
        CFI ?RET_LOW load(1, XDATA, add(CFA_XSP16, literal(-5)))
        CFI R7 load(1, XDATA, add(CFA_XSP16, literal(-6)))
        CFI V9 load(1, XDATA, add(CFA_XSP16, literal(-7)))
        CFI V8 load(1, XDATA, add(CFA_XSP16, literal(-8)))
        CFI V7 load(1, XDATA, add(CFA_XSP16, literal(-9)))
        CFI V6 load(1, XDATA, add(CFA_XSP16, literal(-10)))
        CFI V5 load(1, XDATA, add(CFA_XSP16, literal(-11)))
        CFI V4 load(1, XDATA, add(CFA_XSP16, literal(-12)))
        CFI V3 load(1, XDATA, add(CFA_XSP16, literal(-13)))
        CFI V2 load(1, XDATA, add(CFA_XSP16, literal(-14)))
        CFI V1 load(1, XDATA, add(CFA_XSP16, literal(-15)))
        CFI V0 load(1, XDATA, add(CFA_XSP16, literal(-16)))
        CFI VB load(1, XDATA, add(CFA_XSP16, literal(-17)))
        CFI R6 load(1, XDATA, add(CFA_XSP16, literal(-18)))
        CFI CFA_SP SP+0
        CFI CFA_XSP16 add(XSP16, 18)
        ; Saved register size: 18
        ; Auto size: 25
        MOV     A,#-0x19
        LCALL   ?ALLOC_XSTACK8
        CFI CFA_XSP16 add(XSP16, 43)
        MOV     A,R2
        MOV     R6,A
        MOV     A,R3
        MOV     R7,A
        MOV     ?V0 + 8,R4
        MOV     ?V0 + 9,R5
        MOV     ?V0 + 0,R1
        MOV     A,#0x2b
        LCALL   ?XSTACK_DISP0_8
        MOVX    A,@DPTR
        MOV     ?V0 + 1,A
//  328 #if (HAL_LCD == TRUE)
//  329     uint8 tmpLen;
//  330     uint8 buf[LCD_MAX_BUF];
//  331     uint32 err;
//  332   
//  333     tmpLen = (uint8)osal_strlen( (char*)title );
        ; Setup parameters for call to function osal_strlen
        LCALL   ?Subroutine6 & 0xFFFF
//  334     osal_memcpy( buf, title, tmpLen );
??CrossCallReturnLabel_1:
        ; Setup parameters for call to function osal_memcpy
        MOV     ?V0 + 4,R6
        MOV     ?V0 + 5,R7
        MOV     ?V0 + 6,#0x0
        MOV     R0,#?V0 + 4
        LCALL   ?PUSH_XSTACK_I_THREE
        CFI CFA_XSP16 add(XSP16, 46)
        MOV     ?V0 + 4,R2
        MOV     R4,?V0 + 4
        MOV     R5,#0x0
        MOV     A,#0x3
        LCALL   ?XSTACK_DISP0_8
        LCALL   ?Subroutine4 & 0xFFFF
??CrossCallReturnLabel_14:
        LCALL   ?DEALLOC_XSTACK8
        CFI CFA_XSP16 add(XSP16, 43)
//  335     buf[tmpLen] = ' ';
        LCALL   ?Subroutine3 & 0xFFFF
//  336     err = (uint32)(value);
//  337     _ltoa( err, &buf[tmpLen+1], format );
??CrossCallReturnLabel_22:
        ; Setup parameters for call to function _ltoa
        INC     DPTR
        MOV     ?V0 + 2,DPL
        MOV     ?V0 + 3,DPH
        MOV     R0,#?V0 + 2
        LCALL   ?PUSH_XSTACK_I_TWO
        CFI CFA_XSP16 add(XSP16, 45)
        MOV     R1,?V0 + 0
        MOV     R2,?V0 + 8
        MOV     R3,?V0 + 9
        LCALL   ?Subroutine5 & 0xFFFF
??CrossCallReturnLabel_9:
        LCALL   ?DEALLOC_XSTACK8
        CFI CFA_XSP16 add(XSP16, 43)
//  338     HalLcdWriteString( (char*)buf, line );		
        ; Setup parameters for call to function HalLcdWriteString
        MOV     R1,?V0 + 1
        MOV     DPL,?XSP + 0
        MOV     DPH,?XSP + 1
        MOV     R2,DPL
        MOV     R3,DPH
        LCALL   ??HalLcdWriteString?relay
//  339 #endif
//  340 }
        MOV     A,#0x19
        LCALL   ?DEALLOC_XSTACK8
        CFI CFA_XSP16 add(XSP16, 18)
        MOV     R7,#0xa
        LJMP    ?BANKED_LEAVE_XDATA
        CFI EndBlock cfiBlock6

        RSEG BANKED_CODE:CODE:NOROOT(0)
?Subroutine6:
        CFI Block cfiCond7 Using cfiCommon0
        CFI NoFunction
        CFI Conditional ??CrossCallReturnLabel_0
        CFI R6 load(1, XDATA, add(CFA_XSP16, literal(-17)))
        CFI VB load(1, XDATA, add(CFA_XSP16, literal(-16)))
        CFI V0 load(1, XDATA, add(CFA_XSP16, literal(-15)))
        CFI V1 load(1, XDATA, add(CFA_XSP16, literal(-14)))
        CFI V2 load(1, XDATA, add(CFA_XSP16, literal(-13)))
        CFI V3 load(1, XDATA, add(CFA_XSP16, literal(-12)))
        CFI V4 load(1, XDATA, add(CFA_XSP16, literal(-11)))
        CFI V5 load(1, XDATA, add(CFA_XSP16, literal(-10)))
        CFI V6 load(1, XDATA, add(CFA_XSP16, literal(-9)))
        CFI V7 load(1, XDATA, add(CFA_XSP16, literal(-8)))
        CFI V8 load(1, XDATA, add(CFA_XSP16, literal(-7)))
        CFI R7 load(1, XDATA, add(CFA_XSP16, literal(-6)))
        CFI ?RET_LOW load(1, XDATA, add(CFA_XSP16, literal(-5)))
        CFI ?RET_HIGH load(1, XDATA, add(CFA_XSP16, literal(-4)))
        CFI ?BRET_EXT load(1, XDATA, add(CFA_XSP16, literal(-3)))
        CFI DPL0 load(1, XDATA, add(CFA_XSP16, literal(-2)))
        CFI DPH0 load(1, XDATA, add(CFA_XSP16, literal(-1)))
        CFI CFA_SP SP+0
        CFI CFA_XSP16 add(XSP16, 17)
        CFI Block cfiCond8 Using cfiCommon0
        CFI (cfiCond8) NoFunction
        CFI (cfiCond8) Conditional ??CrossCallReturnLabel_1
        CFI (cfiCond8) R6 load(1, XDATA, add(CFA_XSP16, literal(-18)))
        CFI (cfiCond8) VB load(1, XDATA, add(CFA_XSP16, literal(-17)))
        CFI (cfiCond8) V0 load(1, XDATA, add(CFA_XSP16, literal(-16)))
        CFI (cfiCond8) V1 load(1, XDATA, add(CFA_XSP16, literal(-15)))
        CFI (cfiCond8) V2 load(1, XDATA, add(CFA_XSP16, literal(-14)))
        CFI (cfiCond8) V3 load(1, XDATA, add(CFA_XSP16, literal(-13)))
        CFI (cfiCond8) V4 load(1, XDATA, add(CFA_XSP16, literal(-12)))
        CFI (cfiCond8) V5 load(1, XDATA, add(CFA_XSP16, literal(-11)))
        CFI (cfiCond8) V6 load(1, XDATA, add(CFA_XSP16, literal(-10)))
        CFI (cfiCond8) V7 load(1, XDATA, add(CFA_XSP16, literal(-9)))
        CFI (cfiCond8) V8 load(1, XDATA, add(CFA_XSP16, literal(-8)))
        CFI (cfiCond8) V9 load(1, XDATA, add(CFA_XSP16, literal(-7)))
        CFI (cfiCond8) R7 load(1, XDATA, add(CFA_XSP16, literal(-6)))
        CFI (cfiCond8) ?RET_LOW load(1, XDATA, add(CFA_XSP16, literal(-5)))
        CFI (cfiCond8) ?RET_HIGH load(1, XDATA, add(CFA_XSP16, literal(-4)))
        CFI (cfiCond8) ?BRET_EXT load(1, XDATA, add(CFA_XSP16, literal(-3)))
        CFI (cfiCond8) DPL0 load(1, XDATA, add(CFA_XSP16, literal(-2)))
        CFI (cfiCond8) DPH0 load(1, XDATA, add(CFA_XSP16, literal(-1)))
        CFI (cfiCond8) CFA_SP SP+0
        CFI (cfiCond8) CFA_XSP16 add(XSP16, 43)
        CFI Block cfiCond9 Using cfiCommon0
        CFI (cfiCond9) NoFunction
        CFI (cfiCond9) Conditional ??CrossCallReturnLabel_2
        CFI (cfiCond9) R6 load(1, XDATA, add(CFA_XSP16, literal(-11)))
        CFI (cfiCond9) VB load(1, XDATA, add(CFA_XSP16, literal(-10)))
        CFI (cfiCond9) V0 load(1, XDATA, add(CFA_XSP16, literal(-9)))
        CFI (cfiCond9) V1 load(1, XDATA, add(CFA_XSP16, literal(-8)))
        CFI (cfiCond9) V2 load(1, XDATA, add(CFA_XSP16, literal(-7)))
        CFI (cfiCond9) R7 load(1, XDATA, add(CFA_XSP16, literal(-6)))
        CFI (cfiCond9) ?RET_LOW load(1, XDATA, add(CFA_XSP16, literal(-5)))
        CFI (cfiCond9) ?RET_HIGH load(1, XDATA, add(CFA_XSP16, literal(-4)))
        CFI (cfiCond9) ?BRET_EXT load(1, XDATA, add(CFA_XSP16, literal(-3)))
        CFI (cfiCond9) DPL0 load(1, XDATA, add(CFA_XSP16, literal(-2)))
        CFI (cfiCond9) DPH0 load(1, XDATA, add(CFA_XSP16, literal(-1)))
        CFI (cfiCond9) CFA_SP SP+0
        CFI (cfiCond9) CFA_XSP16 add(XSP16, 11)
        CFI Block cfiPicker10 Using cfiCommon1
        CFI (cfiPicker10) NoFunction
        CFI (cfiPicker10) Picker
        LCALL   ??osal_strlen?relay
        MOV     A,R2
        MOV     ?V0 + 2,A
        RET
        CFI EndBlock cfiCond7
        CFI EndBlock cfiCond8
        CFI EndBlock cfiCond9
        CFI EndBlock cfiPicker10

        RSEG BANKED_CODE:CODE:NOROOT(0)
?Subroutine5:
        CFI Block cfiCond11 Using cfiCommon0
        CFI NoFunction
        CFI Conditional ??CrossCallReturnLabel_9
        CFI R6 load(1, XDATA, add(CFA_XSP16, literal(-18)))
        CFI VB load(1, XDATA, add(CFA_XSP16, literal(-17)))
        CFI V0 load(1, XDATA, add(CFA_XSP16, literal(-16)))
        CFI V1 load(1, XDATA, add(CFA_XSP16, literal(-15)))
        CFI V2 load(1, XDATA, add(CFA_XSP16, literal(-14)))
        CFI V3 load(1, XDATA, add(CFA_XSP16, literal(-13)))
        CFI V4 load(1, XDATA, add(CFA_XSP16, literal(-12)))
        CFI V5 load(1, XDATA, add(CFA_XSP16, literal(-11)))
        CFI V6 load(1, XDATA, add(CFA_XSP16, literal(-10)))
        CFI V7 load(1, XDATA, add(CFA_XSP16, literal(-9)))
        CFI V8 load(1, XDATA, add(CFA_XSP16, literal(-8)))
        CFI V9 load(1, XDATA, add(CFA_XSP16, literal(-7)))
        CFI R7 load(1, XDATA, add(CFA_XSP16, literal(-6)))
        CFI ?RET_LOW load(1, XDATA, add(CFA_XSP16, literal(-5)))
        CFI ?RET_HIGH load(1, XDATA, add(CFA_XSP16, literal(-4)))
        CFI ?BRET_EXT load(1, XDATA, add(CFA_XSP16, literal(-3)))
        CFI DPL0 load(1, XDATA, add(CFA_XSP16, literal(-2)))
        CFI DPH0 load(1, XDATA, add(CFA_XSP16, literal(-1)))
        CFI CFA_SP SP+0
        CFI CFA_XSP16 add(XSP16, 45)
        CFI Block cfiCond12 Using cfiCommon0
        CFI (cfiCond12) NoFunction
        CFI (cfiCond12) Conditional ??CrossCallReturnLabel_10
        CFI (cfiCond12) R6 load(1, XDATA, add(CFA_XSP16, literal(-19)))
        CFI (cfiCond12) VB load(1, XDATA, add(CFA_XSP16, literal(-18)))
        CFI (cfiCond12) V0 load(1, XDATA, add(CFA_XSP16, literal(-17)))
        CFI (cfiCond12) V1 load(1, XDATA, add(CFA_XSP16, literal(-16)))
        CFI (cfiCond12) V2 load(1, XDATA, add(CFA_XSP16, literal(-15)))
        CFI (cfiCond12) V3 load(1, XDATA, add(CFA_XSP16, literal(-14)))
        CFI (cfiCond12) V4 load(1, XDATA, add(CFA_XSP16, literal(-13)))
        CFI (cfiCond12) V5 load(1, XDATA, add(CFA_XSP16, literal(-12)))
        CFI (cfiCond12) V6 load(1, XDATA, add(CFA_XSP16, literal(-11)))
        CFI (cfiCond12) V7 load(1, XDATA, add(CFA_XSP16, literal(-10)))
        CFI (cfiCond12) V8 load(1, XDATA, add(CFA_XSP16, literal(-9)))
        CFI (cfiCond12) V9 load(1, XDATA, add(CFA_XSP16, literal(-8)))
        CFI (cfiCond12) V10 load(1, XDATA, add(CFA_XSP16, literal(-7)))
        CFI (cfiCond12) R7 load(1, XDATA, add(CFA_XSP16, literal(-6)))
        CFI (cfiCond12) ?RET_LOW load(1, XDATA, add(CFA_XSP16, literal(-5)))
        CFI (cfiCond12) ?RET_HIGH load(1, XDATA, add(CFA_XSP16, literal(-4)))
        CFI (cfiCond12) ?BRET_EXT load(1, XDATA, add(CFA_XSP16, literal(-3)))
        CFI (cfiCond12) DPL0 load(1, XDATA, add(CFA_XSP16, literal(-2)))
        CFI (cfiCond12) DPH0 load(1, XDATA, add(CFA_XSP16, literal(-1)))
        CFI (cfiCond12) CFA_SP SP+0
        CFI (cfiCond12) CFA_XSP16 add(XSP16, 46)
        CFI Block cfiCond13 Using cfiCommon0
        CFI (cfiCond13) NoFunction
        CFI (cfiCond13) Conditional ??CrossCallReturnLabel_11
        CFI (cfiCond13) R6 load(1, XDATA, add(CFA_XSP16, literal(-19)))
        CFI (cfiCond13) VB load(1, XDATA, add(CFA_XSP16, literal(-18)))
        CFI (cfiCond13) V0 load(1, XDATA, add(CFA_XSP16, literal(-17)))
        CFI (cfiCond13) V1 load(1, XDATA, add(CFA_XSP16, literal(-16)))
        CFI (cfiCond13) V2 load(1, XDATA, add(CFA_XSP16, literal(-15)))
        CFI (cfiCond13) V3 load(1, XDATA, add(CFA_XSP16, literal(-14)))
        CFI (cfiCond13) V4 load(1, XDATA, add(CFA_XSP16, literal(-13)))
        CFI (cfiCond13) V5 load(1, XDATA, add(CFA_XSP16, literal(-12)))
        CFI (cfiCond13) V6 load(1, XDATA, add(CFA_XSP16, literal(-11)))
        CFI (cfiCond13) V7 load(1, XDATA, add(CFA_XSP16, literal(-10)))
        CFI (cfiCond13) V8 load(1, XDATA, add(CFA_XSP16, literal(-9)))
        CFI (cfiCond13) V9 load(1, XDATA, add(CFA_XSP16, literal(-8)))
        CFI (cfiCond13) V10 load(1, XDATA, add(CFA_XSP16, literal(-7)))
        CFI (cfiCond13) R7 load(1, XDATA, add(CFA_XSP16, literal(-6)))
        CFI (cfiCond13) ?RET_LOW load(1, XDATA, add(CFA_XSP16, literal(-5)))
        CFI (cfiCond13) ?RET_HIGH load(1, XDATA, add(CFA_XSP16, literal(-4)))
        CFI (cfiCond13) ?BRET_EXT load(1, XDATA, add(CFA_XSP16, literal(-3)))
        CFI (cfiCond13) DPL0 load(1, XDATA, add(CFA_XSP16, literal(-2)))
        CFI (cfiCond13) DPH0 load(1, XDATA, add(CFA_XSP16, literal(-1)))
        CFI (cfiCond13) CFA_SP SP+0
        CFI (cfiCond13) CFA_XSP16 add(XSP16, 46)
        CFI Block cfiPicker14 Using cfiCommon1
        CFI (cfiPicker14) NoFunction
        CFI (cfiPicker14) Picker
        CLR     A
        CFI EndBlock cfiCond11
        CFI EndBlock cfiCond12
        CFI EndBlock cfiCond13
        CFI EndBlock cfiPicker14
        REQUIRE ??Subroutine9_0
        ; // Fall through to label ??Subroutine9_0

        RSEG BANKED_CODE:CODE:NOROOT(0)
??Subroutine9_0:
        CFI Block cfiCond15 Using cfiCommon0
        CFI NoFunction
        CFI Conditional ??CrossCallReturnLabel_12
        CFI R6 load(1, XDATA, add(CFA_XSP16, literal(-12)))
        CFI VB load(1, XDATA, add(CFA_XSP16, literal(-11)))
        CFI V0 load(1, XDATA, add(CFA_XSP16, literal(-10)))
        CFI V1 load(1, XDATA, add(CFA_XSP16, literal(-9)))
        CFI V2 load(1, XDATA, add(CFA_XSP16, literal(-8)))
        CFI V3 load(1, XDATA, add(CFA_XSP16, literal(-7)))
        CFI R7 load(1, XDATA, add(CFA_XSP16, literal(-6)))
        CFI ?RET_LOW load(1, XDATA, add(CFA_XSP16, literal(-5)))
        CFI ?RET_HIGH load(1, XDATA, add(CFA_XSP16, literal(-4)))
        CFI ?BRET_EXT load(1, XDATA, add(CFA_XSP16, literal(-3)))
        CFI DPL0 load(1, XDATA, add(CFA_XSP16, literal(-2)))
        CFI DPH0 load(1, XDATA, add(CFA_XSP16, literal(-1)))
        CFI CFA_SP SP+0
        CFI CFA_XSP16 add(XSP16, 31)
        CFI Block cfiCond16 Using cfiCommon0
        CFI (cfiCond16) NoFunction
        CFI (cfiCond16) Conditional ??CrossCallReturnLabel_9
        CFI (cfiCond16) R6 load(1, XDATA, add(CFA_XSP16, literal(-18)))
        CFI (cfiCond16) VB load(1, XDATA, add(CFA_XSP16, literal(-17)))
        CFI (cfiCond16) V0 load(1, XDATA, add(CFA_XSP16, literal(-16)))
        CFI (cfiCond16) V1 load(1, XDATA, add(CFA_XSP16, literal(-15)))
        CFI (cfiCond16) V2 load(1, XDATA, add(CFA_XSP16, literal(-14)))
        CFI (cfiCond16) V3 load(1, XDATA, add(CFA_XSP16, literal(-13)))
        CFI (cfiCond16) V4 load(1, XDATA, add(CFA_XSP16, literal(-12)))
        CFI (cfiCond16) V5 load(1, XDATA, add(CFA_XSP16, literal(-11)))
        CFI (cfiCond16) V6 load(1, XDATA, add(CFA_XSP16, literal(-10)))
        CFI (cfiCond16) V7 load(1, XDATA, add(CFA_XSP16, literal(-9)))
        CFI (cfiCond16) V8 load(1, XDATA, add(CFA_XSP16, literal(-8)))
        CFI (cfiCond16) V9 load(1, XDATA, add(CFA_XSP16, literal(-7)))
        CFI (cfiCond16) R7 load(1, XDATA, add(CFA_XSP16, literal(-6)))
        CFI (cfiCond16) ?RET_LOW load(1, XDATA, add(CFA_XSP16, literal(-5)))
        CFI (cfiCond16) ?RET_HIGH load(1, XDATA, add(CFA_XSP16, literal(-4)))
        CFI (cfiCond16) ?BRET_EXT load(1, XDATA, add(CFA_XSP16, literal(-3)))
        CFI (cfiCond16) DPL0 load(1, XDATA, add(CFA_XSP16, literal(-2)))
        CFI (cfiCond16) DPH0 load(1, XDATA, add(CFA_XSP16, literal(-1)))
        CFI (cfiCond16) CFA_SP SP+0
        CFI (cfiCond16) CFA_XSP16 add(XSP16, 45)
        CFI Block cfiCond17 Using cfiCommon0
        CFI (cfiCond17) NoFunction
        CFI (cfiCond17) Conditional ??CrossCallReturnLabel_10
        CFI (cfiCond17) R6 load(1, XDATA, add(CFA_XSP16, literal(-19)))
        CFI (cfiCond17) VB load(1, XDATA, add(CFA_XSP16, literal(-18)))
        CFI (cfiCond17) V0 load(1, XDATA, add(CFA_XSP16, literal(-17)))
        CFI (cfiCond17) V1 load(1, XDATA, add(CFA_XSP16, literal(-16)))
        CFI (cfiCond17) V2 load(1, XDATA, add(CFA_XSP16, literal(-15)))
        CFI (cfiCond17) V3 load(1, XDATA, add(CFA_XSP16, literal(-14)))
        CFI (cfiCond17) V4 load(1, XDATA, add(CFA_XSP16, literal(-13)))
        CFI (cfiCond17) V5 load(1, XDATA, add(CFA_XSP16, literal(-12)))
        CFI (cfiCond17) V6 load(1, XDATA, add(CFA_XSP16, literal(-11)))
        CFI (cfiCond17) V7 load(1, XDATA, add(CFA_XSP16, literal(-10)))
        CFI (cfiCond17) V8 load(1, XDATA, add(CFA_XSP16, literal(-9)))
        CFI (cfiCond17) V9 load(1, XDATA, add(CFA_XSP16, literal(-8)))
        CFI (cfiCond17) V10 load(1, XDATA, add(CFA_XSP16, literal(-7)))
        CFI (cfiCond17) R7 load(1, XDATA, add(CFA_XSP16, literal(-6)))
        CFI (cfiCond17) ?RET_LOW load(1, XDATA, add(CFA_XSP16, literal(-5)))
        CFI (cfiCond17) ?RET_HIGH load(1, XDATA, add(CFA_XSP16, literal(-4)))
        CFI (cfiCond17) ?BRET_EXT load(1, XDATA, add(CFA_XSP16, literal(-3)))
        CFI (cfiCond17) DPL0 load(1, XDATA, add(CFA_XSP16, literal(-2)))
        CFI (cfiCond17) DPH0 load(1, XDATA, add(CFA_XSP16, literal(-1)))
        CFI (cfiCond17) CFA_SP SP+0
        CFI (cfiCond17) CFA_XSP16 add(XSP16, 46)
        CFI Block cfiCond18 Using cfiCommon0
        CFI (cfiCond18) NoFunction
        CFI (cfiCond18) Conditional ??CrossCallReturnLabel_11
        CFI (cfiCond18) R6 load(1, XDATA, add(CFA_XSP16, literal(-19)))
        CFI (cfiCond18) VB load(1, XDATA, add(CFA_XSP16, literal(-18)))
        CFI (cfiCond18) V0 load(1, XDATA, add(CFA_XSP16, literal(-17)))
        CFI (cfiCond18) V1 load(1, XDATA, add(CFA_XSP16, literal(-16)))
        CFI (cfiCond18) V2 load(1, XDATA, add(CFA_XSP16, literal(-15)))
        CFI (cfiCond18) V3 load(1, XDATA, add(CFA_XSP16, literal(-14)))
        CFI (cfiCond18) V4 load(1, XDATA, add(CFA_XSP16, literal(-13)))
        CFI (cfiCond18) V5 load(1, XDATA, add(CFA_XSP16, literal(-12)))
        CFI (cfiCond18) V6 load(1, XDATA, add(CFA_XSP16, literal(-11)))
        CFI (cfiCond18) V7 load(1, XDATA, add(CFA_XSP16, literal(-10)))
        CFI (cfiCond18) V8 load(1, XDATA, add(CFA_XSP16, literal(-9)))
        CFI (cfiCond18) V9 load(1, XDATA, add(CFA_XSP16, literal(-8)))
        CFI (cfiCond18) V10 load(1, XDATA, add(CFA_XSP16, literal(-7)))
        CFI (cfiCond18) R7 load(1, XDATA, add(CFA_XSP16, literal(-6)))
        CFI (cfiCond18) ?RET_LOW load(1, XDATA, add(CFA_XSP16, literal(-5)))
        CFI (cfiCond18) ?RET_HIGH load(1, XDATA, add(CFA_XSP16, literal(-4)))
        CFI (cfiCond18) ?BRET_EXT load(1, XDATA, add(CFA_XSP16, literal(-3)))
        CFI (cfiCond18) DPL0 load(1, XDATA, add(CFA_XSP16, literal(-2)))
        CFI (cfiCond18) DPH0 load(1, XDATA, add(CFA_XSP16, literal(-1)))
        CFI (cfiCond18) CFA_SP SP+0
        CFI (cfiCond18) CFA_XSP16 add(XSP16, 46)
        CFI Block cfiPicker19 Using cfiCommon1
        CFI (cfiPicker19) NoFunction
        CFI (cfiPicker19) Picker
        MOV     R4,A
        MOV     R5,A
        CFI EndBlock cfiCond15
        CFI EndBlock cfiCond16
        CFI EndBlock cfiCond17
        CFI EndBlock cfiCond18
        CFI EndBlock cfiPicker19
        REQUIRE ??Subroutine10_0
        ; // Fall through to label ??Subroutine10_0

        RSEG BANKED_CODE:CODE:NOROOT(0)
??Subroutine10_0:
        CFI Block cfiCond20 Using cfiCommon0
        CFI NoFunction
        CFI Conditional ??CrossCallReturnLabel_13
        CFI R6 load(1, XDATA, add(CFA_XSP16, literal(-16)))
        CFI VB load(1, XDATA, add(CFA_XSP16, literal(-15)))
        CFI V0 load(1, XDATA, add(CFA_XSP16, literal(-14)))
        CFI V1 load(1, XDATA, add(CFA_XSP16, literal(-13)))
        CFI V2 load(1, XDATA, add(CFA_XSP16, literal(-12)))
        CFI V3 load(1, XDATA, add(CFA_XSP16, literal(-11)))
        CFI V4 load(1, XDATA, add(CFA_XSP16, literal(-10)))
        CFI V5 load(1, XDATA, add(CFA_XSP16, literal(-9)))
        CFI V6 load(1, XDATA, add(CFA_XSP16, literal(-8)))
        CFI V7 load(1, XDATA, add(CFA_XSP16, literal(-7)))
        CFI R7 load(1, XDATA, add(CFA_XSP16, literal(-6)))
        CFI ?RET_LOW load(1, XDATA, add(CFA_XSP16, literal(-5)))
        CFI ?RET_HIGH load(1, XDATA, add(CFA_XSP16, literal(-4)))
        CFI ?BRET_EXT load(1, XDATA, add(CFA_XSP16, literal(-3)))
        CFI DPL0 load(1, XDATA, add(CFA_XSP16, literal(-2)))
        CFI DPH0 load(1, XDATA, add(CFA_XSP16, literal(-1)))
        CFI CFA_SP SP+0
        CFI CFA_XSP16 add(XSP16, 43)
        CFI Block cfiCond21 Using cfiCommon0
        CFI (cfiCond21) NoFunction
        CFI (cfiCond21) Conditional ??CrossCallReturnLabel_12
        CFI (cfiCond21) R6 load(1, XDATA, add(CFA_XSP16, literal(-12)))
        CFI (cfiCond21) VB load(1, XDATA, add(CFA_XSP16, literal(-11)))
        CFI (cfiCond21) V0 load(1, XDATA, add(CFA_XSP16, literal(-10)))
        CFI (cfiCond21) V1 load(1, XDATA, add(CFA_XSP16, literal(-9)))
        CFI (cfiCond21) V2 load(1, XDATA, add(CFA_XSP16, literal(-8)))
        CFI (cfiCond21) V3 load(1, XDATA, add(CFA_XSP16, literal(-7)))
        CFI (cfiCond21) R7 load(1, XDATA, add(CFA_XSP16, literal(-6)))
        CFI (cfiCond21) ?RET_LOW load(1, XDATA, add(CFA_XSP16, literal(-5)))
        CFI (cfiCond21) ?RET_HIGH load(1, XDATA, add(CFA_XSP16, literal(-4)))
        CFI (cfiCond21) ?BRET_EXT load(1, XDATA, add(CFA_XSP16, literal(-3)))
        CFI (cfiCond21) DPL0 load(1, XDATA, add(CFA_XSP16, literal(-2)))
        CFI (cfiCond21) DPH0 load(1, XDATA, add(CFA_XSP16, literal(-1)))
        CFI (cfiCond21) CFA_SP SP+0
        CFI (cfiCond21) CFA_XSP16 add(XSP16, 31)
        CFI Block cfiCond22 Using cfiCommon0
        CFI (cfiCond22) NoFunction
        CFI (cfiCond22) Conditional ??CrossCallReturnLabel_9
        CFI (cfiCond22) R6 load(1, XDATA, add(CFA_XSP16, literal(-18)))
        CFI (cfiCond22) VB load(1, XDATA, add(CFA_XSP16, literal(-17)))
        CFI (cfiCond22) V0 load(1, XDATA, add(CFA_XSP16, literal(-16)))
        CFI (cfiCond22) V1 load(1, XDATA, add(CFA_XSP16, literal(-15)))
        CFI (cfiCond22) V2 load(1, XDATA, add(CFA_XSP16, literal(-14)))
        CFI (cfiCond22) V3 load(1, XDATA, add(CFA_XSP16, literal(-13)))
        CFI (cfiCond22) V4 load(1, XDATA, add(CFA_XSP16, literal(-12)))
        CFI (cfiCond22) V5 load(1, XDATA, add(CFA_XSP16, literal(-11)))
        CFI (cfiCond22) V6 load(1, XDATA, add(CFA_XSP16, literal(-10)))
        CFI (cfiCond22) V7 load(1, XDATA, add(CFA_XSP16, literal(-9)))
        CFI (cfiCond22) V8 load(1, XDATA, add(CFA_XSP16, literal(-8)))
        CFI (cfiCond22) V9 load(1, XDATA, add(CFA_XSP16, literal(-7)))
        CFI (cfiCond22) R7 load(1, XDATA, add(CFA_XSP16, literal(-6)))
        CFI (cfiCond22) ?RET_LOW load(1, XDATA, add(CFA_XSP16, literal(-5)))
        CFI (cfiCond22) ?RET_HIGH load(1, XDATA, add(CFA_XSP16, literal(-4)))
        CFI (cfiCond22) ?BRET_EXT load(1, XDATA, add(CFA_XSP16, literal(-3)))
        CFI (cfiCond22) DPL0 load(1, XDATA, add(CFA_XSP16, literal(-2)))
        CFI (cfiCond22) DPH0 load(1, XDATA, add(CFA_XSP16, literal(-1)))
        CFI (cfiCond22) CFA_SP SP+0
        CFI (cfiCond22) CFA_XSP16 add(XSP16, 45)
        CFI Block cfiCond23 Using cfiCommon0
        CFI (cfiCond23) NoFunction
        CFI (cfiCond23) Conditional ??CrossCallReturnLabel_10
        CFI (cfiCond23) R6 load(1, XDATA, add(CFA_XSP16, literal(-19)))
        CFI (cfiCond23) VB load(1, XDATA, add(CFA_XSP16, literal(-18)))
        CFI (cfiCond23) V0 load(1, XDATA, add(CFA_XSP16, literal(-17)))
        CFI (cfiCond23) V1 load(1, XDATA, add(CFA_XSP16, literal(-16)))
        CFI (cfiCond23) V2 load(1, XDATA, add(CFA_XSP16, literal(-15)))
        CFI (cfiCond23) V3 load(1, XDATA, add(CFA_XSP16, literal(-14)))
        CFI (cfiCond23) V4 load(1, XDATA, add(CFA_XSP16, literal(-13)))
        CFI (cfiCond23) V5 load(1, XDATA, add(CFA_XSP16, literal(-12)))
        CFI (cfiCond23) V6 load(1, XDATA, add(CFA_XSP16, literal(-11)))
        CFI (cfiCond23) V7 load(1, XDATA, add(CFA_XSP16, literal(-10)))
        CFI (cfiCond23) V8 load(1, XDATA, add(CFA_XSP16, literal(-9)))
        CFI (cfiCond23) V9 load(1, XDATA, add(CFA_XSP16, literal(-8)))
        CFI (cfiCond23) V10 load(1, XDATA, add(CFA_XSP16, literal(-7)))
        CFI (cfiCond23) R7 load(1, XDATA, add(CFA_XSP16, literal(-6)))
        CFI (cfiCond23) ?RET_LOW load(1, XDATA, add(CFA_XSP16, literal(-5)))
        CFI (cfiCond23) ?RET_HIGH load(1, XDATA, add(CFA_XSP16, literal(-4)))
        CFI (cfiCond23) ?BRET_EXT load(1, XDATA, add(CFA_XSP16, literal(-3)))
        CFI (cfiCond23) DPL0 load(1, XDATA, add(CFA_XSP16, literal(-2)))
        CFI (cfiCond23) DPH0 load(1, XDATA, add(CFA_XSP16, literal(-1)))
        CFI (cfiCond23) CFA_SP SP+0
        CFI (cfiCond23) CFA_XSP16 add(XSP16, 46)
        CFI Block cfiCond24 Using cfiCommon0
        CFI (cfiCond24) NoFunction
        CFI (cfiCond24) Conditional ??CrossCallReturnLabel_11
        CFI (cfiCond24) R6 load(1, XDATA, add(CFA_XSP16, literal(-19)))
        CFI (cfiCond24) VB load(1, XDATA, add(CFA_XSP16, literal(-18)))
        CFI (cfiCond24) V0 load(1, XDATA, add(CFA_XSP16, literal(-17)))
        CFI (cfiCond24) V1 load(1, XDATA, add(CFA_XSP16, literal(-16)))
        CFI (cfiCond24) V2 load(1, XDATA, add(CFA_XSP16, literal(-15)))
        CFI (cfiCond24) V3 load(1, XDATA, add(CFA_XSP16, literal(-14)))
        CFI (cfiCond24) V4 load(1, XDATA, add(CFA_XSP16, literal(-13)))
        CFI (cfiCond24) V5 load(1, XDATA, add(CFA_XSP16, literal(-12)))
        CFI (cfiCond24) V6 load(1, XDATA, add(CFA_XSP16, literal(-11)))
        CFI (cfiCond24) V7 load(1, XDATA, add(CFA_XSP16, literal(-10)))
        CFI (cfiCond24) V8 load(1, XDATA, add(CFA_XSP16, literal(-9)))
        CFI (cfiCond24) V9 load(1, XDATA, add(CFA_XSP16, literal(-8)))
        CFI (cfiCond24) V10 load(1, XDATA, add(CFA_XSP16, literal(-7)))
        CFI (cfiCond24) R7 load(1, XDATA, add(CFA_XSP16, literal(-6)))
        CFI (cfiCond24) ?RET_LOW load(1, XDATA, add(CFA_XSP16, literal(-5)))
        CFI (cfiCond24) ?RET_HIGH load(1, XDATA, add(CFA_XSP16, literal(-4)))
        CFI (cfiCond24) ?BRET_EXT load(1, XDATA, add(CFA_XSP16, literal(-3)))
        CFI (cfiCond24) DPL0 load(1, XDATA, add(CFA_XSP16, literal(-2)))
        CFI (cfiCond24) DPH0 load(1, XDATA, add(CFA_XSP16, literal(-1)))
        CFI (cfiCond24) CFA_SP SP+0
        CFI (cfiCond24) CFA_XSP16 add(XSP16, 46)
        CFI Block cfiPicker25 Using cfiCommon1
        CFI (cfiPicker25) NoFunction
        CFI (cfiPicker25) Picker
        LCALL   ??_ltoa?relay
        MOV     A,#0x2
        RET
        CFI EndBlock cfiCond20
        CFI EndBlock cfiCond21
        CFI EndBlock cfiCond22
        CFI EndBlock cfiCond23
        CFI EndBlock cfiCond24
        CFI EndBlock cfiPicker25
//  341 
//  342 /**************************************************************************************************
//  343  * @fn      HalLcdWriteStringValueValue
//  344  *
//  345  * @brief   Write a string followed by a value to the LCD
//  346  *
//  347  * @param   title   - Title that will be displayed before the value
//  348  *          value1  - value #1
//  349  *          format1 - redix of value #1
//  350  *          value2  - value #2
//  351  *          format2 - redix of value #2
//  352  *          line    - line number
//  353  *
//  354  * @return  None
//  355  **************************************************************************************************/

        RSEG BANKED_CODE:CODE:NOROOT(0)
//  356 void HalLcdWriteStringValueValue( char *title, uint16 value1, uint8 format1,
HalLcdWriteStringValueValue:
        CFI Block cfiBlock26 Using cfiCommon0
        CFI Function HalLcdWriteStringValueValue
        CODE
//  357                                   uint16 value2, uint8 format2, uint8 line )
//  358 {
        FUNCALL HalLcdWriteStringValueValue, osal_strlen
        LOCFRAME ISTACK, 0, STACK
        LOCFRAME PSTACK, 0, STACK
        LOCFRAME XSTACK, 44, STACK
        LOCFRAME IOVERLAY, 0, STATIC
        LOCFRAME DOVERLAY, 0, STATIC
        ARGFRAME ISTACK, 0, STACK
        ARGFRAME PSTACK, 0, STACK
        ARGFRAME XSTACK, 44, STACK
        ARGFRAME IOVERLAY, 0, STATIC
        ARGFRAME DOVERLAY, 0, STATIC
        FUNCALL HalLcdWriteStringValueValue, osal_memcpy
        LOCFRAME ISTACK, 0, STACK
        LOCFRAME PSTACK, 0, STACK
        LOCFRAME XSTACK, 47, STACK
        LOCFRAME IOVERLAY, 0, STATIC
        LOCFRAME DOVERLAY, 0, STATIC
        ARGFRAME ISTACK, 0, STACK
        ARGFRAME PSTACK, 0, STACK
        ARGFRAME XSTACK, 47, STACK
        ARGFRAME IOVERLAY, 0, STATIC
        ARGFRAME DOVERLAY, 0, STATIC
        FUNCALL HalLcdWriteStringValueValue, _ltoa
        LOCFRAME ISTACK, 0, STACK
        LOCFRAME PSTACK, 0, STACK
        LOCFRAME XSTACK, 46, STACK
        LOCFRAME IOVERLAY, 0, STATIC
        LOCFRAME DOVERLAY, 0, STATIC
        ARGFRAME ISTACK, 0, STACK
        ARGFRAME PSTACK, 0, STACK
        ARGFRAME XSTACK, 46, STACK
        ARGFRAME IOVERLAY, 0, STATIC
        ARGFRAME DOVERLAY, 0, STATIC
        FUNCALL HalLcdWriteStringValueValue, osal_strlen
        LOCFRAME ISTACK, 0, STACK
        LOCFRAME PSTACK, 0, STACK
        LOCFRAME XSTACK, 44, STACK
        LOCFRAME IOVERLAY, 0, STATIC
        LOCFRAME DOVERLAY, 0, STATIC
        ARGFRAME ISTACK, 0, STACK
        ARGFRAME PSTACK, 0, STACK
        ARGFRAME XSTACK, 44, STACK
        ARGFRAME IOVERLAY, 0, STATIC
        ARGFRAME DOVERLAY, 0, STATIC
        FUNCALL HalLcdWriteStringValueValue, _ltoa
        LOCFRAME ISTACK, 0, STACK
        LOCFRAME PSTACK, 0, STACK
        LOCFRAME XSTACK, 46, STACK
        LOCFRAME IOVERLAY, 0, STATIC
        LOCFRAME DOVERLAY, 0, STATIC
        ARGFRAME ISTACK, 0, STACK
        ARGFRAME PSTACK, 0, STACK
        ARGFRAME XSTACK, 46, STACK
        ARGFRAME IOVERLAY, 0, STATIC
        ARGFRAME DOVERLAY, 0, STATIC
        FUNCALL HalLcdWriteStringValueValue, HalLcdWriteString
        LOCFRAME ISTACK, 0, STACK
        LOCFRAME PSTACK, 0, STACK
        LOCFRAME XSTACK, 44, STACK
        LOCFRAME IOVERLAY, 0, STATIC
        LOCFRAME DOVERLAY, 0, STATIC
        ARGFRAME ISTACK, 0, STACK
        ARGFRAME PSTACK, 0, STACK
        ARGFRAME XSTACK, 44, STACK
        ARGFRAME IOVERLAY, 0, STATIC
        ARGFRAME DOVERLAY, 0, STATIC
        MOV     A,#-0x13
        LCALL   ?BANKED_ENTER_XDATA
        CFI DPH0 load(1, XDATA, add(CFA_XSP16, literal(-1)))
        CFI DPL0 load(1, XDATA, add(CFA_XSP16, literal(-2)))
        CFI ?BRET_EXT load(1, XDATA, add(CFA_XSP16, literal(-3)))
        CFI ?RET_HIGH load(1, XDATA, add(CFA_XSP16, literal(-4)))
        CFI ?RET_LOW load(1, XDATA, add(CFA_XSP16, literal(-5)))
        CFI R7 load(1, XDATA, add(CFA_XSP16, literal(-6)))
        CFI V10 load(1, XDATA, add(CFA_XSP16, literal(-7)))
        CFI V9 load(1, XDATA, add(CFA_XSP16, literal(-8)))
        CFI V8 load(1, XDATA, add(CFA_XSP16, literal(-9)))
        CFI V7 load(1, XDATA, add(CFA_XSP16, literal(-10)))
        CFI V6 load(1, XDATA, add(CFA_XSP16, literal(-11)))
        CFI V5 load(1, XDATA, add(CFA_XSP16, literal(-12)))
        CFI V4 load(1, XDATA, add(CFA_XSP16, literal(-13)))
        CFI V3 load(1, XDATA, add(CFA_XSP16, literal(-14)))
        CFI V2 load(1, XDATA, add(CFA_XSP16, literal(-15)))
        CFI V1 load(1, XDATA, add(CFA_XSP16, literal(-16)))
        CFI V0 load(1, XDATA, add(CFA_XSP16, literal(-17)))
        CFI VB load(1, XDATA, add(CFA_XSP16, literal(-18)))
        CFI R6 load(1, XDATA, add(CFA_XSP16, literal(-19)))
        CFI CFA_SP SP+0
        CFI CFA_XSP16 add(XSP16, 19)
        ; Saved register size: 19
        ; Auto size: 25
        MOV     A,#-0x19
        LCALL   ?ALLOC_XSTACK8
        CFI CFA_XSP16 add(XSP16, 44)
        MOV     A,R2
        MOV     R6,A
        MOV     A,R3
        MOV     R7,A
        MOV     ?V0 + 2,R4
        MOV     ?V0 + 3,R5
        MOV     ?V0 + 5,R1
        MOV     A,#0x2c
        LCALL   ?XSTACK_DISP0_8
        MOVX    A,@DPTR
        MOV     ?V0 + 0,A
        INC     DPTR
        MOVX    A,@DPTR
        MOV     ?V0 + 1,A
        MOV     A,#0x2e
        LCALL   ?XSTACK_DISP0_8
        MOVX    A,@DPTR
        MOV     ?V0 + 4,A
        MOV     A,#0x2f
        LCALL   ?XSTACK_DISP0_8
        MOVX    A,@DPTR
        MOV     ?V0 + 7,A
//  359 #if (HAL_LCD == TRUE)
//  360     uint8 tmpLen;
//  361     uint8 buf[LCD_MAX_BUF];
//  362     uint32 err;
//  363   
//  364     tmpLen = (uint8)osal_strlen( (char*)title );
        ; Setup parameters for call to function osal_strlen
        LCALL   ??osal_strlen?relay
        MOV     A,R2
        MOV     ?V0 + 6,A
//  365     if ( tmpLen )
        JZ      ??HalLcdWriteStringValueValue_0
//  366     {
//  367         osal_memcpy( buf, title, tmpLen );
        ; Setup parameters for call to function osal_memcpy
        MOV     ?V0 + 8,R6
        MOV     ?V0 + 9,R7
        MOV     ?V0 + 10,#0x0
        MOV     R0,#?V0 + 8
        LCALL   ?PUSH_XSTACK_I_THREE
        CFI CFA_XSP16 add(XSP16, 47)
        MOV     ?V0 + 8,R2
        MOV     R4,?V0 + 8
        MOV     R5,#0x0
        MOV     A,#0x3
        LCALL   ?XSTACK_DISP0_8
        LCALL   ?Subroutine4 & 0xFFFF
??CrossCallReturnLabel_15:
        LCALL   ?DEALLOC_XSTACK8
        CFI CFA_XSP16 add(XSP16, 44)
//  368         buf[tmpLen++] = ' ';
        MOV     DPL,?XSP + 0
        MOV     DPH,?XSP + 1
        MOV     A,DPL
        ADD     A,?V0 + 8
        LCALL   ??Subroutine12_0 & 0xFFFF
//  369     }
??CrossCallReturnLabel_21:
        INC     ?V0 + 6
//  370   
//  371     err = (uint32)(value1);
//  372     _ltoa( err, &buf[tmpLen], format1 );
??HalLcdWriteStringValueValue_0:
        ; Setup parameters for call to function _ltoa
        MOV     ?V0 + 8,?V0 + 6
        MOV     DPL,?XSP + 0
        MOV     DPH,?XSP + 1
        MOV     A,DPL
        ADD     A,?V0 + 8
        MOV     ?V0 + 8,A
        MOV     A,DPH
        ADDC    A,#0x0
        MOV     ?V0 + 9,A
        MOV     R0,#?V0 + 8
        LCALL   ?PUSH_XSTACK_I_TWO
        CFI CFA_XSP16 add(XSP16, 46)
        MOV     R1,?V0 + 5
        MOV     R2,?V0 + 2
        MOV     R3,?V0 + 3
        LCALL   ?Subroutine5 & 0xFFFF
??CrossCallReturnLabel_10:
        LCALL   ?DEALLOC_XSTACK8
        CFI CFA_XSP16 add(XSP16, 44)
//  373     tmpLen = (uint8)osal_strlen( (char*)buf );
        ; Setup parameters for call to function osal_strlen
        MOV     DPL,?XSP + 0
        MOV     DPH,?XSP + 1
        MOV     R2,DPL
        MOV     R3,DPH
        LCALL   ??osal_strlen?relay
        MOV     A,R2
        MOV     ?V0 + 6,A
//  374   
//  375     buf[tmpLen++] = ',';
        MOV     ?V0 + 2,A
        MOV     DPL,?XSP + 0
        MOV     DPH,?XSP + 1
        MOV     A,DPL
        ADD     A,?V0 + 2
        MOV     DPL,A
        MOV     A,DPH
        ADDC    A,#0x0
        MOV     DPH,A
        MOV     A,#0x2c
        MOVX    @DPTR,A
        INC     ?V0 + 6
//  376     buf[tmpLen++] = ' ';
        MOV     ?V0 + 2,?V0 + 6
        LCALL   ?Subroutine3 & 0xFFFF
//  377     err = (uint32)(value2);
//  378     _ltoa( err, &buf[tmpLen], format2 );
??CrossCallReturnLabel_23:
        ; Setup parameters for call to function _ltoa
        MOV     A,#0x1
        ADD     A,?V0 + 6
        MOV     R0,A
        MOV     DPL,?XSP + 0
        MOV     DPH,?XSP + 1
        MOV     A,DPL
        ADD     A,R0
        MOV     ?V0 + 2,A
        MOV     A,DPH
        ADDC    A,#0x0
        MOV     ?V0 + 3,A
        MOV     R0,#?V0 + 2
        LCALL   ?PUSH_XSTACK_I_TWO
        CFI CFA_XSP16 add(XSP16, 46)
        MOV     R1,?V0 + 4
        MOV     R2,?V0 + 0
        MOV     R3,?V0 + 1
        LCALL   ?Subroutine5 & 0xFFFF
??CrossCallReturnLabel_11:
        LCALL   ?DEALLOC_XSTACK8
        CFI CFA_XSP16 add(XSP16, 44)
//  379   
//  380     HalLcdWriteString( (char *)buf, line );		
        ; Setup parameters for call to function HalLcdWriteString
        MOV     R1,?V0 + 7
        MOV     DPL,?XSP + 0
        MOV     DPH,?XSP + 1
        MOV     R2,DPL
        MOV     R3,DPH
        LCALL   ??HalLcdWriteString?relay
//  381 #endif
//  382 }
        MOV     A,#0x19
        LCALL   ?DEALLOC_XSTACK8
        CFI CFA_XSP16 add(XSP16, 19)
        MOV     R7,#0xb
        LJMP    ?BANKED_LEAVE_XDATA
        CFI EndBlock cfiBlock26

        RSEG BANKED_CODE:CODE:NOROOT(0)
?Subroutine4:
        CFI Block cfiCond27 Using cfiCommon0
        CFI NoFunction
        CFI Conditional ??CrossCallReturnLabel_14
        CFI R6 load(1, XDATA, add(CFA_XSP16, literal(-18)))
        CFI VB load(1, XDATA, add(CFA_XSP16, literal(-17)))
        CFI V0 load(1, XDATA, add(CFA_XSP16, literal(-16)))
        CFI V1 load(1, XDATA, add(CFA_XSP16, literal(-15)))
        CFI V2 load(1, XDATA, add(CFA_XSP16, literal(-14)))
        CFI V3 load(1, XDATA, add(CFA_XSP16, literal(-13)))
        CFI V4 load(1, XDATA, add(CFA_XSP16, literal(-12)))
        CFI V5 load(1, XDATA, add(CFA_XSP16, literal(-11)))
        CFI V6 load(1, XDATA, add(CFA_XSP16, literal(-10)))
        CFI V7 load(1, XDATA, add(CFA_XSP16, literal(-9)))
        CFI V8 load(1, XDATA, add(CFA_XSP16, literal(-8)))
        CFI V9 load(1, XDATA, add(CFA_XSP16, literal(-7)))
        CFI R7 load(1, XDATA, add(CFA_XSP16, literal(-6)))
        CFI ?RET_LOW load(1, XDATA, add(CFA_XSP16, literal(-5)))
        CFI ?RET_HIGH load(1, XDATA, add(CFA_XSP16, literal(-4)))
        CFI ?BRET_EXT load(1, XDATA, add(CFA_XSP16, literal(-3)))
        CFI DPL0 load(1, XDATA, add(CFA_XSP16, literal(-2)))
        CFI DPH0 load(1, XDATA, add(CFA_XSP16, literal(-1)))
        CFI CFA_SP SP+0
        CFI CFA_XSP16 add(XSP16, 46)
        CFI Block cfiCond28 Using cfiCommon0
        CFI (cfiCond28) NoFunction
        CFI (cfiCond28) Conditional ??CrossCallReturnLabel_15
        CFI (cfiCond28) R6 load(1, XDATA, add(CFA_XSP16, literal(-19)))
        CFI (cfiCond28) VB load(1, XDATA, add(CFA_XSP16, literal(-18)))
        CFI (cfiCond28) V0 load(1, XDATA, add(CFA_XSP16, literal(-17)))
        CFI (cfiCond28) V1 load(1, XDATA, add(CFA_XSP16, literal(-16)))
        CFI (cfiCond28) V2 load(1, XDATA, add(CFA_XSP16, literal(-15)))
        CFI (cfiCond28) V3 load(1, XDATA, add(CFA_XSP16, literal(-14)))
        CFI (cfiCond28) V4 load(1, XDATA, add(CFA_XSP16, literal(-13)))
        CFI (cfiCond28) V5 load(1, XDATA, add(CFA_XSP16, literal(-12)))
        CFI (cfiCond28) V6 load(1, XDATA, add(CFA_XSP16, literal(-11)))
        CFI (cfiCond28) V7 load(1, XDATA, add(CFA_XSP16, literal(-10)))
        CFI (cfiCond28) V8 load(1, XDATA, add(CFA_XSP16, literal(-9)))
        CFI (cfiCond28) V9 load(1, XDATA, add(CFA_XSP16, literal(-8)))
        CFI (cfiCond28) V10 load(1, XDATA, add(CFA_XSP16, literal(-7)))
        CFI (cfiCond28) R7 load(1, XDATA, add(CFA_XSP16, literal(-6)))
        CFI (cfiCond28) ?RET_LOW load(1, XDATA, add(CFA_XSP16, literal(-5)))
        CFI (cfiCond28) ?RET_HIGH load(1, XDATA, add(CFA_XSP16, literal(-4)))
        CFI (cfiCond28) ?BRET_EXT load(1, XDATA, add(CFA_XSP16, literal(-3)))
        CFI (cfiCond28) DPL0 load(1, XDATA, add(CFA_XSP16, literal(-2)))
        CFI (cfiCond28) DPH0 load(1, XDATA, add(CFA_XSP16, literal(-1)))
        CFI (cfiCond28) CFA_SP SP+0
        CFI (cfiCond28) CFA_XSP16 add(XSP16, 47)
        CFI Block cfiCond29 Using cfiCommon0
        CFI (cfiCond29) NoFunction
        CFI (cfiCond29) Conditional ??CrossCallReturnLabel_16
        CFI (cfiCond29) R6 load(1, XDATA, add(CFA_XSP16, literal(-12)))
        CFI (cfiCond29) VB load(1, XDATA, add(CFA_XSP16, literal(-11)))
        CFI (cfiCond29) V0 load(1, XDATA, add(CFA_XSP16, literal(-10)))
        CFI (cfiCond29) V1 load(1, XDATA, add(CFA_XSP16, literal(-9)))
        CFI (cfiCond29) V2 load(1, XDATA, add(CFA_XSP16, literal(-8)))
        CFI (cfiCond29) V3 load(1, XDATA, add(CFA_XSP16, literal(-7)))
        CFI (cfiCond29) R7 load(1, XDATA, add(CFA_XSP16, literal(-6)))
        CFI (cfiCond29) ?RET_LOW load(1, XDATA, add(CFA_XSP16, literal(-5)))
        CFI (cfiCond29) ?RET_HIGH load(1, XDATA, add(CFA_XSP16, literal(-4)))
        CFI (cfiCond29) ?BRET_EXT load(1, XDATA, add(CFA_XSP16, literal(-3)))
        CFI (cfiCond29) DPL0 load(1, XDATA, add(CFA_XSP16, literal(-2)))
        CFI (cfiCond29) DPH0 load(1, XDATA, add(CFA_XSP16, literal(-1)))
        CFI (cfiCond29) CFA_SP SP+0
        CFI (cfiCond29) CFA_XSP16 add(XSP16, 32)
        CFI Block cfiPicker30 Using cfiCommon1
        CFI (cfiPicker30) NoFunction
        CFI (cfiPicker30) Picker
        MOV     R2,DPL
        MOV     R3,DPH
        CFI EndBlock cfiCond27
        CFI EndBlock cfiCond28
        CFI EndBlock cfiCond29
        CFI EndBlock cfiPicker30
        REQUIRE ??Subroutine11_0
        ; // Fall through to label ??Subroutine11_0

        RSEG BANKED_CODE:CODE:NOROOT(0)
??Subroutine11_0:
        CFI Block cfiCond31 Using cfiCommon0
        CFI NoFunction
        CFI Conditional ??CrossCallReturnLabel_17
        CFI R6 load(1, XDATA, add(CFA_XSP16, literal(-17)))
        CFI VB load(1, XDATA, add(CFA_XSP16, literal(-16)))
        CFI V0 load(1, XDATA, add(CFA_XSP16, literal(-15)))
        CFI V1 load(1, XDATA, add(CFA_XSP16, literal(-14)))
        CFI V2 load(1, XDATA, add(CFA_XSP16, literal(-13)))
        CFI V3 load(1, XDATA, add(CFA_XSP16, literal(-12)))
        CFI V4 load(1, XDATA, add(CFA_XSP16, literal(-11)))
        CFI V5 load(1, XDATA, add(CFA_XSP16, literal(-10)))
        CFI V6 load(1, XDATA, add(CFA_XSP16, literal(-9)))
        CFI V7 load(1, XDATA, add(CFA_XSP16, literal(-8)))
        CFI V8 load(1, XDATA, add(CFA_XSP16, literal(-7)))
        CFI R7 load(1, XDATA, add(CFA_XSP16, literal(-6)))
        CFI ?RET_LOW load(1, XDATA, add(CFA_XSP16, literal(-5)))
        CFI ?RET_HIGH load(1, XDATA, add(CFA_XSP16, literal(-4)))
        CFI ?BRET_EXT load(1, XDATA, add(CFA_XSP16, literal(-3)))
        CFI DPL0 load(1, XDATA, add(CFA_XSP16, literal(-2)))
        CFI DPH0 load(1, XDATA, add(CFA_XSP16, literal(-1)))
        CFI CFA_SP SP+0
        CFI CFA_XSP16 add(XSP16, 20)
        CFI Block cfiCond32 Using cfiCommon0
        CFI (cfiCond32) NoFunction
        CFI (cfiCond32) Conditional ??CrossCallReturnLabel_18
        CFI (cfiCond32) R6 load(1, XDATA, add(CFA_XSP16, literal(-17)))
        CFI (cfiCond32) VB load(1, XDATA, add(CFA_XSP16, literal(-16)))
        CFI (cfiCond32) V0 load(1, XDATA, add(CFA_XSP16, literal(-15)))
        CFI (cfiCond32) V1 load(1, XDATA, add(CFA_XSP16, literal(-14)))
        CFI (cfiCond32) V2 load(1, XDATA, add(CFA_XSP16, literal(-13)))
        CFI (cfiCond32) V3 load(1, XDATA, add(CFA_XSP16, literal(-12)))
        CFI (cfiCond32) V4 load(1, XDATA, add(CFA_XSP16, literal(-11)))
        CFI (cfiCond32) V5 load(1, XDATA, add(CFA_XSP16, literal(-10)))
        CFI (cfiCond32) V6 load(1, XDATA, add(CFA_XSP16, literal(-9)))
        CFI (cfiCond32) V7 load(1, XDATA, add(CFA_XSP16, literal(-8)))
        CFI (cfiCond32) V8 load(1, XDATA, add(CFA_XSP16, literal(-7)))
        CFI (cfiCond32) R7 load(1, XDATA, add(CFA_XSP16, literal(-6)))
        CFI (cfiCond32) ?RET_LOW load(1, XDATA, add(CFA_XSP16, literal(-5)))
        CFI (cfiCond32) ?RET_HIGH load(1, XDATA, add(CFA_XSP16, literal(-4)))
        CFI (cfiCond32) ?BRET_EXT load(1, XDATA, add(CFA_XSP16, literal(-3)))
        CFI (cfiCond32) DPL0 load(1, XDATA, add(CFA_XSP16, literal(-2)))
        CFI (cfiCond32) DPH0 load(1, XDATA, add(CFA_XSP16, literal(-1)))
        CFI (cfiCond32) CFA_SP SP+0
        CFI (cfiCond32) CFA_XSP16 add(XSP16, 20)
        CFI Block cfiCond33 Using cfiCommon0
        CFI (cfiCond33) NoFunction
        CFI (cfiCond33) Conditional ??CrossCallReturnLabel_19
        CFI (cfiCond33) R6 load(1, XDATA, add(CFA_XSP16, literal(-17)))
        CFI (cfiCond33) VB load(1, XDATA, add(CFA_XSP16, literal(-16)))
        CFI (cfiCond33) V0 load(1, XDATA, add(CFA_XSP16, literal(-15)))
        CFI (cfiCond33) V1 load(1, XDATA, add(CFA_XSP16, literal(-14)))
        CFI (cfiCond33) V2 load(1, XDATA, add(CFA_XSP16, literal(-13)))
        CFI (cfiCond33) V3 load(1, XDATA, add(CFA_XSP16, literal(-12)))
        CFI (cfiCond33) V4 load(1, XDATA, add(CFA_XSP16, literal(-11)))
        CFI (cfiCond33) V5 load(1, XDATA, add(CFA_XSP16, literal(-10)))
        CFI (cfiCond33) V6 load(1, XDATA, add(CFA_XSP16, literal(-9)))
        CFI (cfiCond33) V7 load(1, XDATA, add(CFA_XSP16, literal(-8)))
        CFI (cfiCond33) V8 load(1, XDATA, add(CFA_XSP16, literal(-7)))
        CFI (cfiCond33) R7 load(1, XDATA, add(CFA_XSP16, literal(-6)))
        CFI (cfiCond33) ?RET_LOW load(1, XDATA, add(CFA_XSP16, literal(-5)))
        CFI (cfiCond33) ?RET_HIGH load(1, XDATA, add(CFA_XSP16, literal(-4)))
        CFI (cfiCond33) ?BRET_EXT load(1, XDATA, add(CFA_XSP16, literal(-3)))
        CFI (cfiCond33) DPL0 load(1, XDATA, add(CFA_XSP16, literal(-2)))
        CFI (cfiCond33) DPH0 load(1, XDATA, add(CFA_XSP16, literal(-1)))
        CFI (cfiCond33) CFA_SP SP+0
        CFI (cfiCond33) CFA_XSP16 add(XSP16, 20)
        CFI Block cfiCond34 Using cfiCommon0
        CFI (cfiCond34) NoFunction
        CFI (cfiCond34) Conditional ??CrossCallReturnLabel_14
        CFI (cfiCond34) R6 load(1, XDATA, add(CFA_XSP16, literal(-18)))
        CFI (cfiCond34) VB load(1, XDATA, add(CFA_XSP16, literal(-17)))
        CFI (cfiCond34) V0 load(1, XDATA, add(CFA_XSP16, literal(-16)))
        CFI (cfiCond34) V1 load(1, XDATA, add(CFA_XSP16, literal(-15)))
        CFI (cfiCond34) V2 load(1, XDATA, add(CFA_XSP16, literal(-14)))
        CFI (cfiCond34) V3 load(1, XDATA, add(CFA_XSP16, literal(-13)))
        CFI (cfiCond34) V4 load(1, XDATA, add(CFA_XSP16, literal(-12)))
        CFI (cfiCond34) V5 load(1, XDATA, add(CFA_XSP16, literal(-11)))
        CFI (cfiCond34) V6 load(1, XDATA, add(CFA_XSP16, literal(-10)))
        CFI (cfiCond34) V7 load(1, XDATA, add(CFA_XSP16, literal(-9)))
        CFI (cfiCond34) V8 load(1, XDATA, add(CFA_XSP16, literal(-8)))
        CFI (cfiCond34) V9 load(1, XDATA, add(CFA_XSP16, literal(-7)))
        CFI (cfiCond34) R7 load(1, XDATA, add(CFA_XSP16, literal(-6)))
        CFI (cfiCond34) ?RET_LOW load(1, XDATA, add(CFA_XSP16, literal(-5)))
        CFI (cfiCond34) ?RET_HIGH load(1, XDATA, add(CFA_XSP16, literal(-4)))
        CFI (cfiCond34) ?BRET_EXT load(1, XDATA, add(CFA_XSP16, literal(-3)))
        CFI (cfiCond34) DPL0 load(1, XDATA, add(CFA_XSP16, literal(-2)))
        CFI (cfiCond34) DPH0 load(1, XDATA, add(CFA_XSP16, literal(-1)))
        CFI (cfiCond34) CFA_SP SP+0
        CFI (cfiCond34) CFA_XSP16 add(XSP16, 46)
        CFI Block cfiCond35 Using cfiCommon0
        CFI (cfiCond35) NoFunction
        CFI (cfiCond35) Conditional ??CrossCallReturnLabel_15
        CFI (cfiCond35) R6 load(1, XDATA, add(CFA_XSP16, literal(-19)))
        CFI (cfiCond35) VB load(1, XDATA, add(CFA_XSP16, literal(-18)))
        CFI (cfiCond35) V0 load(1, XDATA, add(CFA_XSP16, literal(-17)))
        CFI (cfiCond35) V1 load(1, XDATA, add(CFA_XSP16, literal(-16)))
        CFI (cfiCond35) V2 load(1, XDATA, add(CFA_XSP16, literal(-15)))
        CFI (cfiCond35) V3 load(1, XDATA, add(CFA_XSP16, literal(-14)))
        CFI (cfiCond35) V4 load(1, XDATA, add(CFA_XSP16, literal(-13)))
        CFI (cfiCond35) V5 load(1, XDATA, add(CFA_XSP16, literal(-12)))
        CFI (cfiCond35) V6 load(1, XDATA, add(CFA_XSP16, literal(-11)))
        CFI (cfiCond35) V7 load(1, XDATA, add(CFA_XSP16, literal(-10)))
        CFI (cfiCond35) V8 load(1, XDATA, add(CFA_XSP16, literal(-9)))
        CFI (cfiCond35) V9 load(1, XDATA, add(CFA_XSP16, literal(-8)))
        CFI (cfiCond35) V10 load(1, XDATA, add(CFA_XSP16, literal(-7)))
        CFI (cfiCond35) R7 load(1, XDATA, add(CFA_XSP16, literal(-6)))
        CFI (cfiCond35) ?RET_LOW load(1, XDATA, add(CFA_XSP16, literal(-5)))
        CFI (cfiCond35) ?RET_HIGH load(1, XDATA, add(CFA_XSP16, literal(-4)))
        CFI (cfiCond35) ?BRET_EXT load(1, XDATA, add(CFA_XSP16, literal(-3)))
        CFI (cfiCond35) DPL0 load(1, XDATA, add(CFA_XSP16, literal(-2)))
        CFI (cfiCond35) DPH0 load(1, XDATA, add(CFA_XSP16, literal(-1)))
        CFI (cfiCond35) CFA_SP SP+0
        CFI (cfiCond35) CFA_XSP16 add(XSP16, 47)
        CFI Block cfiCond36 Using cfiCommon0
        CFI (cfiCond36) NoFunction
        CFI (cfiCond36) Conditional ??CrossCallReturnLabel_16
        CFI (cfiCond36) R6 load(1, XDATA, add(CFA_XSP16, literal(-12)))
        CFI (cfiCond36) VB load(1, XDATA, add(CFA_XSP16, literal(-11)))
        CFI (cfiCond36) V0 load(1, XDATA, add(CFA_XSP16, literal(-10)))
        CFI (cfiCond36) V1 load(1, XDATA, add(CFA_XSP16, literal(-9)))
        CFI (cfiCond36) V2 load(1, XDATA, add(CFA_XSP16, literal(-8)))
        CFI (cfiCond36) V3 load(1, XDATA, add(CFA_XSP16, literal(-7)))
        CFI (cfiCond36) R7 load(1, XDATA, add(CFA_XSP16, literal(-6)))
        CFI (cfiCond36) ?RET_LOW load(1, XDATA, add(CFA_XSP16, literal(-5)))
        CFI (cfiCond36) ?RET_HIGH load(1, XDATA, add(CFA_XSP16, literal(-4)))
        CFI (cfiCond36) ?BRET_EXT load(1, XDATA, add(CFA_XSP16, literal(-3)))
        CFI (cfiCond36) DPL0 load(1, XDATA, add(CFA_XSP16, literal(-2)))
        CFI (cfiCond36) DPH0 load(1, XDATA, add(CFA_XSP16, literal(-1)))
        CFI (cfiCond36) CFA_SP SP+0
        CFI (cfiCond36) CFA_XSP16 add(XSP16, 32)
        CFI Block cfiPicker37 Using cfiCommon1
        CFI (cfiPicker37) NoFunction
        CFI (cfiPicker37) Picker
        LCALL   ??osal_memcpy?relay
        MOV     A,#0x3
        RET
        CFI EndBlock cfiCond31
        CFI EndBlock cfiCond32
        CFI EndBlock cfiCond33
        CFI EndBlock cfiCond34
        CFI EndBlock cfiCond35
        CFI EndBlock cfiCond36
        CFI EndBlock cfiPicker37

        RSEG BANKED_CODE:CODE:NOROOT(0)
?Subroutine3:
        CFI Block cfiCond38 Using cfiCommon0
        CFI NoFunction
        CFI Conditional ??CrossCallReturnLabel_22
        CFI R6 load(1, XDATA, add(CFA_XSP16, literal(-18)))
        CFI VB load(1, XDATA, add(CFA_XSP16, literal(-17)))
        CFI V0 load(1, XDATA, add(CFA_XSP16, literal(-16)))
        CFI V1 load(1, XDATA, add(CFA_XSP16, literal(-15)))
        CFI V2 load(1, XDATA, add(CFA_XSP16, literal(-14)))
        CFI V3 load(1, XDATA, add(CFA_XSP16, literal(-13)))
        CFI V4 load(1, XDATA, add(CFA_XSP16, literal(-12)))
        CFI V5 load(1, XDATA, add(CFA_XSP16, literal(-11)))
        CFI V6 load(1, XDATA, add(CFA_XSP16, literal(-10)))
        CFI V7 load(1, XDATA, add(CFA_XSP16, literal(-9)))
        CFI V8 load(1, XDATA, add(CFA_XSP16, literal(-8)))
        CFI V9 load(1, XDATA, add(CFA_XSP16, literal(-7)))
        CFI R7 load(1, XDATA, add(CFA_XSP16, literal(-6)))
        CFI ?RET_LOW load(1, XDATA, add(CFA_XSP16, literal(-5)))
        CFI ?RET_HIGH load(1, XDATA, add(CFA_XSP16, literal(-4)))
        CFI ?BRET_EXT load(1, XDATA, add(CFA_XSP16, literal(-3)))
        CFI DPL0 load(1, XDATA, add(CFA_XSP16, literal(-2)))
        CFI DPH0 load(1, XDATA, add(CFA_XSP16, literal(-1)))
        CFI CFA_SP SP+0
        CFI CFA_XSP16 add(XSP16, 43)
        CFI Block cfiCond39 Using cfiCommon0
        CFI (cfiCond39) NoFunction
        CFI (cfiCond39) Conditional ??CrossCallReturnLabel_23
        CFI (cfiCond39) R6 load(1, XDATA, add(CFA_XSP16, literal(-19)))
        CFI (cfiCond39) VB load(1, XDATA, add(CFA_XSP16, literal(-18)))
        CFI (cfiCond39) V0 load(1, XDATA, add(CFA_XSP16, literal(-17)))
        CFI (cfiCond39) V1 load(1, XDATA, add(CFA_XSP16, literal(-16)))
        CFI (cfiCond39) V2 load(1, XDATA, add(CFA_XSP16, literal(-15)))
        CFI (cfiCond39) V3 load(1, XDATA, add(CFA_XSP16, literal(-14)))
        CFI (cfiCond39) V4 load(1, XDATA, add(CFA_XSP16, literal(-13)))
        CFI (cfiCond39) V5 load(1, XDATA, add(CFA_XSP16, literal(-12)))
        CFI (cfiCond39) V6 load(1, XDATA, add(CFA_XSP16, literal(-11)))
        CFI (cfiCond39) V7 load(1, XDATA, add(CFA_XSP16, literal(-10)))
        CFI (cfiCond39) V8 load(1, XDATA, add(CFA_XSP16, literal(-9)))
        CFI (cfiCond39) V9 load(1, XDATA, add(CFA_XSP16, literal(-8)))
        CFI (cfiCond39) V10 load(1, XDATA, add(CFA_XSP16, literal(-7)))
        CFI (cfiCond39) R7 load(1, XDATA, add(CFA_XSP16, literal(-6)))
        CFI (cfiCond39) ?RET_LOW load(1, XDATA, add(CFA_XSP16, literal(-5)))
        CFI (cfiCond39) ?RET_HIGH load(1, XDATA, add(CFA_XSP16, literal(-4)))
        CFI (cfiCond39) ?BRET_EXT load(1, XDATA, add(CFA_XSP16, literal(-3)))
        CFI (cfiCond39) DPL0 load(1, XDATA, add(CFA_XSP16, literal(-2)))
        CFI (cfiCond39) DPH0 load(1, XDATA, add(CFA_XSP16, literal(-1)))
        CFI (cfiCond39) CFA_SP SP+0
        CFI (cfiCond39) CFA_XSP16 add(XSP16, 44)
        CFI Block cfiPicker40 Using cfiCommon1
        CFI (cfiPicker40) NoFunction
        CFI (cfiPicker40) Picker
        MOV     DPL,?XSP + 0
        MOV     DPH,?XSP + 1
        MOV     A,DPL
        ADD     A,?V0 + 2
        CFI EndBlock cfiCond38
        CFI EndBlock cfiCond39
        CFI EndBlock cfiPicker40
        REQUIRE ??Subroutine12_0
        ; // Fall through to label ??Subroutine12_0

        RSEG BANKED_CODE:CODE:NOROOT(0)
??Subroutine12_0:
        CFI Block cfiCond41 Using cfiCommon0
        CFI NoFunction
        CFI Conditional ??CrossCallReturnLabel_21
        CFI R6 load(1, XDATA, add(CFA_XSP16, literal(-19)))
        CFI VB load(1, XDATA, add(CFA_XSP16, literal(-18)))
        CFI V0 load(1, XDATA, add(CFA_XSP16, literal(-17)))
        CFI V1 load(1, XDATA, add(CFA_XSP16, literal(-16)))
        CFI V2 load(1, XDATA, add(CFA_XSP16, literal(-15)))
        CFI V3 load(1, XDATA, add(CFA_XSP16, literal(-14)))
        CFI V4 load(1, XDATA, add(CFA_XSP16, literal(-13)))
        CFI V5 load(1, XDATA, add(CFA_XSP16, literal(-12)))
        CFI V6 load(1, XDATA, add(CFA_XSP16, literal(-11)))
        CFI V7 load(1, XDATA, add(CFA_XSP16, literal(-10)))
        CFI V8 load(1, XDATA, add(CFA_XSP16, literal(-9)))
        CFI V9 load(1, XDATA, add(CFA_XSP16, literal(-8)))
        CFI V10 load(1, XDATA, add(CFA_XSP16, literal(-7)))
        CFI R7 load(1, XDATA, add(CFA_XSP16, literal(-6)))
        CFI ?RET_LOW load(1, XDATA, add(CFA_XSP16, literal(-5)))
        CFI ?RET_HIGH load(1, XDATA, add(CFA_XSP16, literal(-4)))
        CFI ?BRET_EXT load(1, XDATA, add(CFA_XSP16, literal(-3)))
        CFI DPL0 load(1, XDATA, add(CFA_XSP16, literal(-2)))
        CFI DPH0 load(1, XDATA, add(CFA_XSP16, literal(-1)))
        CFI CFA_SP SP+0
        CFI CFA_XSP16 add(XSP16, 44)
        CFI Block cfiCond42 Using cfiCommon0
        CFI (cfiCond42) NoFunction
        CFI (cfiCond42) Conditional ??CrossCallReturnLabel_22
        CFI (cfiCond42) R6 load(1, XDATA, add(CFA_XSP16, literal(-18)))
        CFI (cfiCond42) VB load(1, XDATA, add(CFA_XSP16, literal(-17)))
        CFI (cfiCond42) V0 load(1, XDATA, add(CFA_XSP16, literal(-16)))
        CFI (cfiCond42) V1 load(1, XDATA, add(CFA_XSP16, literal(-15)))
        CFI (cfiCond42) V2 load(1, XDATA, add(CFA_XSP16, literal(-14)))
        CFI (cfiCond42) V3 load(1, XDATA, add(CFA_XSP16, literal(-13)))
        CFI (cfiCond42) V4 load(1, XDATA, add(CFA_XSP16, literal(-12)))
        CFI (cfiCond42) V5 load(1, XDATA, add(CFA_XSP16, literal(-11)))
        CFI (cfiCond42) V6 load(1, XDATA, add(CFA_XSP16, literal(-10)))
        CFI (cfiCond42) V7 load(1, XDATA, add(CFA_XSP16, literal(-9)))
        CFI (cfiCond42) V8 load(1, XDATA, add(CFA_XSP16, literal(-8)))
        CFI (cfiCond42) V9 load(1, XDATA, add(CFA_XSP16, literal(-7)))
        CFI (cfiCond42) R7 load(1, XDATA, add(CFA_XSP16, literal(-6)))
        CFI (cfiCond42) ?RET_LOW load(1, XDATA, add(CFA_XSP16, literal(-5)))
        CFI (cfiCond42) ?RET_HIGH load(1, XDATA, add(CFA_XSP16, literal(-4)))
        CFI (cfiCond42) ?BRET_EXT load(1, XDATA, add(CFA_XSP16, literal(-3)))
        CFI (cfiCond42) DPL0 load(1, XDATA, add(CFA_XSP16, literal(-2)))
        CFI (cfiCond42) DPH0 load(1, XDATA, add(CFA_XSP16, literal(-1)))
        CFI (cfiCond42) CFA_SP SP+0
        CFI (cfiCond42) CFA_XSP16 add(XSP16, 43)
        CFI Block cfiCond43 Using cfiCommon0
        CFI (cfiCond43) NoFunction
        CFI (cfiCond43) Conditional ??CrossCallReturnLabel_23
        CFI (cfiCond43) R6 load(1, XDATA, add(CFA_XSP16, literal(-19)))
        CFI (cfiCond43) VB load(1, XDATA, add(CFA_XSP16, literal(-18)))
        CFI (cfiCond43) V0 load(1, XDATA, add(CFA_XSP16, literal(-17)))
        CFI (cfiCond43) V1 load(1, XDATA, add(CFA_XSP16, literal(-16)))
        CFI (cfiCond43) V2 load(1, XDATA, add(CFA_XSP16, literal(-15)))
        CFI (cfiCond43) V3 load(1, XDATA, add(CFA_XSP16, literal(-14)))
        CFI (cfiCond43) V4 load(1, XDATA, add(CFA_XSP16, literal(-13)))
        CFI (cfiCond43) V5 load(1, XDATA, add(CFA_XSP16, literal(-12)))
        CFI (cfiCond43) V6 load(1, XDATA, add(CFA_XSP16, literal(-11)))
        CFI (cfiCond43) V7 load(1, XDATA, add(CFA_XSP16, literal(-10)))
        CFI (cfiCond43) V8 load(1, XDATA, add(CFA_XSP16, literal(-9)))
        CFI (cfiCond43) V9 load(1, XDATA, add(CFA_XSP16, literal(-8)))
        CFI (cfiCond43) V10 load(1, XDATA, add(CFA_XSP16, literal(-7)))
        CFI (cfiCond43) R7 load(1, XDATA, add(CFA_XSP16, literal(-6)))
        CFI (cfiCond43) ?RET_LOW load(1, XDATA, add(CFA_XSP16, literal(-5)))
        CFI (cfiCond43) ?RET_HIGH load(1, XDATA, add(CFA_XSP16, literal(-4)))
        CFI (cfiCond43) ?BRET_EXT load(1, XDATA, add(CFA_XSP16, literal(-3)))
        CFI (cfiCond43) DPL0 load(1, XDATA, add(CFA_XSP16, literal(-2)))
        CFI (cfiCond43) DPH0 load(1, XDATA, add(CFA_XSP16, literal(-1)))
        CFI (cfiCond43) CFA_SP SP+0
        CFI (cfiCond43) CFA_XSP16 add(XSP16, 44)
        CFI Block cfiPicker44 Using cfiCommon1
        CFI (cfiPicker44) NoFunction
        CFI (cfiPicker44) Picker
        MOV     DPL,A
        MOV     A,DPH
        CFI EndBlock cfiCond41
        CFI EndBlock cfiCond42
        CFI EndBlock cfiCond43
        CFI EndBlock cfiPicker44
        REQUIRE ??Subroutine13_0
        ; // Fall through to label ??Subroutine13_0

        RSEG BANKED_CODE:CODE:NOROOT(0)
??Subroutine13_0:
        CFI Block cfiCond45 Using cfiCommon0
        CFI NoFunction
        CFI Conditional ??CrossCallReturnLabel_20
        CFI R6 load(1, XDATA, add(CFA_XSP16, literal(-17)))
        CFI VB load(1, XDATA, add(CFA_XSP16, literal(-16)))
        CFI V0 load(1, XDATA, add(CFA_XSP16, literal(-15)))
        CFI V1 load(1, XDATA, add(CFA_XSP16, literal(-14)))
        CFI V2 load(1, XDATA, add(CFA_XSP16, literal(-13)))
        CFI V3 load(1, XDATA, add(CFA_XSP16, literal(-12)))
        CFI V4 load(1, XDATA, add(CFA_XSP16, literal(-11)))
        CFI V5 load(1, XDATA, add(CFA_XSP16, literal(-10)))
        CFI V6 load(1, XDATA, add(CFA_XSP16, literal(-9)))
        CFI V7 load(1, XDATA, add(CFA_XSP16, literal(-8)))
        CFI V8 load(1, XDATA, add(CFA_XSP16, literal(-7)))
        CFI R7 load(1, XDATA, add(CFA_XSP16, literal(-6)))
        CFI ?RET_LOW load(1, XDATA, add(CFA_XSP16, literal(-5)))
        CFI ?RET_HIGH load(1, XDATA, add(CFA_XSP16, literal(-4)))
        CFI ?BRET_EXT load(1, XDATA, add(CFA_XSP16, literal(-3)))
        CFI DPL0 load(1, XDATA, add(CFA_XSP16, literal(-2)))
        CFI DPH0 load(1, XDATA, add(CFA_XSP16, literal(-1)))
        CFI CFA_SP SP+0
        CFI CFA_XSP16 add(XSP16, 17)
        CFI Block cfiCond46 Using cfiCommon0
        CFI (cfiCond46) NoFunction
        CFI (cfiCond46) Conditional ??CrossCallReturnLabel_21
        CFI (cfiCond46) R6 load(1, XDATA, add(CFA_XSP16, literal(-19)))
        CFI (cfiCond46) VB load(1, XDATA, add(CFA_XSP16, literal(-18)))
        CFI (cfiCond46) V0 load(1, XDATA, add(CFA_XSP16, literal(-17)))
        CFI (cfiCond46) V1 load(1, XDATA, add(CFA_XSP16, literal(-16)))
        CFI (cfiCond46) V2 load(1, XDATA, add(CFA_XSP16, literal(-15)))
        CFI (cfiCond46) V3 load(1, XDATA, add(CFA_XSP16, literal(-14)))
        CFI (cfiCond46) V4 load(1, XDATA, add(CFA_XSP16, literal(-13)))
        CFI (cfiCond46) V5 load(1, XDATA, add(CFA_XSP16, literal(-12)))
        CFI (cfiCond46) V6 load(1, XDATA, add(CFA_XSP16, literal(-11)))
        CFI (cfiCond46) V7 load(1, XDATA, add(CFA_XSP16, literal(-10)))
        CFI (cfiCond46) V8 load(1, XDATA, add(CFA_XSP16, literal(-9)))
        CFI (cfiCond46) V9 load(1, XDATA, add(CFA_XSP16, literal(-8)))
        CFI (cfiCond46) V10 load(1, XDATA, add(CFA_XSP16, literal(-7)))
        CFI (cfiCond46) R7 load(1, XDATA, add(CFA_XSP16, literal(-6)))
        CFI (cfiCond46) ?RET_LOW load(1, XDATA, add(CFA_XSP16, literal(-5)))
        CFI (cfiCond46) ?RET_HIGH load(1, XDATA, add(CFA_XSP16, literal(-4)))
        CFI (cfiCond46) ?BRET_EXT load(1, XDATA, add(CFA_XSP16, literal(-3)))
        CFI (cfiCond46) DPL0 load(1, XDATA, add(CFA_XSP16, literal(-2)))
        CFI (cfiCond46) DPH0 load(1, XDATA, add(CFA_XSP16, literal(-1)))
        CFI (cfiCond46) CFA_SP SP+0
        CFI (cfiCond46) CFA_XSP16 add(XSP16, 44)
        CFI Block cfiCond47 Using cfiCommon0
        CFI (cfiCond47) NoFunction
        CFI (cfiCond47) Conditional ??CrossCallReturnLabel_22
        CFI (cfiCond47) R6 load(1, XDATA, add(CFA_XSP16, literal(-18)))
        CFI (cfiCond47) VB load(1, XDATA, add(CFA_XSP16, literal(-17)))
        CFI (cfiCond47) V0 load(1, XDATA, add(CFA_XSP16, literal(-16)))
        CFI (cfiCond47) V1 load(1, XDATA, add(CFA_XSP16, literal(-15)))
        CFI (cfiCond47) V2 load(1, XDATA, add(CFA_XSP16, literal(-14)))
        CFI (cfiCond47) V3 load(1, XDATA, add(CFA_XSP16, literal(-13)))
        CFI (cfiCond47) V4 load(1, XDATA, add(CFA_XSP16, literal(-12)))
        CFI (cfiCond47) V5 load(1, XDATA, add(CFA_XSP16, literal(-11)))
        CFI (cfiCond47) V6 load(1, XDATA, add(CFA_XSP16, literal(-10)))
        CFI (cfiCond47) V7 load(1, XDATA, add(CFA_XSP16, literal(-9)))
        CFI (cfiCond47) V8 load(1, XDATA, add(CFA_XSP16, literal(-8)))
        CFI (cfiCond47) V9 load(1, XDATA, add(CFA_XSP16, literal(-7)))
        CFI (cfiCond47) R7 load(1, XDATA, add(CFA_XSP16, literal(-6)))
        CFI (cfiCond47) ?RET_LOW load(1, XDATA, add(CFA_XSP16, literal(-5)))
        CFI (cfiCond47) ?RET_HIGH load(1, XDATA, add(CFA_XSP16, literal(-4)))
        CFI (cfiCond47) ?BRET_EXT load(1, XDATA, add(CFA_XSP16, literal(-3)))
        CFI (cfiCond47) DPL0 load(1, XDATA, add(CFA_XSP16, literal(-2)))
        CFI (cfiCond47) DPH0 load(1, XDATA, add(CFA_XSP16, literal(-1)))
        CFI (cfiCond47) CFA_SP SP+0
        CFI (cfiCond47) CFA_XSP16 add(XSP16, 43)
        CFI Block cfiCond48 Using cfiCommon0
        CFI (cfiCond48) NoFunction
        CFI (cfiCond48) Conditional ??CrossCallReturnLabel_23
        CFI (cfiCond48) R6 load(1, XDATA, add(CFA_XSP16, literal(-19)))
        CFI (cfiCond48) VB load(1, XDATA, add(CFA_XSP16, literal(-18)))
        CFI (cfiCond48) V0 load(1, XDATA, add(CFA_XSP16, literal(-17)))
        CFI (cfiCond48) V1 load(1, XDATA, add(CFA_XSP16, literal(-16)))
        CFI (cfiCond48) V2 load(1, XDATA, add(CFA_XSP16, literal(-15)))
        CFI (cfiCond48) V3 load(1, XDATA, add(CFA_XSP16, literal(-14)))
        CFI (cfiCond48) V4 load(1, XDATA, add(CFA_XSP16, literal(-13)))
        CFI (cfiCond48) V5 load(1, XDATA, add(CFA_XSP16, literal(-12)))
        CFI (cfiCond48) V6 load(1, XDATA, add(CFA_XSP16, literal(-11)))
        CFI (cfiCond48) V7 load(1, XDATA, add(CFA_XSP16, literal(-10)))
        CFI (cfiCond48) V8 load(1, XDATA, add(CFA_XSP16, literal(-9)))
        CFI (cfiCond48) V9 load(1, XDATA, add(CFA_XSP16, literal(-8)))
        CFI (cfiCond48) V10 load(1, XDATA, add(CFA_XSP16, literal(-7)))
        CFI (cfiCond48) R7 load(1, XDATA, add(CFA_XSP16, literal(-6)))
        CFI (cfiCond48) ?RET_LOW load(1, XDATA, add(CFA_XSP16, literal(-5)))
        CFI (cfiCond48) ?RET_HIGH load(1, XDATA, add(CFA_XSP16, literal(-4)))
        CFI (cfiCond48) ?BRET_EXT load(1, XDATA, add(CFA_XSP16, literal(-3)))
        CFI (cfiCond48) DPL0 load(1, XDATA, add(CFA_XSP16, literal(-2)))
        CFI (cfiCond48) DPH0 load(1, XDATA, add(CFA_XSP16, literal(-1)))
        CFI (cfiCond48) CFA_SP SP+0
        CFI (cfiCond48) CFA_XSP16 add(XSP16, 44)
        CFI Block cfiPicker49 Using cfiCommon1
        CFI (cfiPicker49) NoFunction
        CFI (cfiPicker49) Picker
        ADDC    A,#0x0
        MOV     DPH,A
        MOV     A,#0x20
        MOVX    @DPTR,A
        RET
        CFI EndBlock cfiCond45
        CFI EndBlock cfiCond46
        CFI EndBlock cfiCond47
        CFI EndBlock cfiCond48
        CFI EndBlock cfiPicker49
//  383 
//  384 /**************************************************************************************************
//  385  * @fn      HalLcdDisplayPercentBar
//  386  *
//  387  * @brief   Display percentage bar on the LCD
//  388  *
//  389  * @param   title   -
//  390  *          value   -
//  391  *
//  392  * @return  None
//  393  **************************************************************************************************/

        RSEG BANKED_CODE:CODE:NOROOT(0)
//  394 void HalLcdDisplayPercentBar( char *title, uint8 value )
HalLcdDisplayPercentBar:
        CFI Block cfiBlock50 Using cfiCommon0
        CFI Function HalLcdDisplayPercentBar
        CODE
//  395 {
        FUNCALL HalLcdDisplayPercentBar, HalLcdWriteString
        LOCFRAME ISTACK, 0, STACK
        LOCFRAME PSTACK, 0, STACK
        LOCFRAME XSTACK, 29, STACK
        LOCFRAME IOVERLAY, 0, STATIC
        LOCFRAME DOVERLAY, 0, STATIC
        ARGFRAME ISTACK, 0, STACK
        ARGFRAME PSTACK, 0, STACK
        ARGFRAME XSTACK, 29, STACK
        ARGFRAME IOVERLAY, 0, STATIC
        ARGFRAME DOVERLAY, 0, STATIC
        FUNCALL HalLcdDisplayPercentBar, osal_memcpy
        LOCFRAME ISTACK, 0, STACK
        LOCFRAME PSTACK, 0, STACK
        LOCFRAME XSTACK, 32, STACK
        LOCFRAME IOVERLAY, 0, STATIC
        LOCFRAME DOVERLAY, 0, STATIC
        ARGFRAME ISTACK, 0, STACK
        ARGFRAME PSTACK, 0, STACK
        ARGFRAME XSTACK, 32, STACK
        ARGFRAME IOVERLAY, 0, STATIC
        ARGFRAME DOVERLAY, 0, STATIC
        FUNCALL HalLcdDisplayPercentBar, _ltoa
        LOCFRAME ISTACK, 0, STACK
        LOCFRAME PSTACK, 0, STACK
        LOCFRAME XSTACK, 31, STACK
        LOCFRAME IOVERLAY, 0, STATIC
        LOCFRAME DOVERLAY, 0, STATIC
        ARGFRAME ISTACK, 0, STACK
        ARGFRAME PSTACK, 0, STACK
        ARGFRAME XSTACK, 31, STACK
        ARGFRAME IOVERLAY, 0, STATIC
        ARGFRAME DOVERLAY, 0, STATIC
        FUNCALL HalLcdDisplayPercentBar, HalLcdWriteString
        LOCFRAME ISTACK, 0, STACK
        LOCFRAME PSTACK, 0, STACK
        LOCFRAME XSTACK, 29, STACK
        LOCFRAME IOVERLAY, 0, STATIC
        LOCFRAME DOVERLAY, 0, STATIC
        ARGFRAME ISTACK, 0, STACK
        ARGFRAME PSTACK, 0, STACK
        ARGFRAME XSTACK, 29, STACK
        ARGFRAME IOVERLAY, 0, STATIC
        ARGFRAME DOVERLAY, 0, STATIC
        MOV     A,#-0xc
        LCALL   ?BANKED_ENTER_XDATA
        CFI DPH0 load(1, XDATA, add(CFA_XSP16, literal(-1)))
        CFI DPL0 load(1, XDATA, add(CFA_XSP16, literal(-2)))
        CFI ?BRET_EXT load(1, XDATA, add(CFA_XSP16, literal(-3)))
        CFI ?RET_HIGH load(1, XDATA, add(CFA_XSP16, literal(-4)))
        CFI ?RET_LOW load(1, XDATA, add(CFA_XSP16, literal(-5)))
        CFI R7 load(1, XDATA, add(CFA_XSP16, literal(-6)))
        CFI V3 load(1, XDATA, add(CFA_XSP16, literal(-7)))
        CFI V2 load(1, XDATA, add(CFA_XSP16, literal(-8)))
        CFI V1 load(1, XDATA, add(CFA_XSP16, literal(-9)))
        CFI V0 load(1, XDATA, add(CFA_XSP16, literal(-10)))
        CFI VB load(1, XDATA, add(CFA_XSP16, literal(-11)))
        CFI R6 load(1, XDATA, add(CFA_XSP16, literal(-12)))
        CFI CFA_SP SP+0
        CFI CFA_XSP16 add(XSP16, 12)
        ; Saved register size: 12
        ; Auto size: 17
        MOV     A,#-0x11
        LCALL   ?ALLOC_XSTACK8
        CFI CFA_XSP16 add(XSP16, 29)
        MOV     A,R1
        MOV     R6,A
//  396 #if (HAL_LCD == TRUE)
//  397     uint8 percent;
//  398     uint8 leftOver;
//  399     uint8 buf[17];
//  400     uint32 err;
//  401     uint8 x;
//  402   
//  403     /* Write the title: */
//  404     HalLcdWriteString( title, HAL_LCD_LINE_1 );
        ; Setup parameters for call to function HalLcdWriteString
        MOV     R1,#0x1
        LCALL   ??HalLcdWriteString?relay
//  405   
//  406     if ( value > 100 )
        MOV     A,R6
        CLR     C
        SUBB    A,#0x65
        JC      ??HalLcdDisplayPercentBar_0
//  407       value = 100;
        MOV     R6,#0x64
//  408   
//  409     /* convert to blocks */
//  410     percent = (uint8)(value / 10);
??HalLcdDisplayPercentBar_0:
        MOV     B,#0xa
        MOV     A,R6
        DIV     AB
        MOV     ?V0 + 3,A
//  411     leftOver = (uint8)(value % 10);
        MOV     A,R6
        MOV     B,#0xa
        DIV     AB
        MOV     R7,B
//  412   
//  413     /* Make window */
//  414     osal_memcpy( buf, "[          ]  ", 15 );
        ; Setup parameters for call to function osal_memcpy
        MOV     ?V0 + 0,#`?<Constant "[          ]  ">` & 0xff
        MOV     ?V0 + 1,#(`?<Constant "[          ]  ">` >> 8) & 0xff
        MOV     ?V0 + 2,#0x0
        MOV     R0,#?V0 + 0
        LCALL   ?PUSH_XSTACK_I_THREE
        CFI CFA_XSP16 add(XSP16, 32)
        MOV     R4,#0xf
        MOV     R5,#0x0
        MOV     A,#0x3
        LCALL   ?XSTACK_DISP0_8
        LCALL   ?Subroutine4 & 0xFFFF
??CrossCallReturnLabel_16:
        LCALL   ?DEALLOC_XSTACK8
        CFI CFA_XSP16 add(XSP16, 29)
//  415   
//  416     for ( x = 0; x < percent; x ++ )
        MOV     A,?V0 + 3
        JZ      ??HalLcdDisplayPercentBar_1
//  417     {
//  418         buf[1+x] = '>';
        MOV     R0,A
        MOV     R1,#0x0
        MOV     R2,#0x3e
        MOV     A,#0x1
        LCALL   ?XSTACK_DISP0_8
??HalLcdDisplayPercentBar_2:
        MOV     A,R2
        MOVX    @DPTR,A
        INC     DPTR
        MOV     A,R0
        ADD     A,#-0x1
        DEC     R0
        MOV     A,R1
        ADDC    A,#-0x1
        MOV     R1,A
        ORL     A,R0
        JNZ     ??HalLcdDisplayPercentBar_2
//  419     }
        MOV     ?V0 + 2,?V0 + 3
//  420   
//  421     if ( leftOver >= 5 )
??HalLcdDisplayPercentBar_1:
        MOV     A,R7
        CLR     C
        SUBB    A,#0x5
        JC      ??HalLcdDisplayPercentBar_3
//  422       buf[1+x] = '+';
        MOV     ?V0 + 0,?V0 + 2
        MOV     DPL,?XSP + 0
        MOV     DPH,?XSP + 1
        MOV     A,DPL
        ADD     A,?V0 + 0
        MOV     DPL,A
        MOV     A,DPH
        ADDC    A,#0x0
        MOV     DPH,A
        INC     DPTR
        MOV     A,#0x2b
        MOVX    @DPTR,A
//  423   
//  424     err = (uint32)value;
//  425     _ltoa( err, (uint8*)&buf[13], 10 );
??HalLcdDisplayPercentBar_3:
        ; Setup parameters for call to function _ltoa
        MOV     A,#0xd
        LCALL   ?XSTACK_DISP0_8
        MOV     ?V0 + 0,DPL
        MOV     ?V0 + 1,DPH
        MOV     R0,#?V0 + 0
        LCALL   ?PUSH_XSTACK_I_TWO
        CFI CFA_XSP16 add(XSP16, 31)
        MOV     R1,#0xa
        MOV     A,R6
        MOV     R2,A
        CLR     A
        MOV     R3,A
        LCALL   ??Subroutine9_0 & 0xFFFF
??CrossCallReturnLabel_12:
        LCALL   ?DEALLOC_XSTACK8
        CFI CFA_XSP16 add(XSP16, 29)
//  426   
//  427     HalLcdWriteString( (char*)buf, HAL_LCD_LINE_2 );
        ; Setup parameters for call to function HalLcdWriteString
        MOV     R1,#0x2
        MOV     DPL,?XSP + 0
        MOV     DPH,?XSP + 1
        MOV     R2,DPL
        MOV     R3,DPH
        LCALL   ??HalLcdWriteString?relay
//  428 #endif
//  429 }                     
        MOV     A,#0x11
        LCALL   ?DEALLOC_XSTACK8
        CFI CFA_XSP16 add(XSP16, 12)
        MOV     R7,#0x4
        LJMP    ?BANKED_LEAVE_XDATA
        CFI EndBlock cfiBlock50
//  430 
//  431 
//  432 #if (HAL_LCD == TRUE)
//  433 /**************************************************************************************************
//  434  *                                    HARDWARE LCD
//  435  **************************************************************************************************/
//  436 
//  437 /**************************************************************************************************
//  438  * @fn      halLcd_ConfigIO
//  439  *
//  440  * @brief   Configure IO lines needed for LCD control.
//  441  *
//  442  * @param   None
//  443  *
//  444  * @return  None
//  445  **************************************************************************************************/

        RSEG BANKED_CODE:CODE:NOROOT(0)
//  446 static void halLcd_ConfigIO(void)
halLcd_ConfigIO:
        CFI Block cfiBlock51 Using cfiCommon0
        CFI Function halLcd_ConfigIO
        CODE
//  447 {
        ; Saved register size: 0
        ; Auto size: 0
//  448     /* GPIO configuration */
//  449     HAL_CONFIG_IO_OUTPUT(HAL_LCD_BACKLIGHT_PORT, HAL_LCD_BACKLIGHT_PIN, 1);
        ANL     0xf4,#0xfd
        SETB    0x90.1
        ORL     0xfe,#0x2
//  450     HAL_CONFIG_IO_OUTPUT(HAL_LCD_RESET_PORT,     HAL_LCD_RESET_PIN,     1);
        ANL     0xf5,#0xfe
        SETB    0xa0.0
        ORL     0xff,#0x1
//  451     HAL_CONFIG_IO_OUTPUT(HAL_LCD_CS_PORT,        HAL_LCD_CS_PIN,        1);
        ANL     0xf4,#0x7f
        SETB    0x90.7
        ORL     0xfe,#0x80
//  452     HAL_CONFIG_IO_OUTPUT(HAL_LCD_SCLK_PORT,      HAL_LCD_SCLK_PIN,      1);
        ANL     0xf4,#0xef
        SETB    0x90.4
        ORL     0xfe,#0x10
//  453     HAL_CONFIG_IO_OUTPUT(HAL_LCD_RS_PORT,        HAL_LCD_RS_PIN,        1);
        ANL     0xf4,#0xdf
        SETB    0x90.5
        ORL     0xfe,#0x20
//  454     HAL_CONFIG_IO_OUTPUT(HAL_LCD_SDA_PORT,       HAL_LCD_SDA_PIN,       1);
        ANL     0xf4,#0xbf
        SETB    0x90.6
        ORL     0xfe,#0x40
//  455 }
        LJMP    ?BRET
        CFI EndBlock cfiBlock51
        REQUIRE P1SEL
        REQUIRE _A_P1
        REQUIRE P1DIR
        REQUIRE P2SEL
        REQUIRE _A_P2
        REQUIRE P2DIR
//  456 
//  457 /**************************************************************************************************
//  458  * @fn      HalLcd_HW_SET_DDRAM_ADDR
//  459  *
//  460  * @brief   Set DDRAM address, 一共128列，8页(每页8行)
//  461  *
//  462  * @param   uint8 page, uint8 column
//  463  *
//  464  * @return  None
//  465  **************************************************************************************************/

        RSEG BANKED_CODE:CODE:NOROOT(0)
//  466 void HalLcd_HW_SET_DDRAM_ADDR(uint8 page, uint8 column)
HalLcd_HW_SET_DDRAM_ADDR:
        CFI Block cfiBlock52 Using cfiCommon0
        CFI Function HalLcd_HW_SET_DDRAM_ADDR
        CODE
//  467 {
        FUNCALL HalLcd_HW_SET_DDRAM_ADDR, HalLcd_HW_Control
        LOCFRAME ISTACK, 0, STACK
        LOCFRAME PSTACK, 0, STACK
        LOCFRAME XSTACK, 9, STACK
        LOCFRAME IOVERLAY, 0, STATIC
        LOCFRAME DOVERLAY, 0, STATIC
        ARGFRAME ISTACK, 0, STACK
        ARGFRAME PSTACK, 0, STACK
        ARGFRAME XSTACK, 9, STACK
        ARGFRAME IOVERLAY, 0, STATIC
        ARGFRAME DOVERLAY, 0, STATIC
        FUNCALL HalLcd_HW_SET_DDRAM_ADDR, HalLcd_HW_Control
        LOCFRAME ISTACK, 0, STACK
        LOCFRAME PSTACK, 0, STACK
        LOCFRAME XSTACK, 9, STACK
        LOCFRAME IOVERLAY, 0, STATIC
        LOCFRAME DOVERLAY, 0, STATIC
        ARGFRAME ISTACK, 0, STACK
        ARGFRAME PSTACK, 0, STACK
        ARGFRAME XSTACK, 9, STACK
        ARGFRAME IOVERLAY, 0, STATIC
        ARGFRAME DOVERLAY, 0, STATIC
        FUNCALL HalLcd_HW_SET_DDRAM_ADDR, HalLcd_HW_Control
        LOCFRAME ISTACK, 0, STACK
        LOCFRAME PSTACK, 0, STACK
        LOCFRAME XSTACK, 9, STACK
        LOCFRAME IOVERLAY, 0, STATIC
        LOCFRAME DOVERLAY, 0, STATIC
        ARGFRAME ISTACK, 0, STACK
        ARGFRAME PSTACK, 0, STACK
        ARGFRAME XSTACK, 9, STACK
        ARGFRAME IOVERLAY, 0, STATIC
        ARGFRAME DOVERLAY, 0, STATIC
        MOV     A,#-0x9
        LCALL   ?BANKED_ENTER_XDATA
        CFI DPH0 load(1, XDATA, add(CFA_XSP16, literal(-1)))
        CFI DPL0 load(1, XDATA, add(CFA_XSP16, literal(-2)))
        CFI ?BRET_EXT load(1, XDATA, add(CFA_XSP16, literal(-3)))
        CFI ?RET_HIGH load(1, XDATA, add(CFA_XSP16, literal(-4)))
        CFI ?RET_LOW load(1, XDATA, add(CFA_XSP16, literal(-5)))
        CFI R7 load(1, XDATA, add(CFA_XSP16, literal(-6)))
        CFI V0 load(1, XDATA, add(CFA_XSP16, literal(-7)))
        CFI VB load(1, XDATA, add(CFA_XSP16, literal(-8)))
        CFI R6 load(1, XDATA, add(CFA_XSP16, literal(-9)))
        CFI CFA_SP SP+0
        CFI CFA_XSP16 add(XSP16, 9)
        ; Saved register size: 9
        ; Auto size: 0
        MOV     A,R1
        MOV     R7,A
        MOV     A,R2
        MOV     R6,A
//  468     LCD_ACTIVATE_CS();
        CLR     0x90.7
//  469     page   -= 1; 
//  470     column -= 1;
        DEC     R6
//  471     HalLcd_HW_Control(0xb0 + page);
        ; Setup parameters for call to function HalLcd_HW_Control
        MOV     A,#-0x51
        ADD     A,R7
        MOV     R1,A
        LCALL   ??HalLcd_HW_Control?relay
//  472     HalLcd_HW_Control(((column >> 4) & 0x0F) + 0x10);
        ; Setup parameters for call to function HalLcd_HW_Control
        MOV     A,R6
        SWAP    A
        ANL     A,#0xf
        ADD     A,#0x10
        MOV     R1,A
        LCALL   ??HalLcd_HW_Control?relay
//  473     HalLcd_HW_Control(column & 0x0F);
        ; Setup parameters for call to function HalLcd_HW_Control
        MOV     A,#0xf
        ANL     A,R6
        MOV     R1,A
        SJMP    ?Subroutine2
        CFI EndBlock cfiBlock52
        REQUIRE _A_P1
//  474     // LCD_RELEASE_CS();
//  475 }
//  476 
//  477 /**************************************************************************************************
//  478  * @fn      HalLcd_HW_Control
//  479  *
//  480  * @brief   Write 1 command to the LCD
//  481  *
//  482  * @param   uint8 cmd - command to be written to the LCD
//  483  *
//  484  * @return  None
//  485  **************************************************************************************************/

        RSEG BANKED_CODE:CODE:NOROOT(0)
//  486 void HalLcd_HW_Control(uint8 cmd)
HalLcd_HW_Control:
        CFI Block cfiBlock53 Using cfiCommon0
        CFI Function HalLcd_HW_Control
        CODE
//  487 {
        ; Saved register size: 0
        ; Auto size: 0
//  488     uint8 i;
//  489     
//  490     LCD_ACTIVATE_CS();
        CLR     0x90.7
//  491     LCD_RS_CMD();
        CLR     0x90.5
//  492     
//  493     for (i = 0; i < 8; i++) 
        MOV     R0,#0x8
//  494     { 
//  495         LCD_SCLK_L; 
??HalLcd_HW_Control_0:
        CLR     0x90.4
//  496         if (cmd & 0x80) 
        MOV     A,R1
        MOV     C,0xE0 /* A   */.7
        JNC     ??HalLcd_HW_Control_1
//  497         {
//  498             LCD_SDA_H;
        SETB    0x90.6
        SJMP    ??HalLcd_HW_Control_2
//  499         }
//  500         else 
//  501         {
//  502             LCD_SDA_L;
??HalLcd_HW_Control_1:
        CLR     0x90.6
//  503         }
//  504         
//  505         LCD_SCLK_H; 
??HalLcd_HW_Control_2:
        SETB    0x90.4
//  506         cmd <<= 1; 
        CLR     C
        RLC     A
        MOV     R1,A
//  507     }
        DEC     R0
        MOV     A,R0
        JNZ     ??HalLcd_HW_Control_0
//  508     // LCD_RELEASE_CS();
//  509 }
        LJMP    ?BRET
        CFI EndBlock cfiBlock53
        REQUIRE _A_P1
//  510 
//  511 /**************************************************************************************************
//  512  * @fn      HalLcd_HW_Write
//  513  *
//  514  * @brief   Write 1 byte to the LCD
//  515  *
//  516  * @param   uint8 data - data to be written to the LCD
//  517  *
//  518  * @return  None
//  519  **************************************************************************************************/

        RSEG BANKED_CODE:CODE:NOROOT(0)
//  520 void HalLcd_HW_Write(uint8 data)
HalLcd_HW_Write:
        CFI Block cfiBlock54 Using cfiCommon0
        CFI Function HalLcd_HW_Write
        CODE
//  521 {
        ; Saved register size: 0
        ; Auto size: 0
//  522     uint8 i; 
//  523     
//  524     LCD_ACTIVATE_CS();
        CLR     0x90.7
//  525     LCD_RS_DATA(); 
        SETB    0x90.5
//  526     
//  527     for (i = 0; i < 8; i++) 
        MOV     R0,#0x8
//  528     { 
//  529         LCD_SCLK_L; 
??HalLcd_HW_Write_0:
        CLR     0x90.4
//  530         if (data & 0x80) 
        MOV     A,R1
        MOV     C,0xE0 /* A   */.7
        JNC     ??HalLcd_HW_Write_1
//  531         {
//  532             LCD_SDA_H;
        SETB    0x90.6
        SJMP    ??HalLcd_HW_Write_2
//  533         }
//  534         else 
//  535         {
//  536             LCD_SDA_L;
??HalLcd_HW_Write_1:
        CLR     0x90.6
//  537         }
//  538         
//  539         LCD_SCLK_H; 
??HalLcd_HW_Write_2:
        SETB    0x90.4
//  540         data <<= 1; 
        CLR     C
        RLC     A
        MOV     R1,A
//  541     }
        DEC     R0
        MOV     A,R0
        JNZ     ??HalLcd_HW_Write_0
//  542     // LCD_RELEASE_CS();
//  543 }
        LJMP    ?BRET
        CFI EndBlock cfiBlock54
        REQUIRE _A_P1
//  544 
//  545 /**************************************************************************************************
//  546  * @fn          HalLcd_HW_SetContrast
//  547  *
//  548  * @brief       Set display contrast
//  549  *
//  550  * @param       uint8 value - contrast value: 0~7;
//  551  *
//  552  * @return      none
//  553  **************************************************************************************************/

        RSEG BANKED_CODE:CODE:NOROOT(0)
//  554 void HalLcd_HW_SetContrast(uint8 value)
HalLcd_HW_SetContrast:
        CFI Block cfiBlock55 Using cfiCommon0
        CFI Function HalLcd_HW_SetContrast
        CODE
//  555 {
        FUNCALL HalLcd_HW_SetContrast, HalLcd_HW_Control
        LOCFRAME ISTACK, 0, STACK
        LOCFRAME PSTACK, 0, STACK
        LOCFRAME XSTACK, 9, STACK
        LOCFRAME IOVERLAY, 0, STATIC
        LOCFRAME DOVERLAY, 0, STATIC
        ARGFRAME ISTACK, 0, STACK
        ARGFRAME PSTACK, 0, STACK
        ARGFRAME XSTACK, 9, STACK
        ARGFRAME IOVERLAY, 0, STATIC
        ARGFRAME DOVERLAY, 0, STATIC
        FUNCALL HalLcd_HW_SetContrast, HalLcd_HW_Control
        LOCFRAME ISTACK, 0, STACK
        LOCFRAME PSTACK, 0, STACK
        LOCFRAME XSTACK, 9, STACK
        LOCFRAME IOVERLAY, 0, STATIC
        LOCFRAME DOVERLAY, 0, STATIC
        ARGFRAME ISTACK, 0, STACK
        ARGFRAME PSTACK, 0, STACK
        ARGFRAME XSTACK, 9, STACK
        ARGFRAME IOVERLAY, 0, STATIC
        ARGFRAME DOVERLAY, 0, STATIC
        MOV     A,#-0x9
        LCALL   ?BANKED_ENTER_XDATA
        CFI DPH0 load(1, XDATA, add(CFA_XSP16, literal(-1)))
        CFI DPL0 load(1, XDATA, add(CFA_XSP16, literal(-2)))
        CFI ?BRET_EXT load(1, XDATA, add(CFA_XSP16, literal(-3)))
        CFI ?RET_HIGH load(1, XDATA, add(CFA_XSP16, literal(-4)))
        CFI ?RET_LOW load(1, XDATA, add(CFA_XSP16, literal(-5)))
        CFI R7 load(1, XDATA, add(CFA_XSP16, literal(-6)))
        CFI V0 load(1, XDATA, add(CFA_XSP16, literal(-7)))
        CFI VB load(1, XDATA, add(CFA_XSP16, literal(-8)))
        CFI R6 load(1, XDATA, add(CFA_XSP16, literal(-9)))
        CFI CFA_SP SP+0
        CFI CFA_XSP16 add(XSP16, 9)
        ; Saved register size: 9
        ; Auto size: 0
        MOV     A,R1
        MOV     R6,A
//  556     if (value <= 7)
        CLR     C
        SUBB    A,#0x8
        JNC     ??HalLcd_HW_SetContrast_0
//  557     {
//  558         // 粗调对比度，可设置范围 0x20～0x27
//  559         HalLcd_HW_Control(LCD_CMD_SET_CONTRAST + value);  
        ; Setup parameters for call to function HalLcd_HW_Control
        MOV     A,#0x20
        ADD     A,R6
        MOV     R1,A
        SJMP    ??HalLcd_HW_SetContrast_1
//  560     }
//  561     else 
//  562     {
//  563         // 输入数值溢出，默认3  
//  564         HalLcd_HW_Control(LCD_CMD_SET_CONTRAST + 3); 
??HalLcd_HW_SetContrast_0:
        ; Setup parameters for call to function HalLcd_HW_Control
        MOV     R1,#0x23
//  565     }
??HalLcd_HW_SetContrast_1:
        SJMP    ?Subroutine2
        CFI EndBlock cfiBlock55
//  566 }
//  567 
//  568 /**************************************************************************************************
//  569  * @fn          HalLcd_HW_SetVoltage
//  570  *
//  571  * @brief       Set LCD Voltage
//  572  *
//  573  * @param       uint8 value - voltage value: 0x00~0x3F;
//  574  *
//  575  * @return      none
//  576  **************************************************************************************************/

        RSEG BANKED_CODE:CODE:NOROOT(0)
//  577 void HalLcd_HW_SetVoltage(uint8 value)
HalLcd_HW_SetVoltage:
        CFI Block cfiBlock56 Using cfiCommon0
        CFI Function HalLcd_HW_SetVoltage
        CODE
//  578 {
        FUNCALL HalLcd_HW_SetVoltage, HalLcd_HW_Control
        LOCFRAME ISTACK, 0, STACK
        LOCFRAME PSTACK, 0, STACK
        LOCFRAME XSTACK, 9, STACK
        LOCFRAME IOVERLAY, 0, STATIC
        LOCFRAME DOVERLAY, 0, STATIC
        ARGFRAME ISTACK, 0, STACK
        ARGFRAME PSTACK, 0, STACK
        ARGFRAME XSTACK, 9, STACK
        ARGFRAME IOVERLAY, 0, STATIC
        ARGFRAME DOVERLAY, 0, STATIC
        FUNCALL HalLcd_HW_SetVoltage, HalLcd_HW_Control
        LOCFRAME ISTACK, 0, STACK
        LOCFRAME PSTACK, 0, STACK
        LOCFRAME XSTACK, 9, STACK
        LOCFRAME IOVERLAY, 0, STATIC
        LOCFRAME DOVERLAY, 0, STATIC
        ARGFRAME ISTACK, 0, STACK
        ARGFRAME PSTACK, 0, STACK
        ARGFRAME XSTACK, 9, STACK
        ARGFRAME IOVERLAY, 0, STATIC
        ARGFRAME DOVERLAY, 0, STATIC
        FUNCALL HalLcd_HW_SetVoltage, HalLcd_HW_Control
        LOCFRAME ISTACK, 0, STACK
        LOCFRAME PSTACK, 0, STACK
        LOCFRAME XSTACK, 9, STACK
        LOCFRAME IOVERLAY, 0, STATIC
        LOCFRAME DOVERLAY, 0, STATIC
        ARGFRAME ISTACK, 0, STACK
        ARGFRAME PSTACK, 0, STACK
        ARGFRAME XSTACK, 9, STACK
        ARGFRAME IOVERLAY, 0, STATIC
        ARGFRAME DOVERLAY, 0, STATIC
        MOV     A,#-0x9
        LCALL   ?BANKED_ENTER_XDATA
        CFI DPH0 load(1, XDATA, add(CFA_XSP16, literal(-1)))
        CFI DPL0 load(1, XDATA, add(CFA_XSP16, literal(-2)))
        CFI ?BRET_EXT load(1, XDATA, add(CFA_XSP16, literal(-3)))
        CFI ?RET_HIGH load(1, XDATA, add(CFA_XSP16, literal(-4)))
        CFI ?RET_LOW load(1, XDATA, add(CFA_XSP16, literal(-5)))
        CFI R7 load(1, XDATA, add(CFA_XSP16, literal(-6)))
        CFI V0 load(1, XDATA, add(CFA_XSP16, literal(-7)))
        CFI VB load(1, XDATA, add(CFA_XSP16, literal(-8)))
        CFI R6 load(1, XDATA, add(CFA_XSP16, literal(-9)))
        CFI CFA_SP SP+0
        CFI CFA_XSP16 add(XSP16, 9)
        ; Saved register size: 9
        ; Auto size: 0
        MOV     A,R1
        MOV     R6,A
//  579     HalLcd_HW_Control(0x81); 
        ; Setup parameters for call to function HalLcd_HW_Control
        MOV     R1,#-0x7f
        LCALL   ??HalLcd_HW_Control?relay
//  580     if (value <= 0x3F)
        MOV     A,R6
        CLR     C
        SUBB    A,#0x40
        JNC     ??HalLcd_HW_SetVoltage_0
//  581     {
//  582         // 0x1a,微调对比度的值，可设置范围 0x00～0x3f   
//  583         HalLcd_HW_Control(value);  
        ; Setup parameters for call to function HalLcd_HW_Control
        MOV     A,R6
        MOV     R1,A
        SJMP    ??HalLcd_HW_SetVoltage_1
//  584     }
//  585     else
//  586     {
//  587         // 数据溢出，默认0x28;  
//  588         HalLcd_HW_Control(0x28);   
??HalLcd_HW_SetVoltage_0:
        ; Setup parameters for call to function HalLcd_HW_Control
        MOV     R1,#0x28
        CFI EndBlock cfiBlock56
//  589     }
??HalLcd_HW_SetVoltage_1:
        REQUIRE ?Subroutine2
        ; // Fall through to label ?Subroutine2
//  590 }

        RSEG BANKED_CODE:CODE:NOROOT(0)
?Subroutine2:
        CFI Block cfiBlock57 Using cfiCommon0
        CFI NoFunction
        CFI CFA_SP SP+0
        CFI CFA_XSP16 add(XSP16, 9)
        CFI VB load(1, XDATA, add(CFA_XSP16, literal(-8)))
        CFI DPL0 load(1, XDATA, add(CFA_XSP16, literal(-2)))
        CFI DPH0 load(1, XDATA, add(CFA_XSP16, literal(-1)))
        CFI R6 load(1, XDATA, add(CFA_XSP16, literal(-9)))
        CFI R7 load(1, XDATA, add(CFA_XSP16, literal(-6)))
        CFI V0 load(1, XDATA, add(CFA_XSP16, literal(-7)))
        CFI ?BRET_EXT load(1, XDATA, add(CFA_XSP16, literal(-3)))
        CFI ?RET_HIGH load(1, XDATA, add(CFA_XSP16, literal(-4)))
        CFI ?RET_LOW load(1, XDATA, add(CFA_XSP16, literal(-5)))
        LCALL   ??HalLcd_HW_Control?relay
        CFI EndBlock cfiBlock57
        REQUIRE ??Subroutine14_0
        ; // Fall through to label ??Subroutine14_0

        RSEG BANKED_CODE:CODE:NOROOT(0)
??Subroutine14_0:
        CFI Block cfiBlock58 Using cfiCommon0
        CFI NoFunction
        CFI CFA_SP SP+0
        CFI CFA_XSP16 add(XSP16, 9)
        CFI VB load(1, XDATA, add(CFA_XSP16, literal(-8)))
        CFI DPL0 load(1, XDATA, add(CFA_XSP16, literal(-2)))
        CFI DPH0 load(1, XDATA, add(CFA_XSP16, literal(-1)))
        CFI R6 load(1, XDATA, add(CFA_XSP16, literal(-9)))
        CFI R7 load(1, XDATA, add(CFA_XSP16, literal(-6)))
        CFI V0 load(1, XDATA, add(CFA_XSP16, literal(-7)))
        CFI ?BRET_EXT load(1, XDATA, add(CFA_XSP16, literal(-3)))
        CFI ?RET_HIGH load(1, XDATA, add(CFA_XSP16, literal(-4)))
        CFI ?RET_LOW load(1, XDATA, add(CFA_XSP16, literal(-5)))
        MOV     R7,#0x1
        LJMP    ?BANKED_LEAVE_XDATA
        CFI EndBlock cfiBlock58
//  591 
//  592 /**************************************************************************************************
//  593  * @fn      HalLcd_HW_Clear
//  594  *
//  595  * @brief   Clear the HW LCD
//  596  *
//  597  * @param   None
//  598  *
//  599  * @return  None
//  600  **************************************************************************************************/

        RSEG BANKED_CODE:CODE:NOROOT(0)
//  601 void HalLcd_HW_Clear(void)
HalLcd_HW_Clear:
        CFI Block cfiBlock59 Using cfiCommon0
        CFI Function HalLcd_HW_Clear
        CODE
//  602 {
        FUNCALL HalLcd_HW_Clear, HalLcd_HW_SET_DDRAM_ADDR
        LOCFRAME ISTACK, 0, STACK
        LOCFRAME PSTACK, 0, STACK
        LOCFRAME XSTACK, 9, STACK
        LOCFRAME IOVERLAY, 0, STATIC
        LOCFRAME DOVERLAY, 0, STATIC
        ARGFRAME ISTACK, 0, STACK
        ARGFRAME PSTACK, 0, STACK
        ARGFRAME XSTACK, 9, STACK
        ARGFRAME IOVERLAY, 0, STATIC
        ARGFRAME DOVERLAY, 0, STATIC
        FUNCALL HalLcd_HW_Clear, HalLcd_HW_Write
        LOCFRAME ISTACK, 0, STACK
        LOCFRAME PSTACK, 0, STACK
        LOCFRAME XSTACK, 9, STACK
        LOCFRAME IOVERLAY, 0, STATIC
        LOCFRAME DOVERLAY, 0, STATIC
        ARGFRAME ISTACK, 0, STACK
        ARGFRAME PSTACK, 0, STACK
        ARGFRAME XSTACK, 9, STACK
        ARGFRAME IOVERLAY, 0, STATIC
        ARGFRAME DOVERLAY, 0, STATIC
        MOV     A,#-0x9
        LCALL   ?BANKED_ENTER_XDATA
        CFI DPH0 load(1, XDATA, add(CFA_XSP16, literal(-1)))
        CFI DPL0 load(1, XDATA, add(CFA_XSP16, literal(-2)))
        CFI ?BRET_EXT load(1, XDATA, add(CFA_XSP16, literal(-3)))
        CFI ?RET_HIGH load(1, XDATA, add(CFA_XSP16, literal(-4)))
        CFI ?RET_LOW load(1, XDATA, add(CFA_XSP16, literal(-5)))
        CFI R7 load(1, XDATA, add(CFA_XSP16, literal(-6)))
        CFI V0 load(1, XDATA, add(CFA_XSP16, literal(-7)))
        CFI VB load(1, XDATA, add(CFA_XSP16, literal(-8)))
        CFI R6 load(1, XDATA, add(CFA_XSP16, literal(-9)))
        CFI CFA_SP SP+0
        CFI CFA_XSP16 add(XSP16, 9)
        ; Saved register size: 9
        ; Auto size: 0
//  603     LCD_ACTIVATE_CS();
        CLR     0x90.7
//  604     uint8 i,j;
//  605     
//  606     for (i = 0; i < 9; i++) 
        MOV     R7,#0x0
//  607     { 
//  608         HalLcd_HW_SET_DDRAM_ADDR((i + 1), 1); // 第一页，第一列
??HalLcd_HW_Clear_0:
        ; Setup parameters for call to function HalLcd_HW_SET_DDRAM_ADDR
        MOV     R2,#0x1
        MOV     A,R2
        ADD     A,R7
        MOV     R1,A
        LCALL   ??HalLcd_HW_SET_DDRAM_ADDR?relay
//  609         for( j = 0; j < 132; j++) 
        MOV     R6,#-0x7c
//  610         { 
//  611             HalLcd_HW_Write(0x00); 
??HalLcd_HW_Clear_1:
        ; Setup parameters for call to function HalLcd_HW_Write
        MOV     R1,#0x0
        LCALL   ??HalLcd_HW_Write?relay
//  612         } 
        DEC     R6
        MOV     A,R6
        JNZ     ??HalLcd_HW_Clear_1
//  613     }
        INC     R7
        MOV     A,R7
        CLR     C
        SUBB    A,#0x9
        JC      ??HalLcd_HW_Clear_0
//  614     // LCD_RELEASE_CS();
//  615 }
        SJMP    ??Subroutine14_0
        CFI EndBlock cfiBlock59
        REQUIRE _A_P1
//  616 
//  617 /**************************************************************************************************
//  618  * @fn      HalLcd_HW_Init
//  619  *
//  620  * @brief   Initilize HW LCD Driver.
//  621  *
//  622  * @param   None
//  623  *
//  624  * @return  None
//  625  **************************************************************************************************/

        RSEG BANKED_CODE:CODE:NOROOT(0)
//  626 void HalLcd_HW_Init(void)
HalLcd_HW_Init:
        CFI Block cfiBlock60 Using cfiCommon0
        CFI Function HalLcd_HW_Init
        CODE
//  627 {
        FUNCALL HalLcd_HW_Init, halLcd_ConfigIO
        LOCFRAME ISTACK, 2, STACK
        LOCFRAME PSTACK, 0, STACK
        LOCFRAME XSTACK, 0, STACK
        LOCFRAME IOVERLAY, 0, STATIC
        LOCFRAME DOVERLAY, 0, STATIC
        ARGFRAME ISTACK, 2, STACK
        ARGFRAME PSTACK, 0, STACK
        ARGFRAME XSTACK, 0, STACK
        ARGFRAME IOVERLAY, 0, STATIC
        ARGFRAME DOVERLAY, 0, STATIC
        FUNCALL HalLcd_HW_Init, HalLcd_HW_WaitUs
        LOCFRAME ISTACK, 2, STACK
        LOCFRAME PSTACK, 0, STACK
        LOCFRAME XSTACK, 0, STACK
        LOCFRAME IOVERLAY, 0, STATIC
        LOCFRAME DOVERLAY, 0, STATIC
        ARGFRAME ISTACK, 2, STACK
        ARGFRAME PSTACK, 0, STACK
        ARGFRAME XSTACK, 0, STACK
        ARGFRAME IOVERLAY, 0, STATIC
        ARGFRAME DOVERLAY, 0, STATIC
        FUNCALL HalLcd_HW_Init, HalLcd_HW_WaitUs
        LOCFRAME ISTACK, 2, STACK
        LOCFRAME PSTACK, 0, STACK
        LOCFRAME XSTACK, 0, STACK
        LOCFRAME IOVERLAY, 0, STATIC
        LOCFRAME DOVERLAY, 0, STATIC
        ARGFRAME ISTACK, 2, STACK
        ARGFRAME PSTACK, 0, STACK
        ARGFRAME XSTACK, 0, STACK
        ARGFRAME IOVERLAY, 0, STATIC
        ARGFRAME DOVERLAY, 0, STATIC
        FUNCALL HalLcd_HW_Init, HalLcd_HW_Control
        LOCFRAME ISTACK, 2, STACK
        LOCFRAME PSTACK, 0, STACK
        LOCFRAME XSTACK, 0, STACK
        LOCFRAME IOVERLAY, 0, STATIC
        LOCFRAME DOVERLAY, 0, STATIC
        ARGFRAME ISTACK, 2, STACK
        ARGFRAME PSTACK, 0, STACK
        ARGFRAME XSTACK, 0, STACK
        ARGFRAME IOVERLAY, 0, STATIC
        ARGFRAME DOVERLAY, 0, STATIC
        FUNCALL HalLcd_HW_Init, HalLcd_HW_WaitUs
        LOCFRAME ISTACK, 2, STACK
        LOCFRAME PSTACK, 0, STACK
        LOCFRAME XSTACK, 0, STACK
        LOCFRAME IOVERLAY, 0, STATIC
        LOCFRAME DOVERLAY, 0, STATIC
        ARGFRAME ISTACK, 2, STACK
        ARGFRAME PSTACK, 0, STACK
        ARGFRAME XSTACK, 0, STACK
        ARGFRAME IOVERLAY, 0, STATIC
        ARGFRAME DOVERLAY, 0, STATIC
        FUNCALL HalLcd_HW_Init, HalLcd_HW_Control
        LOCFRAME ISTACK, 2, STACK
        LOCFRAME PSTACK, 0, STACK
        LOCFRAME XSTACK, 0, STACK
        LOCFRAME IOVERLAY, 0, STATIC
        LOCFRAME DOVERLAY, 0, STATIC
        ARGFRAME ISTACK, 2, STACK
        ARGFRAME PSTACK, 0, STACK
        ARGFRAME XSTACK, 0, STACK
        ARGFRAME IOVERLAY, 0, STATIC
        ARGFRAME DOVERLAY, 0, STATIC
        FUNCALL HalLcd_HW_Init, HalLcd_HW_WaitUs
        LOCFRAME ISTACK, 2, STACK
        LOCFRAME PSTACK, 0, STACK
        LOCFRAME XSTACK, 0, STACK
        LOCFRAME IOVERLAY, 0, STATIC
        LOCFRAME DOVERLAY, 0, STATIC
        ARGFRAME ISTACK, 2, STACK
        ARGFRAME PSTACK, 0, STACK
        ARGFRAME XSTACK, 0, STACK
        ARGFRAME IOVERLAY, 0, STATIC
        ARGFRAME DOVERLAY, 0, STATIC
        FUNCALL HalLcd_HW_Init, HalLcd_HW_Control
        LOCFRAME ISTACK, 2, STACK
        LOCFRAME PSTACK, 0, STACK
        LOCFRAME XSTACK, 0, STACK
        LOCFRAME IOVERLAY, 0, STATIC
        LOCFRAME DOVERLAY, 0, STATIC
        ARGFRAME ISTACK, 2, STACK
        ARGFRAME PSTACK, 0, STACK
        ARGFRAME XSTACK, 0, STACK
        ARGFRAME IOVERLAY, 0, STATIC
        ARGFRAME DOVERLAY, 0, STATIC
        FUNCALL HalLcd_HW_Init, HalLcd_HW_WaitUs
        LOCFRAME ISTACK, 2, STACK
        LOCFRAME PSTACK, 0, STACK
        LOCFRAME XSTACK, 0, STACK
        LOCFRAME IOVERLAY, 0, STATIC
        LOCFRAME DOVERLAY, 0, STATIC
        ARGFRAME ISTACK, 2, STACK
        ARGFRAME PSTACK, 0, STACK
        ARGFRAME XSTACK, 0, STACK
        ARGFRAME IOVERLAY, 0, STATIC
        ARGFRAME DOVERLAY, 0, STATIC
        FUNCALL HalLcd_HW_Init, HalLcd_HW_Control
        LOCFRAME ISTACK, 2, STACK
        LOCFRAME PSTACK, 0, STACK
        LOCFRAME XSTACK, 0, STACK
        LOCFRAME IOVERLAY, 0, STATIC
        LOCFRAME DOVERLAY, 0, STATIC
        ARGFRAME ISTACK, 2, STACK
        ARGFRAME PSTACK, 0, STACK
        ARGFRAME XSTACK, 0, STACK
        ARGFRAME IOVERLAY, 0, STATIC
        ARGFRAME DOVERLAY, 0, STATIC
        FUNCALL HalLcd_HW_Init, HalLcd_HW_WaitUs
        LOCFRAME ISTACK, 2, STACK
        LOCFRAME PSTACK, 0, STACK
        LOCFRAME XSTACK, 0, STACK
        LOCFRAME IOVERLAY, 0, STATIC
        LOCFRAME DOVERLAY, 0, STATIC
        ARGFRAME ISTACK, 2, STACK
        ARGFRAME PSTACK, 0, STACK
        ARGFRAME XSTACK, 0, STACK
        ARGFRAME IOVERLAY, 0, STATIC
        ARGFRAME DOVERLAY, 0, STATIC
        FUNCALL HalLcd_HW_Init, HalLcd_HW_SetContrast
        LOCFRAME ISTACK, 2, STACK
        LOCFRAME PSTACK, 0, STACK
        LOCFRAME XSTACK, 0, STACK
        LOCFRAME IOVERLAY, 0, STATIC
        LOCFRAME DOVERLAY, 0, STATIC
        ARGFRAME ISTACK, 2, STACK
        ARGFRAME PSTACK, 0, STACK
        ARGFRAME XSTACK, 0, STACK
        ARGFRAME IOVERLAY, 0, STATIC
        ARGFRAME DOVERLAY, 0, STATIC
        FUNCALL HalLcd_HW_Init, HalLcd_HW_SetVoltage
        LOCFRAME ISTACK, 2, STACK
        LOCFRAME PSTACK, 0, STACK
        LOCFRAME XSTACK, 0, STACK
        LOCFRAME IOVERLAY, 0, STATIC
        LOCFRAME DOVERLAY, 0, STATIC
        ARGFRAME ISTACK, 2, STACK
        ARGFRAME PSTACK, 0, STACK
        ARGFRAME XSTACK, 0, STACK
        ARGFRAME IOVERLAY, 0, STATIC
        ARGFRAME DOVERLAY, 0, STATIC
        FUNCALL HalLcd_HW_Init, HalLcd_HW_Control
        LOCFRAME ISTACK, 2, STACK
        LOCFRAME PSTACK, 0, STACK
        LOCFRAME XSTACK, 0, STACK
        LOCFRAME IOVERLAY, 0, STATIC
        LOCFRAME DOVERLAY, 0, STATIC
        ARGFRAME ISTACK, 2, STACK
        ARGFRAME PSTACK, 0, STACK
        ARGFRAME XSTACK, 0, STACK
        ARGFRAME IOVERLAY, 0, STATIC
        ARGFRAME DOVERLAY, 0, STATIC
        FUNCALL HalLcd_HW_Init, HalLcd_HW_WaitUs
        LOCFRAME ISTACK, 2, STACK
        LOCFRAME PSTACK, 0, STACK
        LOCFRAME XSTACK, 0, STACK
        LOCFRAME IOVERLAY, 0, STATIC
        LOCFRAME DOVERLAY, 0, STATIC
        ARGFRAME ISTACK, 2, STACK
        ARGFRAME PSTACK, 0, STACK
        ARGFRAME XSTACK, 0, STACK
        ARGFRAME IOVERLAY, 0, STATIC
        ARGFRAME DOVERLAY, 0, STATIC
        FUNCALL HalLcd_HW_Init, HalLcd_HW_Control
        LOCFRAME ISTACK, 2, STACK
        LOCFRAME PSTACK, 0, STACK
        LOCFRAME XSTACK, 0, STACK
        LOCFRAME IOVERLAY, 0, STATIC
        LOCFRAME DOVERLAY, 0, STATIC
        ARGFRAME ISTACK, 2, STACK
        ARGFRAME PSTACK, 0, STACK
        ARGFRAME XSTACK, 0, STACK
        ARGFRAME IOVERLAY, 0, STATIC
        ARGFRAME DOVERLAY, 0, STATIC
        FUNCALL HalLcd_HW_Init, HalLcd_HW_Control
        LOCFRAME ISTACK, 2, STACK
        LOCFRAME PSTACK, 0, STACK
        LOCFRAME XSTACK, 0, STACK
        LOCFRAME IOVERLAY, 0, STATIC
        LOCFRAME DOVERLAY, 0, STATIC
        ARGFRAME ISTACK, 2, STACK
        ARGFRAME PSTACK, 0, STACK
        ARGFRAME XSTACK, 0, STACK
        ARGFRAME IOVERLAY, 0, STATIC
        ARGFRAME DOVERLAY, 0, STATIC
        FUNCALL HalLcd_HW_Init, HalLcd_HW_Control
        LOCFRAME ISTACK, 2, STACK
        LOCFRAME PSTACK, 0, STACK
        LOCFRAME XSTACK, 0, STACK
        LOCFRAME IOVERLAY, 0, STATIC
        LOCFRAME DOVERLAY, 0, STATIC
        ARGFRAME ISTACK, 2, STACK
        ARGFRAME PSTACK, 0, STACK
        ARGFRAME XSTACK, 0, STACK
        ARGFRAME IOVERLAY, 0, STATIC
        ARGFRAME DOVERLAY, 0, STATIC
        FUNCALL HalLcd_HW_Init, HalLcd_HW_Control
        LOCFRAME ISTACK, 2, STACK
        LOCFRAME PSTACK, 0, STACK
        LOCFRAME XSTACK, 0, STACK
        LOCFRAME IOVERLAY, 0, STATIC
        LOCFRAME DOVERLAY, 0, STATIC
        ARGFRAME ISTACK, 2, STACK
        ARGFRAME PSTACK, 0, STACK
        ARGFRAME XSTACK, 0, STACK
        ARGFRAME IOVERLAY, 0, STATIC
        ARGFRAME DOVERLAY, 0, STATIC
        FUNCALL HalLcd_HW_Init, HalLcd_HW_Clear
        LOCFRAME ISTACK, 2, STACK
        LOCFRAME PSTACK, 0, STACK
        LOCFRAME XSTACK, 0, STACK
        LOCFRAME IOVERLAY, 0, STATIC
        LOCFRAME DOVERLAY, 0, STATIC
        ARGFRAME ISTACK, 2, STACK
        ARGFRAME PSTACK, 0, STACK
        ARGFRAME XSTACK, 0, STACK
        ARGFRAME IOVERLAY, 0, STATIC
        ARGFRAME DOVERLAY, 0, STATIC
        PUSH    DPL
        CFI DPL0 Frame(CFA_SP, 4)
        CFI CFA_SP SP+-4
        PUSH    DPH
        CFI DPH0 Frame(CFA_SP, 5)
        CFI CFA_SP SP+-5
        ; Saved register size: 2
        ; Auto size: 0
//  628     /* Initialize LCD IO lines */
//  629     halLcd_ConfigIO();
        ; Setup parameters for call to function halLcd_ConfigIO
        LCALL   ??halLcd_ConfigIO?relay
//  630     
//  631     LCD_ACTIVATE_CS();
        CLR     0x90.7
//  632     
//  633     LCD_BACKLIGHT_ON(); // 打开LCD背光灯
        CLR     0x90.1
//  634   
//  635     /* Perform reset */
//  636     LCD_ACTIVATE_RESET();
        CLR     0xa0.0
//  637     HalLcd_HW_WaitUs(1500); // >1ms
        ; Setup parameters for call to function HalLcd_HW_WaitUs
        MOV     R2,#-0x24
        MOV     R3,#0x5
        LCALL   ??HalLcd_HW_WaitUs?relay
//  638     LCD_RELEASE_RESET();
        SETB    0xa0.0
//  639     HalLcd_HW_WaitUs(5000); // >5ms
        ; Setup parameters for call to function HalLcd_HW_WaitUs
        MOV     R2,#-0x78
        MOV     R3,#0x13
        LCALL   ??HalLcd_HW_WaitUs?relay
//  640   
//  641     HalLcd_HW_Control(LCD_SOFT_RESET);
        ; Setup parameters for call to function HalLcd_HW_Control
        MOV     R1,#-0x1e
        LCALL   ?Subroutine7 & 0xFFFF
//  642     HalLcd_HW_WaitUs(500);  
//  643 
//  644     /* Perform the Power initialization sequence */
//  645     LCD_POWER_CONTROL(LCD_POWER_CONTROL_1);
??CrossCallReturnLabel_3:
        ; Setup parameters for call to function HalLcd_HW_Control
        MOV     R1,#0x2c
        LCALL   ?Subroutine7 & 0xFFFF
//  646     HalLcd_HW_WaitUs(500);   
//  647     LCD_POWER_CONTROL(LCD_POWER_CONTROL_2);
??CrossCallReturnLabel_4:
        ; Setup parameters for call to function HalLcd_HW_Control
        MOV     R1,#0x2e
        LCALL   ?Subroutine7 & 0xFFFF
//  648     HalLcd_HW_WaitUs(500); 
//  649     LCD_POWER_CONTROL(LCD_POWER_CONTROL_3);  
??CrossCallReturnLabel_5:
        ; Setup parameters for call to function HalLcd_HW_Control
        MOV     R1,#0x2f
        LCALL   ?Subroutine7 & 0xFFFF
//  650     HalLcd_HW_WaitUs(500); 
//  651    
//  652     /* Set contrast 对比度*/
//  653     HalLcd_HW_SetContrast(3);
??CrossCallReturnLabel_6:
        ; Setup parameters for call to function HalLcd_HW_SetContrast
        MOV     R1,#0x3
        LCALL   ??HalLcd_HW_SetContrast?relay
//  654 
//  655     /* Set power */
//  656     //内部电阻微调
//  657     HalLcd_HW_SetVoltage(0x28);
        ; Setup parameters for call to function HalLcd_HW_SetVoltage
        MOV     R1,#0x28
        LCALL   ??HalLcd_HW_SetVoltage?relay
//  658     
//  659     SET_BIAS_CTRL(BIAS_1_9);
        ; Setup parameters for call to function HalLcd_HW_Control
        MOV     R1,#-0x5e
        LCALL   ??HalLcd_HW_Control?relay
//  660     HalLcd_HW_WaitUs(1000);  // 1 ms
        ; Setup parameters for call to function HalLcd_HW_WaitUs
        MOV     R2,#-0x18
        MOV     R3,#0x3
        LCALL   ??HalLcd_HW_WaitUs?relay
//  661     
//  662     HalLcd_HW_Control(0xc8); // 行扫描顺序：从上到下 
        ; Setup parameters for call to function HalLcd_HW_Control
        MOV     R1,#-0x38
        LCALL   ??HalLcd_HW_Control?relay
//  663     HalLcd_HW_Control(0xa0); // 列扫描顺序：从左到右 
        ; Setup parameters for call to function HalLcd_HW_Control
        MOV     R1,#-0x60
        LCALL   ??HalLcd_HW_Control?relay
//  664     HalLcd_HW_Control(0x40); // 起始行：第一行开始
        ; Setup parameters for call to function HalLcd_HW_Control
        MOV     R1,#0x40
        LCALL   ??HalLcd_HW_Control?relay
//  665     HalLcd_HW_Control(0xaf); // 打开显示 
        ; Setup parameters for call to function HalLcd_HW_Control
        MOV     R1,#-0x51
        LCALL   ??HalLcd_HW_Control?relay
//  666 
//  667     /* Clear the display */
//  668     HalLcd_HW_Clear();
        ; Setup parameters for call to function HalLcd_HW_Clear
        LCALL   ??HalLcd_HW_Clear?relay
//  669 
//  670     LCD_RELEASE_CS();
        SETB    0x90.7
//  671 }
        LJMP    ?Subroutine0 & 0xFFFF
        CFI EndBlock cfiBlock60
        REQUIRE _A_P1
        REQUIRE _A_P2

        RSEG BANKED_CODE:CODE:NOROOT(0)
?Subroutine7:
        CFI Block cfiCond61 Using cfiCommon0
        CFI NoFunction
        CFI Conditional ??CrossCallReturnLabel_3
        CFI DPL0 Frame(CFA_SP, 4)
        CFI DPH0 Frame(CFA_SP, 5)
        CFI CFA_SP SP+-5
        CFI Block cfiCond62 Using cfiCommon0
        CFI (cfiCond62) NoFunction
        CFI (cfiCond62) Conditional ??CrossCallReturnLabel_4
        CFI (cfiCond62) DPL0 Frame(CFA_SP, 4)
        CFI (cfiCond62) DPH0 Frame(CFA_SP, 5)
        CFI (cfiCond62) CFA_SP SP+-5
        CFI Block cfiCond63 Using cfiCommon0
        CFI (cfiCond63) NoFunction
        CFI (cfiCond63) Conditional ??CrossCallReturnLabel_5
        CFI (cfiCond63) DPL0 Frame(CFA_SP, 4)
        CFI (cfiCond63) DPH0 Frame(CFA_SP, 5)
        CFI (cfiCond63) CFA_SP SP+-5
        CFI Block cfiCond64 Using cfiCommon0
        CFI (cfiCond64) NoFunction
        CFI (cfiCond64) Conditional ??CrossCallReturnLabel_6
        CFI (cfiCond64) DPL0 Frame(CFA_SP, 4)
        CFI (cfiCond64) DPH0 Frame(CFA_SP, 5)
        CFI (cfiCond64) CFA_SP SP+-5
        CFI Block cfiPicker65 Using cfiCommon1
        CFI (cfiPicker65) NoFunction
        CFI (cfiPicker65) Picker
        LCALL   ??HalLcd_HW_Control?relay
        ; Setup parameters for call to function HalLcd_HW_WaitUs
        ; Setup parameters for call to function HalLcd_HW_WaitUs
        ; Setup parameters for call to function HalLcd_HW_WaitUs
        ; Setup parameters for call to function HalLcd_HW_WaitUs
        MOV     R2,#-0xc
        MOV     R3,#0x1
        LCALL   ??HalLcd_HW_WaitUs?relay
        RET
        CFI EndBlock cfiCond61
        CFI EndBlock cfiCond62
        CFI EndBlock cfiCond63
        CFI EndBlock cfiCond64
        CFI EndBlock cfiPicker65
//  672 
//  673 /**************************************************************************************************
//  674  * @fn      HalLcd_HW_WriteChar
//  675  *
//  676  * @brief   Write one char to the display
//  677  *
//  678  * @param   uint8 line - line number that the char will be displayed
//  679  *          uint8 col - colum where the char will be displayed
//  680  *
//  681  * @return  None
//  682  **************************************************************************************************/

        RSEG BANKED_CODE:CODE:NOROOT(0)
//  683 void HalLcd_HW_WriteChar(uint8 line, uint8 col, char text)
HalLcd_HW_WriteChar:
        CFI Block cfiBlock66 Using cfiCommon0
        CFI Function HalLcd_HW_WriteChar
        CODE
//  684 {
        FUNCALL HalLcd_HW_WriteChar, HalLcd_HW_SET_DDRAM_ADDR
        LOCFRAME ISTACK, 0, STACK
        LOCFRAME PSTACK, 0, STACK
        LOCFRAME XSTACK, 16, STACK
        LOCFRAME IOVERLAY, 0, STATIC
        LOCFRAME DOVERLAY, 0, STATIC
        ARGFRAME ISTACK, 0, STACK
        ARGFRAME PSTACK, 0, STACK
        ARGFRAME XSTACK, 16, STACK
        ARGFRAME IOVERLAY, 0, STATIC
        ARGFRAME DOVERLAY, 0, STATIC
        FUNCALL HalLcd_HW_WriteChar, HalLcd_HW_Write
        LOCFRAME ISTACK, 0, STACK
        LOCFRAME PSTACK, 0, STACK
        LOCFRAME XSTACK, 16, STACK
        LOCFRAME IOVERLAY, 0, STATIC
        LOCFRAME DOVERLAY, 0, STATIC
        ARGFRAME ISTACK, 0, STACK
        ARGFRAME PSTACK, 0, STACK
        ARGFRAME XSTACK, 16, STACK
        ARGFRAME IOVERLAY, 0, STATIC
        ARGFRAME DOVERLAY, 0, STATIC
        MOV     A,#-0x10
        LCALL   ?BANKED_ENTER_XDATA
        CFI DPH0 load(1, XDATA, add(CFA_XSP16, literal(-1)))
        CFI DPL0 load(1, XDATA, add(CFA_XSP16, literal(-2)))
        CFI ?BRET_EXT load(1, XDATA, add(CFA_XSP16, literal(-3)))
        CFI ?RET_HIGH load(1, XDATA, add(CFA_XSP16, literal(-4)))
        CFI ?RET_LOW load(1, XDATA, add(CFA_XSP16, literal(-5)))
        CFI R7 load(1, XDATA, add(CFA_XSP16, literal(-6)))
        CFI V7 load(1, XDATA, add(CFA_XSP16, literal(-7)))
        CFI V6 load(1, XDATA, add(CFA_XSP16, literal(-8)))
        CFI V5 load(1, XDATA, add(CFA_XSP16, literal(-9)))
        CFI V4 load(1, XDATA, add(CFA_XSP16, literal(-10)))
        CFI V3 load(1, XDATA, add(CFA_XSP16, literal(-11)))
        CFI V2 load(1, XDATA, add(CFA_XSP16, literal(-12)))
        CFI V1 load(1, XDATA, add(CFA_XSP16, literal(-13)))
        CFI V0 load(1, XDATA, add(CFA_XSP16, literal(-14)))
        CFI VB load(1, XDATA, add(CFA_XSP16, literal(-15)))
        CFI R6 load(1, XDATA, add(CFA_XSP16, literal(-16)))
        CFI CFA_SP SP+0
        CFI CFA_XSP16 add(XSP16, 16)
        ; Saved register size: 16
        ; Auto size: 0
        MOV     ?V0 + 4,R1
        MOV     ?V0 + 5,R2
        MOV     ?V0 + 6,R3
//  685     uint8 j, k, n;
//  686     
//  687     if (col <= LCD_MAX_LINE_LENGTH)
        MOV     A,R2
        CLR     C
        SUBB    A,#0x11
        JNC     ??HalLcd_HW_WriteChar_0
//  688     {   
//  689         //字符大小：16(行)x8(列)
//  690         if ((text >= 0x20) && (text <= 0x7e)) 
        MOV     A,#-0x20
        ADD     A,?V0 + 6
        CLR     C
        SUBB    A,#0x5f
        JNC     ??HalLcd_HW_WriteChar_0
//  691         { 
//  692             j = text - 0x20; 
        MOV     A,#-0x20
        ADD     A,?V0 + 6
        MOV     ?V0 + 7,A
//  693             for (n = 0; n < 2; n++) // 两页
        MOV     R6,#0x0
//  694             {    
//  695                 HalLcd_HW_SET_DDRAM_ADDR((line * 2 - 1 + n), ((col - 1) * 8 + 1)); // 页和列 
??HalLcd_HW_WriteChar_1:
        ; Setup parameters for call to function HalLcd_HW_SET_DDRAM_ADDR
        MOV     A,?V0 + 5
        RLC     A
        RLC     A
        RLC     A
        ANL     A,#0xf8
        ADD     A,#-0x7
        MOV     R2,A
        MOV     A,?V0 + 4
        CLR     C
        RLC     A
        ADD     A,R6
        DEC     A
        MOV     R1,A
        LCALL   ??HalLcd_HW_SET_DDRAM_ADDR?relay
//  696                 for (k = 0; k < 8; k++) 
        MOV     R7,#0x0
//  697                 { 
//  698                     // j为字符对应的，
//  699                     // 写数据到 LCD, 每写一次(即写一个 8 位的数据)后列地址自动加 1
//  700                     HalLcd_HW_Write(ascii_table_8x16[j][k + 8 * n]);
??HalLcd_HW_WriteChar_2:
        ; Setup parameters for call to function HalLcd_HW_Write
        MOV     ?V0 + 2,R7
        MOV     ?V0 + 0,R6
        MOV     ?V0 + 1,#0x0
        MOV     A,#0x3
        MOV     R0,#?V0 + 0
        LCALL   ?S_SHL
        MOV     A,?V0 + 2
        ADD     A,?V0 + 0
        MOV     R2,A
        CLR     A
        ADDC    A,?V0 + 1
        MOV     R3,A
        MOV     ?V0 + 0,?V0 + 7
        MOV     ?V0 + 1,#0x0
        MOV     A,#0x4
        MOV     R0,#?V0 + 0
        LCALL   ?S_SHL
        MOV     A,#ascii_table_8x16 & 0xff
        ADD     A,?V0 + 0
        MOV     R0,A
        MOV     A,#(ascii_table_8x16 >> 8) & 0xff
        ADDC    A,?V0 + 1
        MOV     R1,A
        MOV     A,R0
        ADD     A,R2
        MOV     DPL,A
        MOV     A,R1
        ADDC    A,R3
        MOV     DPH,A
        MOVX    A,@DPTR
        MOV     R1,A
        LCALL   ??HalLcd_HW_Write?relay
//  701                 } 
        INC     R7
        MOV     A,R7
        CLR     C
        SUBB    A,#0x8
        JC      ??HalLcd_HW_WriteChar_2
//  702             }  
        INC     R6
        MOV     A,R6
        CLR     C
        SUBB    A,#0x2
        JC      ??HalLcd_HW_WriteChar_1
//  703         } 
//  704     }
??HalLcd_HW_WriteChar_0:
        LJMP    ?Subroutine1 & 0xFFFF
        CFI EndBlock cfiBlock66
//  705     else
//  706     {
//  707         return;
//  708     }
//  709 }
//  710 
//  711 /**************************************************************************************************
//  712  * @fn          halLcdWriteLine
//  713  *
//  714  * @brief       Write one line on display
//  715  *
//  716  * @param       uint8 line - display line
//  717  *              char *pText - text buffer to write
//  718  *
//  719  * @return      none
//  720  **************************************************************************************************/

        RSEG BANKED_CODE:CODE:NOROOT(0)
//  721 void HalLcd_HW_WriteLine(uint8 line, const char *pText)
HalLcd_HW_WriteLine:
        CFI Block cfiBlock67 Using cfiCommon0
        CFI Function HalLcd_HW_WriteLine
        CODE
//  722 {
        FUNCALL HalLcd_HW_WriteLine, osal_strlen
        LOCFRAME ISTACK, 0, STACK
        LOCFRAME PSTACK, 0, STACK
        LOCFRAME XSTACK, 11, STACK
        LOCFRAME IOVERLAY, 0, STATIC
        LOCFRAME DOVERLAY, 0, STATIC
        ARGFRAME ISTACK, 0, STACK
        ARGFRAME PSTACK, 0, STACK
        ARGFRAME XSTACK, 11, STACK
        ARGFRAME IOVERLAY, 0, STATIC
        ARGFRAME DOVERLAY, 0, STATIC
        FUNCALL HalLcd_HW_WriteLine, HalLcd_HW_WriteChar
        LOCFRAME ISTACK, 0, STACK
        LOCFRAME PSTACK, 0, STACK
        LOCFRAME XSTACK, 11, STACK
        LOCFRAME IOVERLAY, 0, STATIC
        LOCFRAME DOVERLAY, 0, STATIC
        ARGFRAME ISTACK, 0, STACK
        ARGFRAME PSTACK, 0, STACK
        ARGFRAME XSTACK, 11, STACK
        ARGFRAME IOVERLAY, 0, STATIC
        ARGFRAME DOVERLAY, 0, STATIC
        FUNCALL HalLcd_HW_WriteLine, HalLcd_HW_WriteChar
        LOCFRAME ISTACK, 0, STACK
        LOCFRAME PSTACK, 0, STACK
        LOCFRAME XSTACK, 11, STACK
        LOCFRAME IOVERLAY, 0, STATIC
        LOCFRAME DOVERLAY, 0, STATIC
        ARGFRAME ISTACK, 0, STACK
        ARGFRAME PSTACK, 0, STACK
        ARGFRAME XSTACK, 11, STACK
        ARGFRAME IOVERLAY, 0, STATIC
        ARGFRAME DOVERLAY, 0, STATIC
        MOV     A,#-0xb
        LCALL   ?BANKED_ENTER_XDATA
        CFI DPH0 load(1, XDATA, add(CFA_XSP16, literal(-1)))
        CFI DPL0 load(1, XDATA, add(CFA_XSP16, literal(-2)))
        CFI ?BRET_EXT load(1, XDATA, add(CFA_XSP16, literal(-3)))
        CFI ?RET_HIGH load(1, XDATA, add(CFA_XSP16, literal(-4)))
        CFI ?RET_LOW load(1, XDATA, add(CFA_XSP16, literal(-5)))
        CFI R7 load(1, XDATA, add(CFA_XSP16, literal(-6)))
        CFI V2 load(1, XDATA, add(CFA_XSP16, literal(-7)))
        CFI V1 load(1, XDATA, add(CFA_XSP16, literal(-8)))
        CFI V0 load(1, XDATA, add(CFA_XSP16, literal(-9)))
        CFI VB load(1, XDATA, add(CFA_XSP16, literal(-10)))
        CFI R6 load(1, XDATA, add(CFA_XSP16, literal(-11)))
        CFI CFA_SP SP+0
        CFI CFA_XSP16 add(XSP16, 11)
        ; Saved register size: 11
        ; Auto size: 0
        MOV     ?V0 + 0,R1
        MOV     A,R2
        MOV     R6,A
        MOV     A,R3
        MOV     R7,A
//  723     uint8 count;
//  724     uint8 totalLength = (uint8)osal_strlen( (char *)pText );
        ; Setup parameters for call to function osal_strlen
        LCALL   ?Subroutine6 & 0xFFFF
//  725   
//  726     /* Write the content first */
//  727     for (count = 0; count < totalLength; count++)
??CrossCallReturnLabel_2:
        MOV     ?V0 + 1,#0x0
        SJMP    ??HalLcd_HW_WriteLine_0
//  728     {
//  729         HalLcd_HW_WriteChar(line, (count + 1), (*(pText++)));
??HalLcd_HW_WriteLine_1:
        ; Setup parameters for call to function HalLcd_HW_WriteChar
        MOV     DPL,R6
        MOV     DPH,R7
        MOVX    A,@DPTR
        MOV     R3,A
        LCALL   ?Subroutine8 & 0xFFFF
//  730     }
??CrossCallReturnLabel_7:
        MOV     DPL,R6
        MOV     DPH,R7
        INC     DPTR
        MOV     R6,DPL
        MOV     R7,DPH
        INC     ?V0 + 1
??HalLcd_HW_WriteLine_0:
        MOV     A,?V0 + 1
        CLR     C
        SUBB    A,?V0 + 2
        JC      ??HalLcd_HW_WriteLine_1
//  731   
//  732     /* Write blank spaces to rest of the line */
//  733     for (count = totalLength; count < LCD_MAX_LINE_LENGTH; count++)
        MOV     ?V0 + 1,?V0 + 2
        SJMP    ??HalLcd_HW_WriteLine_2
//  734     {
//  735        HalLcd_HW_WriteChar(line, (count + 1), ' ');
??HalLcd_HW_WriteLine_3:
        ; Setup parameters for call to function HalLcd_HW_WriteChar
        MOV     R3,#0x20
        LCALL   ?Subroutine8 & 0xFFFF
//  736     }
??CrossCallReturnLabel_8:
        INC     ?V0 + 1
??HalLcd_HW_WriteLine_2:
        MOV     A,?V0 + 1
        CLR     C
        SUBB    A,#0x10
        JC      ??HalLcd_HW_WriteLine_3
//  737 }
        MOV     R7,#0x3
        LJMP    ?BANKED_LEAVE_XDATA
        CFI EndBlock cfiBlock67

        RSEG BANKED_CODE:CODE:NOROOT(0)
?Subroutine8:
        CFI Block cfiCond68 Using cfiCommon0
        CFI NoFunction
        CFI Conditional ??CrossCallReturnLabel_7
        CFI R6 load(1, XDATA, add(CFA_XSP16, literal(-11)))
        CFI VB load(1, XDATA, add(CFA_XSP16, literal(-10)))
        CFI V0 load(1, XDATA, add(CFA_XSP16, literal(-9)))
        CFI V1 load(1, XDATA, add(CFA_XSP16, literal(-8)))
        CFI V2 load(1, XDATA, add(CFA_XSP16, literal(-7)))
        CFI R7 load(1, XDATA, add(CFA_XSP16, literal(-6)))
        CFI ?RET_LOW load(1, XDATA, add(CFA_XSP16, literal(-5)))
        CFI ?RET_HIGH load(1, XDATA, add(CFA_XSP16, literal(-4)))
        CFI ?BRET_EXT load(1, XDATA, add(CFA_XSP16, literal(-3)))
        CFI DPL0 load(1, XDATA, add(CFA_XSP16, literal(-2)))
        CFI DPH0 load(1, XDATA, add(CFA_XSP16, literal(-1)))
        CFI CFA_SP SP+0
        CFI CFA_XSP16 add(XSP16, 11)
        CFI Block cfiCond69 Using cfiCommon0
        CFI (cfiCond69) NoFunction
        CFI (cfiCond69) Conditional ??CrossCallReturnLabel_8
        CFI (cfiCond69) R6 load(1, XDATA, add(CFA_XSP16, literal(-11)))
        CFI (cfiCond69) VB load(1, XDATA, add(CFA_XSP16, literal(-10)))
        CFI (cfiCond69) V0 load(1, XDATA, add(CFA_XSP16, literal(-9)))
        CFI (cfiCond69) V1 load(1, XDATA, add(CFA_XSP16, literal(-8)))
        CFI (cfiCond69) V2 load(1, XDATA, add(CFA_XSP16, literal(-7)))
        CFI (cfiCond69) R7 load(1, XDATA, add(CFA_XSP16, literal(-6)))
        CFI (cfiCond69) ?RET_LOW load(1, XDATA, add(CFA_XSP16, literal(-5)))
        CFI (cfiCond69) ?RET_HIGH load(1, XDATA, add(CFA_XSP16, literal(-4)))
        CFI (cfiCond69) ?BRET_EXT load(1, XDATA, add(CFA_XSP16, literal(-3)))
        CFI (cfiCond69) DPL0 load(1, XDATA, add(CFA_XSP16, literal(-2)))
        CFI (cfiCond69) DPH0 load(1, XDATA, add(CFA_XSP16, literal(-1)))
        CFI (cfiCond69) CFA_SP SP+0
        CFI (cfiCond69) CFA_XSP16 add(XSP16, 11)
        CFI Block cfiPicker70 Using cfiCommon1
        CFI (cfiPicker70) NoFunction
        CFI (cfiPicker70) Picker
        MOV     A,#0x1
        ADD     A,?V0 + 1
        MOV     R2,A
        MOV     R1,?V0 + 0
        LCALL   ??HalLcd_HW_WriteChar?relay
        RET
        CFI EndBlock cfiCond68
        CFI EndBlock cfiCond69
        CFI EndBlock cfiPicker70
//  738 
//  739 /**************************************************************************************************
//  740  * @fn      HalLcd_HW_WaitUs
//  741  *
//  742  * @brief   wait for x us. @ 32MHz MCU clock it takes 32 "nop"s for 1 us delay.
//  743  *
//  744  * @param   x us. range[0-65536]
//  745  *
//  746  * @return  None
//  747  **************************************************************************************************/

        RSEG BANKED_CODE:CODE:NOROOT(0)
//  748 void HalLcd_HW_WaitUs(uint16 microSecs)
HalLcd_HW_WaitUs:
        CFI Block cfiBlock71 Using cfiCommon0
        CFI Function HalLcd_HW_WaitUs
        CODE
//  749 {
        ; Saved register size: 0
        ; Auto size: 0
        SJMP    ??HalLcd_HW_WaitUs_0
//  750     while(microSecs--)
//  751     {
//  752         // 32 NOPs == 1 usecs
//  753         asm("nop"); asm("nop"); asm("nop"); asm("nop"); asm("nop");
??HalLcd_HW_WaitUs_1:
        nop
        nop
        nop
        nop
        nop
//  754         asm("nop"); asm("nop"); asm("nop"); asm("nop"); asm("nop");
        nop
        nop
        nop
        nop
        nop
//  755         asm("nop"); asm("nop"); asm("nop"); asm("nop"); asm("nop");
        nop
        nop
        nop
        nop
        nop
//  756         asm("nop"); asm("nop"); asm("nop"); asm("nop"); asm("nop");
        nop
        nop
        nop
        nop
        nop
//  757         asm("nop"); asm("nop"); asm("nop"); asm("nop"); asm("nop");
        nop
        nop
        nop
        nop
        nop
//  758         asm("nop"); asm("nop"); asm("nop"); asm("nop"); asm("nop");
        nop
        nop
        nop
        nop
        nop
//  759         asm("nop"); asm("nop");
        nop
        nop
//  760     }
??HalLcd_HW_WaitUs_0:
        MOV     A,R2
        MOV     R0,A
        MOV     A,R3
        MOV     R1,A
        MOV     A,R0
        ADD     A,#-0x1
        DEC     R2
        MOV     A,R1
        ADDC    A,#-0x1
        MOV     R3,A
        MOV     A,R0
        ORL     A,R1
        JNZ     ??HalLcd_HW_WaitUs_1
//  761 }
        LJMP    ?BRET
        CFI EndBlock cfiBlock71

        RSEG BANK_RELAYS:CODE:REORDER:NOROOT(0)
??HalLcdInit?relay:
        LCALL   ?BDISPATCH
        DATA
        DC24    HalLcdInit

        RSEG BANK_RELAYS:CODE:REORDER:NOROOT(0)
??HalLcdWriteString?relay:
        LCALL   ?BDISPATCH
        DATA
        DC24    HalLcdWriteString

        RSEG BANK_RELAYS:CODE:REORDER:NOROOT(0)
??HalLcdWriteValue?relay:
        LCALL   ?BDISPATCH
        DATA
        DC24    HalLcdWriteValue

        RSEG BANK_RELAYS:CODE:REORDER:NOROOT(0)
??HalLcdWriteScreen?relay:
        LCALL   ?BDISPATCH
        DATA
        DC24    HalLcdWriteScreen

        RSEG BANK_RELAYS:CODE:REORDER:NOROOT(0)
??HalLcdWriteStringValue?relay:
        LCALL   ?BDISPATCH
        DATA
        DC24    HalLcdWriteStringValue

        RSEG BANK_RELAYS:CODE:REORDER:NOROOT(0)
??HalLcdWriteStringValueValue?relay:
        LCALL   ?BDISPATCH
        DATA
        DC24    HalLcdWriteStringValueValue

        RSEG BANK_RELAYS:CODE:REORDER:NOROOT(0)
??HalLcdDisplayPercentBar?relay:
        LCALL   ?BDISPATCH
        DATA
        DC24    HalLcdDisplayPercentBar

        RSEG BANK_RELAYS:CODE:REORDER:NOROOT(0)
??halLcd_ConfigIO?relay:
        LCALL   ?BDISPATCH
        DATA
        DC24    halLcd_ConfigIO

        RSEG BANK_RELAYS:CODE:REORDER:NOROOT(0)
??HalLcd_HW_SET_DDRAM_ADDR?relay:
        LCALL   ?BDISPATCH
        DATA
        DC24    HalLcd_HW_SET_DDRAM_ADDR

        RSEG BANK_RELAYS:CODE:REORDER:NOROOT(0)
??HalLcd_HW_Control?relay:
        LCALL   ?BDISPATCH
        DATA
        DC24    HalLcd_HW_Control

        RSEG BANK_RELAYS:CODE:REORDER:NOROOT(0)
??HalLcd_HW_Write?relay:
        LCALL   ?BDISPATCH
        DATA
        DC24    HalLcd_HW_Write

        RSEG BANK_RELAYS:CODE:REORDER:NOROOT(0)
??HalLcd_HW_SetContrast?relay:
        LCALL   ?BDISPATCH
        DATA
        DC24    HalLcd_HW_SetContrast

        RSEG BANK_RELAYS:CODE:REORDER:NOROOT(0)
??HalLcd_HW_SetVoltage?relay:
        LCALL   ?BDISPATCH
        DATA
        DC24    HalLcd_HW_SetVoltage

        RSEG BANK_RELAYS:CODE:REORDER:NOROOT(0)
??HalLcd_HW_Clear?relay:
        LCALL   ?BDISPATCH
        DATA
        DC24    HalLcd_HW_Clear

        RSEG BANK_RELAYS:CODE:REORDER:NOROOT(0)
??HalLcd_HW_Init?relay:
        LCALL   ?BDISPATCH
        DATA
        DC24    HalLcd_HW_Init

        RSEG BANK_RELAYS:CODE:REORDER:NOROOT(0)
??HalLcd_HW_WriteChar?relay:
        LCALL   ?BDISPATCH
        DATA
        DC24    HalLcd_HW_WriteChar

        RSEG BANK_RELAYS:CODE:REORDER:NOROOT(0)
??HalLcd_HW_WriteLine?relay:
        LCALL   ?BDISPATCH
        DATA
        DC24    HalLcd_HW_WriteLine

        RSEG BANK_RELAYS:CODE:REORDER:NOROOT(0)
??HalLcd_HW_WaitUs?relay:
        LCALL   ?BDISPATCH
        DATA
        DC24    HalLcd_HW_WaitUs

        RSEG XDATA_ROM_C:CONST:REORDER:NOROOT(0)
        DATA8
`?<Constant "TexasInstruments">`:
        DB "TexasInstruments"

        RSEG XDATA_ROM_C:CONST:REORDER:NOROOT(0)
        DATA8
`?<Constant "[          ]  ">`:
        DB "[          ]  "

        END
//  762 #endif
// 
// 1 592 bytes in segment BANKED_CODE
//   108 bytes in segment BANK_RELAYS
//     6 bytes in segment SFR_AN
// 1 552 bytes in segment XDATA_ROM_C
//     2 bytes in segment XDATA_Z
// 
// 1 700 bytes of CODE  memory
// 1 552 bytes of CONST memory
//     0 bytes of DATA  memory (+ 6 bytes shared)
//     2 bytes of XDATA memory
//
//Errors: none
//Warnings: none
