///////////////////////////////////////////////////////////////////////////////
//                                                                            /
// IAR C/C++ Compiler V8.10.1.10194/W32 for 8051        17/Apr/2021  11:23:40 /
// Copyright 2004-2011 IAR Systems AB.                                        /
//                                                                            /
//    Core               =  plain                                             /
//    Code model         =  banked                                            /
//    Data model         =  large                                             /
//    Calling convention =  xdata reentrant                                   /
//    Constant location  =  data_rom                                          /
//    Dptr setup         =  1,16                                              /
//    Source file        =  D:\毕设\CC2530-smart_home\Projects\zstack\Utiliti /
//                          es\Smart_home\Source\Smart_home.c                 /
//    Command line       =  -f D:\毕设\CC2530-smart_home\Projects\zstack\Util /
//                          ities\Smart_home\CC2530DB\..\..\..\Tools\CC2530DB /
//                          \f8wCoord.cfg (-DCPU32MHZ -DROOT=__near_func      /
//                          -DMAC_CFG_APP_PENDING_QUEUE=TRUE                  /
//                          -DMAC_CFG_TX_DATA_MAX=5 -DMAC_CFG_TX_MAX=8        /
//                          -DMAC_CFG_RX_MAX=5 -DZDO_COORDINATOR -DRTR_NWK)   /
//                          -f D:\毕设\CC2530-smart_home\Projects\zstack\Util /
//                          ities\Smart_home\CC2530DB\..\..\..\Tools\CC2530DB /
//                          \f8wConfig.cfg (-DZIGBEEPRO -DSECURE=0            /
//                          -DZG_SECURE_DYNAMIC=0 -DREFLECTOR                 /
//                          -DDEFAULT_CHANLIST=0x02000000                     /
//                          -DZDAPP_CONFIG_PAN_ID=0x1003                      /
//                          -DNWK_START_DELAY=100 -DEXTENDED_JOINING_RANDOM_M /
//                          ASK=0x007F -DBEACON_REQUEST_DELAY=100             /
//                          -DBEACON_REQ_DELAY_MASK=0x00FF                    /
//                          -DLINK_STATUS_JITTER_MASK=0x007F                  /
//                          -DROUTE_EXPIRY_TIME=30 -DAPSC_ACK_WAIT_DURATION_P /
//                          OLLED=3000 -DNWK_INDIRECT_MSG_TIMEOUT=7           /
//                          -DMAX_RREQ_ENTRIES=8 -DAPSC_MAX_FRAME_RETRIES=3   /
//                          -DNWK_MAX_DATA_RETRIES=2                          /
//                          -DMAX_POLL_FAILURE_RETRIES=2 -DMAX_BCAST=9        /
//                          -DAPS_MAX_GROUPS=16 -DMAX_RTG_ENTRIES=40          /
//                          -DNWK_MAX_BINDING_ENTRIES=4                       /
//                          -DMAX_BINDING_CLUSTER_IDS=4                       /
//                          "-DDEFAULT_KEY={0x01, 0x03, 0x05, 0x07, 0x09,     /
//                          0x0B, 0x0D, 0x0F, 0x00, 0x02, 0x04, 0x06, 0x08,   /
//                          0x0A, 0x0C, 0x0D}" -DMAC_MAX_FRAME_SIZE=116       /
//                          -DZDNWKMGR_MIN_TRANSMISSIONS=20 "-DCONST=const    /
//                          __code" -DGENERIC=__generic                       /
//                          -DRFD_RCVC_ALWAYS_ON=FALSE -DPOLL_RATE=1000       /
//                          -DQUEUED_POLL_RATE=100 -DRESPONSE_POLL_RATE=100)  /
//                          -DREJOIN_POLL_RATE=440 D:\毕设\CC2530-smart_home\ /
//                          Projects\zstack\Utilities\Smart_home\Source\Smart /
//                          _home.c -D LCD_SUPPORTED -D ZDO_COORDINATOR -D    /
//                          NV_RESTORE -D xNV_INIT -D xREFLECTOR -D           /
//                          xHAL_UART=TRUE -D xHAL_UART_TEST -lC              /
//                          D:\毕设\CC2530-smart_home\Projects\zstack\Utiliti /
//                          es\Smart_home\CC2530DB\CoordinatorMB\List\ -lA    /
//                          D:\毕设\CC2530-smart_home\Projects\zstack\Utiliti /
//                          es\Smart_home\CC2530DB\CoordinatorMB\List\        /
//                          --diag_suppress Pe001,Pa010 -o                    /
//                          D:\毕设\CC2530-smart_home\Projects\zstack\Utiliti /
//                          es\Smart_home\CC2530DB\CoordinatorMB\Obj\ -e      /
//                          --no_code_motion --debug --core=plain             /
//                          --dptr=16,1 --data_model=large                    /
//                          --code_model=banked --calling_convention=xdata_re /
//                          entrant --place_constants=data_rom                /
//                          --nr_virtual_regs 16 -I                           /
//                          D:\毕设\CC2530-smart_home\Projects\zstack\Utiliti /
//                          es\Smart_home\CC2530DB\ -I                        /
//                          D:\毕设\CC2530-smart_home\Projects\zstack\Utiliti /
//                          es\Smart_home\CC2530DB\..\Source\ -I              /
//                          D:\毕设\CC2530-smart_home\Projects\zstack\Utiliti /
//                          es\Smart_home\CC2530DB\..\..\..\ZMain\TI2530DB\   /
//                          -I D:\毕设\CC2530-smart_home\Projects\zstack\Util /
//                          ities\Smart_home\CC2530DB\..\..\..\..\..\Componen /
//                          ts\hal\include\ -I D:\毕设\CC2530-smart_home\Proj /
//                          ects\zstack\Utilities\Smart_home\CC2530DB\..\..\. /
//                          .\..\..\Components\hal\target\CC2530MB\ -I        /
//                          D:\毕设\CC2530-smart_home\Projects\zstack\Utiliti /
//                          es\Smart_home\CC2530DB\..\..\..\..\..\Components\ /
//                          mac\include\ -I D:\毕设\CC2530-smart_home\Project /
//                          s\zstack\Utilities\Smart_home\CC2530DB\..\..\..\. /
//                          .\..\Components\mac\high_level\ -I                /
//                          D:\毕设\CC2530-smart_home\Projects\zstack\Utiliti /
//                          es\Smart_home\CC2530DB\..\..\..\..\..\Components\ /
//                          mac\low_level\srf04\ -I                           /
//                          D:\毕设\CC2530-smart_home\Projects\zstack\Utiliti /
//                          es\Smart_home\CC2530DB\..\..\..\..\..\Components\ /
//                          mac\low_level\srf04\single_chip\ -I               /
//                          D:\毕设\CC2530-smart_home\Projects\zstack\Utiliti /
//                          es\Smart_home\CC2530DB\..\..\..\..\..\Components\ /
//                          mt\ -I D:\毕设\CC2530-smart_home\Projects\zstack\ /
//                          Utilities\Smart_home\CC2530DB\..\..\..\..\..\Comp /
//                          onents\osal\include\ -I                           /
//                          D:\毕设\CC2530-smart_home\Projects\zstack\Utiliti /
//                          es\Smart_home\CC2530DB\..\..\..\..\..\Components\ /
//                          services\saddr\ -I D:\毕设\CC2530-smart_home\Proj /
//                          ects\zstack\Utilities\Smart_home\CC2530DB\..\..\. /
//                          .\..\..\Components\services\sdata\ -I             /
//                          D:\毕设\CC2530-smart_home\Projects\zstack\Utiliti /
//                          es\Smart_home\CC2530DB\..\..\..\..\..\Components\ /
//                          stack\af\ -I D:\毕设\CC2530-smart_home\Projects\z /
//                          stack\Utilities\Smart_home\CC2530DB\..\..\..\..\. /
//                          .\Components\stack\nwk\ -I                        /
//                          D:\毕设\CC2530-smart_home\Projects\zstack\Utiliti /
//                          es\Smart_home\CC2530DB\..\..\..\..\..\Components\ /
//                          stack\sapi\ -I D:\毕设\CC2530-smart_home\Projects /
//                          \zstack\Utilities\Smart_home\CC2530DB\..\..\..\.. /
//                          \..\Components\stack\sec\ -I                      /
//                          D:\毕设\CC2530-smart_home\Projects\zstack\Utiliti /
//                          es\Smart_home\CC2530DB\..\..\..\..\..\Components\ /
//                          stack\sys\ -I D:\毕设\CC2530-smart_home\Projects\ /
//                          zstack\Utilities\Smart_home\CC2530DB\..\..\..\..\ /
//                          ..\Components\stack\zdo\ -I                       /
//                          D:\毕设\CC2530-smart_home\Projects\zstack\Utiliti /
//                          es\Smart_home\CC2530DB\..\..\..\..\..\Components\ /
//                          zmac\ -I D:\毕设\CC2530-smart_home\Projects\zstac /
//                          k\Utilities\Smart_home\CC2530DB\..\..\..\..\..\Co /
//                          mponents\zmac\f8w\ -Ohz                           /
//    List file          =  D:\毕设\CC2530-smart_home\Projects\zstack\Utiliti /
//                          es\Smart_home\CC2530DB\CoordinatorMB\List\Smart_h /
//                          ome.s51                                           /
//                                                                            /
//                                                                            /
///////////////////////////////////////////////////////////////////////////////

        NAME Smart_home

        RTMODEL "__SystemLibrary", "CLib"
        RTMODEL "__calling_convention", "xdata_reentrant"
        RTMODEL "__code_model", "banked"
        RTMODEL "__core", "plain"
        RTMODEL "__data_model", "large"
        RTMODEL "__dptr_size", "16"
        RTMODEL "__extended_stack", "disabled"
        RTMODEL "__location_for_constants", "data"
        RTMODEL "__number_of_dptrs", "1"
        RTMODEL "__rt_version", "1"

        RSEG DOVERLAY:DATA:NOROOT(0)
        RSEG IOVERLAY:IDATA:NOROOT(0)
        RSEG ISTACK:IDATA:NOROOT(0)
        RSEG PSTACK:XDATA:NOROOT(0)
        RSEG XSTACK:XDATA:NOROOT(0)

        EXTERN ?ALLOC_XSTACK8
        EXTERN ?BANKED_ENTER_XDATA
        EXTERN ?BANKED_LEAVE_XDATA
        EXTERN ?BDISPATCH
        EXTERN ?DEALLOC_XSTACK8
        EXTERN ?MOVE_LONG8_XDATA_XDATA
        EXTERN ?PUSH_XSTACK8_X_TWO
        EXTERN ?PUSH_XSTACK_I_ONE
        EXTERN ?PUSH_XSTACK_I_TWO
        EXTERN ?US_SWITCH_DENSE
        EXTERN ?V0
        EXTERN ?XSP
        EXTERN ?XSTACK_DISP0_8
        EXTERN __INIT_XDATA_I
        EXTERN __INIT_XDATA_Z

        FUNCTION ??Smart_home_Display?relay,0203H
        FUNCTION ??Smart_home_HandleKeys?relay,0203H
        PUBLIC ??Smart_home_Init?relay
        FUNCTION ??Smart_home_Init?relay,0203H
        FUNCTION ??Smart_home_Motor_cmd?relay,0203H
        PUBLIC ??Smart_home_ProcessEvent?relay
        FUNCTION ??Smart_home_ProcessEvent?relay,0203H
        FUNCTION ??Smart_home_ProcessMSGCmd?relay,0203H
        FUNCTION ??Smart_home_Relay_Ctl?relay,0203H
        PUBLIC Coordinator_Msg
        PUBLIC DeviceList
        PUBLIC Smart_home_ClusterList_IN
        PUBLIC Smart_home_ClusterList_OUT
        FUNCTION Smart_home_Display,021203H
        ARGFRAME XSTACK, 12, STACK
        ARGFRAME IOVERLAY, 0, STATIC
        ARGFRAME DOVERLAY, 0, STATIC
        LOCFRAME ISTACK, 2, STACK
        LOCFRAME XSTACK, 30, STACK
        FUNCTION Smart_home_HandleKeys,021203H
        ARGFRAME XSTACK, 12, STACK
        ARGFRAME IOVERLAY, 0, STATIC
        ARGFRAME DOVERLAY, 0, STATIC
        LOCFRAME XSTACK, 9, STACK
        PUBLIC Smart_home_Init
        FUNCTION Smart_home_Init,021203H
        ARGFRAME XSTACK, 0, STACK
        LOCFRAME ISTACK, 1, STACK
        LOCFRAME XSTACK, 38, STACK
        FUNCTION Smart_home_Motor_cmd,021203H
        ARGFRAME XSTACK, 9, STACK
        ARGFRAME IOVERLAY, 0, STATIC
        ARGFRAME DOVERLAY, 0, STATIC
        LOCFRAME XSTACK, 19, STACK
        PUBLIC Smart_home_ProcessEvent
        FUNCTION Smart_home_ProcessEvent,021203H
        ARGFRAME XSTACK, 0, STACK
        LOCFRAME ISTACK, 1, STACK
        LOCFRAME XSTACK, 12, STACK
        FUNCTION Smart_home_ProcessMSGCmd,080203H
        ARGFRAME XSTACK, 12, STACK
        ARGFRAME IOVERLAY, 0, STATIC
        ARGFRAME DOVERLAY, 0, STATIC
        LOCFRAME XSTACK, 10, STACK
        FUNCTION Smart_home_Relay_Ctl,021203H
        ARGFRAME XSTACK, 9, STACK
        ARGFRAME IOVERLAY, 0, STATIC
        ARGFRAME DOVERLAY, 0, STATIC
        LOCFRAME XSTACK, 19, STACK
        PUBLIC Smart_home_SimpleDesc
        PUBLIC Smart_home_TaskID
        PUBLIC Smart_home_epDesc
        
        CFI Names cfiNames0
        CFI StackFrame CFA_SP SP IDATA
        CFI StackFrame CFA_PSP16 PSP16 XDATA
        CFI StackFrame CFA_XSP16 XSP16 XDATA
        CFI StaticOverlayFrame CFA_IOVERLAY IOVERLAY
        CFI StaticOverlayFrame CFA_DOVERLAY DOVERLAY
        CFI Resource `PSW.CY`:1, `B.BR0`:1, `B.BR1`:1, `B.BR2`:1, `B.BR3`:1
        CFI Resource `B.BR4`:1, `B.BR5`:1, `B.BR6`:1, `B.BR7`:1, `VB.BR8`:1
        CFI Resource `VB.BR9`:1, `VB.BR10`:1, `VB.BR11`:1, `VB.BR12`:1
        CFI Resource `VB.BR13`:1, `VB.BR14`:1, `VB.BR15`:1, VB:8, B:8, A:8
        CFI Resource PSW:8, DPL0:8, DPH0:8, R0:8, R1:8, R2:8, R3:8, R4:8, R5:8
        CFI Resource R6:8, R7:8, V0:8, V1:8, V2:8, V3:8, V4:8, V5:8, V6:8, V7:8
        CFI Resource V8:8, V9:8, V10:8, V11:8, V12:8, V13:8, V14:8, V15:8, SP:8
        CFI Resource PSPH:8, PSPL:8, PSP16:16, XSPH:8, XSPL:8, XSP16:16
        CFI VirtualResource ?RET:24
        CFI Resource ?BRET_EXT:8
        CFI VirtualResource ?RET_HIGH:8, ?RET_LOW:8
        CFI ResourceParts PSP16 PSPH, PSPL
        CFI ResourceParts XSP16 XSPH, XSPL
        CFI ResourceParts ?RET ?BRET_EXT, ?RET_HIGH, ?RET_LOW
        CFI EndNames cfiNames0
        
        CFI Common cfiCommon0 Using cfiNames0
        CFI CodeAlign 1
        CFI DataAlign -1
        CFI ReturnAddress ?RET CODE
        CFI CFA_DOVERLAY Used
        CFI CFA_IOVERLAY Used
        CFI CFA_SP SP+-3
        CFI CFA_PSP16 PSP16+0
        CFI CFA_XSP16 XSP16+0
        CFI `PSW.CY` SameValue
        CFI `B.BR0` SameValue
        CFI `B.BR1` SameValue
        CFI `B.BR2` SameValue
        CFI `B.BR3` SameValue
        CFI `B.BR4` SameValue
        CFI `B.BR5` SameValue
        CFI `B.BR6` SameValue
        CFI `B.BR7` SameValue
        CFI `VB.BR8` SameValue
        CFI `VB.BR9` SameValue
        CFI `VB.BR10` SameValue
        CFI `VB.BR11` SameValue
        CFI `VB.BR12` SameValue
        CFI `VB.BR13` SameValue
        CFI `VB.BR14` SameValue
        CFI `VB.BR15` SameValue
        CFI VB SameValue
        CFI B Undefined
        CFI A Undefined
        CFI PSW SameValue
        CFI DPL0 SameValue
        CFI DPH0 SameValue
        CFI R0 Undefined
        CFI R1 Undefined
        CFI R2 Undefined
        CFI R3 Undefined
        CFI R4 Undefined
        CFI R5 Undefined
        CFI R6 SameValue
        CFI R7 SameValue
        CFI V0 SameValue
        CFI V1 SameValue
        CFI V2 SameValue
        CFI V3 SameValue
        CFI V4 SameValue
        CFI V5 SameValue
        CFI V6 SameValue
        CFI V7 SameValue
        CFI V8 SameValue
        CFI V9 SameValue
        CFI V10 SameValue
        CFI V11 SameValue
        CFI V12 SameValue
        CFI V13 SameValue
        CFI V14 SameValue
        CFI V15 SameValue
        CFI PSPH Undefined
        CFI PSPL Undefined
        CFI XSPH Undefined
        CFI XSPL Undefined
        CFI ?RET Concat
        CFI ?BRET_EXT Frame(CFA_SP, 3)
        CFI ?RET_HIGH Frame(CFA_SP, 2)
        CFI ?RET_LOW Frame(CFA_SP, 1)
        CFI EndCommon cfiCommon0
        
        
        CFI Common cfiCommon1 Using cfiNames0
        CFI CodeAlign 1
        CFI DataAlign -1
        CFI ReturnAddress ?RET CODE
        CFI CFA_DOVERLAY Used
        CFI CFA_IOVERLAY Used
        CFI CFA_SP SP+-2
        CFI CFA_PSP16 PSP16+0
        CFI CFA_XSP16 XSP16+0
        CFI `PSW.CY` SameValue
        CFI `B.BR0` SameValue
        CFI `B.BR1` SameValue
        CFI `B.BR2` SameValue
        CFI `B.BR3` SameValue
        CFI `B.BR4` SameValue
        CFI `B.BR5` SameValue
        CFI `B.BR6` SameValue
        CFI `B.BR7` SameValue
        CFI `VB.BR8` SameValue
        CFI `VB.BR9` SameValue
        CFI `VB.BR10` SameValue
        CFI `VB.BR11` SameValue
        CFI `VB.BR12` SameValue
        CFI `VB.BR13` SameValue
        CFI `VB.BR14` SameValue
        CFI `VB.BR15` SameValue
        CFI VB SameValue
        CFI B SameValue
        CFI A SameValue
        CFI PSW SameValue
        CFI DPL0 SameValue
        CFI DPH0 SameValue
        CFI R0 SameValue
        CFI R1 SameValue
        CFI R2 SameValue
        CFI R3 SameValue
        CFI R4 SameValue
        CFI R5 SameValue
        CFI R6 SameValue
        CFI R7 SameValue
        CFI V0 SameValue
        CFI V1 SameValue
        CFI V2 SameValue
        CFI V3 SameValue
        CFI V4 SameValue
        CFI V5 SameValue
        CFI V6 SameValue
        CFI V7 SameValue
        CFI V8 SameValue
        CFI V9 SameValue
        CFI V10 SameValue
        CFI V11 SameValue
        CFI V12 SameValue
        CFI V13 SameValue
        CFI V14 SameValue
        CFI V15 SameValue
        CFI PSPH Undefined
        CFI PSPL Undefined
        CFI XSPH Undefined
        CFI XSPL Undefined
        CFI ?RET Concat
        CFI ?BRET_EXT SameValue
        CFI ?RET_HIGH Frame(CFA_SP, 2)
        CFI ?RET_LOW Frame(CFA_SP, 1)
        CFI EndCommon cfiCommon1
        
afRegister          SYMBOL "afRegister"
RegisterForKeys     SYMBOL "RegisterForKeys"
HalUARTOpen         SYMBOL "HalUARTOpen"
HalLcdWriteString   SYMBOL "HalLcdWriteString"
ZDO_RegisterForZDOMsg SYMBOL "ZDO_RegisterForZDOMsg"
osal_start_timerEx  SYMBOL "osal_start_timerEx"
NLME_PermitJoiningRequest SYMBOL "NLME_PermitJoiningRequest"
HalLedSet           SYMBOL "HalLedSet"
osal_msg_deallocate SYMBOL "osal_msg_deallocate"
osal_msg_receive    SYMBOL "osal_msg_receive"
AF_DataRequest      SYMBOL "AF_DataRequest"
HalLcdWriteStringValueValue SYMBOL "HalLcdWriteStringValueValue"
HalLcdDisplayPercentBar SYMBOL "HalLcdDisplayPercentBar"
memcpy              SYMBOL "memcpy"
HalLcdWriteStringValue SYMBOL "HalLcdWriteStringValue"
??AF_DataRequest?relay SYMBOL "?relay", AF_DataRequest
??HalLcdDisplayPercentBar?relay SYMBOL "?relay", HalLcdDisplayPercentBar
??HalLcdWriteString?relay SYMBOL "?relay", HalLcdWriteString
??HalLcdWriteStringValue?relay SYMBOL "?relay", HalLcdWriteStringValue
??HalLcdWriteStringValueValue?relay SYMBOL "?relay", HalLcdWriteStringValueValue
??HalLedSet?relay   SYMBOL "?relay", HalLedSet
??HalUARTOpen?relay SYMBOL "?relay", HalUARTOpen
??NLME_PermitJoiningRequest?relay SYMBOL "?relay", NLME_PermitJoiningRequest
??RegisterForKeys?relay SYMBOL "?relay", RegisterForKeys
??ZDO_RegisterForZDOMsg?relay SYMBOL "?relay", ZDO_RegisterForZDOMsg
??afRegister?relay  SYMBOL "?relay", afRegister
??memcpy?relay      SYMBOL "?relay", memcpy
??osal_msg_deallocate?relay SYMBOL "?relay", osal_msg_deallocate
??osal_msg_receive?relay SYMBOL "?relay", osal_msg_receive
??osal_start_timerEx?relay SYMBOL "?relay", osal_start_timerEx
Smart_home_Init     SYMBOL "Smart_home_Init"
??Smart_home_Init?relay SYMBOL "?relay", Smart_home_Init
Smart_home_ProcessEvent SYMBOL "Smart_home_ProcessEvent"
??Smart_home_ProcessEvent?relay SYMBOL "?relay", Smart_home_ProcessEvent

        EXTERN afRegister
        FUNCTION afRegister,0202H
        ARGFRAME ISTACK, 0, STACK
        ARGFRAME PSTACK, 0, STACK
        ARGFRAME XSTACK, 38, STACK
        ARGFRAME IOVERLAY, 0, STATIC
        ARGFRAME DOVERLAY, 0, STATIC
        EXTERN RegisterForKeys
        FUNCTION RegisterForKeys,0202H
        ARGFRAME ISTACK, 0, STACK
        ARGFRAME PSTACK, 0, STACK
        ARGFRAME XSTACK, 38, STACK
        ARGFRAME IOVERLAY, 0, STATIC
        ARGFRAME DOVERLAY, 0, STATIC
        EXTERN HalUARTOpen
        FUNCTION HalUARTOpen,0202H
        ARGFRAME ISTACK, 0, STACK
        ARGFRAME PSTACK, 0, STACK
        ARGFRAME XSTACK, 38, STACK
        ARGFRAME IOVERLAY, 0, STATIC
        ARGFRAME DOVERLAY, 0, STATIC
        EXTERN HalLcdWriteString
        FUNCTION HalLcdWriteString,0202H
        ARGFRAME ISTACK, 0, STACK
        ARGFRAME PSTACK, 0, STACK
        ARGFRAME XSTACK, 38, STACK
        ARGFRAME IOVERLAY, 0, STATIC
        ARGFRAME DOVERLAY, 0, STATIC
        EXTERN ZDO_RegisterForZDOMsg
        FUNCTION ZDO_RegisterForZDOMsg,0202H
        ARGFRAME ISTACK, 0, STACK
        ARGFRAME PSTACK, 0, STACK
        ARGFRAME XSTACK, 38, STACK
        ARGFRAME IOVERLAY, 0, STATIC
        ARGFRAME DOVERLAY, 0, STATIC
        EXTERN osal_start_timerEx
        FUNCTION osal_start_timerEx,0202H
        ARGFRAME ISTACK, 0, STACK
        ARGFRAME PSTACK, 0, STACK
        ARGFRAME XSTACK, 38, STACK
        ARGFRAME IOVERLAY, 0, STATIC
        ARGFRAME DOVERLAY, 0, STATIC
        EXTERN NLME_PermitJoiningRequest
        FUNCTION NLME_PermitJoiningRequest,0202H
        ARGFRAME ISTACK, 0, STACK
        ARGFRAME PSTACK, 0, STACK
        ARGFRAME XSTACK, 38, STACK
        ARGFRAME IOVERLAY, 0, STATIC
        ARGFRAME DOVERLAY, 0, STATIC
        EXTERN HalLedSet
        FUNCTION HalLedSet,0202H
        ARGFRAME ISTACK, 0, STACK
        ARGFRAME PSTACK, 0, STACK
        ARGFRAME XSTACK, 38, STACK
        ARGFRAME IOVERLAY, 0, STATIC
        ARGFRAME DOVERLAY, 0, STATIC
        EXTERN osal_msg_deallocate
        FUNCTION osal_msg_deallocate,0202H
        ARGFRAME ISTACK, 0, STACK
        ARGFRAME PSTACK, 0, STACK
        ARGFRAME XSTACK, 12, STACK
        ARGFRAME IOVERLAY, 0, STATIC
        ARGFRAME DOVERLAY, 0, STATIC
        EXTERN osal_msg_receive
        FUNCTION osal_msg_receive,0202H
        ARGFRAME ISTACK, 0, STACK
        ARGFRAME PSTACK, 0, STACK
        ARGFRAME XSTACK, 12, STACK
        ARGFRAME IOVERLAY, 0, STATIC
        ARGFRAME DOVERLAY, 0, STATIC
        EXTERN AF_DataRequest
        FUNCTION AF_DataRequest,0202H
        ARGFRAME ISTACK, 0, STACK
        ARGFRAME PSTACK, 0, STACK
        ARGFRAME XSTACK, 19, STACK
        ARGFRAME IOVERLAY, 0, STATIC
        ARGFRAME DOVERLAY, 0, STATIC
        EXTERN HalLcdWriteStringValueValue
        FUNCTION HalLcdWriteStringValueValue,0202H
        ARGFRAME ISTACK, 0, STACK
        ARGFRAME PSTACK, 0, STACK
        ARGFRAME XSTACK, 30, STACK
        ARGFRAME IOVERLAY, 0, STATIC
        ARGFRAME DOVERLAY, 0, STATIC
        EXTERN HalLcdDisplayPercentBar
        FUNCTION HalLcdDisplayPercentBar,0202H
        ARGFRAME ISTACK, 0, STACK
        ARGFRAME PSTACK, 0, STACK
        ARGFRAME XSTACK, 24, STACK
        ARGFRAME IOVERLAY, 0, STATIC
        ARGFRAME DOVERLAY, 0, STATIC
        EXTERN memcpy
        FUNCTION memcpy,010202H
        ARGFRAME ISTACK, 0, STACK
        ARGFRAME PSTACK, 0, STACK
        ARGFRAME XSTACK, 26, STACK
        ARGFRAME IOVERLAY, 0, STATIC
        ARGFRAME DOVERLAY, 0, STATIC
        EXTERN HalLcdWriteStringValue
        FUNCTION HalLcdWriteStringValue,0202H
        ARGFRAME ISTACK, 0, STACK
        ARGFRAME PSTACK, 0, STACK
        ARGFRAME XSTACK, 25, STACK
        ARGFRAME IOVERLAY, 0, STATIC
        ARGFRAME DOVERLAY, 0, STATIC
        EXTERN ??AF_DataRequest?relay
        FUNCTION ??AF_DataRequest?relay,00H
        EXTERN ??HalLcdDisplayPercentBar?relay
        FUNCTION ??HalLcdDisplayPercentBar?relay,00H
        EXTERN ??HalLcdWriteString?relay
        FUNCTION ??HalLcdWriteString?relay,00H
        EXTERN ??HalLcdWriteStringValue?relay
        FUNCTION ??HalLcdWriteStringValue?relay,00H
        EXTERN ??HalLcdWriteStringValueValue?relay
        FUNCTION ??HalLcdWriteStringValueValue?relay,00H
        EXTERN ??HalLedSet?relay
        FUNCTION ??HalLedSet?relay,00H
        EXTERN ??HalUARTOpen?relay
        FUNCTION ??HalUARTOpen?relay,00H
        EXTERN ??NLME_PermitJoiningRequest?relay
        FUNCTION ??NLME_PermitJoiningRequest?relay,00H
        EXTERN ??RegisterForKeys?relay
        FUNCTION ??RegisterForKeys?relay,00H
        EXTERN ??ZDO_RegisterForZDOMsg?relay
        FUNCTION ??ZDO_RegisterForZDOMsg?relay,00H
        EXTERN ??afRegister?relay
        FUNCTION ??afRegister?relay,00H
        EXTERN ??memcpy?relay
        FUNCTION ??memcpy?relay,00H
        EXTERN ??osal_msg_deallocate?relay
        FUNCTION ??osal_msg_deallocate?relay,00H
        EXTERN ??osal_msg_receive?relay
        FUNCTION ??osal_msg_receive?relay,00H
        EXTERN ??osal_start_timerEx?relay
        FUNCTION ??osal_start_timerEx?relay,00H

// D:\毕设\CC2530-smart_home\Projects\zstack\Utilities\Smart_home\Source\Smart_home.c
//    1 /**************************************************************************************************
//    2   文件名：Smart_home.c
//    3   作 者： 柳成林
//    4   功 能： 作为网关节点，实现传感器信息的采集，并可以通过其控制一些节点
//    5           终端设备主要分为8个，分别为
//    6      1、温度与光照度传感器；2、烟雾与火焰传感器；3、继电器；4、温湿度传感器；
//    7      5、声音与震动传感器；  6、人体红外检测传感器；7、电机；8、RFID检测器。
//    8   更新日志(2021)
//    9   3.13
//   10   + 新增 8种传感器的Project并设置好编译情况
//   11   + 修改 Smart_home_ProcessEvent() （增加各种处理器的事件）
//   12          Smart_home_Init()         （初始化内容修改，添加设备默认离线）
//   13   3.14
//   14   + 修改 Smart_home_ProcessMSGCmd()（添加终端节点类型判断，具体处理留空）
//   15   + 新增 Hal层各种传感器驱动(头文件)
//   16          ClusterList (添加8个终端，分开出与入)
//   17   3.17
//   18   + 修改 Smart_home_ProcessMSGCmd() （完成接收后对于各终端处理）
//   19   + 添加 Smart_home_HandleKeys()     (修改原来函数增添概念，未补全)
//   20   + 删除 static void Smart_home_Send(void);
//   21          static void Smart_home_Resp(void);
//   22          两个函数
//   23   3.19
//   24   + 检查 出现的warning并做标识
//   25   + 修改 Smart_home_HandleKeys() （补全设计函数）
//   26   + 新增 Smart_home_Device_check() (设备是否在线检查)
//   27 
//   28   3.21
//   29   + 新增 DeviceList以方便初始化和设备在线检查（本地变量部分）
//   30          Smart_home_Display()    （屏幕显示，未补全）
//   31          Smart_home_Key_add()     (控制按键，附加项)
//   32   + 修改 Smart_home_Device_check()
//   33          Smart_home_Init()
//   34          Smart_home_ProcessMSGCmd()
//   35          调整有关DeviceList（设备列表）部分的修改
//   36          直接使用数组位置号作为设备编号
//   37          按键控制方式，用按键情况控制
//   38   3.22
//   39   + 修改 Smart_home_Display()    （屏幕显示，补全）
//   40          Smart_home_Key_add()     (屏幕显示中的电机与继电器部分加入这里)
//   41          重写别名方式减少内存损耗
//   42          出现无法初始化的问题，需要项目重构
//   43   3.23
//   44   + Warn 代码初始化后会产生直接进入key的情况,需debug
//   45          OK键问题无法修复，放弃使用OK键，修改为Cencel组网 禁止组网
//   46   3.23 正式完成网关节点部分，（显示函数部分除外）
//   47   3.24 
//   48   + 修改 Smart_home_Key_add()与display函数整合
//   49   + bug:在每十秒一次调用的周期检查函数中会导致显示屏将近一秒时间不显示
//   50     已解决： 在状态0的时候作为在线即可
//   51   + 完成 显示功能设置
//   52    
//   53   经调试程序无bug，可以接收各个传感器消息。//3.22
//   54   当我没说。。好像出了内存问题//3.22
//   55   项目重构啦！，现在又只有一个小问题了/3.23
//   56 *********************************************************************/
//   57 
//   58 /*********************************************************************
//   59  * INCLUDES
//   60  */
//   61 
//   62 #include "OSAL.h"
//   63 #include "AF.h"
//   64 #include "ZDObject.h"
//   65 #include "ZDProfile.h"
//   66 #include "nwk_util.h"
//   67 
//   68 #include "Smart_home.h"
//   69 #include "OnBoard.h"
//   70 
//   71 #include "DebugTrace.h"
//   72 #include "string.h"
//   73 
//   74 /* HAL */
//   75 #include "hal_lcd.h"
//   76 #include "hal_led.h"
//   77 #include "hal_key.h"
//   78 #include "hal_uart.h"
//   79 
//   80 /*********************************************************************
//   81  * MACROS
//   82  */
//   83 /*设备链接相关设置*/
//   84 /*判断设备是否在线的最大次数*/
//   85 #define DEVICE_HEART_BEAT    5
//   86 #define DEVICE_CHECK_DELAY   5000
//   87 #define DEVICE_CHECK_TIMER   3000
//   88 
//   89 /*LCD相关设置*/
//   90 /*单屏显示时常   MS*/
//   91 #define LCD_DISPLAY_LENGTH   10000
//   92 #define LCD_DISPLAY_TIMER    2000  //多久更新一次 
//   93 
//   94 /*关于显示部分相关的宏*/
//   95 #define LCD_PAGE_MAX         4     //目前目录页最多4页
//   96 
//   97 /* 直流电机状态(status)定义*/
//   98 #define  HAL_MOTOR_STOP            0x01
//   99 #define  HAL_MOTOR_FORWARD         0x02
//  100 #define  HAL_MOTOR_BACKWARD        0x03
//  101 #define  MOTOR_MAX_SPEED           2400
//  102 
//  103 /*********************************************************************
//  104  * CONSTANTS
//  105  */
//  106 
//  107 #if !defined( SMART_HOME_PORT )
//  108 #define SMART_HOME_PORT  0
//  109 #endif
//  110 
//  111 #if !defined( SMART_HOME_BAUD )
//  112 #define SMART_HOME_BAUD  HAL_UART_BR_38400
//  113 //#define SMART_HOME_BAUD  HAL_UART_BR_115200
//  114 #endif
//  115 
//  116 // When the Rx buf space is less than this threshold, invoke the Rx callback.
//  117 #if !defined( SMART_HOME_THRESH )
//  118 #define SMART_HOME_THRESH  64
//  119 #endif
//  120 
//  121 #if !defined( SMART_HOME_RX_SZ )
//  122 #define SMART_HOME_RX_SZ  128
//  123 #endif
//  124 
//  125 #if !defined( SMART_HOME_TX_SZ )
//  126 #define SMART_HOME_TX_SZ  128
//  127 #endif
//  128 
//  129 // Millisecs of idle time after a byte is received before invoking Rx callback.
//  130 #if !defined( SMART_HOME_IDLE )
//  131 #define SMART_HOME_IDLE  6
//  132 #endif
//  133 
//  134 // Loopback Rx bytes to Tx for throughput testing.
//  135 #if !defined( SMART_HOME_LOOPBACK )
//  136 #define SMART_HOME_LOOPBACK  FALSE
//  137 #endif
//  138 
//  139 // This is the max byte count per OTA message.
//  140 #if !defined( SMART_HOME_TX_MAX )
//  141 #define SMART_HOME_TX_MAX  80
//  142 #endif
//  143 
//  144 #define SMART_HOME_RSP_CNT  4
//  145 
//  146 //3.14 This list should be filled with Application specific Cluster IDs.

        RSEG XDATA_ROM_C:CONST:REORDER:NOROOT(0)
        DATA8
//  147 const cId_t Smart_home_ClusterList_IN[Smart_home_MAX_INCLUSTERS ] =
Smart_home_ClusterList_IN:
        DATA16
        DW 1
        DW 2
        DW 3
        DW 4
        DW 5
        DW 6
        DW 7
        DW 8
        DW 0
//  148 {
//  149   Smart_home_CLUSTERID_HUMITMSG,              // 温湿度
//  150   Smart_home_CLUSTERID_TEMPLIGHTMSG,          // 温度光照
//  151   Smart_home_CLUSTERID_RFIDMSG,               // 射频卡
//  152   Smart_home_CLUSTERID_GASFLAMEMSG,           // 烟雾火焰
//  153   Smart_home_CLUSTERID_INFRAREDMSG,           // 人体红外
//  154   Smart_home_CLUSTERID_SOUNDVBMSG,            // 声音振动
//  155   Smart_home_CLUSTERID_MOTORSTATUSMSG,        // 直流电机状态信息
//  156   Smart_home_CLUSTERID_RELAYSTATUSMSG         // 继电器
//  157 };
//  158 

        RSEG XDATA_ROM_C:CONST:REORDER:NOROOT(0)
        DATA8
//  159 const cId_t Smart_home_ClusterList_OUT[Smart_home_MAX_INCLUSTERS ] =
Smart_home_ClusterList_OUT:
        DATA16
        DW 11
        DW 10
        DW 0
        DW 0
        DW 0
        DW 0
        DW 0
        DW 0
        DW 0
//  160 {
//  161   Smart_home_CLUSTERID_MOTORCTRL,             //直流电机控制
//  162   Smart_home_CLUSTERID_RELAYCTRL              //继电器控制
//  163 };
//  164 

        RSEG XDATA_ROM_C:CONST:REORDER:NOROOT(0)
        DATA8
//  165 const SimpleDescriptionFormat_t Smart_home_SimpleDesc =
Smart_home_SimpleDesc:
        DB 1
        DATA16
        DW 3845
        DW 1
        DATA8
        DB 0
        DB 9
        DATA16
        DW Smart_home_ClusterList_IN
        DATA8
        DB 2
        DATA16
        DW Smart_home_ClusterList_OUT
//  166 {
//  167   Smart_home_ENDPOINT,              //  int   Endpoint;
//  168   Smart_home_PROFID,                //  uint16 AppProfId[2];
//  169   Smart_home_DEVICEID,              //  uint16 AppDeviceId[2];
//  170   Smart_home_DEVICE_VERSION,        //  int   AppDevVer:4;
//  171   Smart_home_FLAGS,                 //  int   AppFlags:4;
//  172   Smart_home_MAX_INCLUSTERS,          //  byte  AppNumInClusters;
//  173   (cId_t *)Smart_home_ClusterList_IN,  //  byte *pAppInClusterList;
//  174   Smart_home_MAX_OUTCLUSTERS,          //  byte  AppNumOutClusters;
//  175   (cId_t *)Smart_home_ClusterList_OUT   //  byte *pAppOutClusterList;
//  176 };
//  177 

        RSEG XDATA_ROM_C:CONST:REORDER:NOROOT(0)
        DATA8
//  178 const endPointDesc_t Smart_home_epDesc =
Smart_home_epDesc:
        DB 1
        DATA16
        DW Smart_home_TaskID
        DW Smart_home_SimpleDesc
        DATA8
        DB 0
//  179 {
//  180   Smart_home_ENDPOINT,
//  181   &Smart_home_TaskID,
//  182   (SimpleDescriptionFormat_t *)&Smart_home_SimpleDesc,
//  183   noLatencyReqs
//  184 };
//  185 
//  186 /*********************************************************************
//  187  * TYPEDEFS
//  188  */
//  189 
//  190 /*********************************************************************
//  191  * GLOBAL VARIABLES
//  192  */
//  193 

        RSEG XDATA_Z:XDATA:NOROOT(0)
        DATA8
//  194 uint8 Smart_home_TaskID;    // Task ID for internal task/event processing.
Smart_home_TaskID:
        DS 1
        REQUIRE __INIT_XDATA_Z
//  195 
//  196 /*********************************************************************
//  197  * EXTERNAL VARIABLES
//  198  */
//  199 
//  200 /*********************************************************************
//  201  * EXTERNAL FUNCTIONS
//  202  */
//  203 
//  204 /*********************************************************************
//  205  * LOCAL VARIABLES
//  206  */
//  207 
//  208 /*3.18 终端节点的设备详细信息缓存*/

        RSEG XDATA_Z:XDATA:NOROOT(0)
        DATA8
//  209 static uint8 DeviceCnt[Smart_home_MAX_INCLUSTERS];
DeviceCnt:
        DS 9
        REQUIRE __INIT_XDATA_Z

        RSEG XDATA_Z:XDATA:NOROOT(0)
        DATA8
//  210 static int8 Ctrlcase = 0;    //0用来控制屏幕显示，1控制继电器，2控制电机
Ctrlcase:
        DS 1
        REQUIRE __INIT_XDATA_Z

        RSEG XDATA_Z:XDATA:NOROOT(0)
        DATA8
//  211 static int8 LCD_Page  =  0;  //终端状态显示
LCD_Page:
        DS 1
        REQUIRE __INIT_XDATA_Z

        RSEG XDATA_Z:XDATA:NOROOT(0)
        DATA8
//  212 DeviceInfo DeviceList[Smart_home_MAX_INCLUSTERS];                      //设备列表  
DeviceList:
        DS 63
        REQUIRE __INIT_XDATA_Z
//  213 /*********************************************************************************
//  214 //这些似乎会引起内存问题  3.22
//  215 DeviceInfo *Humit = DeviceList+Smart_home_CLUSTERID_HUMITMSG;          //温湿度缓存
//  216 DeviceInfo *TempLight = DeviceList+Smart_home_CLUSTERID_TEMPLIGHTMSG;  // 温度光照缓存
//  217 DeviceInfo *RfID = DeviceList+Smart_home_CLUSTERID_RFIDMSG;            // RFID 信息缓存
//  218 DeviceInfo *gasFlame = DeviceList+Smart_home_CLUSTERID_GASFLAMEMSG;    //气体火焰缓存
//  219 DeviceInfo *infrared = DeviceList+Smart_home_CLUSTERID_INFRAREDMSG;    //人体红外
//  220 DeviceInfo *motor = DeviceList+Smart_home_CLUSTERID_MOTORSTATUSMSG;     //电机状态
//  221 DeviceInfo *relay = DeviceList+Smart_home_CLUSTERID_RELAYSTATUSMSG;    //继电器状态
//  222 DeviceInfo *soundVb = DeviceList+Smart_home_CLUSTERID_SOUNDVBMSG;      //声音震动
//  223 修改如下
//  224 ***********************************************************************************/
//  225 #define Humit     1     //温湿度缓存
//  226 #define TempLight 2     // 温度光照缓存
//  227 #define RfID      3     // RFID 信息缓存
//  228 #define gasFlame  4     //气体火焰缓存
//  229 #define infrared  5     //人体红外
//  230 #define motor     6     //电机状态
//  231 #define relay     7     //继电器状态
//  232 #define soundVb   8     //声音震动
//  233 
//  234 /*3.14 消息发送部分*/
//  235 /*3.17短地址存储*/
//  236 static afAddrType_t Humit_addr;
//  237 static afAddrType_t Light_addr;
//  238 static afAddrType_t GasF_addr;
//  239 static afAddrType_t Sound_addr;
//  240 static afAddrType_t Card_addr;
//  241 static afAddrType_t Infrared_addr;

        RSEG XDATA_Z:XDATA:NOROOT(0)
        DATA8
//  242 static afAddrType_t Relay_addr;
Relay_addr:
        DS 12
        REQUIRE __INIT_XDATA_Z

        RSEG XDATA_Z:XDATA:NOROOT(0)
        DATA8
//  243 static afAddrType_t Motor_addr;
Motor_addr:
        DS 12
        REQUIRE __INIT_XDATA_Z
//  244 
//  245 /*消息发送数组*/

        RSEG XDATA_Z:XDATA:NOROOT(0)
        DATA8
//  246 byte Coordinator_Msg[MSG_MAX_LEN];
Coordinator_Msg:
        DS 102
        REQUIRE __INIT_XDATA_Z
//  247 
//  248 
//  249 /*3.19 协议栈中有但暂时不知道要他们干嘛的东西*/
//  250 /*3.21 现在我会了！！！*/
//  251 /*3.22 那些没用！删掉了！*/
//  252 //static uint8 Smart_home_MsgID;

        RSEG XDATA_Z:XDATA:NOROOT(0)
        DATA8
//  253 static uint8 RelayTransID;  // This is the unique message ID (counter)
RelayTransID:
        DS 1
        REQUIRE __INIT_XDATA_Z

        RSEG XDATA_Z:XDATA:NOROOT(0)
        DATA8
//  254 static uint8 MotorTransID;  // This is the unique message ID (counter)
MotorTransID:
        DS 1
        REQUIRE __INIT_XDATA_Z
//  255 
//  256 /*********************************************************************
//  257  * LOCAL FUNCTIONS
//  258  */
//  259 
//  260 static void Smart_home_ProcessZDOMsgs( zdoIncomingMsg_t *inMsg );
//  261 //static void Smart_home_Key_add(uint8 Ctrlcase);
//  262 static void Smart_home_HandleKeys( byte shift, byte keys );
//  263 static void Smart_home_ProcessMSGCmd( afIncomingMSGPacket_t *pkt );
//  264 static void Smart_home_Device_check(void);
//  265 static void Smart_home_Relay_Ctl(uint8 cmd);
//  266 static void Smart_home_Motor_Ctl(uint8 cmd,uint8 speed);
//  267 static void Smart_home_Display(void);
//  268 static void Smart_home_Motor_cmd(int8 speed);
//  269 
//  270 /*********************************************************************
//  271  * @fn      Smart_home_Init
//  272  *
//  273  * @brief   This is called during OSAL tasks' initialization.
//  274  *
//  275  * @param   task_id - the Task ID assigned by OSAL.
//  276  *
//  277  * @return  none
//  278  */

        RSEG BANKED_CODE:CODE:NOROOT(0)
//  279 void Smart_home_Init( uint8 task_id )
Smart_home_Init:
        CFI Block cfiBlock0 Using cfiCommon0
        CFI Function Smart_home_Init
        CODE
//  280 {
        FUNCALL Smart_home_Init, afRegister
        LOCFRAME ISTACK, 0, STACK
        LOCFRAME PSTACK, 0, STACK
        LOCFRAME XSTACK, 38, STACK
        LOCFRAME IOVERLAY, 0, STATIC
        LOCFRAME DOVERLAY, 0, STATIC
        ARGFRAME ISTACK, 0, STACK
        ARGFRAME PSTACK, 0, STACK
        ARGFRAME XSTACK, 38, STACK
        ARGFRAME IOVERLAY, 0, STATIC
        ARGFRAME DOVERLAY, 0, STATIC
        FUNCALL Smart_home_Init, RegisterForKeys
        LOCFRAME ISTACK, 0, STACK
        LOCFRAME PSTACK, 0, STACK
        LOCFRAME XSTACK, 38, STACK
        LOCFRAME IOVERLAY, 0, STATIC
        LOCFRAME DOVERLAY, 0, STATIC
        ARGFRAME ISTACK, 0, STACK
        ARGFRAME PSTACK, 0, STACK
        ARGFRAME XSTACK, 38, STACK
        ARGFRAME IOVERLAY, 0, STATIC
        ARGFRAME DOVERLAY, 0, STATIC
        FUNCALL Smart_home_Init, HalUARTOpen
        LOCFRAME ISTACK, 0, STACK
        LOCFRAME PSTACK, 0, STACK
        LOCFRAME XSTACK, 38, STACK
        LOCFRAME IOVERLAY, 0, STATIC
        LOCFRAME DOVERLAY, 0, STATIC
        ARGFRAME ISTACK, 0, STACK
        ARGFRAME PSTACK, 0, STACK
        ARGFRAME XSTACK, 38, STACK
        ARGFRAME IOVERLAY, 0, STATIC
        ARGFRAME DOVERLAY, 0, STATIC
        FUNCALL Smart_home_Init, HalLcdWriteString
        LOCFRAME ISTACK, 0, STACK
        LOCFRAME PSTACK, 0, STACK
        LOCFRAME XSTACK, 38, STACK
        LOCFRAME IOVERLAY, 0, STATIC
        LOCFRAME DOVERLAY, 0, STATIC
        ARGFRAME ISTACK, 0, STACK
        ARGFRAME PSTACK, 0, STACK
        ARGFRAME XSTACK, 38, STACK
        ARGFRAME IOVERLAY, 0, STATIC
        ARGFRAME DOVERLAY, 0, STATIC
        FUNCALL Smart_home_Init, ZDO_RegisterForZDOMsg
        LOCFRAME ISTACK, 0, STACK
        LOCFRAME PSTACK, 0, STACK
        LOCFRAME XSTACK, 38, STACK
        LOCFRAME IOVERLAY, 0, STATIC
        LOCFRAME DOVERLAY, 0, STATIC
        ARGFRAME ISTACK, 0, STACK
        ARGFRAME PSTACK, 0, STACK
        ARGFRAME XSTACK, 38, STACK
        ARGFRAME IOVERLAY, 0, STATIC
        ARGFRAME DOVERLAY, 0, STATIC
        FUNCALL Smart_home_Init, ZDO_RegisterForZDOMsg
        LOCFRAME ISTACK, 0, STACK
        LOCFRAME PSTACK, 0, STACK
        LOCFRAME XSTACK, 38, STACK
        LOCFRAME IOVERLAY, 0, STATIC
        LOCFRAME DOVERLAY, 0, STATIC
        ARGFRAME ISTACK, 0, STACK
        ARGFRAME PSTACK, 0, STACK
        ARGFRAME XSTACK, 38, STACK
        ARGFRAME IOVERLAY, 0, STATIC
        ARGFRAME DOVERLAY, 0, STATIC
        FUNCALL Smart_home_Init, osal_start_timerEx
        LOCFRAME ISTACK, 0, STACK
        LOCFRAME PSTACK, 0, STACK
        LOCFRAME XSTACK, 38, STACK
        LOCFRAME IOVERLAY, 0, STATIC
        LOCFRAME DOVERLAY, 0, STATIC
        ARGFRAME ISTACK, 0, STACK
        ARGFRAME PSTACK, 0, STACK
        ARGFRAME XSTACK, 38, STACK
        ARGFRAME IOVERLAY, 0, STATIC
        ARGFRAME DOVERLAY, 0, STATIC
        FUNCALL Smart_home_Init, osal_start_timerEx
        LOCFRAME ISTACK, 0, STACK
        LOCFRAME PSTACK, 0, STACK
        LOCFRAME XSTACK, 38, STACK
        LOCFRAME IOVERLAY, 0, STATIC
        LOCFRAME DOVERLAY, 0, STATIC
        ARGFRAME ISTACK, 0, STACK
        ARGFRAME PSTACK, 0, STACK
        ARGFRAME XSTACK, 38, STACK
        ARGFRAME IOVERLAY, 0, STATIC
        ARGFRAME DOVERLAY, 0, STATIC
        FUNCALL Smart_home_Init, NLME_PermitJoiningRequest
        LOCFRAME ISTACK, 0, STACK
        LOCFRAME PSTACK, 0, STACK
        LOCFRAME XSTACK, 38, STACK
        LOCFRAME IOVERLAY, 0, STATIC
        LOCFRAME DOVERLAY, 0, STATIC
        ARGFRAME ISTACK, 0, STACK
        ARGFRAME PSTACK, 0, STACK
        ARGFRAME XSTACK, 38, STACK
        ARGFRAME IOVERLAY, 0, STATIC
        ARGFRAME DOVERLAY, 0, STATIC
        FUNCALL Smart_home_Init, HalLedSet
        LOCFRAME ISTACK, 0, STACK
        LOCFRAME PSTACK, 0, STACK
        LOCFRAME XSTACK, 38, STACK
        LOCFRAME IOVERLAY, 0, STATIC
        LOCFRAME DOVERLAY, 0, STATIC
        ARGFRAME ISTACK, 0, STACK
        ARGFRAME PSTACK, 0, STACK
        ARGFRAME XSTACK, 38, STACK
        ARGFRAME IOVERLAY, 0, STATIC
        ARGFRAME DOVERLAY, 0, STATIC
        MOV     A,#-0x9
        LCALL   ?BANKED_ENTER_XDATA
        CFI DPH0 load(1, XDATA, add(CFA_XSP16, literal(-1)))
        CFI DPL0 load(1, XDATA, add(CFA_XSP16, literal(-2)))
        CFI ?BRET_EXT load(1, XDATA, add(CFA_XSP16, literal(-3)))
        CFI ?RET_HIGH load(1, XDATA, add(CFA_XSP16, literal(-4)))
        CFI ?RET_LOW load(1, XDATA, add(CFA_XSP16, literal(-5)))
        CFI R7 load(1, XDATA, add(CFA_XSP16, literal(-6)))
        CFI V0 load(1, XDATA, add(CFA_XSP16, literal(-7)))
        CFI VB load(1, XDATA, add(CFA_XSP16, literal(-8)))
        CFI R6 load(1, XDATA, add(CFA_XSP16, literal(-9)))
        CFI CFA_SP SP+0
        CFI CFA_XSP16 add(XSP16, 9)
        ; Saved register size: 9
        ; Auto size: 29
        MOV     A,#-0x1d
        LCALL   ?ALLOC_XSTACK8
        CFI CFA_XSP16 add(XSP16, 38)
        MOV     A,R1
        MOV     R6,A
//  281   halUARTCfg_t uartConfig;
//  282   uint8 DeviceNum;                                    //DeviceList初始化用变量
//  283 
//  284   Smart_home_TaskID = task_id;
        MOV     DPTR,#Smart_home_TaskID
        MOVX    @DPTR,A
//  285   MotorTransID = 0;
        MOV     DPTR,#MotorTransID
        CLR     A
        MOVX    @DPTR,A
//  286   RelayTransID = 0;
        MOV     DPTR,#RelayTransID
        MOVX    @DPTR,A
//  287 
//  288   afRegister( (endPointDesc_t *)&Smart_home_epDesc );
        ; Setup parameters for call to function afRegister
        MOV     R2,#Smart_home_epDesc & 0xff
        MOV     R3,#(Smart_home_epDesc >> 8) & 0xff
        LCALL   ??afRegister?relay
//  289 
//  290   RegisterForKeys( task_id );
        ; Setup parameters for call to function RegisterForKeys
        MOV     A,R6
        MOV     R1,A
        LCALL   ??RegisterForKeys?relay
//  291 
//  292   uartConfig.configured           = TRUE;              // 2x30 don't care - see uart driver.
        MOV     DPL,?XSP + 0
        MOV     DPH,?XSP + 1
        MOV     A,#0x1
        MOVX    @DPTR,A
//  293   uartConfig.baudRate             = SMART_HOME_BAUD;
        LCALL   ?XSTACK_DISP0_8
        MOV     A,#0x2
        MOVX    @DPTR,A
//  294   uartConfig.flowControl          = TRUE;
        LCALL   ?XSTACK_DISP0_8
        MOV     A,#0x1
        MOVX    @DPTR,A
//  295   uartConfig.flowControlThreshold = SMART_HOME_THRESH; // 2x30 don't care - see uart driver.
        MOV     A,#0x3
        LCALL   ?XSTACK_DISP0_8
        MOV     A,#0x40
        LCALL   ??Subroutine28_0 & 0xFFFF
//  296   uartConfig.rx.maxBufSize        = SMART_HOME_RX_SZ;  // 2x30 don't care - see uart driver.
??CrossCallReturnLabel_61:
        MOV     A,#0xa
        LCALL   ?XSTACK_DISP0_8
        LCALL   ?Subroutine9 & 0xFFFF
//  297   uartConfig.tx.maxBufSize        = SMART_HOME_TX_SZ;  // 2x30 don't care - see uart driver.
??CrossCallReturnLabel_70:
        MOV     A,#0x12
        LCALL   ?XSTACK_DISP0_8
        LCALL   ?Subroutine9 & 0xFFFF
//  298   uartConfig.idleTimeout          = SMART_HOME_IDLE;   // 2x30 don't care - see uart driver.
??CrossCallReturnLabel_71:
        MOV     A,#0x5
        LCALL   ?XSTACK_DISP0_8
        MOV     A,#0x6
        MOVX    @DPTR,A
//  299   uartConfig.intEnable            = TRUE;              // 2x30 don't care - see uart driver.
        MOV     A,#0x16
        LCALL   ?XSTACK_DISP0_8
        MOV     A,#0x1
        MOVX    @DPTR,A
//  300   //uartConfig.callBackFunc         = Smart_home_CallBack;
//  301   HalUARTOpen (SMART_HOME_PORT, &uartConfig);
        ; Setup parameters for call to function HalUARTOpen
        MOV     DPL,?XSP + 0
        MOV     DPH,?XSP + 1
        MOV     R2,DPL
        MOV     R3,DPH
        MOV     R1,#0x0
        LCALL   ??HalUARTOpen?relay
//  302 
//  303 #if defined ( LCD_SUPPORTED )
//  304   HalLcdWriteString( "Smart_home", HAL_LCD_LINE_2 );
        ; Setup parameters for call to function HalLcdWriteString
        MOV     R1,#0x2
        MOV     R2,#`?<Constant "Smart_home">` & 0xff
        MOV     R3,#(`?<Constant "Smart_home">` >> 8) & 0xff
        LCALL   ??HalLcdWriteString?relay
//  305 #endif
//  306   
//  307   ZDO_RegisterForZDOMsg( Smart_home_TaskID, End_Device_Bind_rsp );
        ; Setup parameters for call to function ZDO_RegisterForZDOMsg
        MOV     R2,#0x20
        MOV     R3,#-0x80
        MOV     DPTR,#Smart_home_TaskID
        MOVX    A,@DPTR
        MOV     R1,A
        LCALL   ??ZDO_RegisterForZDOMsg?relay
//  308   ZDO_RegisterForZDOMsg( Smart_home_TaskID, Match_Desc_rsp );
        ; Setup parameters for call to function ZDO_RegisterForZDOMsg
        MOV     R2,#0x6
        MOV     R3,#-0x80
        MOV     DPTR,#Smart_home_TaskID
        MOVX    A,@DPTR
        MOV     R1,A
        LCALL   ??ZDO_RegisterForZDOMsg?relay
//  309   
//  310   //3.22 显示延时
//  311   osal_start_timerEx( Smart_home_TaskID, SMART_HOME_DISPLAY_EVT, 
//  312                       SMART_HOME_DEVICE_DISPLAY_DELAY);
        ; Setup parameters for call to function osal_start_timerEx
        MOV     R4,#0x10
        MOV     R5,#0x27
        MOV     R2,#0x10
        LCALL   ??Subroutine27_0 & 0xFFFF
//  313   
//  314   
//  315   //3.14 打开设备在线检测，第一次开启检测延时较长时间
//  316   osal_start_timerEx( Smart_home_TaskID, SMART_HOME_DEVICE_CHECK_EVT, 
//  317                       SMART_HOME_DEVICE_CHECK_DELAY);
??CrossCallReturnLabel_59:
        ; Setup parameters for call to function osal_start_timerEx
        MOV     R4,#-0x78
        MOV     R5,#0x13
        LCALL   ?Subroutine13 & 0xFFFF
//  318  
//  319   //3.13 关闭LED灯(D4)，表示协调器默认不允许组网
//  320   NLME_PermitJoiningRequest(0x00);
??CrossCallReturnLabel_57:
        ; Setup parameters for call to function NLME_PermitJoiningRequest
        MOV     R1,#0x0
        LCALL   ?Subroutine20 & 0xFFFF
//  321   HalLedSet(HAL_LED_1, HAL_LED_MODE_OFF);
//  322   
//  323   //3.21 初始化页面为0 第一页
//  324   //LCD_Page=0;
//  325   
//  326   //3.13 设备离线状态检测初始化，初始化为离线
//  327   //3.21 修改为DeviceList方式，初始化DeviceCnt
//  328   for(DeviceNum=1;DeviceNum<Smart_home_MAX_INCLUSTERS;DeviceNum++) //只初始化终端
??CrossCallReturnLabel_43:
        MOV     R5,#0x1
//  329   {
//  330     DeviceList[DeviceNum].deviceid = DeviceNum;
??Smart_home_Init_0:
        MOV     DPL,R5
        MOV     R0,DPL
        MOV     A,R0
        MOV     B,#0x7
        MUL     AB
        MOV     R2,A
        MOV     R3,B
        MOV     A,#DeviceList & 0xff
        ADD     A,R2
        MOV     DPL,A
        MOV     A,#(DeviceList >> 8) & 0xff
        ADDC    A,R3
        MOV     DPH,A
        MOV     A,R5
        MOVX    @DPTR,A
//  331     DeviceList[DeviceNum].deviceStatus = DEVICE_OFFLINE;
        INC     DPTR
        MOV     A,#0x2
        MOVX    @DPTR,A
//  332     DeviceCnt[DeviceNum]=0;
        MOV     A,#DeviceCnt & 0xff
        ADD     A,R0
        MOV     DPL,A
        MOV     A,#(DeviceCnt >> 8) & 0xff
        ADDC    A,#0x0
        MOV     DPH,A
        CLR     A
        MOVX    @DPTR,A
//  333   }
        INC     R5
        MOV     A,R5
        CLR     C
        SUBB    A,#0x9
        JC      ??Smart_home_Init_0
//  334 }
        MOV     A,#0x1d
        LCALL   ?DEALLOC_XSTACK8
        CFI EndBlock cfiBlock0
        REQUIRE ?Subroutine0
        ; // Fall through to label ?Subroutine0

        RSEG BANKED_CODE:CODE:NOROOT(0)
?Subroutine0:
        CFI Block cfiBlock1 Using cfiCommon0
        CFI NoFunction
        CFI CFA_SP SP+0
        CFI CFA_XSP16 add(XSP16, 9)
        CFI VB load(1, XDATA, add(CFA_XSP16, literal(-8)))
        CFI DPL0 load(1, XDATA, add(CFA_XSP16, literal(-2)))
        CFI DPH0 load(1, XDATA, add(CFA_XSP16, literal(-1)))
        CFI R6 load(1, XDATA, add(CFA_XSP16, literal(-9)))
        CFI R7 load(1, XDATA, add(CFA_XSP16, literal(-6)))
        CFI V0 load(1, XDATA, add(CFA_XSP16, literal(-7)))
        CFI ?BRET_EXT load(1, XDATA, add(CFA_XSP16, literal(-3)))
        CFI ?RET_HIGH load(1, XDATA, add(CFA_XSP16, literal(-4)))
        CFI ?RET_LOW load(1, XDATA, add(CFA_XSP16, literal(-5)))
        MOV     R7,#0x1
        LJMP    ?BANKED_LEAVE_XDATA
        CFI EndBlock cfiBlock1
//  335 
//  336 /*********************************************************************
//  337  * @fn      Smart_home_ProcessEvent
//  338  *
//  339  * @brief   Generic Application Task event processor.
//  340  *
//  341  * @param   task_id  - The OSAL assigned task ID.
//  342  * @param   events   - Bit map of events to process.
//  343  *
//  344  * @return  Event flags of all unprocessed events.
//  345  */

        RSEG BANKED_CODE:CODE:NOROOT(0)
//  346 UINT16 Smart_home_ProcessEvent( uint8 task_id, UINT16 events )
Smart_home_ProcessEvent:
        CFI Block cfiBlock2 Using cfiCommon0
        CFI Function Smart_home_ProcessEvent
        CODE
//  347 {
        FUNCALL Smart_home_ProcessEvent, Smart_home_ProcessMSGCmd
        LOCFRAME ISTACK, 0, STACK
        LOCFRAME PSTACK, 0, STACK
        LOCFRAME XSTACK, 12, STACK
        LOCFRAME IOVERLAY, 0, STATIC
        LOCFRAME DOVERLAY, 0, STATIC
        ARGFRAME ISTACK, 0, STACK
        ARGFRAME PSTACK, 0, STACK
        ARGFRAME XSTACK, 12, STACK
        ARGFRAME IOVERLAY, 0, STATIC
        ARGFRAME DOVERLAY, 0, STATIC
        FUNCALL Smart_home_ProcessEvent, osal_msg_deallocate
        LOCFRAME ISTACK, 0, STACK
        LOCFRAME PSTACK, 0, STACK
        LOCFRAME XSTACK, 12, STACK
        LOCFRAME IOVERLAY, 0, STATIC
        LOCFRAME DOVERLAY, 0, STATIC
        ARGFRAME ISTACK, 0, STACK
        ARGFRAME PSTACK, 0, STACK
        ARGFRAME XSTACK, 12, STACK
        ARGFRAME IOVERLAY, 0, STATIC
        ARGFRAME DOVERLAY, 0, STATIC
        FUNCALL Smart_home_ProcessEvent, osal_msg_receive
        LOCFRAME ISTACK, 0, STACK
        LOCFRAME PSTACK, 0, STACK
        LOCFRAME XSTACK, 12, STACK
        LOCFRAME IOVERLAY, 0, STATIC
        LOCFRAME DOVERLAY, 0, STATIC
        ARGFRAME ISTACK, 0, STACK
        ARGFRAME PSTACK, 0, STACK
        ARGFRAME XSTACK, 12, STACK
        ARGFRAME IOVERLAY, 0, STATIC
        ARGFRAME DOVERLAY, 0, STATIC
        FUNCALL Smart_home_ProcessEvent, osal_msg_receive
        LOCFRAME ISTACK, 0, STACK
        LOCFRAME PSTACK, 0, STACK
        LOCFRAME XSTACK, 12, STACK
        LOCFRAME IOVERLAY, 0, STATIC
        LOCFRAME DOVERLAY, 0, STATIC
        ARGFRAME ISTACK, 0, STACK
        ARGFRAME PSTACK, 0, STACK
        ARGFRAME XSTACK, 12, STACK
        ARGFRAME IOVERLAY, 0, STATIC
        ARGFRAME DOVERLAY, 0, STATIC
        FUNCALL Smart_home_ProcessEvent, Smart_home_HandleKeys
        LOCFRAME ISTACK, 0, STACK
        LOCFRAME PSTACK, 0, STACK
        LOCFRAME XSTACK, 12, STACK
        LOCFRAME IOVERLAY, 0, STATIC
        LOCFRAME DOVERLAY, 0, STATIC
        ARGFRAME ISTACK, 0, STACK
        ARGFRAME PSTACK, 0, STACK
        ARGFRAME XSTACK, 12, STACK
        ARGFRAME IOVERLAY, 0, STATIC
        ARGFRAME DOVERLAY, 0, STATIC
        FUNCALL Smart_home_ProcessEvent, osal_start_timerEx
        LOCFRAME ISTACK, 0, STACK
        LOCFRAME PSTACK, 0, STACK
        LOCFRAME XSTACK, 12, STACK
        LOCFRAME IOVERLAY, 0, STATIC
        LOCFRAME DOVERLAY, 0, STATIC
        ARGFRAME ISTACK, 0, STACK
        ARGFRAME PSTACK, 0, STACK
        ARGFRAME XSTACK, 12, STACK
        ARGFRAME IOVERLAY, 0, STATIC
        ARGFRAME DOVERLAY, 0, STATIC
        FUNCALL Smart_home_ProcessEvent, Smart_home_Display
        LOCFRAME ISTACK, 0, STACK
        LOCFRAME PSTACK, 0, STACK
        LOCFRAME XSTACK, 12, STACK
        LOCFRAME IOVERLAY, 0, STATIC
        LOCFRAME DOVERLAY, 0, STATIC
        ARGFRAME ISTACK, 0, STACK
        ARGFRAME PSTACK, 0, STACK
        ARGFRAME XSTACK, 12, STACK
        ARGFRAME IOVERLAY, 0, STATIC
        ARGFRAME DOVERLAY, 0, STATIC
        FUNCALL Smart_home_ProcessEvent, osal_start_timerEx
        LOCFRAME ISTACK, 0, STACK
        LOCFRAME PSTACK, 0, STACK
        LOCFRAME XSTACK, 12, STACK
        LOCFRAME IOVERLAY, 0, STATIC
        LOCFRAME DOVERLAY, 0, STATIC
        ARGFRAME ISTACK, 0, STACK
        ARGFRAME PSTACK, 0, STACK
        ARGFRAME XSTACK, 12, STACK
        ARGFRAME IOVERLAY, 0, STATIC
        ARGFRAME DOVERLAY, 0, STATIC
        MOV     A,#-0xc
        LCALL   ?BANKED_ENTER_XDATA
        CFI DPH0 load(1, XDATA, add(CFA_XSP16, literal(-1)))
        CFI DPL0 load(1, XDATA, add(CFA_XSP16, literal(-2)))
        CFI ?BRET_EXT load(1, XDATA, add(CFA_XSP16, literal(-3)))
        CFI ?RET_HIGH load(1, XDATA, add(CFA_XSP16, literal(-4)))
        CFI ?RET_LOW load(1, XDATA, add(CFA_XSP16, literal(-5)))
        CFI R7 load(1, XDATA, add(CFA_XSP16, literal(-6)))
        CFI V3 load(1, XDATA, add(CFA_XSP16, literal(-7)))
        CFI V2 load(1, XDATA, add(CFA_XSP16, literal(-8)))
        CFI V1 load(1, XDATA, add(CFA_XSP16, literal(-9)))
        CFI V0 load(1, XDATA, add(CFA_XSP16, literal(-10)))
        CFI VB load(1, XDATA, add(CFA_XSP16, literal(-11)))
        CFI R6 load(1, XDATA, add(CFA_XSP16, literal(-12)))
        CFI CFA_SP SP+0
        CFI CFA_XSP16 add(XSP16, 12)
        ; Saved register size: 12
        ; Auto size: 0
        MOV     A,R2
        MOV     R6,A
        MOV     A,R3
        MOV     R7,A
//  348   (void)task_id;  // Intentionally unreferenced parameter
//  349   afDataConfirm_t *afDataConfirm;
//  350   
//  351   //3.13 数据确认消息字段
//  352   ZStatus_t sentStatus;
//  353   byte sentEP;
//  354   
//  355   if ( events & SYS_EVENT_MSG )   //3.13 系统消息事件
        ANL     A,#0x80
        JNZ     ??Smart_home_ProcessEvent_0
//  356   {
//  357     afIncomingMSGPacket_t *MSGpkt;
//  358 
//  359     while ( (MSGpkt = (afIncomingMSGPacket_t *)osal_msg_receive( Smart_home_TaskID )) )
//  360     {
//  361       switch ( MSGpkt->hdr.event )
//  362       {
//  363         case ZDO_CB_MSG:           //3.13 ZDO传入消息回调
//  364           Smart_home_ProcessZDOMsgs( (zdoIncomingMsg_t *)MSGpkt );
//  365           break;
//  366           
//  367         case KEY_CHANGE:           //3.13 按键事件
//  368           Smart_home_HandleKeys( ((keyChange_t *)MSGpkt)->state, ((keyChange_t *)MSGpkt)->keys );
//  369           break;
//  370          
//  371         case AF_DATA_CONFIRM_CMD:
//  372         //3.13 接收到此消息，作为对发送的数据包的确认。
//  373         //状态为ZStatus_t类型[在ZComDef.h中定义]
//  374         //消息字段在AF.h中定义
//  375           afDataConfirm = (afDataConfirm_t *)MSGpkt;
//  376           sentEP = afDataConfirm->endpoint;
//  377           sentStatus = afDataConfirm->hdr.status;
//  378  
//  379           if ( (ZSuccess == sentStatus) &&
//  380                (Smart_home_epDesc.endPoint == sentEP) )
//  381           {  
//  382             //3.13 在消息发送确认成功后绿灯闪烁一下
//  383             //HalLedSet(HAL_LED_1, HAL_LED_MODE_BLINK);
//  384           }
//  385           else
//  386           {
//  387             //3.13 红灯闪烁一下  硬件还没实现
//  388             //HalLedSet(HAL_LED_2, HAL_LED_MODE_BLINK);
//  389           }
//  390           break;
//  391           
//  392         case AF_INCOMING_MSG_CMD:   //3.13 消息传入处理
//  393           //3.13 在消息接收确认成功后绿灯闪烁一下
//  394           Smart_home_ProcessMSGCmd( MSGpkt );
//  395           break;
//  396         default:
//  397           break;
//  398       }
//  399 
//  400       osal_msg_deallocate( (uint8 *)MSGpkt );
//  401       
//  402       // Next
//  403       MSGpkt = (afIncomingMSGPacket_t *)osal_msg_receive( Smart_home_TaskID );
//  404     }
//  405     
//  406     // Squash compiler warnings until values are used.
//  407     (void)sentStatus;
//  408     (void)sentEP;
//  409     
//  410     return ( events ^ SYS_EVENT_MSG );
//  411   }
//  412 
//  413   if ( events & SMART_HOME_SEND_MSG_EVT )
        MOV     A,R6
        MOV     C,0xE0 /* A   */.0
        JNC     ??Smart_home_ProcessEvent_1
//  414   {
//  415     //Smart_home_Send();
//  416     return ( events ^ SMART_HOME_SEND_MSG_EVT );
        XRL     A,#0x1
        MOV     R2,A
        LJMP    ??Smart_home_ProcessEvent_2 & 0xFFFF
//  417   }
??Smart_home_ProcessEvent_3:
        ; Setup parameters for call to function Smart_home_ProcessMSGCmd
        LCALL   ??Smart_home_ProcessMSGCmd?relay
??Smart_home_ProcessEvent_4:
        ; Setup parameters for call to function osal_msg_deallocate
        MOV     R2,?V0 + 0
        MOV     R3,?V0 + 1
        LCALL   ??osal_msg_deallocate?relay
        ; Setup parameters for call to function osal_msg_receive
        MOV     DPTR,#Smart_home_TaskID
        MOVX    A,@DPTR
        MOV     R1,A
        LCALL   ??osal_msg_receive?relay
??Smart_home_ProcessEvent_0:
        ; Setup parameters for call to function osal_msg_receive
        MOV     DPTR,#Smart_home_TaskID
        MOVX    A,@DPTR
        MOV     R1,A
        LCALL   ??osal_msg_receive?relay
        MOV     ?V0 + 0,R2
        MOV     ?V0 + 1,R3
        MOV     A,R2
        ORL     A,?V0 + 1
        JZ      ??Smart_home_ProcessEvent_5
        MOV     DPL,R2
        MOV     DPH,R3
        MOVX    A,@DPTR
        ADD     A,#-0x1a
        JZ      ??Smart_home_ProcessEvent_3
        ADD     A,#0x5a
        JNZ     ??Smart_home_ProcessEvent_4
        ; Setup parameters for call to function Smart_home_HandleKeys
        INC     DPTR
        INC     DPTR
        INC     DPTR
        MOVX    A,@DPTR
        MOV     R2,A
        MOV     DPL,?V0 + 0
        MOV     DPH,R3
        INC     DPTR
        INC     DPTR
        MOVX    A,@DPTR
        MOV     R1,A
        LCALL   ??Smart_home_HandleKeys?relay
        SJMP    ??Smart_home_ProcessEvent_4
??Smart_home_ProcessEvent_5:
        MOV     A,R6
        MOV     R2,A
        MOV     A,R7
        XRL     A,#0x80
??Smart_home_ProcessEvent_6:
        MOV     R3,A
        LJMP    ??Smart_home_ProcessEvent_2 & 0xFFFF
//  418   
//  419   if ( events & SMART_HOME_DEVICE_CHECK_EVT )  //终端设备检查事件
??Smart_home_ProcessEvent_1:
        ANL     A,#0x80
        JNZ     $+5
        LJMP    ??Smart_home_ProcessEvent_7 & 0xFFFF
//  420   {
//  421     Smart_home_Device_check();  //调用终端设备检查函数
        MOV     DPTR,#??DeviceID
        MOV     A,#0x1
        MOVX    @DPTR,A
??Smart_home_ProcessEvent_8:
        MOVX    A,@DPTR
        MOV     R2,A
        LCALL   ?Subroutine21 & 0xFFFF
??CrossCallReturnLabel_45:
        MOVX    A,@DPTR
        MOV     DPTR,#??Device_status
        MOVX    @DPTR,A
        MOV     A,#DeviceCnt & 0xff
        ADD     A,R2
        MOV     R0,A
        MOV     A,#(DeviceCnt >> 8) & 0xff
        ADDC    A,#0x0
        MOV     R1,A
        MOV     DPTR,#??counttmp
        MOV     A,R0
        MOVX    @DPTR,A
        INC     DPTR
        MOV     A,R1
        MOVX    @DPTR,A
        MOV     DPTR,#??Device_status
        MOVX    A,@DPTR
        XRL     A,#0x1
        MOV     DPTR,#??counttmp + 1
        JZ      ??Smart_home_ProcessEvent_9
        LCALL   ?Subroutine14 & 0xFFFF
??CrossCallReturnLabel_27:
        MOVX    A,@DPTR
        INC     A
        SJMP    ??Smart_home_ProcessEvent_10
??Smart_home_ProcessEvent_9:
        LCALL   ?Subroutine14 & 0xFFFF
??CrossCallReturnLabel_28:
        CLR     A
        MOVX    @DPTR,A
        MOV     DPTR,#??Device_status
??Smart_home_ProcessEvent_10:
        MOVX    @DPTR,A
        MOV     DPTR,#??counttmp
        MOVX    A,@DPTR
        MOV     R0,A
        INC     DPTR
        LCALL   ?Subroutine14 & 0xFFFF
??CrossCallReturnLabel_29:
        MOVX    A,@DPTR
        CLR     C
        SUBB    A,#0x6
        JC      ??Smart_home_ProcessEvent_11
        MOV     DPTR,#??counttmp + 1
        LCALL   ?Subroutine14 & 0xFFFF
??CrossCallReturnLabel_30:
        MOV     A,#0x5
        MOVX    @DPTR,A
        MOV     DPTR,#??Device_status
        MOV     A,#0x2
        MOVX    @DPTR,A
??Smart_home_ProcessEvent_11:
        MOV     DPTR,#??Device_status
        MOVX    A,@DPTR
        PUSH    A
        CFI CFA_SP SP+-1
        MOV     DPTR,#??DeviceID
        MOVX    A,@DPTR
        LCALL   ?Subroutine21 & 0xFFFF
??CrossCallReturnLabel_46:
        POP     A
        CFI CFA_SP SP+0
        MOVX    @DPTR,A
        MOV     DPTR,#??DeviceID
        MOVX    A,@DPTR
        INC     A
        MOVX    @DPTR,A
        CLR     C
        SUBB    A,#0x9
        JC      ??Smart_home_ProcessEvent_8
//  422     
//  423     osal_start_timerEx(Smart_home_TaskID,SMART_HOME_DEVICE_CHECK_EVT,
//  424                        DEVICE_CHECK_TIMER);
        ; Setup parameters for call to function osal_start_timerEx
        MOV     R4,#-0x48
        MOV     R5,#0xb
        LCALL   ?Subroutine13 & 0xFFFF
//  425     return (events ^ SMART_HOME_DEVICE_CHECK_EVT);
??CrossCallReturnLabel_58:
        MOV     A,R6
        XRL     A,#0x80
??Smart_home_ProcessEvent_12:
        MOV     R2,A
        MOV     A,R7
        LJMP    ??Smart_home_ProcessEvent_6 & 0xFFFF
//  426   }
//  427   
//  428   
//  429   if( events & SMART_HOME_DISPLAY_EVT )
??Smart_home_ProcessEvent_7:
        MOV     A,R6
        ANL     A,#0x10
        JZ      ??Smart_home_ProcessEvent_13
//  430   {
//  431     Smart_home_Display();
        ; Setup parameters for call to function Smart_home_Display
        LCALL   ??Smart_home_Display?relay
//  432     //周期性刷新
//  433     osal_start_timerEx( Smart_home_TaskID,events & SMART_HOME_DISPLAY_EVT,LCD_DISPLAY_TIMER);
        ; Setup parameters for call to function osal_start_timerEx
        MOV     R4,#-0x30
        MOV     R5,#0x7
        MOV     A,R6
        ANL     A,#0x10
        MOV     R2,A
        LCALL   ??Subroutine27_0 & 0xFFFF
//  434     return (events ^ SMART_HOME_DISPLAY_EVT);
??CrossCallReturnLabel_60:
        MOV     A,R6
        XRL     A,#0x10
        SJMP    ??Smart_home_ProcessEvent_12
//  435   }
//  436 
//  437   return ( 0 );  // Discard unknown events.
??Smart_home_ProcessEvent_13:
        MOV     R2,#0x0
        MOV     R3,#0x0
??Smart_home_ProcessEvent_2:
        MOV     R7,#0x4
        LJMP    ?BANKED_LEAVE_XDATA
        CFI EndBlock cfiBlock2
//  438 }

        RSEG BANKED_CODE:CODE:NOROOT(0)
?Subroutine21:
        CFI Block cfiCond3 Using cfiCommon0
        CFI NoFunction
        CFI Conditional ??CrossCallReturnLabel_45
        CFI R6 load(1, XDATA, add(CFA_XSP16, literal(-12)))
        CFI VB load(1, XDATA, add(CFA_XSP16, literal(-11)))
        CFI V0 load(1, XDATA, add(CFA_XSP16, literal(-10)))
        CFI V1 load(1, XDATA, add(CFA_XSP16, literal(-9)))
        CFI V2 load(1, XDATA, add(CFA_XSP16, literal(-8)))
        CFI V3 load(1, XDATA, add(CFA_XSP16, literal(-7)))
        CFI R7 load(1, XDATA, add(CFA_XSP16, literal(-6)))
        CFI ?RET_LOW load(1, XDATA, add(CFA_XSP16, literal(-5)))
        CFI ?RET_HIGH load(1, XDATA, add(CFA_XSP16, literal(-4)))
        CFI ?BRET_EXT load(1, XDATA, add(CFA_XSP16, literal(-3)))
        CFI DPL0 load(1, XDATA, add(CFA_XSP16, literal(-2)))
        CFI DPH0 load(1, XDATA, add(CFA_XSP16, literal(-1)))
        CFI CFA_SP SP+0
        CFI CFA_XSP16 add(XSP16, 12)
        CFI Block cfiCond4 Using cfiCommon0
        CFI (cfiCond4) NoFunction
        CFI (cfiCond4) Conditional ??CrossCallReturnLabel_46
        CFI (cfiCond4) R6 load(1, XDATA, add(CFA_XSP16, literal(-12)))
        CFI (cfiCond4) VB load(1, XDATA, add(CFA_XSP16, literal(-11)))
        CFI (cfiCond4) V0 load(1, XDATA, add(CFA_XSP16, literal(-10)))
        CFI (cfiCond4) V1 load(1, XDATA, add(CFA_XSP16, literal(-9)))
        CFI (cfiCond4) V2 load(1, XDATA, add(CFA_XSP16, literal(-8)))
        CFI (cfiCond4) V3 load(1, XDATA, add(CFA_XSP16, literal(-7)))
        CFI (cfiCond4) R7 load(1, XDATA, add(CFA_XSP16, literal(-6)))
        CFI (cfiCond4) ?RET_LOW load(1, XDATA, add(CFA_XSP16, literal(-5)))
        CFI (cfiCond4) ?RET_HIGH load(1, XDATA, add(CFA_XSP16, literal(-4)))
        CFI (cfiCond4) ?BRET_EXT load(1, XDATA, add(CFA_XSP16, literal(-3)))
        CFI (cfiCond4) DPL0 load(1, XDATA, add(CFA_XSP16, literal(-2)))
        CFI (cfiCond4) DPH0 load(1, XDATA, add(CFA_XSP16, literal(-1)))
        CFI (cfiCond4) CFA_SP SP+-1
        CFI (cfiCond4) CFA_XSP16 add(XSP16, 12)
        CFI Block cfiPicker5 Using cfiCommon1
        CFI (cfiPicker5) NoFunction
        CFI (cfiPicker5) Picker
        MOV     B,#0x7
        MUL     AB
        MOV     R0,A
        MOV     R1,B
        MOV     A,#(DeviceList + 1) & 0xff
        ADD     A,R0
        MOV     DPL,A
        MOV     A,#((DeviceList + 1) >> 8) & 0xff
        ADDC    A,R1
        MOV     DPH,A
        RET
        CFI EndBlock cfiCond3
        CFI EndBlock cfiCond4
        CFI EndBlock cfiPicker5

        RSEG BANKED_CODE:CODE:NOROOT(0)
?Subroutine14:
        CFI Block cfiCond6 Using cfiCommon0
        CFI NoFunction
        CFI Conditional ??CrossCallReturnLabel_27
        CFI R6 load(1, XDATA, add(CFA_XSP16, literal(-12)))
        CFI VB load(1, XDATA, add(CFA_XSP16, literal(-11)))
        CFI V0 load(1, XDATA, add(CFA_XSP16, literal(-10)))
        CFI V1 load(1, XDATA, add(CFA_XSP16, literal(-9)))
        CFI V2 load(1, XDATA, add(CFA_XSP16, literal(-8)))
        CFI V3 load(1, XDATA, add(CFA_XSP16, literal(-7)))
        CFI R7 load(1, XDATA, add(CFA_XSP16, literal(-6)))
        CFI ?RET_LOW load(1, XDATA, add(CFA_XSP16, literal(-5)))
        CFI ?RET_HIGH load(1, XDATA, add(CFA_XSP16, literal(-4)))
        CFI ?BRET_EXT load(1, XDATA, add(CFA_XSP16, literal(-3)))
        CFI DPL0 load(1, XDATA, add(CFA_XSP16, literal(-2)))
        CFI DPH0 load(1, XDATA, add(CFA_XSP16, literal(-1)))
        CFI CFA_SP SP+0
        CFI CFA_XSP16 add(XSP16, 12)
        CFI Block cfiCond7 Using cfiCommon0
        CFI (cfiCond7) NoFunction
        CFI (cfiCond7) Conditional ??CrossCallReturnLabel_28
        CFI (cfiCond7) R6 load(1, XDATA, add(CFA_XSP16, literal(-12)))
        CFI (cfiCond7) VB load(1, XDATA, add(CFA_XSP16, literal(-11)))
        CFI (cfiCond7) V0 load(1, XDATA, add(CFA_XSP16, literal(-10)))
        CFI (cfiCond7) V1 load(1, XDATA, add(CFA_XSP16, literal(-9)))
        CFI (cfiCond7) V2 load(1, XDATA, add(CFA_XSP16, literal(-8)))
        CFI (cfiCond7) V3 load(1, XDATA, add(CFA_XSP16, literal(-7)))
        CFI (cfiCond7) R7 load(1, XDATA, add(CFA_XSP16, literal(-6)))
        CFI (cfiCond7) ?RET_LOW load(1, XDATA, add(CFA_XSP16, literal(-5)))
        CFI (cfiCond7) ?RET_HIGH load(1, XDATA, add(CFA_XSP16, literal(-4)))
        CFI (cfiCond7) ?BRET_EXT load(1, XDATA, add(CFA_XSP16, literal(-3)))
        CFI (cfiCond7) DPL0 load(1, XDATA, add(CFA_XSP16, literal(-2)))
        CFI (cfiCond7) DPH0 load(1, XDATA, add(CFA_XSP16, literal(-1)))
        CFI (cfiCond7) CFA_SP SP+0
        CFI (cfiCond7) CFA_XSP16 add(XSP16, 12)
        CFI Block cfiCond8 Using cfiCommon0
        CFI (cfiCond8) NoFunction
        CFI (cfiCond8) Conditional ??CrossCallReturnLabel_29
        CFI (cfiCond8) R6 load(1, XDATA, add(CFA_XSP16, literal(-12)))
        CFI (cfiCond8) VB load(1, XDATA, add(CFA_XSP16, literal(-11)))
        CFI (cfiCond8) V0 load(1, XDATA, add(CFA_XSP16, literal(-10)))
        CFI (cfiCond8) V1 load(1, XDATA, add(CFA_XSP16, literal(-9)))
        CFI (cfiCond8) V2 load(1, XDATA, add(CFA_XSP16, literal(-8)))
        CFI (cfiCond8) V3 load(1, XDATA, add(CFA_XSP16, literal(-7)))
        CFI (cfiCond8) R7 load(1, XDATA, add(CFA_XSP16, literal(-6)))
        CFI (cfiCond8) ?RET_LOW load(1, XDATA, add(CFA_XSP16, literal(-5)))
        CFI (cfiCond8) ?RET_HIGH load(1, XDATA, add(CFA_XSP16, literal(-4)))
        CFI (cfiCond8) ?BRET_EXT load(1, XDATA, add(CFA_XSP16, literal(-3)))
        CFI (cfiCond8) DPL0 load(1, XDATA, add(CFA_XSP16, literal(-2)))
        CFI (cfiCond8) DPH0 load(1, XDATA, add(CFA_XSP16, literal(-1)))
        CFI (cfiCond8) CFA_SP SP+0
        CFI (cfiCond8) CFA_XSP16 add(XSP16, 12)
        CFI Block cfiCond9 Using cfiCommon0
        CFI (cfiCond9) NoFunction
        CFI (cfiCond9) Conditional ??CrossCallReturnLabel_30
        CFI (cfiCond9) R6 load(1, XDATA, add(CFA_XSP16, literal(-12)))
        CFI (cfiCond9) VB load(1, XDATA, add(CFA_XSP16, literal(-11)))
        CFI (cfiCond9) V0 load(1, XDATA, add(CFA_XSP16, literal(-10)))
        CFI (cfiCond9) V1 load(1, XDATA, add(CFA_XSP16, literal(-9)))
        CFI (cfiCond9) V2 load(1, XDATA, add(CFA_XSP16, literal(-8)))
        CFI (cfiCond9) V3 load(1, XDATA, add(CFA_XSP16, literal(-7)))
        CFI (cfiCond9) R7 load(1, XDATA, add(CFA_XSP16, literal(-6)))
        CFI (cfiCond9) ?RET_LOW load(1, XDATA, add(CFA_XSP16, literal(-5)))
        CFI (cfiCond9) ?RET_HIGH load(1, XDATA, add(CFA_XSP16, literal(-4)))
        CFI (cfiCond9) ?BRET_EXT load(1, XDATA, add(CFA_XSP16, literal(-3)))
        CFI (cfiCond9) DPL0 load(1, XDATA, add(CFA_XSP16, literal(-2)))
        CFI (cfiCond9) DPH0 load(1, XDATA, add(CFA_XSP16, literal(-1)))
        CFI (cfiCond9) CFA_SP SP+0
        CFI (cfiCond9) CFA_XSP16 add(XSP16, 12)
        CFI Block cfiPicker10 Using cfiCommon1
        CFI (cfiPicker10) NoFunction
        CFI (cfiPicker10) Picker
        MOVX    A,@DPTR
        MOV     DPH,A
        MOV     DPL,R0
        RET
        CFI EndBlock cfiCond6
        CFI EndBlock cfiCond7
        CFI EndBlock cfiCond8
        CFI EndBlock cfiCond9
        CFI EndBlock cfiPicker10

        RSEG BANKED_CODE:CODE:NOROOT(0)
?Subroutine13:
        CFI Block cfiCond11 Using cfiCommon0
        CFI NoFunction
        CFI Conditional ??CrossCallReturnLabel_57
        CFI R6 load(1, XDATA, add(CFA_XSP16, literal(-9)))
        CFI VB load(1, XDATA, add(CFA_XSP16, literal(-8)))
        CFI V0 load(1, XDATA, add(CFA_XSP16, literal(-7)))
        CFI R7 load(1, XDATA, add(CFA_XSP16, literal(-6)))
        CFI ?RET_LOW load(1, XDATA, add(CFA_XSP16, literal(-5)))
        CFI ?RET_HIGH load(1, XDATA, add(CFA_XSP16, literal(-4)))
        CFI ?BRET_EXT load(1, XDATA, add(CFA_XSP16, literal(-3)))
        CFI DPL0 load(1, XDATA, add(CFA_XSP16, literal(-2)))
        CFI DPH0 load(1, XDATA, add(CFA_XSP16, literal(-1)))
        CFI CFA_SP SP+0
        CFI CFA_XSP16 add(XSP16, 38)
        CFI Block cfiCond12 Using cfiCommon0
        CFI (cfiCond12) NoFunction
        CFI (cfiCond12) Conditional ??CrossCallReturnLabel_58
        CFI (cfiCond12) R6 load(1, XDATA, add(CFA_XSP16, literal(-12)))
        CFI (cfiCond12) VB load(1, XDATA, add(CFA_XSP16, literal(-11)))
        CFI (cfiCond12) V0 load(1, XDATA, add(CFA_XSP16, literal(-10)))
        CFI (cfiCond12) V1 load(1, XDATA, add(CFA_XSP16, literal(-9)))
        CFI (cfiCond12) V2 load(1, XDATA, add(CFA_XSP16, literal(-8)))
        CFI (cfiCond12) V3 load(1, XDATA, add(CFA_XSP16, literal(-7)))
        CFI (cfiCond12) R7 load(1, XDATA, add(CFA_XSP16, literal(-6)))
        CFI (cfiCond12) ?RET_LOW load(1, XDATA, add(CFA_XSP16, literal(-5)))
        CFI (cfiCond12) ?RET_HIGH load(1, XDATA, add(CFA_XSP16, literal(-4)))
        CFI (cfiCond12) ?BRET_EXT load(1, XDATA, add(CFA_XSP16, literal(-3)))
        CFI (cfiCond12) DPL0 load(1, XDATA, add(CFA_XSP16, literal(-2)))
        CFI (cfiCond12) DPH0 load(1, XDATA, add(CFA_XSP16, literal(-1)))
        CFI (cfiCond12) CFA_SP SP+0
        CFI (cfiCond12) CFA_XSP16 add(XSP16, 12)
        CFI Block cfiPicker13 Using cfiCommon1
        CFI (cfiPicker13) NoFunction
        CFI (cfiPicker13) Picker
        MOV     R2,#-0x80
        CFI EndBlock cfiCond11
        CFI EndBlock cfiCond12
        CFI EndBlock cfiPicker13
        REQUIRE ??Subroutine27_0
        ; // Fall through to label ??Subroutine27_0

        RSEG BANKED_CODE:CODE:NOROOT(0)
??Subroutine27_0:
        CFI Block cfiCond14 Using cfiCommon0
        CFI NoFunction
        CFI Conditional ??CrossCallReturnLabel_59
        CFI R6 load(1, XDATA, add(CFA_XSP16, literal(-9)))
        CFI VB load(1, XDATA, add(CFA_XSP16, literal(-8)))
        CFI V0 load(1, XDATA, add(CFA_XSP16, literal(-7)))
        CFI R7 load(1, XDATA, add(CFA_XSP16, literal(-6)))
        CFI ?RET_LOW load(1, XDATA, add(CFA_XSP16, literal(-5)))
        CFI ?RET_HIGH load(1, XDATA, add(CFA_XSP16, literal(-4)))
        CFI ?BRET_EXT load(1, XDATA, add(CFA_XSP16, literal(-3)))
        CFI DPL0 load(1, XDATA, add(CFA_XSP16, literal(-2)))
        CFI DPH0 load(1, XDATA, add(CFA_XSP16, literal(-1)))
        CFI CFA_SP SP+0
        CFI CFA_XSP16 add(XSP16, 38)
        CFI Block cfiCond15 Using cfiCommon0
        CFI (cfiCond15) NoFunction
        CFI (cfiCond15) Conditional ??CrossCallReturnLabel_60
        CFI (cfiCond15) R6 load(1, XDATA, add(CFA_XSP16, literal(-12)))
        CFI (cfiCond15) VB load(1, XDATA, add(CFA_XSP16, literal(-11)))
        CFI (cfiCond15) V0 load(1, XDATA, add(CFA_XSP16, literal(-10)))
        CFI (cfiCond15) V1 load(1, XDATA, add(CFA_XSP16, literal(-9)))
        CFI (cfiCond15) V2 load(1, XDATA, add(CFA_XSP16, literal(-8)))
        CFI (cfiCond15) V3 load(1, XDATA, add(CFA_XSP16, literal(-7)))
        CFI (cfiCond15) R7 load(1, XDATA, add(CFA_XSP16, literal(-6)))
        CFI (cfiCond15) ?RET_LOW load(1, XDATA, add(CFA_XSP16, literal(-5)))
        CFI (cfiCond15) ?RET_HIGH load(1, XDATA, add(CFA_XSP16, literal(-4)))
        CFI (cfiCond15) ?BRET_EXT load(1, XDATA, add(CFA_XSP16, literal(-3)))
        CFI (cfiCond15) DPL0 load(1, XDATA, add(CFA_XSP16, literal(-2)))
        CFI (cfiCond15) DPH0 load(1, XDATA, add(CFA_XSP16, literal(-1)))
        CFI (cfiCond15) CFA_SP SP+0
        CFI (cfiCond15) CFA_XSP16 add(XSP16, 12)
        CFI Block cfiCond16 Using cfiCommon0
        CFI (cfiCond16) NoFunction
        CFI (cfiCond16) Conditional ??CrossCallReturnLabel_57
        CFI (cfiCond16) R6 load(1, XDATA, add(CFA_XSP16, literal(-9)))
        CFI (cfiCond16) VB load(1, XDATA, add(CFA_XSP16, literal(-8)))
        CFI (cfiCond16) V0 load(1, XDATA, add(CFA_XSP16, literal(-7)))
        CFI (cfiCond16) R7 load(1, XDATA, add(CFA_XSP16, literal(-6)))
        CFI (cfiCond16) ?RET_LOW load(1, XDATA, add(CFA_XSP16, literal(-5)))
        CFI (cfiCond16) ?RET_HIGH load(1, XDATA, add(CFA_XSP16, literal(-4)))
        CFI (cfiCond16) ?BRET_EXT load(1, XDATA, add(CFA_XSP16, literal(-3)))
        CFI (cfiCond16) DPL0 load(1, XDATA, add(CFA_XSP16, literal(-2)))
        CFI (cfiCond16) DPH0 load(1, XDATA, add(CFA_XSP16, literal(-1)))
        CFI (cfiCond16) CFA_SP SP+0
        CFI (cfiCond16) CFA_XSP16 add(XSP16, 38)
        CFI Block cfiCond17 Using cfiCommon0
        CFI (cfiCond17) NoFunction
        CFI (cfiCond17) Conditional ??CrossCallReturnLabel_58
        CFI (cfiCond17) R6 load(1, XDATA, add(CFA_XSP16, literal(-12)))
        CFI (cfiCond17) VB load(1, XDATA, add(CFA_XSP16, literal(-11)))
        CFI (cfiCond17) V0 load(1, XDATA, add(CFA_XSP16, literal(-10)))
        CFI (cfiCond17) V1 load(1, XDATA, add(CFA_XSP16, literal(-9)))
        CFI (cfiCond17) V2 load(1, XDATA, add(CFA_XSP16, literal(-8)))
        CFI (cfiCond17) V3 load(1, XDATA, add(CFA_XSP16, literal(-7)))
        CFI (cfiCond17) R7 load(1, XDATA, add(CFA_XSP16, literal(-6)))
        CFI (cfiCond17) ?RET_LOW load(1, XDATA, add(CFA_XSP16, literal(-5)))
        CFI (cfiCond17) ?RET_HIGH load(1, XDATA, add(CFA_XSP16, literal(-4)))
        CFI (cfiCond17) ?BRET_EXT load(1, XDATA, add(CFA_XSP16, literal(-3)))
        CFI (cfiCond17) DPL0 load(1, XDATA, add(CFA_XSP16, literal(-2)))
        CFI (cfiCond17) DPH0 load(1, XDATA, add(CFA_XSP16, literal(-1)))
        CFI (cfiCond17) CFA_SP SP+0
        CFI (cfiCond17) CFA_XSP16 add(XSP16, 12)
        CFI Block cfiPicker18 Using cfiCommon1
        CFI (cfiPicker18) NoFunction
        CFI (cfiPicker18) Picker
        MOV     R3,#0x0
        MOV     DPTR,#Smart_home_TaskID
        MOVX    A,@DPTR
        MOV     R1,A
        LCALL   ??osal_start_timerEx?relay
        RET
        CFI EndBlock cfiCond14
        CFI EndBlock cfiCond15
        CFI EndBlock cfiCond16
        CFI EndBlock cfiCond17
        CFI EndBlock cfiPicker18
//  439 
//  440 /*********************************************************************
//  441  * @fn      Smart_home_ProcessZDOMsgs()
//  442  *
//  443  * @brief   Process response messages
//  444  *
//  445  * @param   none
//  446  *
//  447  * @return  none
//  448  */
//  449 static void Smart_home_ProcessZDOMsgs( zdoIncomingMsg_t *inMsg )
//  450 {
//  451   /*
//  452   switch ( inMsg->clusterID )
//  453   {
//  454     case End_Device_Bind_rsp:
//  455       if ( ZDO_ParseBindRsp( inMsg ) == ZSuccess )
//  456       {
//  457         // Light LED
//  458         HalLedSet( HAL_LED_4, HAL_LED_MODE_ON );
//  459       }
//  460 #if defined(BLINK_LEDS)
//  461       else
//  462       {
//  463         // Flash LED to show failure
//  464         HalLedSet ( HAL_LED_4, HAL_LED_MODE_FLASH );
//  465       }
//  466 #endif
//  467       break;
//  468       
//  469     case Match_Desc_rsp:
//  470       {
//  471         ZDO_ActiveEndpointRsp_t *pRsp = ZDO_ParseEPListRsp( inMsg );
//  472         if ( pRsp )
//  473         {
//  474           if ( pRsp->status == ZSuccess && pRsp->cnt )
//  475           {
//  476             
//  477             Smart_home_TxAddr.addrMode = (afAddrMode_t)Addr16Bit;
//  478             Smart_home_TxAddr.addr.shortAddr = pRsp->nwkAddr;
//  479             // Take the first endpoint, Can be changed to search through endpoints
//  480             Smart_home_TxAddr.endPoint = pRsp->epList[0];
//  481             
//  482             
//  483             // Light LED
//  484             HalLedSet( HAL_LED_4, HAL_LED_MODE_ON );
//  485           }
//  486           osal_mem_free( pRsp );
//  487         }
//  488       }
//  489       break;
//  490   }
//  491   */
//  492 }
//  493 
//  494 /*********************************************************************
//  495  * @fn      Smart_home_Key_add
//  496  *
//  497  * @brief   3.21新增，用来标识目前处于的控制状态，是附加项
//  498  *          0 控制屏幕 1 控制继电器 2 控制电机
//  499  *            
//  500  *
//  501  * @param   Ctrlcase 目前的控制号
//  502  *
//  503  * @return  屏幕回显
//  504  *
//  505 static void Smart_home_Key_add(uint8 Ctrlcase)
//  506 {
//  507 #if defined ( LCD_SUPPORTED )
//  508   switch(Ctrlcase)
//  509   {
//  510     default:    
//  511     case 0:
//  512       HalLcdWriteString( "Flip use UP/DOWN", HAL_LCD_LINE_4 ); 
//  513       //清除屏幕显示
//  514       HalLcdWriteString( " ", HAL_LCD_LINE_2 ); 
//  515       HalLcdWriteString( " ", HAL_LCD_LINE_3 );
//  516       break;
//  517     
//  518     case 1:
//  519       HalLcdWriteString( "Relay Contrling", HAL_LCD_LINE_4 ); 
//  520       //清除屏幕显示
//  521       HalLcdWriteString( " ", HAL_LCD_LINE_2 ); 
//  522       HalLcdWriteString( " ", HAL_LCD_LINE_3 );
//  523       if(DeviceList[relay].deviceStatus == DEVICE_ONLINE)  //设备在线回显
//  524       {
//  525         HalLcdWriteString( "Relay Online", HAL_LCD_LINE_1 ); 
//  526       }
//  527       if(DeviceList[relay].deviceStatus != DEVICE_ONLINE)
//  528       {
//  529         HalLcdWriteString( "Relay Offline", HAL_LCD_LINE_1 );      
//  530       }
//  531       break;
//  532     
//  533     case 2:
//  534       HalLcdWriteString( "Motor Contrling", HAL_LCD_LINE_4 );
//  535       //清除屏幕显示
//  536       HalLcdWriteString( " ", HAL_LCD_LINE_2 ); 
//  537       HalLcdWriteString( " ", HAL_LCD_LINE_3 );
//  538       if(DeviceList[motor].deviceStatus == DEVICE_ONLINE)  //设备在线回显
//  539       {
//  540         HalLcdWriteString( "Motor Online", HAL_LCD_LINE_1 );
//  541       }
//  542       if(DeviceList[motor].deviceStatus != DEVICE_ONLINE)
//  543       {
//  544         HalLcdWriteString( "Motor Offline", HAL_LCD_LINE_1 );      
//  545       }      
//  546       break;
//  547 #endif     
//  548   }
//  549 }
//  550 */
//  551 /*********************************************************************
//  552  * @fn      Smart_home_Motor_cmd
//  553  * 
//  554  * @brief   通过电机速度判断电机转向
//  555  * 
//  556  * 
//  557  * @param   uint8 电机转速
//  558  * 
//  559  * @return  
//  560  *          #define  HAL_MOTOR_STOP            0x01
//  561  *          #define  HAL_MOTOR_FORWARD         0x02
//  562  *          #define  HAL_MOTOR_BACKWARD        0x03
//  563  */

        RSEG BANKED_CODE:CODE:NOROOT(0)
//  564 void Smart_home_Motor_cmd(int8 speed)
Smart_home_Motor_cmd:
        CFI Block cfiBlock19 Using cfiCommon0
        CFI Function Smart_home_Motor_cmd
        CODE
//  565 {
        FUNCALL Smart_home_Motor_cmd, AF_DataRequest
        LOCFRAME ISTACK, 0, STACK
        LOCFRAME PSTACK, 0, STACK
        LOCFRAME XSTACK, 19, STACK
        LOCFRAME IOVERLAY, 0, STATIC
        LOCFRAME DOVERLAY, 0, STATIC
        ARGFRAME ISTACK, 0, STACK
        ARGFRAME PSTACK, 0, STACK
        ARGFRAME XSTACK, 19, STACK
        ARGFRAME IOVERLAY, 0, STATIC
        ARGFRAME DOVERLAY, 0, STATIC
        MOV     A,#-0xa
        LCALL   ?BANKED_ENTER_XDATA
        CFI DPH0 load(1, XDATA, add(CFA_XSP16, literal(-1)))
        CFI DPL0 load(1, XDATA, add(CFA_XSP16, literal(-2)))
        CFI ?BRET_EXT load(1, XDATA, add(CFA_XSP16, literal(-3)))
        CFI ?RET_HIGH load(1, XDATA, add(CFA_XSP16, literal(-4)))
        CFI ?RET_LOW load(1, XDATA, add(CFA_XSP16, literal(-5)))
        CFI R7 load(1, XDATA, add(CFA_XSP16, literal(-6)))
        CFI V1 load(1, XDATA, add(CFA_XSP16, literal(-7)))
        CFI V0 load(1, XDATA, add(CFA_XSP16, literal(-8)))
        CFI VB load(1, XDATA, add(CFA_XSP16, literal(-9)))
        CFI R6 load(1, XDATA, add(CFA_XSP16, literal(-10)))
        CFI CFA_SP SP+0
        CFI CFA_XSP16 add(XSP16, 10)
        ; Saved register size: 10
        ; Auto size: 0
        MOV     A,R1
        MOV     R6,A
//  566   uint8 outspeed;
//  567   uint8 cmd;
//  568   if(speed == 0)
        JNZ     ??Smart_home_Motor_cmd_0
//  569   {
//  570     outspeed = 0;
??Smart_home_Motor_cmd_1:
        MOV     R7,#0x0
//  571     cmd = HAL_MOTOR_STOP;
        MOV     R2,#0x1
        SJMP    ??Smart_home_Motor_cmd_2
//  572   }   
//  573   else if(speed > 0)
??Smart_home_Motor_cmd_0:
        CLR     C
        SUBB    A,#0x1
        MOV     C,0xD0 /* PSW */.2
        XRL     A,PSW
        RLC     A
        MOV     A,R6
        JC      ??Smart_home_Motor_cmd_3
//  574   {
//  575     outspeed = speed;
        MOV     R7,A
//  576     cmd = HAL_MOTOR_FORWARD;
        MOV     R2,#0x2
        SJMP    ??Smart_home_Motor_cmd_2
//  577   }
//  578   
//  579   else if(speed < 0)
??Smart_home_Motor_cmd_3:
        CLR     C
        SUBB    A,#0x0
        MOV     C,0xD0 /* PSW */.2
        XRL     A,PSW
        RLC     A
        JNC     ??Smart_home_Motor_cmd_1
//  580   {
//  581     outspeed = 0xff - speed;
        MOV     A,#-0x1
        CLR     C
        SUBB    A,R6
        MOV     R7,A
//  582     cmd = HAL_MOTOR_BACKWARD;
        MOV     R2,#0x3
//  583   }
//  584   
//  585   else
//  586   {
//  587     outspeed = 0;
//  588     cmd = HAL_MOTOR_STOP;    
//  589   }
//  590   Smart_home_Motor_Ctl(cmd,outspeed); 
??Smart_home_Motor_cmd_2:
        MOV     DPTR,#DeviceList + 43
        MOVX    A,@DPTR
        XRL     A,#0x2
        JZ      ??Smart_home_Motor_cmd_4
        MOV     DPTR,#MotorTransID
        MOVX    A,@DPTR
        SWAP    A
        ANL     A,#0xf
        MOV     R3,A
        CLR     C
        SUBB    A,#0xa
        JNC     ??Smart_home_Motor_cmd_5
        MOV     R0,#0x30
        SJMP    ??Smart_home_Motor_cmd_6
??Smart_home_Motor_cmd_5:
        MOV     R0,#0x37
??Smart_home_Motor_cmd_6:
        MOV     A,R0
        ADD     A,R3
        MOV     DPTR,#Coordinator_Msg + 2
        MOVX    @DPTR,A
        MOV     DPTR,#RelayTransID
        MOVX    A,@DPTR
        ANL     A,#0xf
        MOV     R3,A
        CLR     C
        SUBB    A,#0xa
        JNC     ??Smart_home_Motor_cmd_7
        MOV     R0,#0x30
        SJMP    ??Smart_home_Motor_cmd_8
??Smart_home_Motor_cmd_7:
        MOV     R0,#0x37
??Smart_home_Motor_cmd_8:
        MOV     A,R0
        ADD     A,R3
        MOV     DPTR,#Coordinator_Msg + 3
        MOVX    @DPTR,A
        MOV     A,R7
        INC     DPTR
        MOVX    @DPTR,A
        MOV     A,R2
        INC     DPTR
        MOVX    @DPTR,A
        ; Setup parameters for call to function AF_DataRequest
        MOV     ?V0 + 0,#0x1e
        MOV     R0,#?V0 + 0
        LCALL   ?PUSH_XSTACK_I_ONE
        CFI CFA_XSP16 add(XSP16, 11)
        MOV     ?V0 + 0,#MotorTransID & 0xff
        MOV     ?V0 + 1,#(MotorTransID >> 8) & 0xff
        MOV     R0,#?V0 + 0
        LCALL   ?PUSH_XSTACK_I_TWO
        CFI CFA_XSP16 add(XSP16, 13)
        MOV     ?V0 + 0,#Coordinator_Msg & 0xff
        MOV     ?V0 + 1,#(Coordinator_Msg >> 8) & 0xff
        MOV     R0,#?V0 + 0
        LCALL   ?PUSH_XSTACK_I_TWO
        CFI CFA_XSP16 add(XSP16, 15)
        MOV     ?V0 + 0,#0x6
        MOV     ?V0 + 1,#0x0
        MOV     R0,#?V0 + 0
        LCALL   ?PUSH_XSTACK_I_TWO
        CFI CFA_XSP16 add(XSP16, 17)
        MOV     ?V0 + 0,#0xb
        MOV     R0,#?V0 + 0
        LCALL   ?PUSH_XSTACK_I_TWO
        CFI CFA_XSP16 add(XSP16, 19)
        MOV     R1,#0x20
        MOV     R4,#Smart_home_epDesc & 0xff
        MOV     R5,#(Smart_home_epDesc >> 8) & 0xff
        MOV     R2,#Motor_addr & 0xff
        MOV     R3,#(Motor_addr >> 8) & 0xff
        LCALL   ??AF_DataRequest?relay
        MOV     A,#0x9
        LCALL   ?DEALLOC_XSTACK8
        CFI CFA_XSP16 add(XSP16, 10)
//  591 }
??Smart_home_Motor_cmd_4:
        LJMP    ?Subroutine1 & 0xFFFF
        CFI EndBlock cfiBlock19
//  592 
//  593 /*********************************************************************
//  594  * @fn      Smart_home_HandleKeys
//  595  *
//  596  * @brief   设置按键事件
//  597  *          目前事件设置    3.19
//  598  *
//  599  *          HAL_KEY_SW_1--UP     (上翻一页)
//  600  *          HAL_KEY_SW_2--RIGHT  (选项向右)
//  601  *          HAL_KEY_SW_3--DOWN   (下翻一页)
//  602  *          HAL_KEY_SW_4--LEFT   (选项向左)
//  603  *          HAL_KEY_SW_5--OK     (组网开)
//  604  *          HAL_KEY_SW_7--CANCEL (组网关) 
//  605  * + 3.21 新增  选项总共有3种，控制屏幕显示，控制继电器和控制电机
//  606  *              控制继电器时 UP控制1，DOWN控制2
//  607  *              控制电机时   UP加速， DOWN减速
//  608  *
//  609  * @param   shift - true if in shift/alt.
//  610  * @param   keys  - bit field for key events.
//  611  *
//  612  * @return  none
//  613  */

        RSEG BANKED_CODE:CODE:NOROOT(0)
//  614 void Smart_home_HandleKeys( byte shift, byte keys )
Smart_home_HandleKeys:
        CFI Block cfiBlock20 Using cfiCommon0
        CFI Function Smart_home_HandleKeys
        CODE
//  615 {
        FUNCALL Smart_home_HandleKeys, Smart_home_Relay_Ctl
        LOCFRAME ISTACK, 0, STACK
        LOCFRAME PSTACK, 0, STACK
        LOCFRAME XSTACK, 9, STACK
        LOCFRAME IOVERLAY, 0, STATIC
        LOCFRAME DOVERLAY, 0, STATIC
        ARGFRAME ISTACK, 0, STACK
        ARGFRAME PSTACK, 0, STACK
        ARGFRAME XSTACK, 9, STACK
        ARGFRAME IOVERLAY, 0, STATIC
        ARGFRAME DOVERLAY, 0, STATIC
        FUNCALL Smart_home_HandleKeys, HalLcdWriteString
        LOCFRAME ISTACK, 0, STACK
        LOCFRAME PSTACK, 0, STACK
        LOCFRAME XSTACK, 9, STACK
        LOCFRAME IOVERLAY, 0, STATIC
        LOCFRAME DOVERLAY, 0, STATIC
        ARGFRAME ISTACK, 0, STACK
        ARGFRAME PSTACK, 0, STACK
        ARGFRAME XSTACK, 9, STACK
        ARGFRAME IOVERLAY, 0, STATIC
        ARGFRAME DOVERLAY, 0, STATIC
        FUNCALL Smart_home_HandleKeys, Smart_home_Motor_cmd
        LOCFRAME ISTACK, 0, STACK
        LOCFRAME PSTACK, 0, STACK
        LOCFRAME XSTACK, 9, STACK
        LOCFRAME IOVERLAY, 0, STATIC
        LOCFRAME DOVERLAY, 0, STATIC
        ARGFRAME ISTACK, 0, STACK
        ARGFRAME PSTACK, 0, STACK
        ARGFRAME XSTACK, 9, STACK
        ARGFRAME IOVERLAY, 0, STATIC
        ARGFRAME DOVERLAY, 0, STATIC
        FUNCALL Smart_home_HandleKeys, Smart_home_Relay_Ctl
        LOCFRAME ISTACK, 0, STACK
        LOCFRAME PSTACK, 0, STACK
        LOCFRAME XSTACK, 9, STACK
        LOCFRAME IOVERLAY, 0, STATIC
        LOCFRAME DOVERLAY, 0, STATIC
        ARGFRAME ISTACK, 0, STACK
        ARGFRAME PSTACK, 0, STACK
        ARGFRAME XSTACK, 9, STACK
        ARGFRAME IOVERLAY, 0, STATIC
        ARGFRAME DOVERLAY, 0, STATIC
        FUNCALL Smart_home_HandleKeys, HalLcdWriteString
        LOCFRAME ISTACK, 0, STACK
        LOCFRAME PSTACK, 0, STACK
        LOCFRAME XSTACK, 9, STACK
        LOCFRAME IOVERLAY, 0, STATIC
        LOCFRAME DOVERLAY, 0, STATIC
        ARGFRAME ISTACK, 0, STACK
        ARGFRAME PSTACK, 0, STACK
        ARGFRAME XSTACK, 9, STACK
        ARGFRAME IOVERLAY, 0, STATIC
        ARGFRAME DOVERLAY, 0, STATIC
        FUNCALL Smart_home_HandleKeys, Smart_home_Motor_cmd
        LOCFRAME ISTACK, 0, STACK
        LOCFRAME PSTACK, 0, STACK
        LOCFRAME XSTACK, 9, STACK
        LOCFRAME IOVERLAY, 0, STATIC
        LOCFRAME DOVERLAY, 0, STATIC
        ARGFRAME ISTACK, 0, STACK
        ARGFRAME PSTACK, 0, STACK
        ARGFRAME XSTACK, 9, STACK
        ARGFRAME IOVERLAY, 0, STATIC
        ARGFRAME DOVERLAY, 0, STATIC
        FUNCALL Smart_home_HandleKeys, NLME_PermitJoiningRequest
        LOCFRAME ISTACK, 0, STACK
        LOCFRAME PSTACK, 0, STACK
        LOCFRAME XSTACK, 9, STACK
        LOCFRAME IOVERLAY, 0, STATIC
        LOCFRAME DOVERLAY, 0, STATIC
        ARGFRAME ISTACK, 0, STACK
        ARGFRAME PSTACK, 0, STACK
        ARGFRAME XSTACK, 9, STACK
        ARGFRAME IOVERLAY, 0, STATIC
        ARGFRAME DOVERLAY, 0, STATIC
        FUNCALL Smart_home_HandleKeys, HalLedSet
        LOCFRAME ISTACK, 0, STACK
        LOCFRAME PSTACK, 0, STACK
        LOCFRAME XSTACK, 9, STACK
        LOCFRAME IOVERLAY, 0, STATIC
        LOCFRAME DOVERLAY, 0, STATIC
        ARGFRAME ISTACK, 0, STACK
        ARGFRAME PSTACK, 0, STACK
        ARGFRAME XSTACK, 9, STACK
        ARGFRAME IOVERLAY, 0, STATIC
        ARGFRAME DOVERLAY, 0, STATIC
        FUNCALL Smart_home_HandleKeys, HalLcdWriteString
        LOCFRAME ISTACK, 0, STACK
        LOCFRAME PSTACK, 0, STACK
        LOCFRAME XSTACK, 9, STACK
        LOCFRAME IOVERLAY, 0, STATIC
        LOCFRAME DOVERLAY, 0, STATIC
        ARGFRAME ISTACK, 0, STACK
        ARGFRAME PSTACK, 0, STACK
        ARGFRAME XSTACK, 9, STACK
        ARGFRAME IOVERLAY, 0, STATIC
        ARGFRAME DOVERLAY, 0, STATIC
        FUNCALL Smart_home_HandleKeys, NLME_PermitJoiningRequest
        LOCFRAME ISTACK, 0, STACK
        LOCFRAME PSTACK, 0, STACK
        LOCFRAME XSTACK, 9, STACK
        LOCFRAME IOVERLAY, 0, STATIC
        LOCFRAME DOVERLAY, 0, STATIC
        ARGFRAME ISTACK, 0, STACK
        ARGFRAME PSTACK, 0, STACK
        ARGFRAME XSTACK, 9, STACK
        ARGFRAME IOVERLAY, 0, STATIC
        ARGFRAME DOVERLAY, 0, STATIC
        FUNCALL Smart_home_HandleKeys, HalLedSet
        LOCFRAME ISTACK, 0, STACK
        LOCFRAME PSTACK, 0, STACK
        LOCFRAME XSTACK, 9, STACK
        LOCFRAME IOVERLAY, 0, STATIC
        LOCFRAME DOVERLAY, 0, STATIC
        ARGFRAME ISTACK, 0, STACK
        ARGFRAME PSTACK, 0, STACK
        ARGFRAME XSTACK, 9, STACK
        ARGFRAME IOVERLAY, 0, STATIC
        ARGFRAME DOVERLAY, 0, STATIC
        FUNCALL Smart_home_HandleKeys, HalLcdWriteString
        LOCFRAME ISTACK, 0, STACK
        LOCFRAME PSTACK, 0, STACK
        LOCFRAME XSTACK, 9, STACK
        LOCFRAME IOVERLAY, 0, STATIC
        LOCFRAME DOVERLAY, 0, STATIC
        ARGFRAME ISTACK, 0, STACK
        ARGFRAME PSTACK, 0, STACK
        ARGFRAME XSTACK, 9, STACK
        ARGFRAME IOVERLAY, 0, STATIC
        ARGFRAME DOVERLAY, 0, STATIC
        MOV     A,#-0x9
        LCALL   ?BANKED_ENTER_XDATA
        CFI DPH0 load(1, XDATA, add(CFA_XSP16, literal(-1)))
        CFI DPL0 load(1, XDATA, add(CFA_XSP16, literal(-2)))
        CFI ?BRET_EXT load(1, XDATA, add(CFA_XSP16, literal(-3)))
        CFI ?RET_HIGH load(1, XDATA, add(CFA_XSP16, literal(-4)))
        CFI ?RET_LOW load(1, XDATA, add(CFA_XSP16, literal(-5)))
        CFI R7 load(1, XDATA, add(CFA_XSP16, literal(-6)))
        CFI V0 load(1, XDATA, add(CFA_XSP16, literal(-7)))
        CFI VB load(1, XDATA, add(CFA_XSP16, literal(-8)))
        CFI R6 load(1, XDATA, add(CFA_XSP16, literal(-9)))
        CFI CFA_SP SP+0
        CFI CFA_XSP16 add(XSP16, 9)
        ; Saved register size: 9
        ; Auto size: 0
        MOV     A,R2
        MOV     R6,A
//  616   //zAddrType_t txAddr;
//  617   static int8 MotorSpeed = 0;
//  618   static uint8 NetWorkAllow = 0;
//  619   /*这里这么设置似乎会出现内存问题
//  620   static uint8 Relay1_on = 0x02;  //两个默认都是关闭
//  621   static uint8 Relay2_on = 0x10;
//  622   */
//  623   /*3.21 LCD 显示*/
//  624   static uint8 Relay1_on = 0;  //两个默认都是关闭
//  625   static uint8 Relay2_on = 0;
//  626   
//  627   
//  628   if ( keys & HAL_KEY_SW_1 )  //UP
        MOV     C,0xE0 /* A   */.0
        JNC     ??Smart_home_HandleKeys_0
//  629   {
//  630     switch(Ctrlcase)
        MOV     DPTR,#Ctrlcase
        MOVX    A,@DPTR
        DEC     A
        JZ      ??Smart_home_HandleKeys_1
        DEC     A
        JZ      ??Smart_home_HandleKeys_2
//  631     {
//  632       default:    
//  633       case 0:
//  634       {
//  635         if(LCD_Page < LCD_PAGE_MAX)       {LCD_Page++;}
        MOV     DPTR,#LCD_Page
        LCALL   ?Subroutine15 & 0xFFFF
??CrossCallReturnLabel_31:
        JNC     ??Smart_home_HandleKeys_3
        MOVX    A,@DPTR
        INC     A
        MOVX    @DPTR,A
//  636         if(LCD_Page > LCD_PAGE_MAX - 1)       {LCD_Page = 0;}
??Smart_home_HandleKeys_3:
        LCALL   ?Subroutine15 & 0xFFFF
??CrossCallReturnLabel_32:
        JC      ??Smart_home_HandleKeys_0
        CLR     A
        MOVX    @DPTR,A
        SJMP    ??Smart_home_HandleKeys_0
//  637         break;
//  638       }
//  639       case 1:
//  640       {  
//  641         uint8 switch1;
//  642         if(Relay1_on == 0)  {Relay1_on = 1 ; switch1 = 0x02;}
??Smart_home_HandleKeys_1:
        MOV     DPTR,#??Relay1_on
        MOVX    A,@DPTR
        JNZ     ??Smart_home_HandleKeys_4
        MOV     A,#0x1
        MOVX    @DPTR,A
        MOV     R1,#0x2
        SJMP    ??Smart_home_HandleKeys_5
//  643         else if(Relay1_on == 1)  {Relay1_on = 0; switch1 = 0x01;}
??Smart_home_HandleKeys_4:
        CLR     A
        MOVX    @DPTR,A
        MOV     R1,#0x1
//  644         else  {Relay1_on = 0; switch1 = 0x01;}       
//  645         Smart_home_Relay_Ctl(switch1);  
??Smart_home_HandleKeys_5:
        ; Setup parameters for call to function Smart_home_Relay_Ctl
        LCALL   ??Smart_home_Relay_Ctl?relay
//  646         break;
        SJMP    ??Smart_home_HandleKeys_0
//  647       } 
//  648       case 2:
//  649       {
//  650         if(MotorSpeed < 80)     {MotorSpeed += 10;}
??Smart_home_HandleKeys_2:
        MOV     DPTR,#??MotorSpeed
        LCALL   ?Subroutine16 & 0xFFFF
??CrossCallReturnLabel_33:
        JNC     ??Smart_home_HandleKeys_6
        MOVX    A,@DPTR
        ADD     A,#0xa
        MOVX    @DPTR,A
//  651         if(MotorSpeed >= 80)     
??Smart_home_HandleKeys_6:
        LCALL   ?Subroutine16 & 0xFFFF
??CrossCallReturnLabel_34:
        JC      ??Smart_home_HandleKeys_7
//  652         {
//  653 #if defined ( LCD_SUPPORTED )
//  654            HalLcdWriteString( "Motor max Speed", HAL_LCD_LINE_4 );
        ; Setup parameters for call to function HalLcdWriteString
        MOV     R1,#0x4
        MOV     R2,#`?<Constant "Motor max Speed">` & 0xff
        MOV     R3,#(`?<Constant "Motor max Speed">` >> 8) & 0xff
        LCALL   ??HalLcdWriteString?relay
//  655 #endif 
//  656            MotorSpeed = 80;
        MOV     DPTR,#??MotorSpeed
        MOV     A,#0x50
        MOVX    @DPTR,A
//  657         }
//  658         Smart_home_Motor_cmd(MotorSpeed);
??Smart_home_HandleKeys_7:
        ; Setup parameters for call to function Smart_home_Motor_cmd
        MOVX    A,@DPTR
        MOV     R1,A
        LCALL   ??Smart_home_Motor_cmd?relay
//  659         
//  660         break;
//  661       }
//  662          
//  663     }    
//  664   }
//  665   
//  666   if ( keys & HAL_KEY_SW_3 )  //DOWN
??Smart_home_HandleKeys_0:
        MOV     A,R6
        MOV     C,0xE0 /* A   */.4
        JNC     ??Smart_home_HandleKeys_8
//  667   {
//  668     switch(Ctrlcase)
        MOV     DPTR,#Ctrlcase
        MOVX    A,@DPTR
        DEC     A
        JZ      ??Smart_home_HandleKeys_9
        DEC     A
        JZ      ??Smart_home_HandleKeys_10
//  669     {
//  670       default:    
//  671       case 0:
//  672       {
//  673         if(LCD_Page >= 0)       {LCD_Page--;}
        MOV     DPTR,#LCD_Page
        LCALL   ?Subroutine12 & 0xFFFF
??CrossCallReturnLabel_23:
        JC      ??Smart_home_HandleKeys_11
        MOVX    A,@DPTR
        DEC     A
        MOVX    @DPTR,A
//  674         if(LCD_Page < 0)        {LCD_Page = LCD_PAGE_MAX;}
??Smart_home_HandleKeys_11:
        LCALL   ?Subroutine12 & 0xFFFF
??CrossCallReturnLabel_24:
        JNC     ??Smart_home_HandleKeys_8
        MOV     A,#0x4
        MOVX    @DPTR,A
        SJMP    ??Smart_home_HandleKeys_8
//  675         break;
//  676       }
//  677       case 1:  
//  678       {
//  679         uint8 switch2;
//  680         if(Relay2_on == 0)  {Relay2_on = 1 ; switch2 = 0x20;}
??Smart_home_HandleKeys_9:
        MOV     DPTR,#??Relay2_on
        MOVX    A,@DPTR
        JNZ     ??Smart_home_HandleKeys_12
        MOV     A,#0x1
        MOVX    @DPTR,A
        MOV     R1,#0x20
        SJMP    ??Smart_home_HandleKeys_13
//  681         else if(Relay2_on == 1)  {Relay2_on = 0; switch2 = 0x10;}
??Smart_home_HandleKeys_12:
        XRL     A,#0x1
        JNZ     ??Smart_home_HandleKeys_14
        CLR     A
        MOVX    @DPTR,A
        MOV     R1,#0x10
        SJMP    ??Smart_home_HandleKeys_13
//  682         else  {Relay2_on = 0; switch2 = 0x01;}       
??Smart_home_HandleKeys_14:
        CLR     A
        MOVX    @DPTR,A
        MOV     R1,#0x1
//  683         Smart_home_Relay_Ctl(switch2);       
??Smart_home_HandleKeys_13:
        ; Setup parameters for call to function Smart_home_Relay_Ctl
        LCALL   ??Smart_home_Relay_Ctl?relay
//  684         break;
        SJMP    ??Smart_home_HandleKeys_8
//  685       } 
//  686       case 2:
//  687       {
//  688         /*
//  689         #define  HAL_MOTOR_STOP            0x01
//  690         #define  HAL_MOTOR_FORWORD         0x02
//  691         #define  HAL_MOTOR_BACKWORD        0x03*/
//  692         if(MotorSpeed > -80)     {MotorSpeed -= 10;}
??Smart_home_HandleKeys_10:
        MOV     DPTR,#??MotorSpeed
        LCALL   ?Subroutine17 & 0xFFFF
??CrossCallReturnLabel_35:
        JC      ??Smart_home_HandleKeys_15
        MOVX    A,@DPTR
        ADD     A,#-0xa
        MOVX    @DPTR,A
//  693         if(MotorSpeed <= -80)     
??Smart_home_HandleKeys_15:
        LCALL   ?Subroutine17 & 0xFFFF
??CrossCallReturnLabel_36:
        JNC     ??Smart_home_HandleKeys_16
//  694         {
//  695 #if defined ( LCD_SUPPORTED )
//  696            HalLcdWriteString( "Motor min Speed", HAL_LCD_LINE_4 );
        ; Setup parameters for call to function HalLcdWriteString
        MOV     R1,#0x4
        MOV     R2,#`?<Constant "Motor min Speed">` & 0xff
        MOV     R3,#(`?<Constant "Motor min Speed">` >> 8) & 0xff
        LCALL   ??HalLcdWriteString?relay
//  697 #endif 
//  698            MotorSpeed = -80;
        MOV     DPTR,#??MotorSpeed
        MOV     A,#-0x50
        MOVX    @DPTR,A
//  699         }
//  700         Smart_home_Motor_cmd(MotorSpeed);
??Smart_home_HandleKeys_16:
        ; Setup parameters for call to function Smart_home_Motor_cmd
        MOVX    A,@DPTR
        MOV     R1,A
        LCALL   ??Smart_home_Motor_cmd?relay
//  701         break; 
//  702       }
//  703     }
//  704   }
//  705   
//  706   if ( keys & HAL_KEY_SW_2 )  //RIGHT  
??Smart_home_HandleKeys_8:
        MOV     A,R6
        MOV     C,0xE0 /* A   */.1
        JNC     ??Smart_home_HandleKeys_17
//  707   /*3.22 这里在调试时出现问题，具体问题为 点击up时会出现屏幕变为禁止组网
//  708     控制方面变为控制电机，问题在于汇编中的key值会出现  keys & HAL_KEY_SW_2 = 2
//  709     的情况，暂时禁止，需要等待研究  还有key_7*/
//  710   {
//  711      if(Ctrlcase < 3)   { Ctrlcase++;}
        MOV     DPTR,#Ctrlcase
        LCALL   ?Subroutine18 & 0xFFFF
??CrossCallReturnLabel_37:
        JNC     ??Smart_home_HandleKeys_18
        MOVX    A,@DPTR
        INC     A
        MOVX    @DPTR,A
//  712      if(Ctrlcase > 2)   { Ctrlcase=0;}
??Smart_home_HandleKeys_18:
        LCALL   ?Subroutine18 & 0xFFFF
??CrossCallReturnLabel_38:
        JC      ??Smart_home_HandleKeys_17
        CLR     A
        MOVX    @DPTR,A
//  713      //Smart_home_Key_add(Ctrlcase);
//  714   }
//  715   
//  716   if ( keys & HAL_KEY_SW_4 )  //LEFT
??Smart_home_HandleKeys_17:
        MOV     A,R6
        MOV     C,0xE0 /* A   */.3
        JNC     ??Smart_home_HandleKeys_19
//  717   {
//  718      if(Ctrlcase > -1)   { Ctrlcase--;}
        MOV     DPTR,#Ctrlcase
        LCALL   ?Subroutine12 & 0xFFFF
??CrossCallReturnLabel_25:
        JC      ??Smart_home_HandleKeys_20
        MOVX    A,@DPTR
        DEC     A
        MOVX    @DPTR,A
//  719      if(Ctrlcase < 0)    { Ctrlcase=2;}
??Smart_home_HandleKeys_20:
        LCALL   ?Subroutine12 & 0xFFFF
??CrossCallReturnLabel_26:
        JNC     ??Smart_home_HandleKeys_19
        MOV     A,#0x2
        MOVX    @DPTR,A
//  720      //Smart_home_Key_add(Ctrlcase);    
//  721   }
//  722   
//  723   if ( keys & HAL_KEY_SW_5 )  //OK
//  724   {
//  725 
//  726   }
//  727   
//  728   if ( keys & HAL_KEY_SW_7 )  //CENCEL
??Smart_home_HandleKeys_19:
        MOV     A,R6
        MOV     C,0xE0 /* A   */.6
        JNC     ??Smart_home_HandleKeys_21
//  729   {
//  730      if(NetWorkAllow == 0)
        MOV     DPTR,#??NetWorkAllow
        MOVX    A,@DPTR
        JNZ     ??Smart_home_HandleKeys_22
//  731      {
//  732        NetWorkAllow = 1;
        MOV     A,#0x1
        MOVX    @DPTR,A
//  733        NLME_PermitJoiningRequest(0xFF); // 组网，允许随时加入
        ; Setup parameters for call to function NLME_PermitJoiningRequest
        MOV     R1,#-0x1
        LCALL   ??NLME_PermitJoiningRequest?relay
//  734        HalLedSet(HAL_LED_1, HAL_LED_MODE_ON);
        ; Setup parameters for call to function HalLedSet
        MOV     R2,#0x1
        MOV     R1,#0x1
        LCALL   ??HalLedSet?relay
//  735 #if defined ( LCD_SUPPORTED )
//  736        HalLcdWriteString( "Allow networking", HAL_LCD_LINE_4 );
        ; Setup parameters for call to function HalLcdWriteString
        MOV     R1,#0x4
        MOV     R2,#`?<Constant "Allow networking">` & 0xff
        MOV     R3,#(`?<Constant "Allow networking">` >> 8) & 0xff
        SJMP    ??Smart_home_HandleKeys_23
//  737 #endif
//  738      }
//  739      else
//  740      {
//  741        NetWorkAllow = 0;
??Smart_home_HandleKeys_22:
        CLR     A
        MOVX    @DPTR,A
//  742        NLME_PermitJoiningRequest(0x00); // 不允许组网
        ; Setup parameters for call to function NLME_PermitJoiningRequest
        MOV     R1,A
        LCALL   ?Subroutine20 & 0xFFFF
//  743        HalLedSet(HAL_LED_1, HAL_LED_MODE_OFF);  
//  744 #if defined ( LCD_SUPPORTED )
//  745        HalLcdWriteString( "Ban   networking", HAL_LCD_LINE_4 );
??CrossCallReturnLabel_44:
        ; Setup parameters for call to function HalLcdWriteString
        MOV     R1,#0x4
        MOV     R2,#`?<Constant "Ban   networking">` & 0xff
        MOV     R3,#(`?<Constant "Ban   networking">` >> 8) & 0xff
??Smart_home_HandleKeys_23:
        LCALL   ??HalLcdWriteString?relay
//  746 #endif        
//  747      }
//  748   }
//  749 }
??Smart_home_HandleKeys_21:
        LJMP    ?Subroutine0 & 0xFFFF
        CFI EndBlock cfiBlock20

        RSEG BANKED_CODE:CODE:NOROOT(0)
?Subroutine20:
        CFI Block cfiCond21 Using cfiCommon0
        CFI NoFunction
        CFI Conditional ??CrossCallReturnLabel_43
        CFI R6 load(1, XDATA, add(CFA_XSP16, literal(-9)))
        CFI VB load(1, XDATA, add(CFA_XSP16, literal(-8)))
        CFI V0 load(1, XDATA, add(CFA_XSP16, literal(-7)))
        CFI R7 load(1, XDATA, add(CFA_XSP16, literal(-6)))
        CFI ?RET_LOW load(1, XDATA, add(CFA_XSP16, literal(-5)))
        CFI ?RET_HIGH load(1, XDATA, add(CFA_XSP16, literal(-4)))
        CFI ?BRET_EXT load(1, XDATA, add(CFA_XSP16, literal(-3)))
        CFI DPL0 load(1, XDATA, add(CFA_XSP16, literal(-2)))
        CFI DPH0 load(1, XDATA, add(CFA_XSP16, literal(-1)))
        CFI CFA_SP SP+0
        CFI CFA_XSP16 add(XSP16, 38)
        CFI Block cfiCond22 Using cfiCommon0
        CFI (cfiCond22) NoFunction
        CFI (cfiCond22) Conditional ??CrossCallReturnLabel_44
        CFI (cfiCond22) R6 load(1, XDATA, add(CFA_XSP16, literal(-9)))
        CFI (cfiCond22) VB load(1, XDATA, add(CFA_XSP16, literal(-8)))
        CFI (cfiCond22) V0 load(1, XDATA, add(CFA_XSP16, literal(-7)))
        CFI (cfiCond22) R7 load(1, XDATA, add(CFA_XSP16, literal(-6)))
        CFI (cfiCond22) ?RET_LOW load(1, XDATA, add(CFA_XSP16, literal(-5)))
        CFI (cfiCond22) ?RET_HIGH load(1, XDATA, add(CFA_XSP16, literal(-4)))
        CFI (cfiCond22) ?BRET_EXT load(1, XDATA, add(CFA_XSP16, literal(-3)))
        CFI (cfiCond22) DPL0 load(1, XDATA, add(CFA_XSP16, literal(-2)))
        CFI (cfiCond22) DPH0 load(1, XDATA, add(CFA_XSP16, literal(-1)))
        CFI (cfiCond22) CFA_SP SP+0
        CFI (cfiCond22) CFA_XSP16 add(XSP16, 9)
        CFI Block cfiPicker23 Using cfiCommon1
        CFI (cfiPicker23) NoFunction
        CFI (cfiPicker23) Picker
        LCALL   ??NLME_PermitJoiningRequest?relay
        ; Setup parameters for call to function HalLedSet
        ; Setup parameters for call to function HalLedSet
        MOV     R2,#0x0
        MOV     R1,#0x1
        LCALL   ??HalLedSet?relay
        RET
        CFI EndBlock cfiCond21
        CFI EndBlock cfiCond22
        CFI EndBlock cfiPicker23

        RSEG BANKED_CODE:CODE:NOROOT(0)
?Subroutine18:
        CFI Block cfiCond24 Using cfiCommon0
        CFI NoFunction
        CFI Conditional ??CrossCallReturnLabel_37
        CFI R6 load(1, XDATA, add(CFA_XSP16, literal(-9)))
        CFI VB load(1, XDATA, add(CFA_XSP16, literal(-8)))
        CFI V0 load(1, XDATA, add(CFA_XSP16, literal(-7)))
        CFI R7 load(1, XDATA, add(CFA_XSP16, literal(-6)))
        CFI ?RET_LOW load(1, XDATA, add(CFA_XSP16, literal(-5)))
        CFI ?RET_HIGH load(1, XDATA, add(CFA_XSP16, literal(-4)))
        CFI ?BRET_EXT load(1, XDATA, add(CFA_XSP16, literal(-3)))
        CFI DPL0 load(1, XDATA, add(CFA_XSP16, literal(-2)))
        CFI DPH0 load(1, XDATA, add(CFA_XSP16, literal(-1)))
        CFI CFA_SP SP+0
        CFI CFA_XSP16 add(XSP16, 9)
        CFI Block cfiCond25 Using cfiCommon0
        CFI (cfiCond25) NoFunction
        CFI (cfiCond25) Conditional ??CrossCallReturnLabel_38
        CFI (cfiCond25) R6 load(1, XDATA, add(CFA_XSP16, literal(-9)))
        CFI (cfiCond25) VB load(1, XDATA, add(CFA_XSP16, literal(-8)))
        CFI (cfiCond25) V0 load(1, XDATA, add(CFA_XSP16, literal(-7)))
        CFI (cfiCond25) R7 load(1, XDATA, add(CFA_XSP16, literal(-6)))
        CFI (cfiCond25) ?RET_LOW load(1, XDATA, add(CFA_XSP16, literal(-5)))
        CFI (cfiCond25) ?RET_HIGH load(1, XDATA, add(CFA_XSP16, literal(-4)))
        CFI (cfiCond25) ?BRET_EXT load(1, XDATA, add(CFA_XSP16, literal(-3)))
        CFI (cfiCond25) DPL0 load(1, XDATA, add(CFA_XSP16, literal(-2)))
        CFI (cfiCond25) DPH0 load(1, XDATA, add(CFA_XSP16, literal(-1)))
        CFI (cfiCond25) CFA_SP SP+0
        CFI (cfiCond25) CFA_XSP16 add(XSP16, 9)
        CFI Block cfiPicker26 Using cfiCommon1
        CFI (cfiPicker26) NoFunction
        CFI (cfiPicker26) Picker
        MOVX    A,@DPTR
        CLR     C
        SUBB    A,#0x3
        MOV     C,0xD0 /* PSW */.2
        XRL     A,PSW
        RLC     A
        RET
        CFI EndBlock cfiCond24
        CFI EndBlock cfiCond25
        CFI EndBlock cfiPicker26

        RSEG BANKED_CODE:CODE:NOROOT(0)
?Subroutine17:
        CFI Block cfiCond27 Using cfiCommon0
        CFI NoFunction
        CFI Conditional ??CrossCallReturnLabel_35
        CFI R6 load(1, XDATA, add(CFA_XSP16, literal(-9)))
        CFI VB load(1, XDATA, add(CFA_XSP16, literal(-8)))
        CFI V0 load(1, XDATA, add(CFA_XSP16, literal(-7)))
        CFI R7 load(1, XDATA, add(CFA_XSP16, literal(-6)))
        CFI ?RET_LOW load(1, XDATA, add(CFA_XSP16, literal(-5)))
        CFI ?RET_HIGH load(1, XDATA, add(CFA_XSP16, literal(-4)))
        CFI ?BRET_EXT load(1, XDATA, add(CFA_XSP16, literal(-3)))
        CFI DPL0 load(1, XDATA, add(CFA_XSP16, literal(-2)))
        CFI DPH0 load(1, XDATA, add(CFA_XSP16, literal(-1)))
        CFI CFA_SP SP+0
        CFI CFA_XSP16 add(XSP16, 9)
        CFI Block cfiCond28 Using cfiCommon0
        CFI (cfiCond28) NoFunction
        CFI (cfiCond28) Conditional ??CrossCallReturnLabel_36
        CFI (cfiCond28) R6 load(1, XDATA, add(CFA_XSP16, literal(-9)))
        CFI (cfiCond28) VB load(1, XDATA, add(CFA_XSP16, literal(-8)))
        CFI (cfiCond28) V0 load(1, XDATA, add(CFA_XSP16, literal(-7)))
        CFI (cfiCond28) R7 load(1, XDATA, add(CFA_XSP16, literal(-6)))
        CFI (cfiCond28) ?RET_LOW load(1, XDATA, add(CFA_XSP16, literal(-5)))
        CFI (cfiCond28) ?RET_HIGH load(1, XDATA, add(CFA_XSP16, literal(-4)))
        CFI (cfiCond28) ?BRET_EXT load(1, XDATA, add(CFA_XSP16, literal(-3)))
        CFI (cfiCond28) DPL0 load(1, XDATA, add(CFA_XSP16, literal(-2)))
        CFI (cfiCond28) DPH0 load(1, XDATA, add(CFA_XSP16, literal(-1)))
        CFI (cfiCond28) CFA_SP SP+0
        CFI (cfiCond28) CFA_XSP16 add(XSP16, 9)
        CFI Block cfiPicker29 Using cfiCommon1
        CFI (cfiPicker29) NoFunction
        CFI (cfiPicker29) Picker
        MOVX    A,@DPTR
        CLR     C
        SUBB    A,#-0x4f
        MOV     C,0xD0 /* PSW */.2
        XRL     A,PSW
        RLC     A
        RET
        CFI EndBlock cfiCond27
        CFI EndBlock cfiCond28
        CFI EndBlock cfiPicker29

        RSEG BANKED_CODE:CODE:NOROOT(0)
?Subroutine16:
        CFI Block cfiCond30 Using cfiCommon0
        CFI NoFunction
        CFI Conditional ??CrossCallReturnLabel_33
        CFI R6 load(1, XDATA, add(CFA_XSP16, literal(-9)))
        CFI VB load(1, XDATA, add(CFA_XSP16, literal(-8)))
        CFI V0 load(1, XDATA, add(CFA_XSP16, literal(-7)))
        CFI R7 load(1, XDATA, add(CFA_XSP16, literal(-6)))
        CFI ?RET_LOW load(1, XDATA, add(CFA_XSP16, literal(-5)))
        CFI ?RET_HIGH load(1, XDATA, add(CFA_XSP16, literal(-4)))
        CFI ?BRET_EXT load(1, XDATA, add(CFA_XSP16, literal(-3)))
        CFI DPL0 load(1, XDATA, add(CFA_XSP16, literal(-2)))
        CFI DPH0 load(1, XDATA, add(CFA_XSP16, literal(-1)))
        CFI CFA_SP SP+0
        CFI CFA_XSP16 add(XSP16, 9)
        CFI Block cfiCond31 Using cfiCommon0
        CFI (cfiCond31) NoFunction
        CFI (cfiCond31) Conditional ??CrossCallReturnLabel_34
        CFI (cfiCond31) R6 load(1, XDATA, add(CFA_XSP16, literal(-9)))
        CFI (cfiCond31) VB load(1, XDATA, add(CFA_XSP16, literal(-8)))
        CFI (cfiCond31) V0 load(1, XDATA, add(CFA_XSP16, literal(-7)))
        CFI (cfiCond31) R7 load(1, XDATA, add(CFA_XSP16, literal(-6)))
        CFI (cfiCond31) ?RET_LOW load(1, XDATA, add(CFA_XSP16, literal(-5)))
        CFI (cfiCond31) ?RET_HIGH load(1, XDATA, add(CFA_XSP16, literal(-4)))
        CFI (cfiCond31) ?BRET_EXT load(1, XDATA, add(CFA_XSP16, literal(-3)))
        CFI (cfiCond31) DPL0 load(1, XDATA, add(CFA_XSP16, literal(-2)))
        CFI (cfiCond31) DPH0 load(1, XDATA, add(CFA_XSP16, literal(-1)))
        CFI (cfiCond31) CFA_SP SP+0
        CFI (cfiCond31) CFA_XSP16 add(XSP16, 9)
        CFI Block cfiPicker32 Using cfiCommon1
        CFI (cfiPicker32) NoFunction
        CFI (cfiPicker32) Picker
        MOVX    A,@DPTR
        CLR     C
        SUBB    A,#0x50
        MOV     C,0xD0 /* PSW */.2
        XRL     A,PSW
        RLC     A
        RET
        CFI EndBlock cfiCond30
        CFI EndBlock cfiCond31
        CFI EndBlock cfiPicker32

        RSEG BANKED_CODE:CODE:NOROOT(0)
?Subroutine15:
        CFI Block cfiCond33 Using cfiCommon0
        CFI NoFunction
        CFI Conditional ??CrossCallReturnLabel_31
        CFI R6 load(1, XDATA, add(CFA_XSP16, literal(-9)))
        CFI VB load(1, XDATA, add(CFA_XSP16, literal(-8)))
        CFI V0 load(1, XDATA, add(CFA_XSP16, literal(-7)))
        CFI R7 load(1, XDATA, add(CFA_XSP16, literal(-6)))
        CFI ?RET_LOW load(1, XDATA, add(CFA_XSP16, literal(-5)))
        CFI ?RET_HIGH load(1, XDATA, add(CFA_XSP16, literal(-4)))
        CFI ?BRET_EXT load(1, XDATA, add(CFA_XSP16, literal(-3)))
        CFI DPL0 load(1, XDATA, add(CFA_XSP16, literal(-2)))
        CFI DPH0 load(1, XDATA, add(CFA_XSP16, literal(-1)))
        CFI CFA_SP SP+0
        CFI CFA_XSP16 add(XSP16, 9)
        CFI Block cfiCond34 Using cfiCommon0
        CFI (cfiCond34) NoFunction
        CFI (cfiCond34) Conditional ??CrossCallReturnLabel_32
        CFI (cfiCond34) R6 load(1, XDATA, add(CFA_XSP16, literal(-9)))
        CFI (cfiCond34) VB load(1, XDATA, add(CFA_XSP16, literal(-8)))
        CFI (cfiCond34) V0 load(1, XDATA, add(CFA_XSP16, literal(-7)))
        CFI (cfiCond34) R7 load(1, XDATA, add(CFA_XSP16, literal(-6)))
        CFI (cfiCond34) ?RET_LOW load(1, XDATA, add(CFA_XSP16, literal(-5)))
        CFI (cfiCond34) ?RET_HIGH load(1, XDATA, add(CFA_XSP16, literal(-4)))
        CFI (cfiCond34) ?BRET_EXT load(1, XDATA, add(CFA_XSP16, literal(-3)))
        CFI (cfiCond34) DPL0 load(1, XDATA, add(CFA_XSP16, literal(-2)))
        CFI (cfiCond34) DPH0 load(1, XDATA, add(CFA_XSP16, literal(-1)))
        CFI (cfiCond34) CFA_SP SP+0
        CFI (cfiCond34) CFA_XSP16 add(XSP16, 9)
        CFI Block cfiPicker35 Using cfiCommon1
        CFI (cfiPicker35) NoFunction
        CFI (cfiPicker35) Picker
        MOVX    A,@DPTR
        CLR     C
        SUBB    A,#0x4
        MOV     C,0xD0 /* PSW */.2
        XRL     A,PSW
        RLC     A
        RET
        CFI EndBlock cfiCond33
        CFI EndBlock cfiCond34
        CFI EndBlock cfiPicker35

        RSEG BANKED_CODE:CODE:NOROOT(0)
?Subroutine12:
        CFI Block cfiCond36 Using cfiCommon0
        CFI NoFunction
        CFI Conditional ??CrossCallReturnLabel_23
        CFI R6 load(1, XDATA, add(CFA_XSP16, literal(-9)))
        CFI VB load(1, XDATA, add(CFA_XSP16, literal(-8)))
        CFI V0 load(1, XDATA, add(CFA_XSP16, literal(-7)))
        CFI R7 load(1, XDATA, add(CFA_XSP16, literal(-6)))
        CFI ?RET_LOW load(1, XDATA, add(CFA_XSP16, literal(-5)))
        CFI ?RET_HIGH load(1, XDATA, add(CFA_XSP16, literal(-4)))
        CFI ?BRET_EXT load(1, XDATA, add(CFA_XSP16, literal(-3)))
        CFI DPL0 load(1, XDATA, add(CFA_XSP16, literal(-2)))
        CFI DPH0 load(1, XDATA, add(CFA_XSP16, literal(-1)))
        CFI CFA_SP SP+0
        CFI CFA_XSP16 add(XSP16, 9)
        CFI Block cfiCond37 Using cfiCommon0
        CFI (cfiCond37) NoFunction
        CFI (cfiCond37) Conditional ??CrossCallReturnLabel_24
        CFI (cfiCond37) R6 load(1, XDATA, add(CFA_XSP16, literal(-9)))
        CFI (cfiCond37) VB load(1, XDATA, add(CFA_XSP16, literal(-8)))
        CFI (cfiCond37) V0 load(1, XDATA, add(CFA_XSP16, literal(-7)))
        CFI (cfiCond37) R7 load(1, XDATA, add(CFA_XSP16, literal(-6)))
        CFI (cfiCond37) ?RET_LOW load(1, XDATA, add(CFA_XSP16, literal(-5)))
        CFI (cfiCond37) ?RET_HIGH load(1, XDATA, add(CFA_XSP16, literal(-4)))
        CFI (cfiCond37) ?BRET_EXT load(1, XDATA, add(CFA_XSP16, literal(-3)))
        CFI (cfiCond37) DPL0 load(1, XDATA, add(CFA_XSP16, literal(-2)))
        CFI (cfiCond37) DPH0 load(1, XDATA, add(CFA_XSP16, literal(-1)))
        CFI (cfiCond37) CFA_SP SP+0
        CFI (cfiCond37) CFA_XSP16 add(XSP16, 9)
        CFI Block cfiCond38 Using cfiCommon0
        CFI (cfiCond38) NoFunction
        CFI (cfiCond38) Conditional ??CrossCallReturnLabel_25
        CFI (cfiCond38) R6 load(1, XDATA, add(CFA_XSP16, literal(-9)))
        CFI (cfiCond38) VB load(1, XDATA, add(CFA_XSP16, literal(-8)))
        CFI (cfiCond38) V0 load(1, XDATA, add(CFA_XSP16, literal(-7)))
        CFI (cfiCond38) R7 load(1, XDATA, add(CFA_XSP16, literal(-6)))
        CFI (cfiCond38) ?RET_LOW load(1, XDATA, add(CFA_XSP16, literal(-5)))
        CFI (cfiCond38) ?RET_HIGH load(1, XDATA, add(CFA_XSP16, literal(-4)))
        CFI (cfiCond38) ?BRET_EXT load(1, XDATA, add(CFA_XSP16, literal(-3)))
        CFI (cfiCond38) DPL0 load(1, XDATA, add(CFA_XSP16, literal(-2)))
        CFI (cfiCond38) DPH0 load(1, XDATA, add(CFA_XSP16, literal(-1)))
        CFI (cfiCond38) CFA_SP SP+0
        CFI (cfiCond38) CFA_XSP16 add(XSP16, 9)
        CFI Block cfiCond39 Using cfiCommon0
        CFI (cfiCond39) NoFunction
        CFI (cfiCond39) Conditional ??CrossCallReturnLabel_26
        CFI (cfiCond39) R6 load(1, XDATA, add(CFA_XSP16, literal(-9)))
        CFI (cfiCond39) VB load(1, XDATA, add(CFA_XSP16, literal(-8)))
        CFI (cfiCond39) V0 load(1, XDATA, add(CFA_XSP16, literal(-7)))
        CFI (cfiCond39) R7 load(1, XDATA, add(CFA_XSP16, literal(-6)))
        CFI (cfiCond39) ?RET_LOW load(1, XDATA, add(CFA_XSP16, literal(-5)))
        CFI (cfiCond39) ?RET_HIGH load(1, XDATA, add(CFA_XSP16, literal(-4)))
        CFI (cfiCond39) ?BRET_EXT load(1, XDATA, add(CFA_XSP16, literal(-3)))
        CFI (cfiCond39) DPL0 load(1, XDATA, add(CFA_XSP16, literal(-2)))
        CFI (cfiCond39) DPH0 load(1, XDATA, add(CFA_XSP16, literal(-1)))
        CFI (cfiCond39) CFA_SP SP+0
        CFI (cfiCond39) CFA_XSP16 add(XSP16, 9)
        CFI Block cfiPicker40 Using cfiCommon1
        CFI (cfiPicker40) NoFunction
        CFI (cfiPicker40) Picker
        MOVX    A,@DPTR
        CLR     C
        SUBB    A,#0x0
        MOV     C,0xD0 /* PSW */.2
        XRL     A,PSW
        RLC     A
        RET
        CFI EndBlock cfiCond36
        CFI EndBlock cfiCond37
        CFI EndBlock cfiCond38
        CFI EndBlock cfiCond39
        CFI EndBlock cfiPicker40

        RSEG XDATA_Z:XDATA:NOROOT(0)
        DATA8
??MotorSpeed:
        DS 1
        REQUIRE __INIT_XDATA_Z

        RSEG XDATA_Z:XDATA:NOROOT(0)
        DATA8
??NetWorkAllow:
        DS 1
        REQUIRE __INIT_XDATA_Z

        RSEG XDATA_Z:XDATA:NOROOT(0)
        DATA8
??Relay1_on:
        DS 1
        REQUIRE __INIT_XDATA_Z

        RSEG XDATA_Z:XDATA:NOROOT(0)
        DATA8
??Relay2_on:
        DS 1
        REQUIRE __INIT_XDATA_Z
//  750 
//  751 /*********************************************************************
//  752  * @fn      Smart_home_ProcessMSGCmd
//  753  *
//  754  * @brief   Data message processor callback. This function processes
//  755  *          any incoming data - probably from other devices. Based
//  756  *          on the cluster ID, perform the intended action.
//  757  *
//  758  * @param   pkt - pointer to the incoming message packet
//  759  *
//  760  * @return  TRUE if the 'pkt' parameter is being used and will be freed later,
//  761  *          FALSE otherwise.
//  762  */

        RSEG BANKED_CODE:CODE:NOROOT(0)
//  763 void Smart_home_ProcessMSGCmd( afIncomingMSGPacket_t *pkt )
Smart_home_ProcessMSGCmd:
        CFI Block cfiBlock41 Using cfiCommon0
        CFI Function Smart_home_ProcessMSGCmd
        CODE
//  764 {
        MOV     A,#-0xa
        LCALL   ?BANKED_ENTER_XDATA
        CFI DPH0 load(1, XDATA, add(CFA_XSP16, literal(-1)))
        CFI DPL0 load(1, XDATA, add(CFA_XSP16, literal(-2)))
        CFI ?BRET_EXT load(1, XDATA, add(CFA_XSP16, literal(-3)))
        CFI ?RET_HIGH load(1, XDATA, add(CFA_XSP16, literal(-4)))
        CFI ?RET_LOW load(1, XDATA, add(CFA_XSP16, literal(-5)))
        CFI R7 load(1, XDATA, add(CFA_XSP16, literal(-6)))
        CFI V1 load(1, XDATA, add(CFA_XSP16, literal(-7)))
        CFI V0 load(1, XDATA, add(CFA_XSP16, literal(-8)))
        CFI VB load(1, XDATA, add(CFA_XSP16, literal(-9)))
        CFI R6 load(1, XDATA, add(CFA_XSP16, literal(-10)))
        CFI CFA_SP SP+0
        CFI CFA_XSP16 add(XSP16, 10)
        ; Saved register size: 10
        ; Auto size: 0
//  765   switch ( pkt->clusterId )
        MOV     DPL,R2
        MOV     DPH,R3
        INC     DPTR
        INC     DPTR
        INC     DPTR
        INC     DPTR
        MOVX    A,@DPTR
        MOV     ?V0 + 0,A
        INC     DPTR
        MOVX    A,@DPTR
        MOV     ?V0 + 1,A
        MOV     R0,#?V0 + 0
        LCALL   ?US_SWITCH_DENSE
`?<Jumptable for Smart_home_ProcessMSGCmd>_0`:
        DATA
        DATA16
        DATA
        DATA16
        DW        1
        DATA
        DATA8
        DATA
        DATA8
        DB        7
        DATA
        DATA16
        DATA
        DATA16
        DW        ??Smart_home_ProcessMSGCmd_0
        DATA
        DATA16
        DATA
        DATA16
        DW        ??Smart_home_ProcessMSGCmd_1
        DATA
        DATA16
        DATA
        DATA16
        DW        ??Smart_home_ProcessMSGCmd_2
        DATA
        DATA16
        DATA
        DATA16
        DW        ??Smart_home_ProcessMSGCmd_3
        DATA
        DATA16
        DATA
        DATA16
        DW        ??Smart_home_ProcessMSGCmd_4
        DATA
        DATA16
        DATA
        DATA16
        DW        ??Smart_home_ProcessMSGCmd_5
        DATA
        DATA16
        DATA
        DATA16
        DW        ??Smart_home_ProcessMSGCmd_6
        DATA
        DATA16
        DATA
        DATA16
        DW        ??Smart_home_ProcessMSGCmd_7
        DATA
        DATA16
        DATA
        DATA16
        DW        ??Smart_home_ProcessMSGCmd_8
        CODE
//  766   {
//  767   /***********************************************************************
//  768     目前总共8种case
//  769    #define Smart_home_CLUSTERID_HUMITMSG            1  // 温湿度
//  770    #define Smart_home_CLUSTERID_TEMPLIGHTMSG        2  // 温度光照
//  771    #define Smart_home_CLUSTERID_RFIDMSG             3  // 射频卡
//  772    #define Smart_home_CLUSTERID_GASFLAMEMSG         4  // 烟雾火焰
//  773    #define Smart_home_CLUSTERID_INFRAREDMSG         5  // 人体红外
//  774    #define Smart_home_CLUSTERID_SOUNDVBMSG          6  // 声音振动
//  775    #define Smart_home_CLUSTERID_MOTORSTATUSMSG      7  // 直流电机状态信息
//  776    #define Smart_home_CLUSTERID_RELAYSTATUSMSG      8  // 继电器状态信息
//  777     
//  778    设备描述
//  779    typedef struct DeviceInfo
//  780    {
//  781      uint8 deviceID;
//  782      uint8 deviceStatus;
//  783      uint8 data[5];
//  784    } DeviceInfo; 
//  785    ************************************************************************/ 
//  786     //3.14 消息处理模块，共8个，行为类似 
//  787     //3.21 修改为指针方法（DeviceList相关）
//  788     case Smart_home_CLUSTERID_HUMITMSG:         // 温湿度
//  789       DeviceList[Humit].deviceStatus = DEVICE_ONLINE;       //收到消息设置为在线
??Smart_home_ProcessMSGCmd_1:
        MOV     DPTR,#DeviceList + 8
        LCALL   ?Subroutine2 & 0xFFFF
//  790       DeviceList[Humit].data[0] = pkt->cmd.Data[4]; // 湿度 
??CrossCallReturnLabel_0:
        MOV     DPTR,#DeviceList + 9
        LCALL   ?Subroutine6 & 0xFFFF
//  791       DeviceList[Humit].data[1] = pkt->cmd.Data[5]; // 温度
??CrossCallReturnLabel_12:
        MOV     DPTR,#DeviceList + 10
        LJMP    ??Smart_home_ProcessMSGCmd_9 & 0xFFFF
//  792       break;
//  793       
//  794     case Smart_home_CLUSTERID_TEMPLIGHTMSG:     // 温度光照
//  795       DeviceList[TempLight].deviceStatus = DEVICE_ONLINE;   //收到消息设置为在线
??Smart_home_ProcessMSGCmd_2:
        MOV     DPTR,#DeviceList + 15
        LCALL   ?Subroutine2 & 0xFFFF
//  796       DeviceList[TempLight].data[0] = pkt->cmd.Data[4]; // 温度整数
??CrossCallReturnLabel_1:
        MOV     DPTR,#DeviceList + 16
        LCALL   ?Subroutine7 & 0xFFFF
//  797       DeviceList[TempLight].data[1] = pkt->cmd.Data[5]; // 温度小数
??CrossCallReturnLabel_14:
        MOV     DPTR,#DeviceList + 17
        LCALL   ?Subroutine5 & 0xFFFF
//  798       DeviceList[TempLight].data[2] = pkt->cmd.Data[6]; // 光照
??CrossCallReturnLabel_10:
        MOV     DPTR,#DeviceList + 18
        LCALL   ?Subroutine4 & 0xFFFF
//  799       DeviceList[TempLight].data[3] = pkt->cmd.Data[7]; // 光照
??CrossCallReturnLabel_8:
        MOVX    A,@DPTR
        MOV     DPTR,#DeviceList + 19
        LJMP    ??Smart_home_ProcessMSGCmd_9 & 0xFFFF
//  800       break;
//  801       
//  802     case Smart_home_CLUSTERID_RFIDMSG:          // 射频卡
//  803       DeviceList[RfID].deviceStatus = DEVICE_ONLINE;        //收到消息设置为在线
??Smart_home_ProcessMSGCmd_3:
        MOV     DPTR,#DeviceList + 22
        LCALL   ?Subroutine2 & 0xFFFF
//  804       DeviceList[RfID].data[0] = pkt->cmd.Data[4]; // 射频卡类型
??CrossCallReturnLabel_2:
        MOV     DPTR,#DeviceList + 23
        LCALL   ?Subroutine7 & 0xFFFF
//  805       DeviceList[RfID].data[1] = pkt->cmd.Data[5]; // 4个字节的ID号
??CrossCallReturnLabel_15:
        MOV     DPTR,#DeviceList + 24
        LCALL   ?Subroutine5 & 0xFFFF
//  806       DeviceList[RfID].data[2] = pkt->cmd.Data[6]; //
??CrossCallReturnLabel_11:
        MOV     DPTR,#DeviceList + 25
        LCALL   ?Subroutine22 & 0xFFFF
//  807       DeviceList[RfID].data[3] = pkt->cmd.Data[7]; //
??CrossCallReturnLabel_47:
        INC     DPTR
        MOVX    A,@DPTR
        MOV     DPTR,#DeviceList + 26
        LCALL   ?Subroutine4 & 0xFFFF
//  808       DeviceList[RfID].data[4] = pkt->cmd.Data[8]; //  
??CrossCallReturnLabel_9:
        INC     DPTR
        MOVX    A,@DPTR
        MOV     DPTR,#DeviceList + 27
        SJMP    ??Smart_home_ProcessMSGCmd_9
//  809       break;
//  810       
//  811     case Smart_home_CLUSTERID_GASFLAMEMSG:      // 烟雾火焰
//  812       DeviceList[gasFlame].deviceStatus = DEVICE_ONLINE;    //收到消息设置为在线
??Smart_home_ProcessMSGCmd_4:
        MOV     DPTR,#DeviceList + 29
        LCALL   ?Subroutine3 & 0xFFFF
//  813       DeviceList[gasFlame].data[0] = pkt->cmd.Data[4]; // 烟雾与火焰报警信息
??CrossCallReturnLabel_4:
        MOV     DPTR,#DeviceList + 30
        SJMP    ??Smart_home_ProcessMSGCmd_9
//  814       break;
//  815       
//  816     case Smart_home_CLUSTERID_INFRAREDMSG:      // 人体红外
//  817       DeviceList[infrared].deviceStatus = DEVICE_ONLINE;    //收到消息设置为在线
??Smart_home_ProcessMSGCmd_5:
        MOV     DPTR,#DeviceList + 36
        LCALL   ?Subroutine3 & 0xFFFF
//  818       DeviceList[infrared].data[0] = pkt->cmd.Data[4]; // 人体红外 
??CrossCallReturnLabel_5:
        MOV     DPTR,#DeviceList + 37
        SJMP    ??Smart_home_ProcessMSGCmd_9
//  819       break;
//  820 
//  821     case Smart_home_CLUSTERID_SOUNDVBMSG:       // 声音振动
//  822       DeviceList[soundVb].deviceStatus = DEVICE_ONLINE;     //收到消息设置为在线
??Smart_home_ProcessMSGCmd_6:
        MOV     DPTR,#DeviceList + 57
        LCALL   ?Subroutine3 & 0xFFFF
//  823       DeviceList[soundVb].data[0] = pkt->cmd.Data[4]; // 声音震动信息
??CrossCallReturnLabel_6:
        MOV     DPTR,#DeviceList + 58
        SJMP    ??Smart_home_ProcessMSGCmd_9
//  824       break;
//  825       
//  826     case Smart_home_CLUSTERID_MOTORSTATUSMSG:   // 直流电机状态信息
//  827       DeviceList[motor].deviceStatus = DEVICE_ONLINE;       //收到消息设置为在线
??Smart_home_ProcessMSGCmd_7:
        MOV     DPTR,#DeviceList + 43
        MOV     A,#0x1
        MOVX    @DPTR,A
//  828       // 储存电机设备的网络地址，用于发送控制命令
//  829       Motor_addr.addrMode = (afAddrMode_t)Addr16Bit;
        MOV     DPTR,#Motor_addr + 8
        LCALL   ?Subroutine8 & 0xFFFF
//  830       Motor_addr.addr.shortAddr = pkt->srcAddr.addr.shortAddr;
??CrossCallReturnLabel_16:
        MOV     DPTR,#Motor_addr
        MOV     A,R0
        MOVX    @DPTR,A
        INC     DPTR
        MOV     A,R1
        MOVX    @DPTR,A
//  831       
//  832       Motor_addr.endPoint = 1;  // 目的节点的端口号
        MOV     DPTR,#Motor_addr + 9
        LCALL   ?Subroutine2 & 0xFFFF
//  833       //TransmitApp_DstMotorAddr->endPoint = TRANSMITAPP_ENDPOINT;
//  834      
//  835       DeviceList[motor].data[0] = pkt->cmd.Data[4]; // 电机转速
??CrossCallReturnLabel_3:
        MOV     DPTR,#DeviceList + 44
        LCALL   ?Subroutine6 & 0xFFFF
//  836       DeviceList[motor].data[1] = pkt->cmd.Data[5]; // 电机状态
??CrossCallReturnLabel_13:
        MOV     DPTR,#DeviceList + 45
        SJMP    ??Smart_home_ProcessMSGCmd_9
//  837       break;
//  838       
//  839     case Smart_home_CLUSTERID_RELAYSTATUSMSG:   // 继电器状态信息
//  840       DeviceList[relay].deviceStatus = DEVICE_ONLINE;       //收到消息设置为在线    
??Smart_home_ProcessMSGCmd_8:
        MOV     DPTR,#DeviceList + 50
        MOV     A,#0x1
        MOVX    @DPTR,A
//  841       
//  842       // 储存继电器设备的网络地址，用于发送控制命令
//  843       Relay_addr.addrMode = (afAddrMode_t)Addr16Bit;
        MOV     DPTR,#Relay_addr + 8
        LCALL   ?Subroutine8 & 0xFFFF
//  844       Relay_addr.addr.shortAddr = pkt->srcAddr.addr.shortAddr;    
??CrossCallReturnLabel_17:
        MOV     DPTR,#Relay_addr
        MOV     A,R0
        MOVX    @DPTR,A
        INC     DPTR
        MOV     A,R1
        MOVX    @DPTR,A
//  845       Relay_addr.endPoint = 1; // 目的节点的端口号
        MOV     DPTR,#Relay_addr + 9
        LCALL   ?Subroutine3 & 0xFFFF
//  846       DeviceList[relay].data[0] = pkt->cmd.Data[4]; 
??CrossCallReturnLabel_7:
        MOV     DPTR,#DeviceList + 51
??Smart_home_ProcessMSGCmd_9:
        MOVX    @DPTR,A
//  847       break;
//  848       
//  849     default:
//  850       break;
//  851   }
//  852 }
??Smart_home_ProcessMSGCmd_0:
        LJMP    ?Subroutine1 & 0xFFFF
        CFI EndBlock cfiBlock41

        RSEG BANKED_CODE:CODE:NOROOT(0)
?Subroutine8:
        CFI Block cfiCond42 Using cfiCommon0
        CFI NoFunction
        CFI Conditional ??CrossCallReturnLabel_16
        CFI R6 load(1, XDATA, add(CFA_XSP16, literal(-10)))
        CFI VB load(1, XDATA, add(CFA_XSP16, literal(-9)))
        CFI V0 load(1, XDATA, add(CFA_XSP16, literal(-8)))
        CFI V1 load(1, XDATA, add(CFA_XSP16, literal(-7)))
        CFI R7 load(1, XDATA, add(CFA_XSP16, literal(-6)))
        CFI ?RET_LOW load(1, XDATA, add(CFA_XSP16, literal(-5)))
        CFI ?RET_HIGH load(1, XDATA, add(CFA_XSP16, literal(-4)))
        CFI ?BRET_EXT load(1, XDATA, add(CFA_XSP16, literal(-3)))
        CFI DPL0 load(1, XDATA, add(CFA_XSP16, literal(-2)))
        CFI DPH0 load(1, XDATA, add(CFA_XSP16, literal(-1)))
        CFI CFA_SP SP+0
        CFI CFA_XSP16 add(XSP16, 10)
        CFI Block cfiCond43 Using cfiCommon0
        CFI (cfiCond43) NoFunction
        CFI (cfiCond43) Conditional ??CrossCallReturnLabel_17
        CFI (cfiCond43) R6 load(1, XDATA, add(CFA_XSP16, literal(-10)))
        CFI (cfiCond43) VB load(1, XDATA, add(CFA_XSP16, literal(-9)))
        CFI (cfiCond43) V0 load(1, XDATA, add(CFA_XSP16, literal(-8)))
        CFI (cfiCond43) V1 load(1, XDATA, add(CFA_XSP16, literal(-7)))
        CFI (cfiCond43) R7 load(1, XDATA, add(CFA_XSP16, literal(-6)))
        CFI (cfiCond43) ?RET_LOW load(1, XDATA, add(CFA_XSP16, literal(-5)))
        CFI (cfiCond43) ?RET_HIGH load(1, XDATA, add(CFA_XSP16, literal(-4)))
        CFI (cfiCond43) ?BRET_EXT load(1, XDATA, add(CFA_XSP16, literal(-3)))
        CFI (cfiCond43) DPL0 load(1, XDATA, add(CFA_XSP16, literal(-2)))
        CFI (cfiCond43) DPH0 load(1, XDATA, add(CFA_XSP16, literal(-1)))
        CFI (cfiCond43) CFA_SP SP+0
        CFI (cfiCond43) CFA_XSP16 add(XSP16, 10)
        CFI Block cfiPicker44 Using cfiCommon1
        CFI (cfiPicker44) NoFunction
        CFI (cfiPicker44) Picker
        INC     A
        MOVX    @DPTR,A
        MOV     DPL,R2
        MOV     DPH,R3
        INC     DPTR
        INC     DPTR
        INC     DPTR
        INC     DPTR
        INC     DPTR
        INC     DPTR
        MOVX    A,@DPTR
        MOV     R0,A
        INC     DPTR
        MOVX    A,@DPTR
        MOV     R1,A
        RET
        CFI EndBlock cfiCond42
        CFI EndBlock cfiCond43
        CFI EndBlock cfiPicker44

        RSEG BANKED_CODE:CODE:NOROOT(0)
?Subroutine7:
        CFI Block cfiCond45 Using cfiCommon0
        CFI NoFunction
        CFI Conditional ??CrossCallReturnLabel_14
        CFI R6 load(1, XDATA, add(CFA_XSP16, literal(-10)))
        CFI VB load(1, XDATA, add(CFA_XSP16, literal(-9)))
        CFI V0 load(1, XDATA, add(CFA_XSP16, literal(-8)))
        CFI V1 load(1, XDATA, add(CFA_XSP16, literal(-7)))
        CFI R7 load(1, XDATA, add(CFA_XSP16, literal(-6)))
        CFI ?RET_LOW load(1, XDATA, add(CFA_XSP16, literal(-5)))
        CFI ?RET_HIGH load(1, XDATA, add(CFA_XSP16, literal(-4)))
        CFI ?BRET_EXT load(1, XDATA, add(CFA_XSP16, literal(-3)))
        CFI DPL0 load(1, XDATA, add(CFA_XSP16, literal(-2)))
        CFI DPH0 load(1, XDATA, add(CFA_XSP16, literal(-1)))
        CFI CFA_SP SP+0
        CFI CFA_XSP16 add(XSP16, 10)
        CFI Block cfiCond46 Using cfiCommon0
        CFI (cfiCond46) NoFunction
        CFI (cfiCond46) Conditional ??CrossCallReturnLabel_15
        CFI (cfiCond46) R6 load(1, XDATA, add(CFA_XSP16, literal(-10)))
        CFI (cfiCond46) VB load(1, XDATA, add(CFA_XSP16, literal(-9)))
        CFI (cfiCond46) V0 load(1, XDATA, add(CFA_XSP16, literal(-8)))
        CFI (cfiCond46) V1 load(1, XDATA, add(CFA_XSP16, literal(-7)))
        CFI (cfiCond46) R7 load(1, XDATA, add(CFA_XSP16, literal(-6)))
        CFI (cfiCond46) ?RET_LOW load(1, XDATA, add(CFA_XSP16, literal(-5)))
        CFI (cfiCond46) ?RET_HIGH load(1, XDATA, add(CFA_XSP16, literal(-4)))
        CFI (cfiCond46) ?BRET_EXT load(1, XDATA, add(CFA_XSP16, literal(-3)))
        CFI (cfiCond46) DPL0 load(1, XDATA, add(CFA_XSP16, literal(-2)))
        CFI (cfiCond46) DPH0 load(1, XDATA, add(CFA_XSP16, literal(-1)))
        CFI (cfiCond46) CFA_SP SP+0
        CFI (cfiCond46) CFA_XSP16 add(XSP16, 10)
        CFI Block cfiPicker47 Using cfiCommon1
        CFI (cfiPicker47) NoFunction
        CFI (cfiPicker47) Picker
        MOVX    @DPTR,A
        LCALL   ?Subroutine24 & 0xFFFF
??CrossCallReturnLabel_52:
        INC     DPTR
        MOVX    A,@DPTR
        RET
        CFI EndBlock cfiCond45
        CFI EndBlock cfiCond46
        CFI EndBlock cfiPicker47

        RSEG BANKED_CODE:CODE:NOROOT(0)
?Subroutine6:
        CFI Block cfiCond48 Using cfiCommon0
        CFI NoFunction
        CFI Conditional ??CrossCallReturnLabel_12
        CFI R6 load(1, XDATA, add(CFA_XSP16, literal(-10)))
        CFI VB load(1, XDATA, add(CFA_XSP16, literal(-9)))
        CFI V0 load(1, XDATA, add(CFA_XSP16, literal(-8)))
        CFI V1 load(1, XDATA, add(CFA_XSP16, literal(-7)))
        CFI R7 load(1, XDATA, add(CFA_XSP16, literal(-6)))
        CFI ?RET_LOW load(1, XDATA, add(CFA_XSP16, literal(-5)))
        CFI ?RET_HIGH load(1, XDATA, add(CFA_XSP16, literal(-4)))
        CFI ?BRET_EXT load(1, XDATA, add(CFA_XSP16, literal(-3)))
        CFI DPL0 load(1, XDATA, add(CFA_XSP16, literal(-2)))
        CFI DPH0 load(1, XDATA, add(CFA_XSP16, literal(-1)))
        CFI CFA_SP SP+0
        CFI CFA_XSP16 add(XSP16, 10)
        CFI Block cfiCond49 Using cfiCommon0
        CFI (cfiCond49) NoFunction
        CFI (cfiCond49) Conditional ??CrossCallReturnLabel_13
        CFI (cfiCond49) R6 load(1, XDATA, add(CFA_XSP16, literal(-10)))
        CFI (cfiCond49) VB load(1, XDATA, add(CFA_XSP16, literal(-9)))
        CFI (cfiCond49) V0 load(1, XDATA, add(CFA_XSP16, literal(-8)))
        CFI (cfiCond49) V1 load(1, XDATA, add(CFA_XSP16, literal(-7)))
        CFI (cfiCond49) R7 load(1, XDATA, add(CFA_XSP16, literal(-6)))
        CFI (cfiCond49) ?RET_LOW load(1, XDATA, add(CFA_XSP16, literal(-5)))
        CFI (cfiCond49) ?RET_HIGH load(1, XDATA, add(CFA_XSP16, literal(-4)))
        CFI (cfiCond49) ?BRET_EXT load(1, XDATA, add(CFA_XSP16, literal(-3)))
        CFI (cfiCond49) DPL0 load(1, XDATA, add(CFA_XSP16, literal(-2)))
        CFI (cfiCond49) DPH0 load(1, XDATA, add(CFA_XSP16, literal(-1)))
        CFI (cfiCond49) CFA_SP SP+0
        CFI (cfiCond49) CFA_XSP16 add(XSP16, 10)
        CFI Block cfiPicker50 Using cfiCommon1
        CFI (cfiPicker50) NoFunction
        CFI (cfiPicker50) Picker
        LCALL   ?Subroutine23 & 0xFFFF
??CrossCallReturnLabel_49:
        MOVX    A,@DPTR
        RET
        CFI EndBlock cfiCond48
        CFI EndBlock cfiCond49
        CFI EndBlock cfiPicker50

        RSEG BANKED_CODE:CODE:NOROOT(0)
?Subroutine5:
        CFI Block cfiCond51 Using cfiCommon0
        CFI NoFunction
        CFI Conditional ??CrossCallReturnLabel_10
        CFI R6 load(1, XDATA, add(CFA_XSP16, literal(-10)))
        CFI VB load(1, XDATA, add(CFA_XSP16, literal(-9)))
        CFI V0 load(1, XDATA, add(CFA_XSP16, literal(-8)))
        CFI V1 load(1, XDATA, add(CFA_XSP16, literal(-7)))
        CFI R7 load(1, XDATA, add(CFA_XSP16, literal(-6)))
        CFI ?RET_LOW load(1, XDATA, add(CFA_XSP16, literal(-5)))
        CFI ?RET_HIGH load(1, XDATA, add(CFA_XSP16, literal(-4)))
        CFI ?BRET_EXT load(1, XDATA, add(CFA_XSP16, literal(-3)))
        CFI DPL0 load(1, XDATA, add(CFA_XSP16, literal(-2)))
        CFI DPH0 load(1, XDATA, add(CFA_XSP16, literal(-1)))
        CFI CFA_SP SP+0
        CFI CFA_XSP16 add(XSP16, 10)
        CFI Block cfiCond52 Using cfiCommon0
        CFI (cfiCond52) NoFunction
        CFI (cfiCond52) Conditional ??CrossCallReturnLabel_11
        CFI (cfiCond52) R6 load(1, XDATA, add(CFA_XSP16, literal(-10)))
        CFI (cfiCond52) VB load(1, XDATA, add(CFA_XSP16, literal(-9)))
        CFI (cfiCond52) V0 load(1, XDATA, add(CFA_XSP16, literal(-8)))
        CFI (cfiCond52) V1 load(1, XDATA, add(CFA_XSP16, literal(-7)))
        CFI (cfiCond52) R7 load(1, XDATA, add(CFA_XSP16, literal(-6)))
        CFI (cfiCond52) ?RET_LOW load(1, XDATA, add(CFA_XSP16, literal(-5)))
        CFI (cfiCond52) ?RET_HIGH load(1, XDATA, add(CFA_XSP16, literal(-4)))
        CFI (cfiCond52) ?BRET_EXT load(1, XDATA, add(CFA_XSP16, literal(-3)))
        CFI (cfiCond52) DPL0 load(1, XDATA, add(CFA_XSP16, literal(-2)))
        CFI (cfiCond52) DPH0 load(1, XDATA, add(CFA_XSP16, literal(-1)))
        CFI (cfiCond52) CFA_SP SP+0
        CFI (cfiCond52) CFA_XSP16 add(XSP16, 10)
        CFI Block cfiPicker53 Using cfiCommon1
        CFI (cfiPicker53) NoFunction
        CFI (cfiPicker53) Picker
        LCALL   ?Subroutine22 & 0xFFFF
??CrossCallReturnLabel_48:
        MOVX    A,@DPTR
        RET
        CFI EndBlock cfiCond51
        CFI EndBlock cfiCond52
        CFI EndBlock cfiPicker53

        RSEG BANKED_CODE:CODE:NOROOT(0)
?Subroutine22:
        CFI Block cfiCond54 Using cfiCommon0
        CFI NoFunction
        CFI Conditional ??CrossCallReturnLabel_47
        CFI R6 load(1, XDATA, add(CFA_XSP16, literal(-10)))
        CFI VB load(1, XDATA, add(CFA_XSP16, literal(-9)))
        CFI V0 load(1, XDATA, add(CFA_XSP16, literal(-8)))
        CFI V1 load(1, XDATA, add(CFA_XSP16, literal(-7)))
        CFI R7 load(1, XDATA, add(CFA_XSP16, literal(-6)))
        CFI ?RET_LOW load(1, XDATA, add(CFA_XSP16, literal(-5)))
        CFI ?RET_HIGH load(1, XDATA, add(CFA_XSP16, literal(-4)))
        CFI ?BRET_EXT load(1, XDATA, add(CFA_XSP16, literal(-3)))
        CFI DPL0 load(1, XDATA, add(CFA_XSP16, literal(-2)))
        CFI DPH0 load(1, XDATA, add(CFA_XSP16, literal(-1)))
        CFI CFA_SP SP+0
        CFI CFA_XSP16 add(XSP16, 10)
        CFI Block cfiCond55 Using cfiCommon0
        CFI (cfiCond55) NoFunction
        CFI (cfiCond55) Conditional ??CrossCallReturnLabel_48, ??CrossCallReturnLabel_10
        CFI (cfiCond55) R6 load(1, XDATA, add(CFA_XSP16, literal(-10)))
        CFI (cfiCond55) VB load(1, XDATA, add(CFA_XSP16, literal(-9)))
        CFI (cfiCond55) V0 load(1, XDATA, add(CFA_XSP16, literal(-8)))
        CFI (cfiCond55) V1 load(1, XDATA, add(CFA_XSP16, literal(-7)))
        CFI (cfiCond55) R7 load(1, XDATA, add(CFA_XSP16, literal(-6)))
        CFI (cfiCond55) ?RET_LOW load(1, XDATA, add(CFA_XSP16, literal(-5)))
        CFI (cfiCond55) ?RET_HIGH load(1, XDATA, add(CFA_XSP16, literal(-4)))
        CFI (cfiCond55) ?BRET_EXT load(1, XDATA, add(CFA_XSP16, literal(-3)))
        CFI (cfiCond55) DPL0 load(1, XDATA, add(CFA_XSP16, literal(-2)))
        CFI (cfiCond55) DPH0 load(1, XDATA, add(CFA_XSP16, literal(-1)))
        CFI (cfiCond55) CFA_SP SP+0
        CFI (cfiCond55) CFA_XSP16 add(XSP16, 10)
        CFI Block cfiCond56 Using cfiCommon0
        CFI (cfiCond56) NoFunction
        CFI (cfiCond56) Conditional ??CrossCallReturnLabel_48, ??CrossCallReturnLabel_11
        CFI (cfiCond56) R6 load(1, XDATA, add(CFA_XSP16, literal(-10)))
        CFI (cfiCond56) VB load(1, XDATA, add(CFA_XSP16, literal(-9)))
        CFI (cfiCond56) V0 load(1, XDATA, add(CFA_XSP16, literal(-8)))
        CFI (cfiCond56) V1 load(1, XDATA, add(CFA_XSP16, literal(-7)))
        CFI (cfiCond56) R7 load(1, XDATA, add(CFA_XSP16, literal(-6)))
        CFI (cfiCond56) ?RET_LOW load(1, XDATA, add(CFA_XSP16, literal(-5)))
        CFI (cfiCond56) ?RET_HIGH load(1, XDATA, add(CFA_XSP16, literal(-4)))
        CFI (cfiCond56) ?BRET_EXT load(1, XDATA, add(CFA_XSP16, literal(-3)))
        CFI (cfiCond56) DPL0 load(1, XDATA, add(CFA_XSP16, literal(-2)))
        CFI (cfiCond56) DPH0 load(1, XDATA, add(CFA_XSP16, literal(-1)))
        CFI (cfiCond56) CFA_SP SP+0
        CFI (cfiCond56) CFA_XSP16 add(XSP16, 10)
        CFI Block cfiPicker57 Using cfiCommon1
        CFI (cfiPicker57) NoFunction
        CFI (cfiPicker57) Picker
        MOVX    @DPTR,A
        LCALL   ?Subroutine25 & 0xFFFF
??CrossCallReturnLabel_53:
        INC     DPTR
        INC     DPTR
        RET
        CFI EndBlock cfiCond54
        CFI EndBlock cfiCond55
        CFI EndBlock cfiCond56
        CFI EndBlock cfiPicker57

        RSEG BANKED_CODE:CODE:NOROOT(0)
?Subroutine4:
        CFI Block cfiCond58 Using cfiCommon0
        CFI NoFunction
        CFI Conditional ??CrossCallReturnLabel_8
        CFI R6 load(1, XDATA, add(CFA_XSP16, literal(-10)))
        CFI VB load(1, XDATA, add(CFA_XSP16, literal(-9)))
        CFI V0 load(1, XDATA, add(CFA_XSP16, literal(-8)))
        CFI V1 load(1, XDATA, add(CFA_XSP16, literal(-7)))
        CFI R7 load(1, XDATA, add(CFA_XSP16, literal(-6)))
        CFI ?RET_LOW load(1, XDATA, add(CFA_XSP16, literal(-5)))
        CFI ?RET_HIGH load(1, XDATA, add(CFA_XSP16, literal(-4)))
        CFI ?BRET_EXT load(1, XDATA, add(CFA_XSP16, literal(-3)))
        CFI DPL0 load(1, XDATA, add(CFA_XSP16, literal(-2)))
        CFI DPH0 load(1, XDATA, add(CFA_XSP16, literal(-1)))
        CFI CFA_SP SP+0
        CFI CFA_XSP16 add(XSP16, 10)
        CFI Block cfiCond59 Using cfiCommon0
        CFI (cfiCond59) NoFunction
        CFI (cfiCond59) Conditional ??CrossCallReturnLabel_9
        CFI (cfiCond59) R6 load(1, XDATA, add(CFA_XSP16, literal(-10)))
        CFI (cfiCond59) VB load(1, XDATA, add(CFA_XSP16, literal(-9)))
        CFI (cfiCond59) V0 load(1, XDATA, add(CFA_XSP16, literal(-8)))
        CFI (cfiCond59) V1 load(1, XDATA, add(CFA_XSP16, literal(-7)))
        CFI (cfiCond59) R7 load(1, XDATA, add(CFA_XSP16, literal(-6)))
        CFI (cfiCond59) ?RET_LOW load(1, XDATA, add(CFA_XSP16, literal(-5)))
        CFI (cfiCond59) ?RET_HIGH load(1, XDATA, add(CFA_XSP16, literal(-4)))
        CFI (cfiCond59) ?BRET_EXT load(1, XDATA, add(CFA_XSP16, literal(-3)))
        CFI (cfiCond59) DPL0 load(1, XDATA, add(CFA_XSP16, literal(-2)))
        CFI (cfiCond59) DPH0 load(1, XDATA, add(CFA_XSP16, literal(-1)))
        CFI (cfiCond59) CFA_SP SP+0
        CFI (cfiCond59) CFA_XSP16 add(XSP16, 10)
        CFI Block cfiPicker60 Using cfiCommon1
        CFI (cfiPicker60) NoFunction
        CFI (cfiPicker60) Picker
        LCALL   ?Subroutine23 & 0xFFFF
??CrossCallReturnLabel_50:
        INC     DPTR
        INC     DPTR
        RET
        CFI EndBlock cfiCond58
        CFI EndBlock cfiCond59
        CFI EndBlock cfiPicker60

        RSEG BANKED_CODE:CODE:NOROOT(0)
?Subroutine23:
        CFI Block cfiCond61 Using cfiCommon0
        CFI NoFunction
        CFI Conditional ??CrossCallReturnLabel_49, ??CrossCallReturnLabel_12
        CFI R6 load(1, XDATA, add(CFA_XSP16, literal(-10)))
        CFI VB load(1, XDATA, add(CFA_XSP16, literal(-9)))
        CFI V0 load(1, XDATA, add(CFA_XSP16, literal(-8)))
        CFI V1 load(1, XDATA, add(CFA_XSP16, literal(-7)))
        CFI R7 load(1, XDATA, add(CFA_XSP16, literal(-6)))
        CFI ?RET_LOW load(1, XDATA, add(CFA_XSP16, literal(-5)))
        CFI ?RET_HIGH load(1, XDATA, add(CFA_XSP16, literal(-4)))
        CFI ?BRET_EXT load(1, XDATA, add(CFA_XSP16, literal(-3)))
        CFI DPL0 load(1, XDATA, add(CFA_XSP16, literal(-2)))
        CFI DPH0 load(1, XDATA, add(CFA_XSP16, literal(-1)))
        CFI CFA_SP SP+0
        CFI CFA_XSP16 add(XSP16, 10)
        CFI Block cfiCond62 Using cfiCommon0
        CFI (cfiCond62) NoFunction
        CFI (cfiCond62) Conditional ??CrossCallReturnLabel_49, ??CrossCallReturnLabel_13
        CFI (cfiCond62) R6 load(1, XDATA, add(CFA_XSP16, literal(-10)))
        CFI (cfiCond62) VB load(1, XDATA, add(CFA_XSP16, literal(-9)))
        CFI (cfiCond62) V0 load(1, XDATA, add(CFA_XSP16, literal(-8)))
        CFI (cfiCond62) V1 load(1, XDATA, add(CFA_XSP16, literal(-7)))
        CFI (cfiCond62) R7 load(1, XDATA, add(CFA_XSP16, literal(-6)))
        CFI (cfiCond62) ?RET_LOW load(1, XDATA, add(CFA_XSP16, literal(-5)))
        CFI (cfiCond62) ?RET_HIGH load(1, XDATA, add(CFA_XSP16, literal(-4)))
        CFI (cfiCond62) ?BRET_EXT load(1, XDATA, add(CFA_XSP16, literal(-3)))
        CFI (cfiCond62) DPL0 load(1, XDATA, add(CFA_XSP16, literal(-2)))
        CFI (cfiCond62) DPH0 load(1, XDATA, add(CFA_XSP16, literal(-1)))
        CFI (cfiCond62) CFA_SP SP+0
        CFI (cfiCond62) CFA_XSP16 add(XSP16, 10)
        CFI Block cfiCond63 Using cfiCommon0
        CFI (cfiCond63) NoFunction
        CFI (cfiCond63) Conditional ??CrossCallReturnLabel_50, ??CrossCallReturnLabel_8
        CFI (cfiCond63) R6 load(1, XDATA, add(CFA_XSP16, literal(-10)))
        CFI (cfiCond63) VB load(1, XDATA, add(CFA_XSP16, literal(-9)))
        CFI (cfiCond63) V0 load(1, XDATA, add(CFA_XSP16, literal(-8)))
        CFI (cfiCond63) V1 load(1, XDATA, add(CFA_XSP16, literal(-7)))
        CFI (cfiCond63) R7 load(1, XDATA, add(CFA_XSP16, literal(-6)))
        CFI (cfiCond63) ?RET_LOW load(1, XDATA, add(CFA_XSP16, literal(-5)))
        CFI (cfiCond63) ?RET_HIGH load(1, XDATA, add(CFA_XSP16, literal(-4)))
        CFI (cfiCond63) ?BRET_EXT load(1, XDATA, add(CFA_XSP16, literal(-3)))
        CFI (cfiCond63) DPL0 load(1, XDATA, add(CFA_XSP16, literal(-2)))
        CFI (cfiCond63) DPH0 load(1, XDATA, add(CFA_XSP16, literal(-1)))
        CFI (cfiCond63) CFA_SP SP+0
        CFI (cfiCond63) CFA_XSP16 add(XSP16, 10)
        CFI Block cfiCond64 Using cfiCommon0
        CFI (cfiCond64) NoFunction
        CFI (cfiCond64) Conditional ??CrossCallReturnLabel_50, ??CrossCallReturnLabel_9
        CFI (cfiCond64) R6 load(1, XDATA, add(CFA_XSP16, literal(-10)))
        CFI (cfiCond64) VB load(1, XDATA, add(CFA_XSP16, literal(-9)))
        CFI (cfiCond64) V0 load(1, XDATA, add(CFA_XSP16, literal(-8)))
        CFI (cfiCond64) V1 load(1, XDATA, add(CFA_XSP16, literal(-7)))
        CFI (cfiCond64) R7 load(1, XDATA, add(CFA_XSP16, literal(-6)))
        CFI (cfiCond64) ?RET_LOW load(1, XDATA, add(CFA_XSP16, literal(-5)))
        CFI (cfiCond64) ?RET_HIGH load(1, XDATA, add(CFA_XSP16, literal(-4)))
        CFI (cfiCond64) ?BRET_EXT load(1, XDATA, add(CFA_XSP16, literal(-3)))
        CFI (cfiCond64) DPL0 load(1, XDATA, add(CFA_XSP16, literal(-2)))
        CFI (cfiCond64) DPH0 load(1, XDATA, add(CFA_XSP16, literal(-1)))
        CFI (cfiCond64) CFA_SP SP+0
        CFI (cfiCond64) CFA_XSP16 add(XSP16, 10)
        CFI Block cfiPicker65 Using cfiCommon1
        CFI (cfiPicker65) NoFunction
        CFI (cfiPicker65) Picker
        MOVX    @DPTR,A
        MOV     DPL,R0
        MOV     DPH,R1
        LCALL   ?Subroutine26 & 0xFFFF
??CrossCallReturnLabel_56:
        INC     DPTR
        RET
        CFI EndBlock cfiCond61
        CFI EndBlock cfiCond62
        CFI EndBlock cfiCond63
        CFI EndBlock cfiCond64
        CFI EndBlock cfiPicker65

        RSEG BANKED_CODE:CODE:NOROOT(0)
?Subroutine3:
        CFI Block cfiCond66 Using cfiCommon0
        CFI NoFunction
        CFI Conditional ??CrossCallReturnLabel_4
        CFI R6 load(1, XDATA, add(CFA_XSP16, literal(-10)))
        CFI VB load(1, XDATA, add(CFA_XSP16, literal(-9)))
        CFI V0 load(1, XDATA, add(CFA_XSP16, literal(-8)))
        CFI V1 load(1, XDATA, add(CFA_XSP16, literal(-7)))
        CFI R7 load(1, XDATA, add(CFA_XSP16, literal(-6)))
        CFI ?RET_LOW load(1, XDATA, add(CFA_XSP16, literal(-5)))
        CFI ?RET_HIGH load(1, XDATA, add(CFA_XSP16, literal(-4)))
        CFI ?BRET_EXT load(1, XDATA, add(CFA_XSP16, literal(-3)))
        CFI DPL0 load(1, XDATA, add(CFA_XSP16, literal(-2)))
        CFI DPH0 load(1, XDATA, add(CFA_XSP16, literal(-1)))
        CFI CFA_SP SP+0
        CFI CFA_XSP16 add(XSP16, 10)
        CFI Block cfiCond67 Using cfiCommon0
        CFI (cfiCond67) NoFunction
        CFI (cfiCond67) Conditional ??CrossCallReturnLabel_5
        CFI (cfiCond67) R6 load(1, XDATA, add(CFA_XSP16, literal(-10)))
        CFI (cfiCond67) VB load(1, XDATA, add(CFA_XSP16, literal(-9)))
        CFI (cfiCond67) V0 load(1, XDATA, add(CFA_XSP16, literal(-8)))
        CFI (cfiCond67) V1 load(1, XDATA, add(CFA_XSP16, literal(-7)))
        CFI (cfiCond67) R7 load(1, XDATA, add(CFA_XSP16, literal(-6)))
        CFI (cfiCond67) ?RET_LOW load(1, XDATA, add(CFA_XSP16, literal(-5)))
        CFI (cfiCond67) ?RET_HIGH load(1, XDATA, add(CFA_XSP16, literal(-4)))
        CFI (cfiCond67) ?BRET_EXT load(1, XDATA, add(CFA_XSP16, literal(-3)))
        CFI (cfiCond67) DPL0 load(1, XDATA, add(CFA_XSP16, literal(-2)))
        CFI (cfiCond67) DPH0 load(1, XDATA, add(CFA_XSP16, literal(-1)))
        CFI (cfiCond67) CFA_SP SP+0
        CFI (cfiCond67) CFA_XSP16 add(XSP16, 10)
        CFI Block cfiCond68 Using cfiCommon0
        CFI (cfiCond68) NoFunction
        CFI (cfiCond68) Conditional ??CrossCallReturnLabel_6
        CFI (cfiCond68) R6 load(1, XDATA, add(CFA_XSP16, literal(-10)))
        CFI (cfiCond68) VB load(1, XDATA, add(CFA_XSP16, literal(-9)))
        CFI (cfiCond68) V0 load(1, XDATA, add(CFA_XSP16, literal(-8)))
        CFI (cfiCond68) V1 load(1, XDATA, add(CFA_XSP16, literal(-7)))
        CFI (cfiCond68) R7 load(1, XDATA, add(CFA_XSP16, literal(-6)))
        CFI (cfiCond68) ?RET_LOW load(1, XDATA, add(CFA_XSP16, literal(-5)))
        CFI (cfiCond68) ?RET_HIGH load(1, XDATA, add(CFA_XSP16, literal(-4)))
        CFI (cfiCond68) ?BRET_EXT load(1, XDATA, add(CFA_XSP16, literal(-3)))
        CFI (cfiCond68) DPL0 load(1, XDATA, add(CFA_XSP16, literal(-2)))
        CFI (cfiCond68) DPH0 load(1, XDATA, add(CFA_XSP16, literal(-1)))
        CFI (cfiCond68) CFA_SP SP+0
        CFI (cfiCond68) CFA_XSP16 add(XSP16, 10)
        CFI Block cfiCond69 Using cfiCommon0
        CFI (cfiCond69) NoFunction
        CFI (cfiCond69) Conditional ??CrossCallReturnLabel_7
        CFI (cfiCond69) R6 load(1, XDATA, add(CFA_XSP16, literal(-10)))
        CFI (cfiCond69) VB load(1, XDATA, add(CFA_XSP16, literal(-9)))
        CFI (cfiCond69) V0 load(1, XDATA, add(CFA_XSP16, literal(-8)))
        CFI (cfiCond69) V1 load(1, XDATA, add(CFA_XSP16, literal(-7)))
        CFI (cfiCond69) R7 load(1, XDATA, add(CFA_XSP16, literal(-6)))
        CFI (cfiCond69) ?RET_LOW load(1, XDATA, add(CFA_XSP16, literal(-5)))
        CFI (cfiCond69) ?RET_HIGH load(1, XDATA, add(CFA_XSP16, literal(-4)))
        CFI (cfiCond69) ?BRET_EXT load(1, XDATA, add(CFA_XSP16, literal(-3)))
        CFI (cfiCond69) DPL0 load(1, XDATA, add(CFA_XSP16, literal(-2)))
        CFI (cfiCond69) DPH0 load(1, XDATA, add(CFA_XSP16, literal(-1)))
        CFI (cfiCond69) CFA_SP SP+0
        CFI (cfiCond69) CFA_XSP16 add(XSP16, 10)
        CFI Block cfiPicker70 Using cfiCommon1
        CFI (cfiPicker70) NoFunction
        CFI (cfiPicker70) Picker
        MOV     A,#0x1
        MOVX    @DPTR,A
        MOV     A,R2
        ADD     A,#0x22
        MOV     DPL,A
        MOV     A,R3
        ADDC    A,#0x0
        MOV     DPH,A
        LCALL   ?Subroutine26 & 0xFFFF
??CrossCallReturnLabel_55:
        MOVX    A,@DPTR
        RET
        CFI EndBlock cfiCond66
        CFI EndBlock cfiCond67
        CFI EndBlock cfiCond68
        CFI EndBlock cfiCond69
        CFI EndBlock cfiPicker70

        RSEG BANKED_CODE:CODE:NOROOT(0)
?Subroutine26:
        CFI Block cfiCond71 Using cfiCommon0
        CFI NoFunction
        CFI Conditional ??CrossCallReturnLabel_56, ??CrossCallReturnLabel_49, ??CrossCallReturnLabel_12
        CFI R6 load(1, XDATA, add(CFA_XSP16, literal(-10)))
        CFI VB load(1, XDATA, add(CFA_XSP16, literal(-9)))
        CFI V0 load(1, XDATA, add(CFA_XSP16, literal(-8)))
        CFI V1 load(1, XDATA, add(CFA_XSP16, literal(-7)))
        CFI R7 load(1, XDATA, add(CFA_XSP16, literal(-6)))
        CFI ?RET_LOW load(1, XDATA, add(CFA_XSP16, literal(-5)))
        CFI ?RET_HIGH load(1, XDATA, add(CFA_XSP16, literal(-4)))
        CFI ?BRET_EXT load(1, XDATA, add(CFA_XSP16, literal(-3)))
        CFI DPL0 load(1, XDATA, add(CFA_XSP16, literal(-2)))
        CFI DPH0 load(1, XDATA, add(CFA_XSP16, literal(-1)))
        CFI CFA_SP SP+0
        CFI CFA_XSP16 add(XSP16, 10)
        CFI Block cfiCond72 Using cfiCommon0
        CFI (cfiCond72) NoFunction
        CFI (cfiCond72) Conditional ??CrossCallReturnLabel_56, ??CrossCallReturnLabel_49, ??CrossCallReturnLabel_13
        CFI (cfiCond72) R6 load(1, XDATA, add(CFA_XSP16, literal(-10)))
        CFI (cfiCond72) VB load(1, XDATA, add(CFA_XSP16, literal(-9)))
        CFI (cfiCond72) V0 load(1, XDATA, add(CFA_XSP16, literal(-8)))
        CFI (cfiCond72) V1 load(1, XDATA, add(CFA_XSP16, literal(-7)))
        CFI (cfiCond72) R7 load(1, XDATA, add(CFA_XSP16, literal(-6)))
        CFI (cfiCond72) ?RET_LOW load(1, XDATA, add(CFA_XSP16, literal(-5)))
        CFI (cfiCond72) ?RET_HIGH load(1, XDATA, add(CFA_XSP16, literal(-4)))
        CFI (cfiCond72) ?BRET_EXT load(1, XDATA, add(CFA_XSP16, literal(-3)))
        CFI (cfiCond72) DPL0 load(1, XDATA, add(CFA_XSP16, literal(-2)))
        CFI (cfiCond72) DPH0 load(1, XDATA, add(CFA_XSP16, literal(-1)))
        CFI (cfiCond72) CFA_SP SP+0
        CFI (cfiCond72) CFA_XSP16 add(XSP16, 10)
        CFI Block cfiCond73 Using cfiCommon0
        CFI (cfiCond73) NoFunction
        CFI (cfiCond73) Conditional ??CrossCallReturnLabel_56, ??CrossCallReturnLabel_50, ??CrossCallReturnLabel_8
        CFI (cfiCond73) R6 load(1, XDATA, add(CFA_XSP16, literal(-10)))
        CFI (cfiCond73) VB load(1, XDATA, add(CFA_XSP16, literal(-9)))
        CFI (cfiCond73) V0 load(1, XDATA, add(CFA_XSP16, literal(-8)))
        CFI (cfiCond73) V1 load(1, XDATA, add(CFA_XSP16, literal(-7)))
        CFI (cfiCond73) R7 load(1, XDATA, add(CFA_XSP16, literal(-6)))
        CFI (cfiCond73) ?RET_LOW load(1, XDATA, add(CFA_XSP16, literal(-5)))
        CFI (cfiCond73) ?RET_HIGH load(1, XDATA, add(CFA_XSP16, literal(-4)))
        CFI (cfiCond73) ?BRET_EXT load(1, XDATA, add(CFA_XSP16, literal(-3)))
        CFI (cfiCond73) DPL0 load(1, XDATA, add(CFA_XSP16, literal(-2)))
        CFI (cfiCond73) DPH0 load(1, XDATA, add(CFA_XSP16, literal(-1)))
        CFI (cfiCond73) CFA_SP SP+0
        CFI (cfiCond73) CFA_XSP16 add(XSP16, 10)
        CFI Block cfiCond74 Using cfiCommon0
        CFI (cfiCond74) NoFunction
        CFI (cfiCond74) Conditional ??CrossCallReturnLabel_56, ??CrossCallReturnLabel_50, ??CrossCallReturnLabel_9
        CFI (cfiCond74) R6 load(1, XDATA, add(CFA_XSP16, literal(-10)))
        CFI (cfiCond74) VB load(1, XDATA, add(CFA_XSP16, literal(-9)))
        CFI (cfiCond74) V0 load(1, XDATA, add(CFA_XSP16, literal(-8)))
        CFI (cfiCond74) V1 load(1, XDATA, add(CFA_XSP16, literal(-7)))
        CFI (cfiCond74) R7 load(1, XDATA, add(CFA_XSP16, literal(-6)))
        CFI (cfiCond74) ?RET_LOW load(1, XDATA, add(CFA_XSP16, literal(-5)))
        CFI (cfiCond74) ?RET_HIGH load(1, XDATA, add(CFA_XSP16, literal(-4)))
        CFI (cfiCond74) ?BRET_EXT load(1, XDATA, add(CFA_XSP16, literal(-3)))
        CFI (cfiCond74) DPL0 load(1, XDATA, add(CFA_XSP16, literal(-2)))
        CFI (cfiCond74) DPH0 load(1, XDATA, add(CFA_XSP16, literal(-1)))
        CFI (cfiCond74) CFA_SP SP+0
        CFI (cfiCond74) CFA_XSP16 add(XSP16, 10)
        CFI Block cfiCond75 Using cfiCommon0
        CFI (cfiCond75) NoFunction
        CFI (cfiCond75) Conditional ??CrossCallReturnLabel_55, ??CrossCallReturnLabel_4
        CFI (cfiCond75) R6 load(1, XDATA, add(CFA_XSP16, literal(-10)))
        CFI (cfiCond75) VB load(1, XDATA, add(CFA_XSP16, literal(-9)))
        CFI (cfiCond75) V0 load(1, XDATA, add(CFA_XSP16, literal(-8)))
        CFI (cfiCond75) V1 load(1, XDATA, add(CFA_XSP16, literal(-7)))
        CFI (cfiCond75) R7 load(1, XDATA, add(CFA_XSP16, literal(-6)))
        CFI (cfiCond75) ?RET_LOW load(1, XDATA, add(CFA_XSP16, literal(-5)))
        CFI (cfiCond75) ?RET_HIGH load(1, XDATA, add(CFA_XSP16, literal(-4)))
        CFI (cfiCond75) ?BRET_EXT load(1, XDATA, add(CFA_XSP16, literal(-3)))
        CFI (cfiCond75) DPL0 load(1, XDATA, add(CFA_XSP16, literal(-2)))
        CFI (cfiCond75) DPH0 load(1, XDATA, add(CFA_XSP16, literal(-1)))
        CFI (cfiCond75) CFA_SP SP+0
        CFI (cfiCond75) CFA_XSP16 add(XSP16, 10)
        CFI Block cfiCond76 Using cfiCommon0
        CFI (cfiCond76) NoFunction
        CFI (cfiCond76) Conditional ??CrossCallReturnLabel_55, ??CrossCallReturnLabel_5
        CFI (cfiCond76) R6 load(1, XDATA, add(CFA_XSP16, literal(-10)))
        CFI (cfiCond76) VB load(1, XDATA, add(CFA_XSP16, literal(-9)))
        CFI (cfiCond76) V0 load(1, XDATA, add(CFA_XSP16, literal(-8)))
        CFI (cfiCond76) V1 load(1, XDATA, add(CFA_XSP16, literal(-7)))
        CFI (cfiCond76) R7 load(1, XDATA, add(CFA_XSP16, literal(-6)))
        CFI (cfiCond76) ?RET_LOW load(1, XDATA, add(CFA_XSP16, literal(-5)))
        CFI (cfiCond76) ?RET_HIGH load(1, XDATA, add(CFA_XSP16, literal(-4)))
        CFI (cfiCond76) ?BRET_EXT load(1, XDATA, add(CFA_XSP16, literal(-3)))
        CFI (cfiCond76) DPL0 load(1, XDATA, add(CFA_XSP16, literal(-2)))
        CFI (cfiCond76) DPH0 load(1, XDATA, add(CFA_XSP16, literal(-1)))
        CFI (cfiCond76) CFA_SP SP+0
        CFI (cfiCond76) CFA_XSP16 add(XSP16, 10)
        CFI Block cfiCond77 Using cfiCommon0
        CFI (cfiCond77) NoFunction
        CFI (cfiCond77) Conditional ??CrossCallReturnLabel_55, ??CrossCallReturnLabel_6
        CFI (cfiCond77) R6 load(1, XDATA, add(CFA_XSP16, literal(-10)))
        CFI (cfiCond77) VB load(1, XDATA, add(CFA_XSP16, literal(-9)))
        CFI (cfiCond77) V0 load(1, XDATA, add(CFA_XSP16, literal(-8)))
        CFI (cfiCond77) V1 load(1, XDATA, add(CFA_XSP16, literal(-7)))
        CFI (cfiCond77) R7 load(1, XDATA, add(CFA_XSP16, literal(-6)))
        CFI (cfiCond77) ?RET_LOW load(1, XDATA, add(CFA_XSP16, literal(-5)))
        CFI (cfiCond77) ?RET_HIGH load(1, XDATA, add(CFA_XSP16, literal(-4)))
        CFI (cfiCond77) ?BRET_EXT load(1, XDATA, add(CFA_XSP16, literal(-3)))
        CFI (cfiCond77) DPL0 load(1, XDATA, add(CFA_XSP16, literal(-2)))
        CFI (cfiCond77) DPH0 load(1, XDATA, add(CFA_XSP16, literal(-1)))
        CFI (cfiCond77) CFA_SP SP+0
        CFI (cfiCond77) CFA_XSP16 add(XSP16, 10)
        CFI Block cfiCond78 Using cfiCommon0
        CFI (cfiCond78) NoFunction
        CFI (cfiCond78) Conditional ??CrossCallReturnLabel_55, ??CrossCallReturnLabel_7
        CFI (cfiCond78) R6 load(1, XDATA, add(CFA_XSP16, literal(-10)))
        CFI (cfiCond78) VB load(1, XDATA, add(CFA_XSP16, literal(-9)))
        CFI (cfiCond78) V0 load(1, XDATA, add(CFA_XSP16, literal(-8)))
        CFI (cfiCond78) V1 load(1, XDATA, add(CFA_XSP16, literal(-7)))
        CFI (cfiCond78) R7 load(1, XDATA, add(CFA_XSP16, literal(-6)))
        CFI (cfiCond78) ?RET_LOW load(1, XDATA, add(CFA_XSP16, literal(-5)))
        CFI (cfiCond78) ?RET_HIGH load(1, XDATA, add(CFA_XSP16, literal(-4)))
        CFI (cfiCond78) ?BRET_EXT load(1, XDATA, add(CFA_XSP16, literal(-3)))
        CFI (cfiCond78) DPL0 load(1, XDATA, add(CFA_XSP16, literal(-2)))
        CFI (cfiCond78) DPH0 load(1, XDATA, add(CFA_XSP16, literal(-1)))
        CFI (cfiCond78) CFA_SP SP+0
        CFI (cfiCond78) CFA_XSP16 add(XSP16, 10)
        CFI Block cfiPicker79 Using cfiCommon1
        CFI (cfiPicker79) NoFunction
        CFI (cfiPicker79) Picker
        MOVX    A,@DPTR
        MOV     R0,A
        INC     DPTR
        MOVX    A,@DPTR
        MOV     DPH,A
        MOV     DPL,R0
        INC     DPTR
        INC     DPTR
        INC     DPTR
        INC     DPTR
        RET
        CFI EndBlock cfiCond71
        CFI EndBlock cfiCond72
        CFI EndBlock cfiCond73
        CFI EndBlock cfiCond74
        CFI EndBlock cfiCond75
        CFI EndBlock cfiCond76
        CFI EndBlock cfiCond77
        CFI EndBlock cfiCond78
        CFI EndBlock cfiPicker79

        RSEG BANKED_CODE:CODE:NOROOT(0)
?Subroutine2:
        CFI Block cfiCond80 Using cfiCommon0
        CFI NoFunction
        CFI Conditional ??CrossCallReturnLabel_0
        CFI R6 load(1, XDATA, add(CFA_XSP16, literal(-10)))
        CFI VB load(1, XDATA, add(CFA_XSP16, literal(-9)))
        CFI V0 load(1, XDATA, add(CFA_XSP16, literal(-8)))
        CFI V1 load(1, XDATA, add(CFA_XSP16, literal(-7)))
        CFI R7 load(1, XDATA, add(CFA_XSP16, literal(-6)))
        CFI ?RET_LOW load(1, XDATA, add(CFA_XSP16, literal(-5)))
        CFI ?RET_HIGH load(1, XDATA, add(CFA_XSP16, literal(-4)))
        CFI ?BRET_EXT load(1, XDATA, add(CFA_XSP16, literal(-3)))
        CFI DPL0 load(1, XDATA, add(CFA_XSP16, literal(-2)))
        CFI DPH0 load(1, XDATA, add(CFA_XSP16, literal(-1)))
        CFI CFA_SP SP+0
        CFI CFA_XSP16 add(XSP16, 10)
        CFI Block cfiCond81 Using cfiCommon0
        CFI (cfiCond81) NoFunction
        CFI (cfiCond81) Conditional ??CrossCallReturnLabel_1
        CFI (cfiCond81) R6 load(1, XDATA, add(CFA_XSP16, literal(-10)))
        CFI (cfiCond81) VB load(1, XDATA, add(CFA_XSP16, literal(-9)))
        CFI (cfiCond81) V0 load(1, XDATA, add(CFA_XSP16, literal(-8)))
        CFI (cfiCond81) V1 load(1, XDATA, add(CFA_XSP16, literal(-7)))
        CFI (cfiCond81) R7 load(1, XDATA, add(CFA_XSP16, literal(-6)))
        CFI (cfiCond81) ?RET_LOW load(1, XDATA, add(CFA_XSP16, literal(-5)))
        CFI (cfiCond81) ?RET_HIGH load(1, XDATA, add(CFA_XSP16, literal(-4)))
        CFI (cfiCond81) ?BRET_EXT load(1, XDATA, add(CFA_XSP16, literal(-3)))
        CFI (cfiCond81) DPL0 load(1, XDATA, add(CFA_XSP16, literal(-2)))
        CFI (cfiCond81) DPH0 load(1, XDATA, add(CFA_XSP16, literal(-1)))
        CFI (cfiCond81) CFA_SP SP+0
        CFI (cfiCond81) CFA_XSP16 add(XSP16, 10)
        CFI Block cfiCond82 Using cfiCommon0
        CFI (cfiCond82) NoFunction
        CFI (cfiCond82) Conditional ??CrossCallReturnLabel_2
        CFI (cfiCond82) R6 load(1, XDATA, add(CFA_XSP16, literal(-10)))
        CFI (cfiCond82) VB load(1, XDATA, add(CFA_XSP16, literal(-9)))
        CFI (cfiCond82) V0 load(1, XDATA, add(CFA_XSP16, literal(-8)))
        CFI (cfiCond82) V1 load(1, XDATA, add(CFA_XSP16, literal(-7)))
        CFI (cfiCond82) R7 load(1, XDATA, add(CFA_XSP16, literal(-6)))
        CFI (cfiCond82) ?RET_LOW load(1, XDATA, add(CFA_XSP16, literal(-5)))
        CFI (cfiCond82) ?RET_HIGH load(1, XDATA, add(CFA_XSP16, literal(-4)))
        CFI (cfiCond82) ?BRET_EXT load(1, XDATA, add(CFA_XSP16, literal(-3)))
        CFI (cfiCond82) DPL0 load(1, XDATA, add(CFA_XSP16, literal(-2)))
        CFI (cfiCond82) DPH0 load(1, XDATA, add(CFA_XSP16, literal(-1)))
        CFI (cfiCond82) CFA_SP SP+0
        CFI (cfiCond82) CFA_XSP16 add(XSP16, 10)
        CFI Block cfiCond83 Using cfiCommon0
        CFI (cfiCond83) NoFunction
        CFI (cfiCond83) Conditional ??CrossCallReturnLabel_3
        CFI (cfiCond83) R6 load(1, XDATA, add(CFA_XSP16, literal(-10)))
        CFI (cfiCond83) VB load(1, XDATA, add(CFA_XSP16, literal(-9)))
        CFI (cfiCond83) V0 load(1, XDATA, add(CFA_XSP16, literal(-8)))
        CFI (cfiCond83) V1 load(1, XDATA, add(CFA_XSP16, literal(-7)))
        CFI (cfiCond83) R7 load(1, XDATA, add(CFA_XSP16, literal(-6)))
        CFI (cfiCond83) ?RET_LOW load(1, XDATA, add(CFA_XSP16, literal(-5)))
        CFI (cfiCond83) ?RET_HIGH load(1, XDATA, add(CFA_XSP16, literal(-4)))
        CFI (cfiCond83) ?BRET_EXT load(1, XDATA, add(CFA_XSP16, literal(-3)))
        CFI (cfiCond83) DPL0 load(1, XDATA, add(CFA_XSP16, literal(-2)))
        CFI (cfiCond83) DPH0 load(1, XDATA, add(CFA_XSP16, literal(-1)))
        CFI (cfiCond83) CFA_SP SP+0
        CFI (cfiCond83) CFA_XSP16 add(XSP16, 10)
        CFI Block cfiPicker84 Using cfiCommon1
        CFI (cfiPicker84) NoFunction
        CFI (cfiPicker84) Picker
        MOV     A,#0x1
        MOVX    @DPTR,A
        MOV     A,R2
        ADD     A,#0x22
        MOV     R0,A
        MOV     A,R3
        ADDC    A,#0x0
        MOV     R1,A
        LCALL   ?Subroutine24 & 0xFFFF
??CrossCallReturnLabel_51:
        MOVX    A,@DPTR
        RET
        CFI EndBlock cfiCond80
        CFI EndBlock cfiCond81
        CFI EndBlock cfiCond82
        CFI EndBlock cfiCond83
        CFI EndBlock cfiPicker84

        RSEG BANKED_CODE:CODE:NOROOT(0)
?Subroutine24:
        CFI Block cfiCond85 Using cfiCommon0
        CFI NoFunction
        CFI Conditional ??CrossCallReturnLabel_52, ??CrossCallReturnLabel_14
        CFI R6 load(1, XDATA, add(CFA_XSP16, literal(-10)))
        CFI VB load(1, XDATA, add(CFA_XSP16, literal(-9)))
        CFI V0 load(1, XDATA, add(CFA_XSP16, literal(-8)))
        CFI V1 load(1, XDATA, add(CFA_XSP16, literal(-7)))
        CFI R7 load(1, XDATA, add(CFA_XSP16, literal(-6)))
        CFI ?RET_LOW load(1, XDATA, add(CFA_XSP16, literal(-5)))
        CFI ?RET_HIGH load(1, XDATA, add(CFA_XSP16, literal(-4)))
        CFI ?BRET_EXT load(1, XDATA, add(CFA_XSP16, literal(-3)))
        CFI DPL0 load(1, XDATA, add(CFA_XSP16, literal(-2)))
        CFI DPH0 load(1, XDATA, add(CFA_XSP16, literal(-1)))
        CFI CFA_SP SP+0
        CFI CFA_XSP16 add(XSP16, 10)
        CFI Block cfiCond86 Using cfiCommon0
        CFI (cfiCond86) NoFunction
        CFI (cfiCond86) Conditional ??CrossCallReturnLabel_52, ??CrossCallReturnLabel_15
        CFI (cfiCond86) R6 load(1, XDATA, add(CFA_XSP16, literal(-10)))
        CFI (cfiCond86) VB load(1, XDATA, add(CFA_XSP16, literal(-9)))
        CFI (cfiCond86) V0 load(1, XDATA, add(CFA_XSP16, literal(-8)))
        CFI (cfiCond86) V1 load(1, XDATA, add(CFA_XSP16, literal(-7)))
        CFI (cfiCond86) R7 load(1, XDATA, add(CFA_XSP16, literal(-6)))
        CFI (cfiCond86) ?RET_LOW load(1, XDATA, add(CFA_XSP16, literal(-5)))
        CFI (cfiCond86) ?RET_HIGH load(1, XDATA, add(CFA_XSP16, literal(-4)))
        CFI (cfiCond86) ?BRET_EXT load(1, XDATA, add(CFA_XSP16, literal(-3)))
        CFI (cfiCond86) DPL0 load(1, XDATA, add(CFA_XSP16, literal(-2)))
        CFI (cfiCond86) DPH0 load(1, XDATA, add(CFA_XSP16, literal(-1)))
        CFI (cfiCond86) CFA_SP SP+0
        CFI (cfiCond86) CFA_XSP16 add(XSP16, 10)
        CFI Block cfiCond87 Using cfiCommon0
        CFI (cfiCond87) NoFunction
        CFI (cfiCond87) Conditional ??CrossCallReturnLabel_51, ??CrossCallReturnLabel_0
        CFI (cfiCond87) R6 load(1, XDATA, add(CFA_XSP16, literal(-10)))
        CFI (cfiCond87) VB load(1, XDATA, add(CFA_XSP16, literal(-9)))
        CFI (cfiCond87) V0 load(1, XDATA, add(CFA_XSP16, literal(-8)))
        CFI (cfiCond87) V1 load(1, XDATA, add(CFA_XSP16, literal(-7)))
        CFI (cfiCond87) R7 load(1, XDATA, add(CFA_XSP16, literal(-6)))
        CFI (cfiCond87) ?RET_LOW load(1, XDATA, add(CFA_XSP16, literal(-5)))
        CFI (cfiCond87) ?RET_HIGH load(1, XDATA, add(CFA_XSP16, literal(-4)))
        CFI (cfiCond87) ?BRET_EXT load(1, XDATA, add(CFA_XSP16, literal(-3)))
        CFI (cfiCond87) DPL0 load(1, XDATA, add(CFA_XSP16, literal(-2)))
        CFI (cfiCond87) DPH0 load(1, XDATA, add(CFA_XSP16, literal(-1)))
        CFI (cfiCond87) CFA_SP SP+0
        CFI (cfiCond87) CFA_XSP16 add(XSP16, 10)
        CFI Block cfiCond88 Using cfiCommon0
        CFI (cfiCond88) NoFunction
        CFI (cfiCond88) Conditional ??CrossCallReturnLabel_51, ??CrossCallReturnLabel_1
        CFI (cfiCond88) R6 load(1, XDATA, add(CFA_XSP16, literal(-10)))
        CFI (cfiCond88) VB load(1, XDATA, add(CFA_XSP16, literal(-9)))
        CFI (cfiCond88) V0 load(1, XDATA, add(CFA_XSP16, literal(-8)))
        CFI (cfiCond88) V1 load(1, XDATA, add(CFA_XSP16, literal(-7)))
        CFI (cfiCond88) R7 load(1, XDATA, add(CFA_XSP16, literal(-6)))
        CFI (cfiCond88) ?RET_LOW load(1, XDATA, add(CFA_XSP16, literal(-5)))
        CFI (cfiCond88) ?RET_HIGH load(1, XDATA, add(CFA_XSP16, literal(-4)))
        CFI (cfiCond88) ?BRET_EXT load(1, XDATA, add(CFA_XSP16, literal(-3)))
        CFI (cfiCond88) DPL0 load(1, XDATA, add(CFA_XSP16, literal(-2)))
        CFI (cfiCond88) DPH0 load(1, XDATA, add(CFA_XSP16, literal(-1)))
        CFI (cfiCond88) CFA_SP SP+0
        CFI (cfiCond88) CFA_XSP16 add(XSP16, 10)
        CFI Block cfiCond89 Using cfiCommon0
        CFI (cfiCond89) NoFunction
        CFI (cfiCond89) Conditional ??CrossCallReturnLabel_51, ??CrossCallReturnLabel_2
        CFI (cfiCond89) R6 load(1, XDATA, add(CFA_XSP16, literal(-10)))
        CFI (cfiCond89) VB load(1, XDATA, add(CFA_XSP16, literal(-9)))
        CFI (cfiCond89) V0 load(1, XDATA, add(CFA_XSP16, literal(-8)))
        CFI (cfiCond89) V1 load(1, XDATA, add(CFA_XSP16, literal(-7)))
        CFI (cfiCond89) R7 load(1, XDATA, add(CFA_XSP16, literal(-6)))
        CFI (cfiCond89) ?RET_LOW load(1, XDATA, add(CFA_XSP16, literal(-5)))
        CFI (cfiCond89) ?RET_HIGH load(1, XDATA, add(CFA_XSP16, literal(-4)))
        CFI (cfiCond89) ?BRET_EXT load(1, XDATA, add(CFA_XSP16, literal(-3)))
        CFI (cfiCond89) DPL0 load(1, XDATA, add(CFA_XSP16, literal(-2)))
        CFI (cfiCond89) DPH0 load(1, XDATA, add(CFA_XSP16, literal(-1)))
        CFI (cfiCond89) CFA_SP SP+0
        CFI (cfiCond89) CFA_XSP16 add(XSP16, 10)
        CFI Block cfiCond90 Using cfiCommon0
        CFI (cfiCond90) NoFunction
        CFI (cfiCond90) Conditional ??CrossCallReturnLabel_51, ??CrossCallReturnLabel_3
        CFI (cfiCond90) R6 load(1, XDATA, add(CFA_XSP16, literal(-10)))
        CFI (cfiCond90) VB load(1, XDATA, add(CFA_XSP16, literal(-9)))
        CFI (cfiCond90) V0 load(1, XDATA, add(CFA_XSP16, literal(-8)))
        CFI (cfiCond90) V1 load(1, XDATA, add(CFA_XSP16, literal(-7)))
        CFI (cfiCond90) R7 load(1, XDATA, add(CFA_XSP16, literal(-6)))
        CFI (cfiCond90) ?RET_LOW load(1, XDATA, add(CFA_XSP16, literal(-5)))
        CFI (cfiCond90) ?RET_HIGH load(1, XDATA, add(CFA_XSP16, literal(-4)))
        CFI (cfiCond90) ?BRET_EXT load(1, XDATA, add(CFA_XSP16, literal(-3)))
        CFI (cfiCond90) DPL0 load(1, XDATA, add(CFA_XSP16, literal(-2)))
        CFI (cfiCond90) DPH0 load(1, XDATA, add(CFA_XSP16, literal(-1)))
        CFI (cfiCond90) CFA_SP SP+0
        CFI (cfiCond90) CFA_XSP16 add(XSP16, 10)
        CFI Block cfiPicker91 Using cfiCommon1
        CFI (cfiPicker91) NoFunction
        CFI (cfiPicker91) Picker
        LCALL   ?Subroutine25 & 0xFFFF
??CrossCallReturnLabel_54:
        RET
        CFI EndBlock cfiCond85
        CFI EndBlock cfiCond86
        CFI EndBlock cfiCond87
        CFI EndBlock cfiCond88
        CFI EndBlock cfiCond89
        CFI EndBlock cfiCond90
        CFI EndBlock cfiPicker91

        RSEG BANKED_CODE:CODE:NOROOT(0)
?Subroutine25:
        CFI Block cfiCond92 Using cfiCommon0
        CFI NoFunction
        CFI Conditional ??CrossCallReturnLabel_53, ??CrossCallReturnLabel_47
        CFI R6 load(1, XDATA, add(CFA_XSP16, literal(-10)))
        CFI VB load(1, XDATA, add(CFA_XSP16, literal(-9)))
        CFI V0 load(1, XDATA, add(CFA_XSP16, literal(-8)))
        CFI V1 load(1, XDATA, add(CFA_XSP16, literal(-7)))
        CFI R7 load(1, XDATA, add(CFA_XSP16, literal(-6)))
        CFI ?RET_LOW load(1, XDATA, add(CFA_XSP16, literal(-5)))
        CFI ?RET_HIGH load(1, XDATA, add(CFA_XSP16, literal(-4)))
        CFI ?BRET_EXT load(1, XDATA, add(CFA_XSP16, literal(-3)))
        CFI DPL0 load(1, XDATA, add(CFA_XSP16, literal(-2)))
        CFI DPH0 load(1, XDATA, add(CFA_XSP16, literal(-1)))
        CFI CFA_SP SP+0
        CFI CFA_XSP16 add(XSP16, 10)
        CFI Block cfiCond93 Using cfiCommon0
        CFI (cfiCond93) NoFunction
        CFI (cfiCond93) Conditional ??CrossCallReturnLabel_53, ??CrossCallReturnLabel_48, ??CrossCallReturnLabel_10
        CFI (cfiCond93) R6 load(1, XDATA, add(CFA_XSP16, literal(-10)))
        CFI (cfiCond93) VB load(1, XDATA, add(CFA_XSP16, literal(-9)))
        CFI (cfiCond93) V0 load(1, XDATA, add(CFA_XSP16, literal(-8)))
        CFI (cfiCond93) V1 load(1, XDATA, add(CFA_XSP16, literal(-7)))
        CFI (cfiCond93) R7 load(1, XDATA, add(CFA_XSP16, literal(-6)))
        CFI (cfiCond93) ?RET_LOW load(1, XDATA, add(CFA_XSP16, literal(-5)))
        CFI (cfiCond93) ?RET_HIGH load(1, XDATA, add(CFA_XSP16, literal(-4)))
        CFI (cfiCond93) ?BRET_EXT load(1, XDATA, add(CFA_XSP16, literal(-3)))
        CFI (cfiCond93) DPL0 load(1, XDATA, add(CFA_XSP16, literal(-2)))
        CFI (cfiCond93) DPH0 load(1, XDATA, add(CFA_XSP16, literal(-1)))
        CFI (cfiCond93) CFA_SP SP+0
        CFI (cfiCond93) CFA_XSP16 add(XSP16, 10)
        CFI Block cfiCond94 Using cfiCommon0
        CFI (cfiCond94) NoFunction
        CFI (cfiCond94) Conditional ??CrossCallReturnLabel_53, ??CrossCallReturnLabel_48, ??CrossCallReturnLabel_11
        CFI (cfiCond94) R6 load(1, XDATA, add(CFA_XSP16, literal(-10)))
        CFI (cfiCond94) VB load(1, XDATA, add(CFA_XSP16, literal(-9)))
        CFI (cfiCond94) V0 load(1, XDATA, add(CFA_XSP16, literal(-8)))
        CFI (cfiCond94) V1 load(1, XDATA, add(CFA_XSP16, literal(-7)))
        CFI (cfiCond94) R7 load(1, XDATA, add(CFA_XSP16, literal(-6)))
        CFI (cfiCond94) ?RET_LOW load(1, XDATA, add(CFA_XSP16, literal(-5)))
        CFI (cfiCond94) ?RET_HIGH load(1, XDATA, add(CFA_XSP16, literal(-4)))
        CFI (cfiCond94) ?BRET_EXT load(1, XDATA, add(CFA_XSP16, literal(-3)))
        CFI (cfiCond94) DPL0 load(1, XDATA, add(CFA_XSP16, literal(-2)))
        CFI (cfiCond94) DPH0 load(1, XDATA, add(CFA_XSP16, literal(-1)))
        CFI (cfiCond94) CFA_SP SP+0
        CFI (cfiCond94) CFA_XSP16 add(XSP16, 10)
        CFI Block cfiCond95 Using cfiCommon0
        CFI (cfiCond95) NoFunction
        CFI (cfiCond95) Conditional ??CrossCallReturnLabel_54, ??CrossCallReturnLabel_52, ??CrossCallReturnLabel_14
        CFI (cfiCond95) R6 load(1, XDATA, add(CFA_XSP16, literal(-10)))
        CFI (cfiCond95) VB load(1, XDATA, add(CFA_XSP16, literal(-9)))
        CFI (cfiCond95) V0 load(1, XDATA, add(CFA_XSP16, literal(-8)))
        CFI (cfiCond95) V1 load(1, XDATA, add(CFA_XSP16, literal(-7)))
        CFI (cfiCond95) R7 load(1, XDATA, add(CFA_XSP16, literal(-6)))
        CFI (cfiCond95) ?RET_LOW load(1, XDATA, add(CFA_XSP16, literal(-5)))
        CFI (cfiCond95) ?RET_HIGH load(1, XDATA, add(CFA_XSP16, literal(-4)))
        CFI (cfiCond95) ?BRET_EXT load(1, XDATA, add(CFA_XSP16, literal(-3)))
        CFI (cfiCond95) DPL0 load(1, XDATA, add(CFA_XSP16, literal(-2)))
        CFI (cfiCond95) DPH0 load(1, XDATA, add(CFA_XSP16, literal(-1)))
        CFI (cfiCond95) CFA_SP SP+0
        CFI (cfiCond95) CFA_XSP16 add(XSP16, 10)
        CFI Block cfiCond96 Using cfiCommon0
        CFI (cfiCond96) NoFunction
        CFI (cfiCond96) Conditional ??CrossCallReturnLabel_54, ??CrossCallReturnLabel_52, ??CrossCallReturnLabel_15
        CFI (cfiCond96) R6 load(1, XDATA, add(CFA_XSP16, literal(-10)))
        CFI (cfiCond96) VB load(1, XDATA, add(CFA_XSP16, literal(-9)))
        CFI (cfiCond96) V0 load(1, XDATA, add(CFA_XSP16, literal(-8)))
        CFI (cfiCond96) V1 load(1, XDATA, add(CFA_XSP16, literal(-7)))
        CFI (cfiCond96) R7 load(1, XDATA, add(CFA_XSP16, literal(-6)))
        CFI (cfiCond96) ?RET_LOW load(1, XDATA, add(CFA_XSP16, literal(-5)))
        CFI (cfiCond96) ?RET_HIGH load(1, XDATA, add(CFA_XSP16, literal(-4)))
        CFI (cfiCond96) ?BRET_EXT load(1, XDATA, add(CFA_XSP16, literal(-3)))
        CFI (cfiCond96) DPL0 load(1, XDATA, add(CFA_XSP16, literal(-2)))
        CFI (cfiCond96) DPH0 load(1, XDATA, add(CFA_XSP16, literal(-1)))
        CFI (cfiCond96) CFA_SP SP+0
        CFI (cfiCond96) CFA_XSP16 add(XSP16, 10)
        CFI Block cfiCond97 Using cfiCommon0
        CFI (cfiCond97) NoFunction
        CFI (cfiCond97) Conditional ??CrossCallReturnLabel_54, ??CrossCallReturnLabel_51, ??CrossCallReturnLabel_0
        CFI (cfiCond97) R6 load(1, XDATA, add(CFA_XSP16, literal(-10)))
        CFI (cfiCond97) VB load(1, XDATA, add(CFA_XSP16, literal(-9)))
        CFI (cfiCond97) V0 load(1, XDATA, add(CFA_XSP16, literal(-8)))
        CFI (cfiCond97) V1 load(1, XDATA, add(CFA_XSP16, literal(-7)))
        CFI (cfiCond97) R7 load(1, XDATA, add(CFA_XSP16, literal(-6)))
        CFI (cfiCond97) ?RET_LOW load(1, XDATA, add(CFA_XSP16, literal(-5)))
        CFI (cfiCond97) ?RET_HIGH load(1, XDATA, add(CFA_XSP16, literal(-4)))
        CFI (cfiCond97) ?BRET_EXT load(1, XDATA, add(CFA_XSP16, literal(-3)))
        CFI (cfiCond97) DPL0 load(1, XDATA, add(CFA_XSP16, literal(-2)))
        CFI (cfiCond97) DPH0 load(1, XDATA, add(CFA_XSP16, literal(-1)))
        CFI (cfiCond97) CFA_SP SP+0
        CFI (cfiCond97) CFA_XSP16 add(XSP16, 10)
        CFI Block cfiCond98 Using cfiCommon0
        CFI (cfiCond98) NoFunction
        CFI (cfiCond98) Conditional ??CrossCallReturnLabel_54, ??CrossCallReturnLabel_51, ??CrossCallReturnLabel_1
        CFI (cfiCond98) R6 load(1, XDATA, add(CFA_XSP16, literal(-10)))
        CFI (cfiCond98) VB load(1, XDATA, add(CFA_XSP16, literal(-9)))
        CFI (cfiCond98) V0 load(1, XDATA, add(CFA_XSP16, literal(-8)))
        CFI (cfiCond98) V1 load(1, XDATA, add(CFA_XSP16, literal(-7)))
        CFI (cfiCond98) R7 load(1, XDATA, add(CFA_XSP16, literal(-6)))
        CFI (cfiCond98) ?RET_LOW load(1, XDATA, add(CFA_XSP16, literal(-5)))
        CFI (cfiCond98) ?RET_HIGH load(1, XDATA, add(CFA_XSP16, literal(-4)))
        CFI (cfiCond98) ?BRET_EXT load(1, XDATA, add(CFA_XSP16, literal(-3)))
        CFI (cfiCond98) DPL0 load(1, XDATA, add(CFA_XSP16, literal(-2)))
        CFI (cfiCond98) DPH0 load(1, XDATA, add(CFA_XSP16, literal(-1)))
        CFI (cfiCond98) CFA_SP SP+0
        CFI (cfiCond98) CFA_XSP16 add(XSP16, 10)
        CFI Block cfiCond99 Using cfiCommon0
        CFI (cfiCond99) NoFunction
        CFI (cfiCond99) Conditional ??CrossCallReturnLabel_54, ??CrossCallReturnLabel_51, ??CrossCallReturnLabel_2
        CFI (cfiCond99) R6 load(1, XDATA, add(CFA_XSP16, literal(-10)))
        CFI (cfiCond99) VB load(1, XDATA, add(CFA_XSP16, literal(-9)))
        CFI (cfiCond99) V0 load(1, XDATA, add(CFA_XSP16, literal(-8)))
        CFI (cfiCond99) V1 load(1, XDATA, add(CFA_XSP16, literal(-7)))
        CFI (cfiCond99) R7 load(1, XDATA, add(CFA_XSP16, literal(-6)))
        CFI (cfiCond99) ?RET_LOW load(1, XDATA, add(CFA_XSP16, literal(-5)))
        CFI (cfiCond99) ?RET_HIGH load(1, XDATA, add(CFA_XSP16, literal(-4)))
        CFI (cfiCond99) ?BRET_EXT load(1, XDATA, add(CFA_XSP16, literal(-3)))
        CFI (cfiCond99) DPL0 load(1, XDATA, add(CFA_XSP16, literal(-2)))
        CFI (cfiCond99) DPH0 load(1, XDATA, add(CFA_XSP16, literal(-1)))
        CFI (cfiCond99) CFA_SP SP+0
        CFI (cfiCond99) CFA_XSP16 add(XSP16, 10)
        CFI Block cfiCond100 Using cfiCommon0
        CFI (cfiCond100) NoFunction
        CFI (cfiCond100) Conditional ??CrossCallReturnLabel_54, ??CrossCallReturnLabel_51, ??CrossCallReturnLabel_3
        CFI (cfiCond100) R6 load(1, XDATA, add(CFA_XSP16, literal(-10)))
        CFI (cfiCond100) VB load(1, XDATA, add(CFA_XSP16, literal(-9)))
        CFI (cfiCond100) V0 load(1, XDATA, add(CFA_XSP16, literal(-8)))
        CFI (cfiCond100) V1 load(1, XDATA, add(CFA_XSP16, literal(-7)))
        CFI (cfiCond100) R7 load(1, XDATA, add(CFA_XSP16, literal(-6)))
        CFI (cfiCond100) ?RET_LOW load(1, XDATA, add(CFA_XSP16, literal(-5)))
        CFI (cfiCond100) ?RET_HIGH load(1, XDATA, add(CFA_XSP16, literal(-4)))
        CFI (cfiCond100) ?BRET_EXT load(1, XDATA, add(CFA_XSP16, literal(-3)))
        CFI (cfiCond100) DPL0 load(1, XDATA, add(CFA_XSP16, literal(-2)))
        CFI (cfiCond100) DPH0 load(1, XDATA, add(CFA_XSP16, literal(-1)))
        CFI (cfiCond100) CFA_SP SP+0
        CFI (cfiCond100) CFA_XSP16 add(XSP16, 10)
        CFI Block cfiPicker101 Using cfiCommon1
        CFI (cfiPicker101) NoFunction
        CFI (cfiPicker101) Picker
        MOV     DPL,R0
        MOV     DPH,R1
        MOVX    A,@DPTR
        MOV     R2,A
        INC     DPTR
        MOVX    A,@DPTR
        MOV     DPH,A
        MOV     DPL,R2
        INC     DPTR
        INC     DPTR
        INC     DPTR
        INC     DPTR
        RET
        CFI EndBlock cfiCond92
        CFI EndBlock cfiCond93
        CFI EndBlock cfiCond94
        CFI EndBlock cfiCond95
        CFI EndBlock cfiCond96
        CFI EndBlock cfiCond97
        CFI EndBlock cfiCond98
        CFI EndBlock cfiCond99
        CFI EndBlock cfiCond100
        CFI EndBlock cfiPicker101
//  853 
//  854 /*********************************************************************
//  855  * @fn     Smart_home_Device_check
//  856  *
//  857  * @brief   设备计数器，用来检查设备在开始组网后多久在线.
//  858  *          目前搜索为4次HeartBeat  (DEVICE_HEART_BEAT 3)
//  859  *          3.21
//  860  * @param   none
//  861  *
//  862  * @return  none
//  863  */
//  864 /*3.24 这里的检测时常有点长 改为变量外提的方式加快处理速度*/
//  865 static void Smart_home_Device_check(void)
//  866 {

        RSEG XDATA_Z:XDATA:NOROOT(0)
        DATA8
//  867   static uint8 DeviceID;
??DeviceID:
        DS 1
        REQUIRE __INIT_XDATA_Z

        RSEG XDATA_Z:XDATA:NOROOT(0)
        DATA8
//  868   static uint8 Device_status =  0;
??Device_status:
        DS 1
        REQUIRE __INIT_XDATA_Z

        RSEG XDATA_Z:XDATA:NOROOT(0)
        DATA16
//  869   static uint8* counttmp;
??counttmp:
        DS 2
        REQUIRE __INIT_XDATA_Z
//  870   for(DeviceID=1;DeviceID<Smart_home_MAX_INCLUSTERS;DeviceID++)
//  871   {  
//  872     Device_status = DeviceList[DeviceID].deviceStatus;
//  873     counttmp = & DeviceCnt[DeviceID];
//  874     if(Device_status != DEVICE_ONLINE)    //设备离线
//  875     {
//  876       (*counttmp)++;
//  877     }
//  878     if(Device_status == DEVICE_ONLINE)    //设备在线
//  879     {
//  880       *counttmp = 0;
//  881       Device_status = 0;
//  882     }
//  883     if((*counttmp) > DEVICE_HEART_BEAT)
//  884     {
//  885       *counttmp = DEVICE_HEART_BEAT;
//  886       Device_status = DEVICE_OFFLINE;
//  887     }
//  888     DeviceList[DeviceID].deviceStatus = Device_status;
//  889   }
//  890   /*温湿度缓存 温度光照缓存 RFID 信息缓存 气体火焰缓存 
//  891   人体红外 电机状态 继电器状态 声音震动*/
//  892 }
//  893 
//  894 
//  895 /*********************************************************************
//  896  * @fn      Smart_home_Relay_Ctl
//  897  *
//  898  * @brief   发送继电器控制消息
//  899  *
//  900  * @param   none
//  901  *
//  902  * @return  none
//  903  */

        RSEG BANKED_CODE:CODE:NOROOT(0)
//  904 static void Smart_home_Relay_Ctl(uint8 cmd)
Smart_home_Relay_Ctl:
        CFI Block cfiBlock102 Using cfiCommon0
        CFI Function Smart_home_Relay_Ctl
        CODE
//  905 {
        FUNCALL Smart_home_Relay_Ctl, AF_DataRequest
        LOCFRAME ISTACK, 0, STACK
        LOCFRAME PSTACK, 0, STACK
        LOCFRAME XSTACK, 19, STACK
        LOCFRAME IOVERLAY, 0, STATIC
        LOCFRAME DOVERLAY, 0, STATIC
        ARGFRAME ISTACK, 0, STACK
        ARGFRAME PSTACK, 0, STACK
        ARGFRAME XSTACK, 19, STACK
        ARGFRAME IOVERLAY, 0, STATIC
        ARGFRAME DOVERLAY, 0, STATIC
        MOV     A,#-0xa
        LCALL   ?BANKED_ENTER_XDATA
        CFI DPH0 load(1, XDATA, add(CFA_XSP16, literal(-1)))
        CFI DPL0 load(1, XDATA, add(CFA_XSP16, literal(-2)))
        CFI ?BRET_EXT load(1, XDATA, add(CFA_XSP16, literal(-3)))
        CFI ?RET_HIGH load(1, XDATA, add(CFA_XSP16, literal(-4)))
        CFI ?RET_LOW load(1, XDATA, add(CFA_XSP16, literal(-5)))
        CFI R7 load(1, XDATA, add(CFA_XSP16, literal(-6)))
        CFI V1 load(1, XDATA, add(CFA_XSP16, literal(-7)))
        CFI V0 load(1, XDATA, add(CFA_XSP16, literal(-8)))
        CFI VB load(1, XDATA, add(CFA_XSP16, literal(-9)))
        CFI R6 load(1, XDATA, add(CFA_XSP16, literal(-10)))
        CFI CFA_SP SP+0
        CFI CFA_XSP16 add(XSP16, 10)
        ; Saved register size: 10
        ; Auto size: 0
        MOV     A,R1
        MOV     R6,A
//  906   uint8 tmp;
//  907   
//  908   // 只有设备在线时, 方发送控制命令
//  909   if (DeviceList[relay].deviceStatus != DEVICE_OFFLINE)
        MOV     DPTR,#DeviceList + 50
        MOVX    A,@DPTR
        XRL     A,#0x2
        JZ      ??Smart_home_Relay_Ctl_0
//  910   {
//  911     // put the sequence number in the message
//  912     tmp = HI_UINT8( RelayTransID );
        MOV     DPTR,#RelayTransID
        MOVX    A,@DPTR
        SWAP    A
        ANL     A,#0xf
        MOV     R2,A
//  913     tmp += (tmp <= 9) ? ('0') : ('A' - 0x0A);
        CLR     C
        SUBB    A,#0xa
        JNC     ??Smart_home_Relay_Ctl_1
        MOV     R0,#0x30
        SJMP    ??Smart_home_Relay_Ctl_2
??Smart_home_Relay_Ctl_1:
        MOV     R0,#0x37
//  914     Coordinator_Msg[2] = tmp;
??Smart_home_Relay_Ctl_2:
        MOV     A,R0
        ADD     A,R2
        MOV     DPTR,#Coordinator_Msg + 2
        MOVX    @DPTR,A
//  915     tmp = LO_UINT8( RelayTransID );
        MOV     DPTR,#RelayTransID
        MOVX    A,@DPTR
        ANL     A,#0xf
        MOV     R2,A
//  916     tmp += (tmp <= 9) ? ('0') : ('A' - 0x0A);
        CLR     C
        SUBB    A,#0xa
        JNC     ??Smart_home_Relay_Ctl_3
        MOV     R0,#0x30
        SJMP    ??Smart_home_Relay_Ctl_4
??Smart_home_Relay_Ctl_3:
        MOV     R0,#0x37
//  917     Coordinator_Msg[3] = tmp;
??Smart_home_Relay_Ctl_4:
        MOV     A,R0
        ADD     A,R2
        MOV     DPTR,#Coordinator_Msg + 3
        MOVX    @DPTR,A
//  918     
//  919     // 发送给继电器的控制命令 
//  920     Coordinator_Msg[4] = cmd;
        MOV     A,R6
        INC     DPTR
        MOVX    @DPTR,A
//  921     /********************************************
//  922     *   屏幕显示部分*
//  923 #if defined ( LCD_SUPPORTED )
//  924     if(cmd == 0x02) {HalLcdWriteString( "K1:ON", HAL_LCD_LINE_2 );}
//  925     if(cmd == 0x01) {HalLcdWriteString( "K1:OFF", HAL_LCD_LINE_2 );}
//  926     if(cmd == 0x20) {HalLcdWriteString( "K2:ON", HAL_LCD_LINE_3 );}
//  927     if(cmd == 0x10) {HalLcdWriteString( "K2:OFF", HAL_LCD_LINE_3 );}
//  928 #endif     
//  929     ********************************************/
//  930     tmp = AF_DataRequest( &Relay_addr,                         
//  931                           (endPointDesc_t *)&Smart_home_epDesc,                  
//  932                            Smart_home_CLUSTERID_RELAYCTRL,
//  933                            RELAYSTATUSMSG_LEN,                 
//  934                            Coordinator_Msg,                    
//  935                           &RelayTransID,                       
//  936                            AF_DISCV_ROUTE,                     
//  937                            AF_DEFAULT_RADIUS );
        ; Setup parameters for call to function AF_DataRequest
        MOV     ?V0 + 0,#0x1e
        MOV     R0,#?V0 + 0
        LCALL   ?PUSH_XSTACK_I_ONE
        CFI CFA_XSP16 add(XSP16, 11)
        MOV     ?V0 + 0,#RelayTransID & 0xff
        MOV     ?V0 + 1,#(RelayTransID >> 8) & 0xff
        MOV     R0,#?V0 + 0
        LCALL   ?PUSH_XSTACK_I_TWO
        CFI CFA_XSP16 add(XSP16, 13)
        MOV     ?V0 + 0,#Coordinator_Msg & 0xff
        MOV     ?V0 + 1,#(Coordinator_Msg >> 8) & 0xff
        MOV     R0,#?V0 + 0
        LCALL   ?PUSH_XSTACK_I_TWO
        CFI CFA_XSP16 add(XSP16, 15)
        MOV     ?V0 + 0,#0x5
        MOV     ?V0 + 1,#0x0
        MOV     R0,#?V0 + 0
        LCALL   ?PUSH_XSTACK_I_TWO
        CFI CFA_XSP16 add(XSP16, 17)
        MOV     ?V0 + 0,#0xa
        MOV     R0,#?V0 + 0
        LCALL   ?PUSH_XSTACK_I_TWO
        CFI CFA_XSP16 add(XSP16, 19)
        MOV     R1,#0x20
        MOV     R4,#Smart_home_epDesc & 0xff
        MOV     R5,#(Smart_home_epDesc >> 8) & 0xff
        MOV     R2,#Relay_addr & 0xff
        MOV     R3,#(Relay_addr >> 8) & 0xff
        LCALL   ??AF_DataRequest?relay
        MOV     A,#0x9
        LCALL   ?DEALLOC_XSTACK8
        CFI CFA_XSP16 add(XSP16, 10)
        CFI EndBlock cfiBlock102
//  938   } 
//  939 }
??Smart_home_Relay_Ctl_0:
        REQUIRE ?Subroutine1
        ; // Fall through to label ?Subroutine1

        RSEG BANKED_CODE:CODE:NOROOT(0)
?Subroutine1:
        CFI Block cfiBlock103 Using cfiCommon0
        CFI NoFunction
        CFI CFA_SP SP+0
        CFI CFA_XSP16 add(XSP16, 10)
        CFI VB load(1, XDATA, add(CFA_XSP16, literal(-9)))
        CFI DPL0 load(1, XDATA, add(CFA_XSP16, literal(-2)))
        CFI DPH0 load(1, XDATA, add(CFA_XSP16, literal(-1)))
        CFI R6 load(1, XDATA, add(CFA_XSP16, literal(-10)))
        CFI R7 load(1, XDATA, add(CFA_XSP16, literal(-6)))
        CFI V0 load(1, XDATA, add(CFA_XSP16, literal(-8)))
        CFI V1 load(1, XDATA, add(CFA_XSP16, literal(-7)))
        CFI ?BRET_EXT load(1, XDATA, add(CFA_XSP16, literal(-3)))
        CFI ?RET_HIGH load(1, XDATA, add(CFA_XSP16, literal(-4)))
        CFI ?RET_LOW load(1, XDATA, add(CFA_XSP16, literal(-5)))
        MOV     R7,#0x2
        LJMP    ?BANKED_LEAVE_XDATA
        CFI EndBlock cfiBlock103
//  940 
//  941 /*********************************************************************
//  942  * @fn      Smart_home_Motor_Ctl
//  943  *
//  944  * @brief   发送电机控制消息
//  945  *
//  946  * @param   none
//  947  *
//  948  * @return  none
//  949  */
//  950 static void Smart_home_Motor_Ctl(uint8 cmd,uint8 speed)
//  951 {
//  952   uint8 tmp;
//  953   
//  954   // 只有设备在线时, 方发送控制命令
//  955   if (DeviceList[motor].deviceStatus != DEVICE_OFFLINE)
//  956   {
//  957     // put the sequence number in the message
//  958     tmp = HI_UINT8( MotorTransID );
//  959     tmp += (tmp <= 9) ? ('0') : ('A' - 0x0A);
//  960     Coordinator_Msg[2] = tmp;
//  961     tmp = LO_UINT8( RelayTransID );
//  962     tmp += (tmp <= 9) ? ('0') : ('A' - 0x0A);
//  963     Coordinator_Msg[3] = tmp;
//  964     
//  965     // 发送给电机的控制命令 
//  966     Coordinator_Msg[4] = speed;
//  967     Coordinator_Msg[5] = cmd;
//  968     
//  969     tmp = AF_DataRequest( &Motor_addr,                         
//  970                           (endPointDesc_t *)&Smart_home_epDesc,                  
//  971                            Smart_home_CLUSTERID_MOTORCTRL,
//  972                            MOTORSTATUSMSG_LEN,                 
//  973                            Coordinator_Msg,                    
//  974                           &MotorTransID,                       
//  975                            AF_DISCV_ROUTE,                     
//  976                            AF_DEFAULT_RADIUS );
//  977   }   
//  978 }
//  979 
//  980 
//  981 /*********************************************************************
//  982  * @fn      Smart_home_Display
//  983  *
//  984  * @brief   屏幕回显函数，定义了内容如何显示.
//  985  *
//  986  * @param   port - UART port.
//  987  * @param   event - the UART port event flag.
//  988  *
//  989  * @return  none
//  990  */

        RSEG BANKED_CODE:CODE:NOROOT(0)
//  991 static void Smart_home_Display(void)
Smart_home_Display:
        CFI Block cfiBlock104 Using cfiCommon0
        CFI Function Smart_home_Display
        CODE
//  992 {
        FUNCALL Smart_home_Display, HalLcdWriteString
        LOCFRAME ISTACK, 0, STACK
        LOCFRAME PSTACK, 0, STACK
        LOCFRAME XSTACK, 24, STACK
        LOCFRAME IOVERLAY, 0, STATIC
        LOCFRAME DOVERLAY, 0, STATIC
        ARGFRAME ISTACK, 0, STACK
        ARGFRAME PSTACK, 0, STACK
        ARGFRAME XSTACK, 24, STACK
        ARGFRAME IOVERLAY, 0, STATIC
        ARGFRAME DOVERLAY, 0, STATIC
        FUNCALL Smart_home_Display, HalLcdWriteString
        LOCFRAME ISTACK, 0, STACK
        LOCFRAME PSTACK, 0, STACK
        LOCFRAME XSTACK, 24, STACK
        LOCFRAME IOVERLAY, 0, STATIC
        LOCFRAME DOVERLAY, 0, STATIC
        ARGFRAME ISTACK, 0, STACK
        ARGFRAME PSTACK, 0, STACK
        ARGFRAME XSTACK, 24, STACK
        ARGFRAME IOVERLAY, 0, STATIC
        ARGFRAME DOVERLAY, 0, STATIC
        FUNCALL Smart_home_Display, HalLcdWriteString
        LOCFRAME ISTACK, 0, STACK
        LOCFRAME PSTACK, 0, STACK
        LOCFRAME XSTACK, 24, STACK
        LOCFRAME IOVERLAY, 0, STATIC
        LOCFRAME DOVERLAY, 0, STATIC
        ARGFRAME ISTACK, 0, STACK
        ARGFRAME PSTACK, 0, STACK
        ARGFRAME XSTACK, 24, STACK
        ARGFRAME IOVERLAY, 0, STATIC
        ARGFRAME DOVERLAY, 0, STATIC
        FUNCALL Smart_home_Display, HalLcdWriteStringValueValue
        LOCFRAME ISTACK, 0, STACK
        LOCFRAME PSTACK, 0, STACK
        LOCFRAME XSTACK, 30, STACK
        LOCFRAME IOVERLAY, 0, STATIC
        LOCFRAME DOVERLAY, 0, STATIC
        ARGFRAME ISTACK, 0, STACK
        ARGFRAME PSTACK, 0, STACK
        ARGFRAME XSTACK, 30, STACK
        ARGFRAME IOVERLAY, 0, STATIC
        ARGFRAME DOVERLAY, 0, STATIC
        FUNCALL Smart_home_Display, HalLcdWriteString
        LOCFRAME ISTACK, 0, STACK
        LOCFRAME PSTACK, 0, STACK
        LOCFRAME XSTACK, 24, STACK
        LOCFRAME IOVERLAY, 0, STATIC
        LOCFRAME DOVERLAY, 0, STATIC
        ARGFRAME ISTACK, 0, STACK
        ARGFRAME PSTACK, 0, STACK
        ARGFRAME XSTACK, 24, STACK
        ARGFRAME IOVERLAY, 0, STATIC
        ARGFRAME DOVERLAY, 0, STATIC
        FUNCALL Smart_home_Display, HalLcdWriteString
        LOCFRAME ISTACK, 0, STACK
        LOCFRAME PSTACK, 0, STACK
        LOCFRAME XSTACK, 24, STACK
        LOCFRAME IOVERLAY, 0, STATIC
        LOCFRAME DOVERLAY, 0, STATIC
        ARGFRAME ISTACK, 0, STACK
        ARGFRAME PSTACK, 0, STACK
        ARGFRAME XSTACK, 24, STACK
        ARGFRAME IOVERLAY, 0, STATIC
        ARGFRAME DOVERLAY, 0, STATIC
        FUNCALL Smart_home_Display, HalLcdDisplayPercentBar
        LOCFRAME ISTACK, 0, STACK
        LOCFRAME PSTACK, 0, STACK
        LOCFRAME XSTACK, 24, STACK
        LOCFRAME IOVERLAY, 0, STATIC
        LOCFRAME DOVERLAY, 0, STATIC
        ARGFRAME ISTACK, 0, STACK
        ARGFRAME PSTACK, 0, STACK
        ARGFRAME XSTACK, 24, STACK
        ARGFRAME IOVERLAY, 0, STATIC
        ARGFRAME DOVERLAY, 0, STATIC
        FUNCALL Smart_home_Display, memcpy
        LOCFRAME ISTACK, 0, STACK
        LOCFRAME PSTACK, 0, STACK
        LOCFRAME XSTACK, 26, STACK
        LOCFRAME IOVERLAY, 0, STATIC
        LOCFRAME DOVERLAY, 0, STATIC
        ARGFRAME ISTACK, 0, STACK
        ARGFRAME PSTACK, 0, STACK
        ARGFRAME XSTACK, 26, STACK
        ARGFRAME IOVERLAY, 0, STATIC
        ARGFRAME DOVERLAY, 0, STATIC
        FUNCALL Smart_home_Display, HalLcdWriteStringValueValue
        LOCFRAME ISTACK, 0, STACK
        LOCFRAME PSTACK, 0, STACK
        LOCFRAME XSTACK, 30, STACK
        LOCFRAME IOVERLAY, 0, STATIC
        LOCFRAME DOVERLAY, 0, STATIC
        ARGFRAME ISTACK, 0, STACK
        ARGFRAME PSTACK, 0, STACK
        ARGFRAME XSTACK, 30, STACK
        ARGFRAME IOVERLAY, 0, STATIC
        ARGFRAME DOVERLAY, 0, STATIC
        FUNCALL Smart_home_Display, HalLcdWriteStringValue
        LOCFRAME ISTACK, 0, STACK
        LOCFRAME PSTACK, 0, STACK
        LOCFRAME XSTACK, 25, STACK
        LOCFRAME IOVERLAY, 0, STATIC
        LOCFRAME DOVERLAY, 0, STATIC
        ARGFRAME ISTACK, 0, STACK
        ARGFRAME PSTACK, 0, STACK
        ARGFRAME XSTACK, 25, STACK
        ARGFRAME IOVERLAY, 0, STATIC
        ARGFRAME DOVERLAY, 0, STATIC
        FUNCALL Smart_home_Display, HalLcdDisplayPercentBar
        LOCFRAME ISTACK, 0, STACK
        LOCFRAME PSTACK, 0, STACK
        LOCFRAME XSTACK, 24, STACK
        LOCFRAME IOVERLAY, 0, STATIC
        LOCFRAME DOVERLAY, 0, STATIC
        ARGFRAME ISTACK, 0, STACK
        ARGFRAME PSTACK, 0, STACK
        ARGFRAME XSTACK, 24, STACK
        ARGFRAME IOVERLAY, 0, STATIC
        ARGFRAME DOVERLAY, 0, STATIC
        FUNCALL Smart_home_Display, HalLcdWriteString
        LOCFRAME ISTACK, 0, STACK
        LOCFRAME PSTACK, 0, STACK
        LOCFRAME XSTACK, 24, STACK
        LOCFRAME IOVERLAY, 0, STATIC
        LOCFRAME DOVERLAY, 0, STATIC
        ARGFRAME ISTACK, 0, STACK
        ARGFRAME PSTACK, 0, STACK
        ARGFRAME XSTACK, 24, STACK
        ARGFRAME IOVERLAY, 0, STATIC
        ARGFRAME DOVERLAY, 0, STATIC
        FUNCALL Smart_home_Display, HalLcdWriteString
        LOCFRAME ISTACK, 0, STACK
        LOCFRAME PSTACK, 0, STACK
        LOCFRAME XSTACK, 24, STACK
        LOCFRAME IOVERLAY, 0, STATIC
        LOCFRAME DOVERLAY, 0, STATIC
        ARGFRAME ISTACK, 0, STACK
        ARGFRAME PSTACK, 0, STACK
        ARGFRAME XSTACK, 24, STACK
        ARGFRAME IOVERLAY, 0, STATIC
        ARGFRAME DOVERLAY, 0, STATIC
        FUNCALL Smart_home_Display, HalLcdWriteString
        LOCFRAME ISTACK, 0, STACK
        LOCFRAME PSTACK, 0, STACK
        LOCFRAME XSTACK, 24, STACK
        LOCFRAME IOVERLAY, 0, STATIC
        LOCFRAME DOVERLAY, 0, STATIC
        ARGFRAME ISTACK, 0, STACK
        ARGFRAME PSTACK, 0, STACK
        ARGFRAME XSTACK, 24, STACK
        ARGFRAME IOVERLAY, 0, STATIC
        ARGFRAME DOVERLAY, 0, STATIC
        FUNCALL Smart_home_Display, HalLcdWriteString
        LOCFRAME ISTACK, 0, STACK
        LOCFRAME PSTACK, 0, STACK
        LOCFRAME XSTACK, 24, STACK
        LOCFRAME IOVERLAY, 0, STATIC
        LOCFRAME DOVERLAY, 0, STATIC
        ARGFRAME ISTACK, 0, STACK
        ARGFRAME PSTACK, 0, STACK
        ARGFRAME XSTACK, 24, STACK
        ARGFRAME IOVERLAY, 0, STATIC
        ARGFRAME DOVERLAY, 0, STATIC
        FUNCALL Smart_home_Display, HalLcdWriteString
        LOCFRAME ISTACK, 0, STACK
        LOCFRAME PSTACK, 0, STACK
        LOCFRAME XSTACK, 24, STACK
        LOCFRAME IOVERLAY, 0, STATIC
        LOCFRAME DOVERLAY, 0, STATIC
        ARGFRAME ISTACK, 0, STACK
        ARGFRAME PSTACK, 0, STACK
        ARGFRAME XSTACK, 24, STACK
        ARGFRAME IOVERLAY, 0, STATIC
        ARGFRAME DOVERLAY, 0, STATIC
        FUNCALL Smart_home_Display, HalLcdWriteString
        LOCFRAME ISTACK, 0, STACK
        LOCFRAME PSTACK, 0, STACK
        LOCFRAME XSTACK, 24, STACK
        LOCFRAME IOVERLAY, 0, STATIC
        LOCFRAME DOVERLAY, 0, STATIC
        ARGFRAME ISTACK, 0, STACK
        ARGFRAME PSTACK, 0, STACK
        ARGFRAME XSTACK, 24, STACK
        ARGFRAME IOVERLAY, 0, STATIC
        ARGFRAME DOVERLAY, 0, STATIC
        FUNCALL Smart_home_Display, HalLcdWriteStringValueValue
        LOCFRAME ISTACK, 0, STACK
        LOCFRAME PSTACK, 0, STACK
        LOCFRAME XSTACK, 30, STACK
        LOCFRAME IOVERLAY, 0, STATIC
        LOCFRAME DOVERLAY, 0, STATIC
        ARGFRAME ISTACK, 0, STACK
        ARGFRAME PSTACK, 0, STACK
        ARGFRAME XSTACK, 30, STACK
        ARGFRAME IOVERLAY, 0, STATIC
        ARGFRAME DOVERLAY, 0, STATIC
        FUNCALL Smart_home_Display, HalLcdDisplayPercentBar
        LOCFRAME ISTACK, 0, STACK
        LOCFRAME PSTACK, 0, STACK
        LOCFRAME XSTACK, 24, STACK
        LOCFRAME IOVERLAY, 0, STATIC
        LOCFRAME DOVERLAY, 0, STATIC
        ARGFRAME ISTACK, 0, STACK
        ARGFRAME PSTACK, 0, STACK
        ARGFRAME XSTACK, 24, STACK
        ARGFRAME IOVERLAY, 0, STATIC
        ARGFRAME DOVERLAY, 0, STATIC
        FUNCALL Smart_home_Display, HalLcdWriteString
        LOCFRAME ISTACK, 0, STACK
        LOCFRAME PSTACK, 0, STACK
        LOCFRAME XSTACK, 24, STACK
        LOCFRAME IOVERLAY, 0, STATIC
        LOCFRAME DOVERLAY, 0, STATIC
        ARGFRAME ISTACK, 0, STACK
        ARGFRAME PSTACK, 0, STACK
        ARGFRAME XSTACK, 24, STACK
        ARGFRAME IOVERLAY, 0, STATIC
        ARGFRAME DOVERLAY, 0, STATIC
        FUNCALL Smart_home_Display, HalLcdWriteString
        LOCFRAME ISTACK, 0, STACK
        LOCFRAME PSTACK, 0, STACK
        LOCFRAME XSTACK, 24, STACK
        LOCFRAME IOVERLAY, 0, STATIC
        LOCFRAME DOVERLAY, 0, STATIC
        ARGFRAME ISTACK, 0, STACK
        ARGFRAME PSTACK, 0, STACK
        ARGFRAME XSTACK, 24, STACK
        ARGFRAME IOVERLAY, 0, STATIC
        ARGFRAME DOVERLAY, 0, STATIC
        FUNCALL Smart_home_Display, HalLcdWriteString
        LOCFRAME ISTACK, 0, STACK
        LOCFRAME PSTACK, 0, STACK
        LOCFRAME XSTACK, 24, STACK
        LOCFRAME IOVERLAY, 0, STATIC
        LOCFRAME DOVERLAY, 0, STATIC
        ARGFRAME ISTACK, 0, STACK
        ARGFRAME PSTACK, 0, STACK
        ARGFRAME XSTACK, 24, STACK
        ARGFRAME IOVERLAY, 0, STATIC
        ARGFRAME DOVERLAY, 0, STATIC
        FUNCALL Smart_home_Display, HalLcdWriteString
        LOCFRAME ISTACK, 0, STACK
        LOCFRAME PSTACK, 0, STACK
        LOCFRAME XSTACK, 24, STACK
        LOCFRAME IOVERLAY, 0, STATIC
        LOCFRAME DOVERLAY, 0, STATIC
        ARGFRAME ISTACK, 0, STACK
        ARGFRAME PSTACK, 0, STACK
        ARGFRAME XSTACK, 24, STACK
        ARGFRAME IOVERLAY, 0, STATIC
        ARGFRAME DOVERLAY, 0, STATIC
        FUNCALL Smart_home_Display, HalLcdDisplayPercentBar
        LOCFRAME ISTACK, 0, STACK
        LOCFRAME PSTACK, 0, STACK
        LOCFRAME XSTACK, 24, STACK
        LOCFRAME IOVERLAY, 0, STATIC
        LOCFRAME DOVERLAY, 0, STATIC
        ARGFRAME ISTACK, 0, STACK
        ARGFRAME PSTACK, 0, STACK
        ARGFRAME XSTACK, 24, STACK
        ARGFRAME IOVERLAY, 0, STATIC
        ARGFRAME DOVERLAY, 0, STATIC
        FUNCALL Smart_home_Display, HalLcdWriteString
        LOCFRAME ISTACK, 0, STACK
        LOCFRAME PSTACK, 0, STACK
        LOCFRAME XSTACK, 24, STACK
        LOCFRAME IOVERLAY, 0, STATIC
        LOCFRAME DOVERLAY, 0, STATIC
        ARGFRAME ISTACK, 0, STACK
        ARGFRAME PSTACK, 0, STACK
        ARGFRAME XSTACK, 24, STACK
        ARGFRAME IOVERLAY, 0, STATIC
        ARGFRAME DOVERLAY, 0, STATIC
        FUNCALL Smart_home_Display, HalLcdWriteString
        LOCFRAME ISTACK, 0, STACK
        LOCFRAME PSTACK, 0, STACK
        LOCFRAME XSTACK, 24, STACK
        LOCFRAME IOVERLAY, 0, STATIC
        LOCFRAME DOVERLAY, 0, STATIC
        ARGFRAME ISTACK, 0, STACK
        ARGFRAME PSTACK, 0, STACK
        ARGFRAME XSTACK, 24, STACK
        ARGFRAME IOVERLAY, 0, STATIC
        ARGFRAME DOVERLAY, 0, STATIC
        FUNCALL Smart_home_Display, HalLcdWriteString
        LOCFRAME ISTACK, 0, STACK
        LOCFRAME PSTACK, 0, STACK
        LOCFRAME XSTACK, 24, STACK
        LOCFRAME IOVERLAY, 0, STATIC
        LOCFRAME DOVERLAY, 0, STATIC
        ARGFRAME ISTACK, 0, STACK
        ARGFRAME PSTACK, 0, STACK
        ARGFRAME XSTACK, 24, STACK
        ARGFRAME IOVERLAY, 0, STATIC
        ARGFRAME DOVERLAY, 0, STATIC
        FUNCALL Smart_home_Display, HalLcdWriteString
        LOCFRAME ISTACK, 0, STACK
        LOCFRAME PSTACK, 0, STACK
        LOCFRAME XSTACK, 24, STACK
        LOCFRAME IOVERLAY, 0, STATIC
        LOCFRAME DOVERLAY, 0, STATIC
        ARGFRAME ISTACK, 0, STACK
        ARGFRAME PSTACK, 0, STACK
        ARGFRAME XSTACK, 24, STACK
        ARGFRAME IOVERLAY, 0, STATIC
        ARGFRAME DOVERLAY, 0, STATIC
        FUNCALL Smart_home_Display, HalLcdWriteString
        LOCFRAME ISTACK, 0, STACK
        LOCFRAME PSTACK, 0, STACK
        LOCFRAME XSTACK, 24, STACK
        LOCFRAME IOVERLAY, 0, STATIC
        LOCFRAME DOVERLAY, 0, STATIC
        ARGFRAME ISTACK, 0, STACK
        ARGFRAME PSTACK, 0, STACK
        ARGFRAME XSTACK, 24, STACK
        ARGFRAME IOVERLAY, 0, STATIC
        ARGFRAME DOVERLAY, 0, STATIC
        FUNCALL Smart_home_Display, HalLcdWriteString
        LOCFRAME ISTACK, 0, STACK
        LOCFRAME PSTACK, 0, STACK
        LOCFRAME XSTACK, 24, STACK
        LOCFRAME IOVERLAY, 0, STATIC
        LOCFRAME DOVERLAY, 0, STATIC
        ARGFRAME ISTACK, 0, STACK
        ARGFRAME PSTACK, 0, STACK
        ARGFRAME XSTACK, 24, STACK
        ARGFRAME IOVERLAY, 0, STATIC
        ARGFRAME DOVERLAY, 0, STATIC
        FUNCALL Smart_home_Display, HalLcdWriteString
        LOCFRAME ISTACK, 0, STACK
        LOCFRAME PSTACK, 0, STACK
        LOCFRAME XSTACK, 24, STACK
        LOCFRAME IOVERLAY, 0, STATIC
        LOCFRAME DOVERLAY, 0, STATIC
        ARGFRAME ISTACK, 0, STACK
        ARGFRAME PSTACK, 0, STACK
        ARGFRAME XSTACK, 24, STACK
        ARGFRAME IOVERLAY, 0, STATIC
        ARGFRAME DOVERLAY, 0, STATIC
        FUNCALL Smart_home_Display, HalLcdWriteString
        LOCFRAME ISTACK, 0, STACK
        LOCFRAME PSTACK, 0, STACK
        LOCFRAME XSTACK, 24, STACK
        LOCFRAME IOVERLAY, 0, STATIC
        LOCFRAME DOVERLAY, 0, STATIC
        ARGFRAME ISTACK, 0, STACK
        ARGFRAME PSTACK, 0, STACK
        ARGFRAME XSTACK, 24, STACK
        ARGFRAME IOVERLAY, 0, STATIC
        ARGFRAME DOVERLAY, 0, STATIC
        FUNCALL Smart_home_Display, HalLcdWriteString
        LOCFRAME ISTACK, 0, STACK
        LOCFRAME PSTACK, 0, STACK
        LOCFRAME XSTACK, 24, STACK
        LOCFRAME IOVERLAY, 0, STATIC
        LOCFRAME DOVERLAY, 0, STATIC
        ARGFRAME ISTACK, 0, STACK
        ARGFRAME PSTACK, 0, STACK
        ARGFRAME XSTACK, 24, STACK
        ARGFRAME IOVERLAY, 0, STATIC
        ARGFRAME DOVERLAY, 0, STATIC
        FUNCALL Smart_home_Display, HalLcdWriteString
        LOCFRAME ISTACK, 0, STACK
        LOCFRAME PSTACK, 0, STACK
        LOCFRAME XSTACK, 24, STACK
        LOCFRAME IOVERLAY, 0, STATIC
        LOCFRAME DOVERLAY, 0, STATIC
        ARGFRAME ISTACK, 0, STACK
        ARGFRAME PSTACK, 0, STACK
        ARGFRAME XSTACK, 24, STACK
        ARGFRAME IOVERLAY, 0, STATIC
        ARGFRAME DOVERLAY, 0, STATIC
        FUNCALL Smart_home_Display, HalLcdWriteString
        LOCFRAME ISTACK, 0, STACK
        LOCFRAME PSTACK, 0, STACK
        LOCFRAME XSTACK, 24, STACK
        LOCFRAME IOVERLAY, 0, STATIC
        LOCFRAME DOVERLAY, 0, STATIC
        ARGFRAME ISTACK, 0, STACK
        ARGFRAME PSTACK, 0, STACK
        ARGFRAME XSTACK, 24, STACK
        ARGFRAME IOVERLAY, 0, STATIC
        ARGFRAME DOVERLAY, 0, STATIC
        FUNCALL Smart_home_Display, HalLcdWriteString
        LOCFRAME ISTACK, 0, STACK
        LOCFRAME PSTACK, 0, STACK
        LOCFRAME XSTACK, 24, STACK
        LOCFRAME IOVERLAY, 0, STATIC
        LOCFRAME DOVERLAY, 0, STATIC
        ARGFRAME ISTACK, 0, STACK
        ARGFRAME PSTACK, 0, STACK
        ARGFRAME XSTACK, 24, STACK
        ARGFRAME IOVERLAY, 0, STATIC
        ARGFRAME DOVERLAY, 0, STATIC
        FUNCALL Smart_home_Display, HalLcdWriteString
        LOCFRAME ISTACK, 0, STACK
        LOCFRAME PSTACK, 0, STACK
        LOCFRAME XSTACK, 24, STACK
        LOCFRAME IOVERLAY, 0, STATIC
        LOCFRAME DOVERLAY, 0, STATIC
        ARGFRAME ISTACK, 0, STACK
        ARGFRAME PSTACK, 0, STACK
        ARGFRAME XSTACK, 24, STACK
        ARGFRAME IOVERLAY, 0, STATIC
        ARGFRAME DOVERLAY, 0, STATIC
        FUNCALL Smart_home_Display, HalLcdWriteString
        LOCFRAME ISTACK, 0, STACK
        LOCFRAME PSTACK, 0, STACK
        LOCFRAME XSTACK, 24, STACK
        LOCFRAME IOVERLAY, 0, STATIC
        LOCFRAME DOVERLAY, 0, STATIC
        ARGFRAME ISTACK, 0, STACK
        ARGFRAME PSTACK, 0, STACK
        ARGFRAME XSTACK, 24, STACK
        ARGFRAME IOVERLAY, 0, STATIC
        ARGFRAME DOVERLAY, 0, STATIC
        FUNCALL Smart_home_Display, HalLcdWriteString
        LOCFRAME ISTACK, 0, STACK
        LOCFRAME PSTACK, 0, STACK
        LOCFRAME XSTACK, 24, STACK
        LOCFRAME IOVERLAY, 0, STATIC
        LOCFRAME DOVERLAY, 0, STATIC
        ARGFRAME ISTACK, 0, STACK
        ARGFRAME PSTACK, 0, STACK
        ARGFRAME XSTACK, 24, STACK
        ARGFRAME IOVERLAY, 0, STATIC
        ARGFRAME DOVERLAY, 0, STATIC
        FUNCALL Smart_home_Display, HalLcdWriteString
        LOCFRAME ISTACK, 0, STACK
        LOCFRAME PSTACK, 0, STACK
        LOCFRAME XSTACK, 24, STACK
        LOCFRAME IOVERLAY, 0, STATIC
        LOCFRAME DOVERLAY, 0, STATIC
        ARGFRAME ISTACK, 0, STACK
        ARGFRAME PSTACK, 0, STACK
        ARGFRAME XSTACK, 24, STACK
        ARGFRAME IOVERLAY, 0, STATIC
        ARGFRAME DOVERLAY, 0, STATIC
        FUNCALL Smart_home_Display, HalLcdWriteString
        LOCFRAME ISTACK, 0, STACK
        LOCFRAME PSTACK, 0, STACK
        LOCFRAME XSTACK, 24, STACK
        LOCFRAME IOVERLAY, 0, STATIC
        LOCFRAME DOVERLAY, 0, STATIC
        ARGFRAME ISTACK, 0, STACK
        ARGFRAME PSTACK, 0, STACK
        ARGFRAME XSTACK, 24, STACK
        ARGFRAME IOVERLAY, 0, STATIC
        ARGFRAME DOVERLAY, 0, STATIC
        FUNCALL Smart_home_Display, HalLcdWriteStringValue
        LOCFRAME ISTACK, 0, STACK
        LOCFRAME PSTACK, 0, STACK
        LOCFRAME XSTACK, 25, STACK
        LOCFRAME IOVERLAY, 0, STATIC
        LOCFRAME DOVERLAY, 0, STATIC
        ARGFRAME ISTACK, 0, STACK
        ARGFRAME PSTACK, 0, STACK
        ARGFRAME XSTACK, 25, STACK
        ARGFRAME IOVERLAY, 0, STATIC
        ARGFRAME DOVERLAY, 0, STATIC
        MOV     A,#-0xa
        LCALL   ?BANKED_ENTER_XDATA
        CFI DPH0 load(1, XDATA, add(CFA_XSP16, literal(-1)))
        CFI DPL0 load(1, XDATA, add(CFA_XSP16, literal(-2)))
        CFI ?BRET_EXT load(1, XDATA, add(CFA_XSP16, literal(-3)))
        CFI ?RET_HIGH load(1, XDATA, add(CFA_XSP16, literal(-4)))
        CFI ?RET_LOW load(1, XDATA, add(CFA_XSP16, literal(-5)))
        CFI R7 load(1, XDATA, add(CFA_XSP16, literal(-6)))
        CFI V1 load(1, XDATA, add(CFA_XSP16, literal(-7)))
        CFI V0 load(1, XDATA, add(CFA_XSP16, literal(-8)))
        CFI VB load(1, XDATA, add(CFA_XSP16, literal(-9)))
        CFI R6 load(1, XDATA, add(CFA_XSP16, literal(-10)))
        CFI CFA_SP SP+0
        CFI CFA_XSP16 add(XSP16, 10)
        ; Saved register size: 10
        ; Auto size: 14
        MOV     A,#-0xe
        LCALL   ?ALLOC_XSTACK8
        CFI CFA_XSP16 add(XSP16, 24)
//  993 #if defined LCD_SUPPORTED
//  994   switch(Ctrlcase)
        MOV     DPTR,#Ctrlcase
        MOVX    A,@DPTR
        DEC     A
        JNZ     $+5
        LJMP    ??Smart_home_Display_0 & 0xFFFF
        DEC     A
        JNZ     $+5
        LJMP    ??Smart_home_Display_1 & 0xFFFF
//  995   {
//  996     default:    
//  997     case 0:
//  998       HalLcdWriteString( "      Menu      ", HAL_LCD_LINE_1 );
        ; Setup parameters for call to function HalLcdWriteString
        MOV     R1,#0x1
        MOV     R2,#`?<Constant "      Menu      ">` & 0xff
        MOV     R3,#(`?<Constant "      Menu      ">` >> 8) & 0xff
        LCALL   ?Subroutine10 & 0xFFFF
//  999       //HalLcdWriteString( "Flip use UP/DOWN", HAL_LCD_LINE_4 ); 
// 1000       //清除屏幕显示
// 1001       HalLcdWriteString( " ", HAL_LCD_LINE_2 ); 
// 1002       HalLcdWriteString( " ", HAL_LCD_LINE_3 );
// 1003       
// 1004       switch(LCD_Page)
??CrossCallReturnLabel_18:
        MOV     DPTR,#LCD_Page
        MOVX    A,@DPTR
        DEC     A
        JNZ     $+5
        LJMP    ??Smart_home_Display_2 & 0xFFFF
        DEC     A
        JNZ     $+5
        LJMP    ??Smart_home_Display_3 & 0xFFFF
        DEC     A
        JNZ     $+5
        LJMP    ??Smart_home_Display_4 & 0xFFFF
// 1005       {
// 1006         default:
// 1007         case 0:
// 1008         {
// 1009           static uint16 humit=0x14;
// 1010           static uint16 temper=0x14;
// 1011           static uint16 SoundVb; 
// 1012           
// 1013           
// 1014           DeviceInfo Devhum = DeviceList[Humit];
        MOV     DPL,?XSP + 0
        MOV     DPH,?XSP + 1
        MOV     R4,DPL
        MOV     R5,DPH
        MOV     DPH,#((DeviceList + 7) >> 8) & 0xff
        MOV     DPL,#(DeviceList + 7) & 0xff
        MOV     A,#0x7
        LCALL   ?MOVE_LONG8_XDATA_XDATA
// 1015           DeviceInfo DevSound = DeviceList[soundVb];
        MOV     A,#0x7
        LCALL   ?XSTACK_DISP0_8
        MOV     R4,DPL
        MOV     R5,DPH
        MOV     DPH,#((DeviceList + 56) >> 8) & 0xff
        MOV     DPL,#(DeviceList + 56) & 0xff
        MOV     A,#0x7
        LCALL   ?MOVE_LONG8_XDATA_XDATA
// 1016           //第一页第二行显示温度
// 1017           //      第三行显示光照
// 1018           if(Devhum.deviceStatus == DEVICE_ONLINE)
        INC     A
        LCALL   ?XSTACK_DISP0_8
        MOVX    A,@DPTR
        XRL     A,#0x1
        JNZ     ??CrossCallReturnLabel_63
// 1019           {
// 1020               humit = (uint16)Devhum.data[0];
        MOV     A,#0x2
        LCALL   ?XSTACK_DISP0_8
        MOVX    A,@DPTR
        MOV     DPTR,#??humit
        LCALL   ??Subroutine28_0 & 0xFFFF
// 1021               temper = (uint16)Devhum.data[1];          
??CrossCallReturnLabel_62:
        MOV     A,#0x3
        LCALL   ?XSTACK_DISP0_8
        MOVX    A,@DPTR
        MOV     DPTR,#??temper
        LCALL   ??Subroutine28_0 & 0xFFFF
// 1022           }
// 1023 
// 1024           SoundVb = (uint16)DevSound.data[0];
??CrossCallReturnLabel_63:
        MOV     A,#0x9
        LCALL   ?XSTACK_DISP0_8
        MOVX    A,@DPTR
        MOV     DPTR,#??SoundVb
        LCALL   ??Subroutine28_0 & 0xFFFF
// 1025 
// 1026           HalLcdWriteStringValueValue( "Hum:", humit, 10, "% T_1:", temper, 10, HAL_LCD_LINE_2 );
??CrossCallReturnLabel_64:
        ; Setup parameters for call to function HalLcdWriteStringValueValue
        MOV     ?V0 + 0,#0x2
        MOV     R0,#?V0 + 0
        LCALL   ?PUSH_XSTACK_I_ONE
        CFI CFA_XSP16 add(XSP16, 25)
        MOV     ?V0 + 0,#0xa
        MOV     R0,#?V0 + 0
        LCALL   ?PUSH_XSTACK_I_ONE
        CFI CFA_XSP16 add(XSP16, 26)
        MOV     DPTR,#??temper
        LCALL   ?PUSH_XSTACK8_X_TWO
        CFI CFA_XSP16 add(XSP16, 28)
        MOV     ?V0 + 0,#`?<Constant "% T_1:">` & 0xff
        MOV     ?V0 + 1,#(`?<Constant "% T_1:">` >> 8) & 0xff
        MOV     R0,#?V0 + 0
        LCALL   ?PUSH_XSTACK_I_TWO
        CFI CFA_XSP16 add(XSP16, 30)
        MOV     R1,#0xa
        MOV     DPTR,#??humit
        LCALL   ?Subroutine19 & 0xFFFF
??CrossCallReturnLabel_39:
        MOV     R2,#`?<Constant "Hum:">` & 0xff
        MOV     R3,#(`?<Constant "Hum:">` >> 8) & 0xff
        LCALL   ??HalLcdWriteStringValueValue?relay
        MOV     A,#0x6
        LCALL   ?DEALLOC_XSTACK8
        CFI CFA_XSP16 add(XSP16, 24)
// 1027           
// 1028           if(SoundVb & 0x01 == 0x01) { HalLcdWriteString( "Sound: Voice", HAL_LCD_LINE_3 ); }
        MOV     DPTR,#??SoundVb
        MOVX    A,@DPTR
        MOV     C,0xE0 /* A   */.0
        MOV     R1,#0x3
        JNC     ??Smart_home_Display_5
        ; Setup parameters for call to function HalLcdWriteString
        MOV     R2,#`?<Constant "Sound: Voice">` & 0xff
        MOV     R3,#(`?<Constant "Sound: Voice">` >> 8) & 0xff
        SJMP    ??Smart_home_Display_6
// 1029           else if(SoundVb & 0x02 == 0x02) { HalLcdWriteString( "Sound: Vibration", HAL_LCD_LINE_3 ); }
// 1030           else if(SoundVb & 0x03 == 0x03) { HalLcdWriteString( "Sound: All", HAL_LCD_LINE_3 ); }
// 1031           else {HalLcdWriteString( "Sound: None", HAL_LCD_LINE_3 );}
??Smart_home_Display_5:
        ; Setup parameters for call to function HalLcdWriteString
        MOV     R2,#`?<Constant "Sound: None">` & 0xff
        MOV     R3,#(`?<Constant "Sound: None">` >> 8) & 0xff
??Smart_home_Display_6:
        LCALL   ??HalLcdWriteString?relay
// 1032           
// 1033           //HalLcdWriteStringValue( "Sound:", SoundVb, 16, HAL_LCD_LINE_3 );
// 1034           
// 1035           
// 1036           //显示最下面的百分比条
// 1037           static uint8 percent;
// 1038           percent = (1 * 100) / LCD_PAGE_MAX;
        MOV     DPTR,#??percent
        MOV     A,#0x19
??Smart_home_Display_7:
        MOVX    @DPTR,A
// 1039           HalLcdDisplayPercentBar("",percent);
        ; Setup parameters for call to function HalLcdDisplayPercentBar
        MOV     R1,A
        MOV     R2,#`?<Constant "">` & 0xff
        MOV     R3,#(`?<Constant "">` >> 8) & 0xff
        LCALL   ??HalLcdDisplayPercentBar?relay
// 1040           break;
        LJMP    ??Smart_home_Display_8 & 0xFFFF
// 1041         }
// 1042         case 1:
// 1043         {
// 1044           static uint16 Light;
// 1045           static uint8 lightmp;
// 1046           static uint16 integer;
// 1047           static uint16 decimals;
// 1048           DeviceInfo Devtmp = DeviceList[TempLight];
??Smart_home_Display_2:
        MOV     DPL,?XSP + 0
        MOV     DPH,?XSP + 1
        MOV     R4,DPL
        MOV     R5,DPH
        MOV     DPH,#((DeviceList + 14) >> 8) & 0xff
        MOV     DPL,#(DeviceList + 14) & 0xff
        MOV     A,#0x7
        LCALL   ?MOVE_LONG8_XDATA_XDATA
// 1049           //第一页第二行显示温度
// 1050           //      第三行显示光照
// 1051           integer = (uint16)Devtmp.data[0];
        MOV     A,#0x2
        LCALL   ?XSTACK_DISP0_8
        MOVX    A,@DPTR
        MOV     DPTR,#??integer
        LCALL   ??Subroutine28_0 & 0xFFFF
// 1052           decimals = (uint16)Devtmp.data[1];
??CrossCallReturnLabel_65:
        MOV     A,#0x3
        LCALL   ?XSTACK_DISP0_8
        MOVX    A,@DPTR
        MOV     DPTR,#??decimals
        LCALL   ??Subroutine28_0 & 0xFFFF
// 1053           lightmp = Devtmp.data[3];
??CrossCallReturnLabel_66:
        MOV     A,#0x5
        LCALL   ?XSTACK_DISP0_8
        MOVX    A,@DPTR
        MOV     DPTR,#??lightmp
        MOVX    @DPTR,A
// 1054           Light = (uint16)Devtmp.data[4];
        MOV     A,#0x6
        LCALL   ?XSTACK_DISP0_8
        MOVX    A,@DPTR
        MOV     DPTR,#??Light
        LCALL   ??Subroutine28_0 & 0xFFFF
// 1055           memcpy(&Light,&lightmp,sizeof(lightmp));
??CrossCallReturnLabel_67:
        ; Setup parameters for call to function memcpy
        MOV     ?V0 + 0,#0x1
        MOV     ?V0 + 1,A
        MOV     R0,#?V0 + 0
        LCALL   ?PUSH_XSTACK_I_TWO
        CFI CFA_XSP16 add(XSP16, 26)
        MOV     R4,#??lightmp & 0xff
        MOV     R5,#(??lightmp >> 8) & 0xff
        MOV     R2,#??Light & 0xff
        MOV     R3,#(??Light >> 8) & 0xff
        LCALL   ??memcpy?relay
        MOV     A,#0x2
        LCALL   ?DEALLOC_XSTACK8
        CFI CFA_XSP16 add(XSP16, 24)
// 1056           
// 1057           HalLcdWriteStringValueValue( "Temper_2:", integer, 10, ".", decimals, 10, HAL_LCD_LINE_2 );
        ; Setup parameters for call to function HalLcdWriteStringValueValue
        MOV     ?V0 + 0,#0x2
        MOV     R0,#?V0 + 0
        LCALL   ?PUSH_XSTACK_I_ONE
        CFI CFA_XSP16 add(XSP16, 25)
        MOV     ?V0 + 0,#0xa
        MOV     R0,#?V0 + 0
        LCALL   ?PUSH_XSTACK_I_ONE
        CFI CFA_XSP16 add(XSP16, 26)
        MOV     DPTR,#??decimals
        LCALL   ?PUSH_XSTACK8_X_TWO
        CFI CFA_XSP16 add(XSP16, 28)
        MOV     ?V0 + 0,#`?<Constant ".">` & 0xff
        MOV     ?V0 + 1,#(`?<Constant ".">` >> 8) & 0xff
        MOV     R0,#?V0 + 0
        LCALL   ?PUSH_XSTACK_I_TWO
        CFI CFA_XSP16 add(XSP16, 30)
        MOV     R1,#0xa
        MOV     DPTR,#??integer
        LCALL   ?Subroutine19 & 0xFFFF
??CrossCallReturnLabel_40:
        MOV     R2,#`?<Constant "Temper_2:">` & 0xff
        MOV     R3,#(`?<Constant "Temper_2:">` >> 8) & 0xff
        LCALL   ??HalLcdWriteStringValueValue?relay
        MOV     A,#0x6
        LCALL   ?DEALLOC_XSTACK8
        CFI CFA_XSP16 add(XSP16, 24)
// 1058           HalLcdWriteStringValue( "Light:", Light, 10, HAL_LCD_LINE_3 );
        ; Setup parameters for call to function HalLcdWriteStringValue
        MOV     ?V0 + 0,#0x3
        MOV     R0,#?V0 + 0
        LCALL   ?PUSH_XSTACK_I_ONE
        CFI CFA_XSP16 add(XSP16, 25)
        MOV     R1,#0xa
        MOV     DPTR,#??Light
        LCALL   ?Subroutine19 & 0xFFFF
??CrossCallReturnLabel_41:
        MOV     R2,#`?<Constant "Light:">` & 0xff
        MOV     R3,#(`?<Constant "Light:">` >> 8) & 0xff
        LCALL   ??HalLcdWriteStringValue?relay
        MOV     A,#0x1
        LCALL   ?DEALLOC_XSTACK8
        CFI CFA_XSP16 add(XSP16, 24)
// 1059           
// 1060           //显示最下面的百分比条
// 1061           static uint8 percent;
// 1062           percent = (2 * 100) / LCD_PAGE_MAX;
        MOV     DPTR,#??percent_1
        MOV     A,#0x32
        LJMP    ??Smart_home_Display_7 & 0xFFFF
// 1063           HalLcdDisplayPercentBar("",percent);
// 1064           break;
// 1065         }
// 1066         
// 1067       case 2:
// 1068       {
// 1069           static uint8 kind;
// 1070           static uint8 tmp1,tmp2;
// 1071           static uint8 tmp3,tmp4;
// 1072           static uint16 Data1;
// 1073           static uint16 Data2;
// 1074           //显示最下面的百分比条
// 1075           DeviceInfo rfid = DeviceList[RfID];
??Smart_home_Display_3:
        MOV     DPL,?XSP + 0
        MOV     DPH,?XSP + 1
        MOV     R4,DPL
        MOV     R5,DPH
        MOV     DPH,#((DeviceList + 21) >> 8) & 0xff
        MOV     DPL,#(DeviceList + 21) & 0xff
        MOV     A,#0x7
        LCALL   ?MOVE_LONG8_XDATA_XDATA
// 1076           
// 1077           kind = rfid.data[0];
        MOV     A,#0x2
        LCALL   ?XSTACK_DISP0_8
        MOVX    A,@DPTR
        MOV     DPTR,#??kind
        MOVX    @DPTR,A
// 1078           tmp1 = rfid.data[1];
        MOV     A,#0x3
        LCALL   ?XSTACK_DISP0_8
        MOVX    A,@DPTR
        MOV     DPTR,#??tmp1
        MOVX    @DPTR,A
// 1079           tmp2 = rfid.data[2];
        MOV     A,#0x4
        LCALL   ?XSTACK_DISP0_8
        MOVX    A,@DPTR
        MOV     DPTR,#??tmp2
        MOVX    @DPTR,A
// 1080           tmp3 = rfid.data[3];
        MOV     A,#0x5
        LCALL   ?XSTACK_DISP0_8
        MOVX    A,@DPTR
        MOV     DPTR,#??tmp3
        MOVX    @DPTR,A
// 1081           tmp4 = rfid.data[4];
        MOV     A,#0x6
        LCALL   ?XSTACK_DISP0_8
        MOVX    A,@DPTR
        MOV     DPTR,#??tmp4
        MOVX    @DPTR,A
// 1082           
// 1083           Data1 = (tmp1 << 8) | tmp2;
        MOV     DPTR,#??tmp1
        MOVX    A,@DPTR
        MOV     R1,A
        MOV     DPTR,#??tmp2
        MOVX    A,@DPTR
        MOV     DPTR,#??Data1
        MOVX    @DPTR,A
        INC     DPTR
        MOV     A,R1
        MOVX    @DPTR,A
// 1084           Data2 = (tmp3 << 8) | tmp4;
        MOV     DPTR,#??tmp3
        MOVX    A,@DPTR
        MOV     R1,A
        MOV     DPTR,#??tmp4
        MOVX    A,@DPTR
        MOV     DPTR,#??Data2
        MOVX    @DPTR,A
        INC     DPTR
        MOV     A,R1
        MOVX    @DPTR,A
// 1085           
// 1086           if(kind == 0x01) {HalLcdWriteString( "MFOne-S50", HAL_LCD_LINE_2 );}
        MOV     DPTR,#??kind
        MOVX    A,@DPTR
        XRL     A,#0x1
        JNZ     ??Smart_home_Display_9
        ; Setup parameters for call to function HalLcdWriteString
        MOV     R1,#0x2
        MOV     R2,#`?<Constant "MFOne-S50">` & 0xff
        MOV     R3,#(`?<Constant "MFOne-S50">` >> 8) & 0xff
        SJMP    ??Smart_home_Display_10
// 1087           else if(kind == 0x02) {HalLcdWriteString( "MFOne-S70", HAL_LCD_LINE_2 );}
??Smart_home_Display_9:
        MOVX    A,@DPTR
        XRL     A,#0x2
        JNZ     ??Smart_home_Display_11
        ; Setup parameters for call to function HalLcdWriteString
        MOV     R1,#0x2
        MOV     R2,#`?<Constant "MFOne-S70">` & 0xff
        MOV     R3,#(`?<Constant "MFOne-S70">` >> 8) & 0xff
        SJMP    ??Smart_home_Display_10
// 1088           else if(kind == 0x03) {HalLcdWriteString( "MF-UltraLight", HAL_LCD_LINE_2 );}
??Smart_home_Display_11:
        MOVX    A,@DPTR
        XRL     A,#0x3
        JNZ     ??Smart_home_Display_12
        ; Setup parameters for call to function HalLcdWriteString
        MOV     R1,#0x2
        MOV     R2,#`?<Constant "MF-UltraLight">` & 0xff
        MOV     R3,#(`?<Constant "MF-UltraLight">` >> 8) & 0xff
        SJMP    ??Smart_home_Display_10
// 1089           else if(kind == 0x04) {HalLcdWriteString( "MF-Pro", HAL_LCD_LINE_2 );}
??Smart_home_Display_12:
        MOVX    A,@DPTR
        XRL     A,#0x4
        JNZ     ??Smart_home_Display_13
        ; Setup parameters for call to function HalLcdWriteString
        MOV     R1,#0x2
        MOV     R2,#`?<Constant "MF-Pro">` & 0xff
        MOV     R3,#(`?<Constant "MF-Pro">` >> 8) & 0xff
        SJMP    ??Smart_home_Display_10
// 1090           else if(kind == 0x05) {HalLcdWriteString( "MF-DesFire", HAL_LCD_LINE_2 );}
??Smart_home_Display_13:
        MOVX    A,@DPTR
        XRL     A,#0x5
        MOV     R1,#0x2
        JNZ     ??Smart_home_Display_14
        ; Setup parameters for call to function HalLcdWriteString
        MOV     R2,#`?<Constant "MF-DesFire">` & 0xff
        MOV     R3,#(`?<Constant "MF-DesFire">` >> 8) & 0xff
        SJMP    ??Smart_home_Display_10
// 1091           else {HalLcdWriteString( "No Card", HAL_LCD_LINE_2 );}
??Smart_home_Display_14:
        ; Setup parameters for call to function HalLcdWriteString
        MOV     R2,#`?<Constant "No Card">` & 0xff
        MOV     R3,#(`?<Constant "No Card">` >> 8) & 0xff
??Smart_home_Display_10:
        LCALL   ?Subroutine11 & 0xFFFF
// 1092           
// 1093 
// 1094           HalLcdWriteStringValueValue( "ID: ", Data1, 16, "-", Data2, 16, HAL_LCD_LINE_3 );
??CrossCallReturnLabel_21:
        LCALL   ?PUSH_XSTACK_I_ONE
        CFI CFA_XSP16 add(XSP16, 25)
        MOV     ?V0 + 0,#0x10
        MOV     R0,#?V0 + 0
        LCALL   ?PUSH_XSTACK_I_ONE
        CFI CFA_XSP16 add(XSP16, 26)
        MOV     DPTR,#??Data2
        LCALL   ?PUSH_XSTACK8_X_TWO
        CFI CFA_XSP16 add(XSP16, 28)
        MOV     ?V0 + 0,#`?<Constant "-">` & 0xff
        MOV     ?V0 + 1,#(`?<Constant "-">` >> 8) & 0xff
        MOV     R0,#?V0 + 0
        LCALL   ?PUSH_XSTACK_I_TWO
        CFI CFA_XSP16 add(XSP16, 30)
        MOV     R1,#0x10
        MOV     DPTR,#??Data1
        LCALL   ?Subroutine19 & 0xFFFF
??CrossCallReturnLabel_42:
        MOV     R2,#`?<Constant "ID: ">` & 0xff
        MOV     R3,#(`?<Constant "ID: ">` >> 8) & 0xff
        LCALL   ??HalLcdWriteStringValueValue?relay
        MOV     A,#0x6
        LCALL   ?DEALLOC_XSTACK8
        CFI CFA_XSP16 add(XSP16, 24)
// 1095           
// 1096           static uint8 percent;
// 1097           percent = (3 * 100) / LCD_PAGE_MAX;
        MOV     DPTR,#??percent_2
        MOV     A,#0x4b
        LJMP    ??Smart_home_Display_7 & 0xFFFF
// 1098           HalLcdDisplayPercentBar("",percent);
// 1099           break;
// 1100       }
// 1101       
// 1102       case 3:
// 1103       {
// 1104           static uint16 GasF;
// 1105           static uint16 Infrared;         
// 1106 
// 1107           DeviceInfo DevGas = DeviceList[GasF];
??Smart_home_Display_4:
        MOV     DPTR,#??GasF
        MOVX    A,@DPTR
        MOV     R0,A
        INC     DPTR
        MOVX    A,@DPTR
        MOV     R1,A
        MOV     A,R0
        MOV     B,#0x7
        MUL     AB
        MOV     R0,A
        MOV     R2,B
        MOV     B,#0x7
        MOV     A,R1
        MUL     AB
        ADD     A,R2
        MOV     R1,A
        MOV     A,#DeviceList & 0xff
        ADD     A,R0
        MOV     DPL,A
        MOV     A,#(DeviceList >> 8) & 0xff
        ADDC    A,R1
        PUSH    DPL
        CFI CFA_SP SP+-1
        MOV     DPL,?XSP + 0
        MOV     DPH,?XSP + 1
        MOV     R4,DPL
        MOV     R5,DPH
        MOV     DPH,A
        POP     DPL
        CFI CFA_SP SP+0
        MOV     A,#0x7
        LCALL   ?MOVE_LONG8_XDATA_XDATA
// 1108           DeviceInfo DevInf = DeviceList[infrared]; 
        MOV     A,#0x7
        LCALL   ?XSTACK_DISP0_8
        MOV     R4,DPL
        MOV     R5,DPH
        MOV     DPH,#((DeviceList + 35) >> 8) & 0xff
        MOV     DPL,#(DeviceList + 35) & 0xff
        MOV     A,#0x7
        LCALL   ?MOVE_LONG8_XDATA_XDATA
// 1109           
// 1110           GasF = (uint16)DevGas.data[0];
        MOV     A,#0x2
        LCALL   ?XSTACK_DISP0_8
        MOVX    A,@DPTR
        MOV     DPTR,#??GasF
        LCALL   ??Subroutine28_0 & 0xFFFF
// 1111           Infrared = (uint16)DevInf.data[0];
??CrossCallReturnLabel_68:
        MOV     A,#0x9
        LCALL   ?XSTACK_DISP0_8
        MOVX    A,@DPTR
        MOV     DPTR,#??Infrared
        LCALL   ??Subroutine28_0 & 0xFFFF
// 1112           
// 1113           if(GasF & 0x01 == 0x01) { HalLcdWriteString( "GasFlame: Flame", HAL_LCD_LINE_2 ); }         //0位是火焰
??CrossCallReturnLabel_69:
        MOV     DPTR,#??GasF
        MOVX    A,@DPTR
        MOV     C,0xE0 /* A   */.0
        MOV     R1,#0x2
        JNC     ??Smart_home_Display_15
        ; Setup parameters for call to function HalLcdWriteString
        MOV     R2,#`?<Constant "GasFlame: Flame">` & 0xff
        MOV     R3,#(`?<Constant "GasFlame: Flame">` >> 8) & 0xff
        SJMP    ??Smart_home_Display_16
// 1114           else if(GasF & 0x02 == 0x02) { HalLcdWriteString( "GasFlame: Gas", HAL_LCD_LINE_2 ); }//1位是气体
// 1115           else if(GasF & 0x03 == 0x03) { HalLcdWriteString( "GasFlame: All", HAL_LCD_LINE_2 ); }
// 1116           else {HalLcdWriteString( "GasFlame: None", HAL_LCD_LINE_2 );}
??Smart_home_Display_15:
        ; Setup parameters for call to function HalLcdWriteString
        MOV     R2,#`?<Constant "GasFlame: None">` & 0xff
        MOV     R3,#(`?<Constant "GasFlame: None">` >> 8) & 0xff
??Smart_home_Display_16:
        LCALL   ??HalLcdWriteString?relay
// 1117           
// 1118           //HalLcdWriteStringValue("GasFlame: ", GasF, 16, HAL_LCD_LINE_2 );
// 1119           if(Infrared == 0x01)
        MOV     DPTR,#??Infrared
        MOVX    A,@DPTR
        XRL     A,#0x1
        JNZ     ??Smart_home_Display_17
        INC     DPTR
        MOVX    A,@DPTR
??Smart_home_Display_17:
        MOV     R1,#0x3
        JNZ     ??Smart_home_Display_18
// 1120           {
// 1121             HalLcdWriteString("Infrared: Human", HAL_LCD_LINE_3 );
        ; Setup parameters for call to function HalLcdWriteString
        MOV     R2,#`?<Constant "Infrared: Human">` & 0xff
        MOV     R3,#(`?<Constant "Infrared: Human">` >> 8) & 0xff
        SJMP    ??Smart_home_Display_19
// 1122           }
// 1123           else{
// 1124             HalLcdWriteString("Infrared: NoHuman", HAL_LCD_LINE_3 );
??Smart_home_Display_18:
        ; Setup parameters for call to function HalLcdWriteString
        MOV     R2,#`?<Constant "Infrared: NoHuman">` & 0xff
        MOV     R3,#(`?<Constant "Infrared: NoHuman">` >> 8) & 0xff
??Smart_home_Display_19:
        LCALL   ??HalLcdWriteString?relay
// 1125           }
// 1126           
// 1127           
// 1128           //显示最下面的百分比条
// 1129           static uint8 percent;
// 1130           percent = (4 * 100) / LCD_PAGE_MAX;
        MOV     DPTR,#??percent_3
        MOV     A,#0x64
        LJMP    ??Smart_home_Display_7 & 0xFFFF
// 1131           HalLcdDisplayPercentBar("",percent);
// 1132           break;
// 1133       }
// 1134           
// 1135     }
// 1136       
// 1137       break;
// 1138     
// 1139     case 1:
// 1140       HalLcdWriteString( "Relay Contrling", HAL_LCD_LINE_4 ); 
??Smart_home_Display_0:
        ; Setup parameters for call to function HalLcdWriteString
        MOV     R1,#0x4
        MOV     R2,#`?<Constant "Relay Contrling">` & 0xff
        MOV     R3,#(`?<Constant "Relay Contrling">` >> 8) & 0xff
        LCALL   ?Subroutine10 & 0xFFFF
// 1141       //清除屏幕显示
// 1142       HalLcdWriteString( " ", HAL_LCD_LINE_2 ); 
// 1143       HalLcdWriteString( " ", HAL_LCD_LINE_3 );
// 1144       //这里的deviceStatus 可能是0x00,所以会出现bug 这个0在Device检查时被设置 2.24
// 1145       if(DeviceList[relay].deviceStatus == DEVICE_OFFLINE)
??CrossCallReturnLabel_19:
        MOV     DPTR,#DeviceList + 50
        MOVX    A,@DPTR
        XRL     A,#0x2
        MOV     R1,#0x1
        JNZ     ??Smart_home_Display_20
// 1146       {
// 1147         HalLcdWriteString( "Relay Offline", HAL_LCD_LINE_1 );      
        ; Setup parameters for call to function HalLcdWriteString
        MOV     R2,#`?<Constant "Relay Offline">` & 0xff
        MOV     R3,#(`?<Constant "Relay Offline">` >> 8) & 0xff
??Smart_home_Display_21:
        LCALL   ??HalLcdWriteString?relay
        LJMP    ??Smart_home_Display_8 & 0xFFFF
// 1148       }
// 1149       else  //设备在线回显  设备在线可能是 0/1
// 1150       {
// 1151         HalLcdWriteString( "Relay Online", HAL_LCD_LINE_1 ); 
??Smart_home_Display_20:
        ; Setup parameters for call to function HalLcdWriteString
        MOV     R2,#`?<Constant "Relay Online">` & 0xff
        MOV     R3,#(`?<Constant "Relay Online">` >> 8) & 0xff
        LCALL   ??HalLcdWriteString?relay
// 1152         //继电器控制界面
// 1153         const uint8 cmd =  DeviceList[relay].data[0];
        MOV     DPTR,#DeviceList + 51
        MOVX    A,@DPTR
        MOV     R6,A
// 1154 
// 1155         if((cmd & 0x02) == 0x02) {HalLcdWriteString( "K1:ON", HAL_LCD_LINE_2 );}
        MOV     C,0xE0 /* A   */.1
        JNC     ??Smart_home_Display_22
        ; Setup parameters for call to function HalLcdWriteString
        MOV     R1,#0x2
        MOV     R2,#`?<Constant "K1:ON">` & 0xff
        MOV     R3,#(`?<Constant "K1:ON">` >> 8) & 0xff
        LCALL   ??HalLcdWriteString?relay
// 1156         if((cmd & 0x01) == 0x01) {HalLcdWriteString( "K1:OFF", HAL_LCD_LINE_2 );}
??Smart_home_Display_22:
        MOV     A,R6
        MOV     C,0xE0 /* A   */.0
        JNC     ??Smart_home_Display_23
        ; Setup parameters for call to function HalLcdWriteString
        MOV     R1,#0x2
        MOV     R2,#`?<Constant "K1:OFF">` & 0xff
        MOV     R3,#(`?<Constant "K1:OFF">` >> 8) & 0xff
        LCALL   ??HalLcdWriteString?relay
// 1157         if((cmd & 0x20) == 0x20) {HalLcdWriteString( "K2:ON", HAL_LCD_LINE_3 );}
??Smart_home_Display_23:
        MOV     A,R6
        MOV     C,0xE0 /* A   */.5
        JNC     ??Smart_home_Display_24
        ; Setup parameters for call to function HalLcdWriteString
        MOV     R1,#0x3
        MOV     R2,#`?<Constant "K2:ON">` & 0xff
        MOV     R3,#(`?<Constant "K2:ON">` >> 8) & 0xff
        LCALL   ??HalLcdWriteString?relay
// 1158         if((cmd & 0x10) == 0x10) {HalLcdWriteString( "K2:OFF", HAL_LCD_LINE_3 );}      
??Smart_home_Display_24:
        MOV     A,R6
        MOV     C,0xE0 /* A   */.4
        JNC     ??Smart_home_Display_8
        ; Setup parameters for call to function HalLcdWriteString
        MOV     R1,#0x3
        MOV     R2,#`?<Constant "K2:OFF">` & 0xff
        MOV     R3,#(`?<Constant "K2:OFF">` >> 8) & 0xff
        SJMP    ??Smart_home_Display_21
// 1159       }
// 1160 
// 1161       break;
// 1162     
// 1163     case 2:
// 1164       HalLcdWriteString( "Motor Contrling", HAL_LCD_LINE_4 );
??Smart_home_Display_1:
        ; Setup parameters for call to function HalLcdWriteString
        MOV     R1,#0x4
        MOV     R2,#`?<Constant "Motor Contrling">` & 0xff
        MOV     R3,#(`?<Constant "Motor Contrling">` >> 8) & 0xff
        LCALL   ?Subroutine10 & 0xFFFF
// 1165       //清除屏幕显示
// 1166       HalLcdWriteString( " ", HAL_LCD_LINE_2 ); 
// 1167       HalLcdWriteString( " ", HAL_LCD_LINE_3 );
// 1168       if(DeviceList[motor].deviceStatus == DEVICE_OFFLINE)
??CrossCallReturnLabel_20:
        MOV     DPTR,#DeviceList + 43
        MOVX    A,@DPTR
        XRL     A,#0x2
        MOV     R1,#0x1
        JNZ     ??Smart_home_Display_25
// 1169       {
// 1170         HalLcdWriteString( "Motor Offline", HAL_LCD_LINE_1 );      
        ; Setup parameters for call to function HalLcdWriteString
        MOV     R2,#`?<Constant "Motor Offline">` & 0xff
        MOV     R3,#(`?<Constant "Motor Offline">` >> 8) & 0xff
        SJMP    ??Smart_home_Display_21
// 1171       }
// 1172       else  //设备在线回显  设备在线可能是 0/1
// 1173       {
// 1174         HalLcdWriteString( "Motor Online", HAL_LCD_LINE_1 ); 
??Smart_home_Display_25:
        ; Setup parameters for call to function HalLcdWriteString
        MOV     R2,#`?<Constant "Motor Online">` & 0xff
        MOV     R3,#(`?<Constant "Motor Online">` >> 8) & 0xff
        LCALL   ??HalLcdWriteString?relay
// 1175         //电机控制界面
// 1176         const uint16 speed =  (uint16) DeviceList[motor].data[0];
        MOV     DPTR,#DeviceList + 44
        MOVX    A,@DPTR
        MOV     R6,A
// 1177         const uint16 status = (uint16) DeviceList[motor].data[1];
// 1178         switch(status)
        INC     DPTR
        MOVX    A,@DPTR
        ADD     A,#-0x2
        JZ      ??Smart_home_Display_26
        DEC     A
        MOV     R1,#0x2
        JZ      ??Smart_home_Display_27
// 1179         {
// 1180         default:
// 1181         case 1:
// 1182           HalLcdWriteString( "Status: STOP", HAL_LCD_LINE_2 );
        ; Setup parameters for call to function HalLcdWriteString
        MOV     R2,#`?<Constant "Status: STOP">` & 0xff
        MOV     R3,#(`?<Constant "Status: STOP">` >> 8) & 0xff
        SJMP    ??Smart_home_Display_28
// 1183           break;
// 1184         case 2:
// 1185           HalLcdWriteString( "Status: FORWARD", HAL_LCD_LINE_2 );
??Smart_home_Display_26:
        ; Setup parameters for call to function HalLcdWriteString
        MOV     R1,#0x2
        MOV     R2,#`?<Constant "Status: FORWARD">` & 0xff
        MOV     R3,#(`?<Constant "Status: FORWARD">` >> 8) & 0xff
        SJMP    ??Smart_home_Display_28
// 1186           break;
// 1187         case 3:
// 1188           HalLcdWriteString( "Status: BACKWARD", HAL_LCD_LINE_2 );
??Smart_home_Display_27:
        ; Setup parameters for call to function HalLcdWriteString
        MOV     R2,#`?<Constant "Status: BACKWARD">` & 0xff
        MOV     R3,#(`?<Constant "Status: BACKWARD">` >> 8) & 0xff
// 1189           break;
// 1190         }
// 1191         
// 1192         HalLcdWriteStringValue( "Speed:", speed, 10, HAL_LCD_LINE_3 );
// 1193       
// 1194       }
// 1195   }
??Smart_home_Display_28:
        LCALL   ?Subroutine11 & 0xFFFF
??CrossCallReturnLabel_22:
        LCALL   ?PUSH_XSTACK_I_ONE
        CFI CFA_XSP16 add(XSP16, 25)
        MOV     R1,#0xa
        MOV     A,R6
        MOV     R4,A
        MOV     R5,#0x0
        MOV     R2,#`?<Constant "Speed:">` & 0xff
        MOV     R3,#(`?<Constant "Speed:">` >> 8) & 0xff
        LCALL   ??HalLcdWriteStringValue?relay
        MOV     A,#0x1
        LCALL   ?DEALLOC_XSTACK8
        CFI CFA_XSP16 add(XSP16, 24)
// 1196   
// 1197 #endif // LCD_SUPPORTED  
// 1198 }
??Smart_home_Display_8:
        MOV     A,#0xe
        LCALL   ?DEALLOC_XSTACK8
        CFI CFA_XSP16 add(XSP16, 10)
        LJMP    ?Subroutine1 & 0xFFFF
        CFI EndBlock cfiBlock104

        RSEG BANKED_CODE:CODE:NOROOT(0)
?Subroutine19:
        CFI Block cfiCond105 Using cfiCommon0
        CFI NoFunction
        CFI Conditional ??CrossCallReturnLabel_39
        CFI R6 load(1, XDATA, add(CFA_XSP16, literal(-10)))
        CFI VB load(1, XDATA, add(CFA_XSP16, literal(-9)))
        CFI V0 load(1, XDATA, add(CFA_XSP16, literal(-8)))
        CFI V1 load(1, XDATA, add(CFA_XSP16, literal(-7)))
        CFI R7 load(1, XDATA, add(CFA_XSP16, literal(-6)))
        CFI ?RET_LOW load(1, XDATA, add(CFA_XSP16, literal(-5)))
        CFI ?RET_HIGH load(1, XDATA, add(CFA_XSP16, literal(-4)))
        CFI ?BRET_EXT load(1, XDATA, add(CFA_XSP16, literal(-3)))
        CFI DPL0 load(1, XDATA, add(CFA_XSP16, literal(-2)))
        CFI DPH0 load(1, XDATA, add(CFA_XSP16, literal(-1)))
        CFI CFA_SP SP+0
        CFI CFA_XSP16 add(XSP16, 30)
        CFI Block cfiCond106 Using cfiCommon0
        CFI (cfiCond106) NoFunction
        CFI (cfiCond106) Conditional ??CrossCallReturnLabel_40
        CFI (cfiCond106) R6 load(1, XDATA, add(CFA_XSP16, literal(-10)))
        CFI (cfiCond106) VB load(1, XDATA, add(CFA_XSP16, literal(-9)))
        CFI (cfiCond106) V0 load(1, XDATA, add(CFA_XSP16, literal(-8)))
        CFI (cfiCond106) V1 load(1, XDATA, add(CFA_XSP16, literal(-7)))
        CFI (cfiCond106) R7 load(1, XDATA, add(CFA_XSP16, literal(-6)))
        CFI (cfiCond106) ?RET_LOW load(1, XDATA, add(CFA_XSP16, literal(-5)))
        CFI (cfiCond106) ?RET_HIGH load(1, XDATA, add(CFA_XSP16, literal(-4)))
        CFI (cfiCond106) ?BRET_EXT load(1, XDATA, add(CFA_XSP16, literal(-3)))
        CFI (cfiCond106) DPL0 load(1, XDATA, add(CFA_XSP16, literal(-2)))
        CFI (cfiCond106) DPH0 load(1, XDATA, add(CFA_XSP16, literal(-1)))
        CFI (cfiCond106) CFA_SP SP+0
        CFI (cfiCond106) CFA_XSP16 add(XSP16, 30)
        CFI Block cfiCond107 Using cfiCommon0
        CFI (cfiCond107) NoFunction
        CFI (cfiCond107) Conditional ??CrossCallReturnLabel_41
        CFI (cfiCond107) R6 load(1, XDATA, add(CFA_XSP16, literal(-10)))
        CFI (cfiCond107) VB load(1, XDATA, add(CFA_XSP16, literal(-9)))
        CFI (cfiCond107) V0 load(1, XDATA, add(CFA_XSP16, literal(-8)))
        CFI (cfiCond107) V1 load(1, XDATA, add(CFA_XSP16, literal(-7)))
        CFI (cfiCond107) R7 load(1, XDATA, add(CFA_XSP16, literal(-6)))
        CFI (cfiCond107) ?RET_LOW load(1, XDATA, add(CFA_XSP16, literal(-5)))
        CFI (cfiCond107) ?RET_HIGH load(1, XDATA, add(CFA_XSP16, literal(-4)))
        CFI (cfiCond107) ?BRET_EXT load(1, XDATA, add(CFA_XSP16, literal(-3)))
        CFI (cfiCond107) DPL0 load(1, XDATA, add(CFA_XSP16, literal(-2)))
        CFI (cfiCond107) DPH0 load(1, XDATA, add(CFA_XSP16, literal(-1)))
        CFI (cfiCond107) CFA_SP SP+0
        CFI (cfiCond107) CFA_XSP16 add(XSP16, 25)
        CFI Block cfiCond108 Using cfiCommon0
        CFI (cfiCond108) NoFunction
        CFI (cfiCond108) Conditional ??CrossCallReturnLabel_42
        CFI (cfiCond108) R6 load(1, XDATA, add(CFA_XSP16, literal(-10)))
        CFI (cfiCond108) VB load(1, XDATA, add(CFA_XSP16, literal(-9)))
        CFI (cfiCond108) V0 load(1, XDATA, add(CFA_XSP16, literal(-8)))
        CFI (cfiCond108) V1 load(1, XDATA, add(CFA_XSP16, literal(-7)))
        CFI (cfiCond108) R7 load(1, XDATA, add(CFA_XSP16, literal(-6)))
        CFI (cfiCond108) ?RET_LOW load(1, XDATA, add(CFA_XSP16, literal(-5)))
        CFI (cfiCond108) ?RET_HIGH load(1, XDATA, add(CFA_XSP16, literal(-4)))
        CFI (cfiCond108) ?BRET_EXT load(1, XDATA, add(CFA_XSP16, literal(-3)))
        CFI (cfiCond108) DPL0 load(1, XDATA, add(CFA_XSP16, literal(-2)))
        CFI (cfiCond108) DPH0 load(1, XDATA, add(CFA_XSP16, literal(-1)))
        CFI (cfiCond108) CFA_SP SP+0
        CFI (cfiCond108) CFA_XSP16 add(XSP16, 30)
        CFI Block cfiPicker109 Using cfiCommon1
        CFI (cfiPicker109) NoFunction
        CFI (cfiPicker109) Picker
        MOVX    A,@DPTR
        MOV     R4,A
        INC     DPTR
        MOVX    A,@DPTR
        MOV     R5,A
        RET
        CFI EndBlock cfiCond105
        CFI EndBlock cfiCond106
        CFI EndBlock cfiCond107
        CFI EndBlock cfiCond108
        CFI EndBlock cfiPicker109

        RSEG BANKED_CODE:CODE:NOROOT(0)
?Subroutine11:
        CFI Block cfiCond110 Using cfiCommon0
        CFI NoFunction
        CFI Conditional ??CrossCallReturnLabel_21
        CFI R6 load(1, XDATA, add(CFA_XSP16, literal(-10)))
        CFI VB load(1, XDATA, add(CFA_XSP16, literal(-9)))
        CFI V0 load(1, XDATA, add(CFA_XSP16, literal(-8)))
        CFI V1 load(1, XDATA, add(CFA_XSP16, literal(-7)))
        CFI R7 load(1, XDATA, add(CFA_XSP16, literal(-6)))
        CFI ?RET_LOW load(1, XDATA, add(CFA_XSP16, literal(-5)))
        CFI ?RET_HIGH load(1, XDATA, add(CFA_XSP16, literal(-4)))
        CFI ?BRET_EXT load(1, XDATA, add(CFA_XSP16, literal(-3)))
        CFI DPL0 load(1, XDATA, add(CFA_XSP16, literal(-2)))
        CFI DPH0 load(1, XDATA, add(CFA_XSP16, literal(-1)))
        CFI CFA_SP SP+0
        CFI CFA_XSP16 add(XSP16, 24)
        CFI Block cfiCond111 Using cfiCommon0
        CFI (cfiCond111) NoFunction
        CFI (cfiCond111) Conditional ??CrossCallReturnLabel_22
        CFI (cfiCond111) R6 load(1, XDATA, add(CFA_XSP16, literal(-10)))
        CFI (cfiCond111) VB load(1, XDATA, add(CFA_XSP16, literal(-9)))
        CFI (cfiCond111) V0 load(1, XDATA, add(CFA_XSP16, literal(-8)))
        CFI (cfiCond111) V1 load(1, XDATA, add(CFA_XSP16, literal(-7)))
        CFI (cfiCond111) R7 load(1, XDATA, add(CFA_XSP16, literal(-6)))
        CFI (cfiCond111) ?RET_LOW load(1, XDATA, add(CFA_XSP16, literal(-5)))
        CFI (cfiCond111) ?RET_HIGH load(1, XDATA, add(CFA_XSP16, literal(-4)))
        CFI (cfiCond111) ?BRET_EXT load(1, XDATA, add(CFA_XSP16, literal(-3)))
        CFI (cfiCond111) DPL0 load(1, XDATA, add(CFA_XSP16, literal(-2)))
        CFI (cfiCond111) DPH0 load(1, XDATA, add(CFA_XSP16, literal(-1)))
        CFI (cfiCond111) CFA_SP SP+0
        CFI (cfiCond111) CFA_XSP16 add(XSP16, 24)
        CFI Block cfiPicker112 Using cfiCommon1
        CFI (cfiPicker112) NoFunction
        CFI (cfiPicker112) Picker
        LCALL   ??HalLcdWriteString?relay
        ; Setup parameters for call to function HalLcdWriteStringValueValue
        ; Setup parameters for call to function HalLcdWriteStringValue
        MOV     ?V0 + 0,#0x3
        MOV     R0,#?V0 + 0
        RET
        CFI EndBlock cfiCond110
        CFI EndBlock cfiCond111
        CFI EndBlock cfiPicker112

        RSEG BANKED_CODE:CODE:NOROOT(0)
?Subroutine10:
        CFI Block cfiCond113 Using cfiCommon0
        CFI NoFunction
        CFI Conditional ??CrossCallReturnLabel_18
        CFI R6 load(1, XDATA, add(CFA_XSP16, literal(-10)))
        CFI VB load(1, XDATA, add(CFA_XSP16, literal(-9)))
        CFI V0 load(1, XDATA, add(CFA_XSP16, literal(-8)))
        CFI V1 load(1, XDATA, add(CFA_XSP16, literal(-7)))
        CFI R7 load(1, XDATA, add(CFA_XSP16, literal(-6)))
        CFI ?RET_LOW load(1, XDATA, add(CFA_XSP16, literal(-5)))
        CFI ?RET_HIGH load(1, XDATA, add(CFA_XSP16, literal(-4)))
        CFI ?BRET_EXT load(1, XDATA, add(CFA_XSP16, literal(-3)))
        CFI DPL0 load(1, XDATA, add(CFA_XSP16, literal(-2)))
        CFI DPH0 load(1, XDATA, add(CFA_XSP16, literal(-1)))
        CFI CFA_SP SP+0
        CFI CFA_XSP16 add(XSP16, 24)
        CFI Block cfiCond114 Using cfiCommon0
        CFI (cfiCond114) NoFunction
        CFI (cfiCond114) Conditional ??CrossCallReturnLabel_19
        CFI (cfiCond114) R6 load(1, XDATA, add(CFA_XSP16, literal(-10)))
        CFI (cfiCond114) VB load(1, XDATA, add(CFA_XSP16, literal(-9)))
        CFI (cfiCond114) V0 load(1, XDATA, add(CFA_XSP16, literal(-8)))
        CFI (cfiCond114) V1 load(1, XDATA, add(CFA_XSP16, literal(-7)))
        CFI (cfiCond114) R7 load(1, XDATA, add(CFA_XSP16, literal(-6)))
        CFI (cfiCond114) ?RET_LOW load(1, XDATA, add(CFA_XSP16, literal(-5)))
        CFI (cfiCond114) ?RET_HIGH load(1, XDATA, add(CFA_XSP16, literal(-4)))
        CFI (cfiCond114) ?BRET_EXT load(1, XDATA, add(CFA_XSP16, literal(-3)))
        CFI (cfiCond114) DPL0 load(1, XDATA, add(CFA_XSP16, literal(-2)))
        CFI (cfiCond114) DPH0 load(1, XDATA, add(CFA_XSP16, literal(-1)))
        CFI (cfiCond114) CFA_SP SP+0
        CFI (cfiCond114) CFA_XSP16 add(XSP16, 24)
        CFI Block cfiCond115 Using cfiCommon0
        CFI (cfiCond115) NoFunction
        CFI (cfiCond115) Conditional ??CrossCallReturnLabel_20
        CFI (cfiCond115) R6 load(1, XDATA, add(CFA_XSP16, literal(-10)))
        CFI (cfiCond115) VB load(1, XDATA, add(CFA_XSP16, literal(-9)))
        CFI (cfiCond115) V0 load(1, XDATA, add(CFA_XSP16, literal(-8)))
        CFI (cfiCond115) V1 load(1, XDATA, add(CFA_XSP16, literal(-7)))
        CFI (cfiCond115) R7 load(1, XDATA, add(CFA_XSP16, literal(-6)))
        CFI (cfiCond115) ?RET_LOW load(1, XDATA, add(CFA_XSP16, literal(-5)))
        CFI (cfiCond115) ?RET_HIGH load(1, XDATA, add(CFA_XSP16, literal(-4)))
        CFI (cfiCond115) ?BRET_EXT load(1, XDATA, add(CFA_XSP16, literal(-3)))
        CFI (cfiCond115) DPL0 load(1, XDATA, add(CFA_XSP16, literal(-2)))
        CFI (cfiCond115) DPH0 load(1, XDATA, add(CFA_XSP16, literal(-1)))
        CFI (cfiCond115) CFA_SP SP+0
        CFI (cfiCond115) CFA_XSP16 add(XSP16, 24)
        CFI Block cfiPicker116 Using cfiCommon1
        CFI (cfiPicker116) NoFunction
        CFI (cfiPicker116) Picker
        LCALL   ??HalLcdWriteString?relay
        ; Setup parameters for call to function HalLcdWriteString
        ; Setup parameters for call to function HalLcdWriteString
        ; Setup parameters for call to function HalLcdWriteString
        MOV     R1,#0x2
        MOV     R2,#`?<Constant " ">` & 0xff
        MOV     R3,#(`?<Constant " ">` >> 8) & 0xff
        LCALL   ??HalLcdWriteString?relay
        ; Setup parameters for call to function HalLcdWriteString
        ; Setup parameters for call to function HalLcdWriteString
        ; Setup parameters for call to function HalLcdWriteString
        MOV     R1,#0x3
        MOV     R2,#`?<Constant " ">` & 0xff
        MOV     R3,#(`?<Constant " ">` >> 8) & 0xff
        LCALL   ??HalLcdWriteString?relay
        RET
        CFI EndBlock cfiCond113
        CFI EndBlock cfiCond114
        CFI EndBlock cfiCond115
        CFI EndBlock cfiPicker116

        RSEG BANKED_CODE:CODE:NOROOT(0)
?Subroutine9:
        CFI Block cfiCond117 Using cfiCommon0
        CFI NoFunction
        CFI Conditional ??CrossCallReturnLabel_70
        CFI R6 load(1, XDATA, add(CFA_XSP16, literal(-9)))
        CFI VB load(1, XDATA, add(CFA_XSP16, literal(-8)))
        CFI V0 load(1, XDATA, add(CFA_XSP16, literal(-7)))
        CFI R7 load(1, XDATA, add(CFA_XSP16, literal(-6)))
        CFI ?RET_LOW load(1, XDATA, add(CFA_XSP16, literal(-5)))
        CFI ?RET_HIGH load(1, XDATA, add(CFA_XSP16, literal(-4)))
        CFI ?BRET_EXT load(1, XDATA, add(CFA_XSP16, literal(-3)))
        CFI DPL0 load(1, XDATA, add(CFA_XSP16, literal(-2)))
        CFI DPH0 load(1, XDATA, add(CFA_XSP16, literal(-1)))
        CFI CFA_SP SP+0
        CFI CFA_XSP16 add(XSP16, 38)
        CFI Block cfiCond118 Using cfiCommon0
        CFI (cfiCond118) NoFunction
        CFI (cfiCond118) Conditional ??CrossCallReturnLabel_71
        CFI (cfiCond118) R6 load(1, XDATA, add(CFA_XSP16, literal(-9)))
        CFI (cfiCond118) VB load(1, XDATA, add(CFA_XSP16, literal(-8)))
        CFI (cfiCond118) V0 load(1, XDATA, add(CFA_XSP16, literal(-7)))
        CFI (cfiCond118) R7 load(1, XDATA, add(CFA_XSP16, literal(-6)))
        CFI (cfiCond118) ?RET_LOW load(1, XDATA, add(CFA_XSP16, literal(-5)))
        CFI (cfiCond118) ?RET_HIGH load(1, XDATA, add(CFA_XSP16, literal(-4)))
        CFI (cfiCond118) ?BRET_EXT load(1, XDATA, add(CFA_XSP16, literal(-3)))
        CFI (cfiCond118) DPL0 load(1, XDATA, add(CFA_XSP16, literal(-2)))
        CFI (cfiCond118) DPH0 load(1, XDATA, add(CFA_XSP16, literal(-1)))
        CFI (cfiCond118) CFA_SP SP+0
        CFI (cfiCond118) CFA_XSP16 add(XSP16, 38)
        CFI Block cfiPicker119 Using cfiCommon1
        CFI (cfiPicker119) NoFunction
        CFI (cfiPicker119) Picker
        MOV     A,#-0x80
        CFI EndBlock cfiCond117
        CFI EndBlock cfiCond118
        CFI EndBlock cfiPicker119
        REQUIRE ??Subroutine28_0
        ; // Fall through to label ??Subroutine28_0

        RSEG BANKED_CODE:CODE:NOROOT(0)
??Subroutine28_0:
        CFI Block cfiCond120 Using cfiCommon0
        CFI NoFunction
        CFI Conditional ??CrossCallReturnLabel_61
        CFI R6 load(1, XDATA, add(CFA_XSP16, literal(-9)))
        CFI VB load(1, XDATA, add(CFA_XSP16, literal(-8)))
        CFI V0 load(1, XDATA, add(CFA_XSP16, literal(-7)))
        CFI R7 load(1, XDATA, add(CFA_XSP16, literal(-6)))
        CFI ?RET_LOW load(1, XDATA, add(CFA_XSP16, literal(-5)))
        CFI ?RET_HIGH load(1, XDATA, add(CFA_XSP16, literal(-4)))
        CFI ?BRET_EXT load(1, XDATA, add(CFA_XSP16, literal(-3)))
        CFI DPL0 load(1, XDATA, add(CFA_XSP16, literal(-2)))
        CFI DPH0 load(1, XDATA, add(CFA_XSP16, literal(-1)))
        CFI CFA_SP SP+0
        CFI CFA_XSP16 add(XSP16, 38)
        CFI Block cfiCond121 Using cfiCommon0
        CFI (cfiCond121) NoFunction
        CFI (cfiCond121) Conditional ??CrossCallReturnLabel_62
        CFI (cfiCond121) R6 load(1, XDATA, add(CFA_XSP16, literal(-10)))
        CFI (cfiCond121) VB load(1, XDATA, add(CFA_XSP16, literal(-9)))
        CFI (cfiCond121) V0 load(1, XDATA, add(CFA_XSP16, literal(-8)))
        CFI (cfiCond121) V1 load(1, XDATA, add(CFA_XSP16, literal(-7)))
        CFI (cfiCond121) R7 load(1, XDATA, add(CFA_XSP16, literal(-6)))
        CFI (cfiCond121) ?RET_LOW load(1, XDATA, add(CFA_XSP16, literal(-5)))
        CFI (cfiCond121) ?RET_HIGH load(1, XDATA, add(CFA_XSP16, literal(-4)))
        CFI (cfiCond121) ?BRET_EXT load(1, XDATA, add(CFA_XSP16, literal(-3)))
        CFI (cfiCond121) DPL0 load(1, XDATA, add(CFA_XSP16, literal(-2)))
        CFI (cfiCond121) DPH0 load(1, XDATA, add(CFA_XSP16, literal(-1)))
        CFI (cfiCond121) CFA_SP SP+0
        CFI (cfiCond121) CFA_XSP16 add(XSP16, 24)
        CFI Block cfiCond122 Using cfiCommon0
        CFI (cfiCond122) NoFunction
        CFI (cfiCond122) Conditional ??CrossCallReturnLabel_63
        CFI (cfiCond122) R6 load(1, XDATA, add(CFA_XSP16, literal(-10)))
        CFI (cfiCond122) VB load(1, XDATA, add(CFA_XSP16, literal(-9)))
        CFI (cfiCond122) V0 load(1, XDATA, add(CFA_XSP16, literal(-8)))
        CFI (cfiCond122) V1 load(1, XDATA, add(CFA_XSP16, literal(-7)))
        CFI (cfiCond122) R7 load(1, XDATA, add(CFA_XSP16, literal(-6)))
        CFI (cfiCond122) ?RET_LOW load(1, XDATA, add(CFA_XSP16, literal(-5)))
        CFI (cfiCond122) ?RET_HIGH load(1, XDATA, add(CFA_XSP16, literal(-4)))
        CFI (cfiCond122) ?BRET_EXT load(1, XDATA, add(CFA_XSP16, literal(-3)))
        CFI (cfiCond122) DPL0 load(1, XDATA, add(CFA_XSP16, literal(-2)))
        CFI (cfiCond122) DPH0 load(1, XDATA, add(CFA_XSP16, literal(-1)))
        CFI (cfiCond122) CFA_SP SP+0
        CFI (cfiCond122) CFA_XSP16 add(XSP16, 24)
        CFI Block cfiCond123 Using cfiCommon0
        CFI (cfiCond123) NoFunction
        CFI (cfiCond123) Conditional ??CrossCallReturnLabel_64
        CFI (cfiCond123) R6 load(1, XDATA, add(CFA_XSP16, literal(-10)))
        CFI (cfiCond123) VB load(1, XDATA, add(CFA_XSP16, literal(-9)))
        CFI (cfiCond123) V0 load(1, XDATA, add(CFA_XSP16, literal(-8)))
        CFI (cfiCond123) V1 load(1, XDATA, add(CFA_XSP16, literal(-7)))
        CFI (cfiCond123) R7 load(1, XDATA, add(CFA_XSP16, literal(-6)))
        CFI (cfiCond123) ?RET_LOW load(1, XDATA, add(CFA_XSP16, literal(-5)))
        CFI (cfiCond123) ?RET_HIGH load(1, XDATA, add(CFA_XSP16, literal(-4)))
        CFI (cfiCond123) ?BRET_EXT load(1, XDATA, add(CFA_XSP16, literal(-3)))
        CFI (cfiCond123) DPL0 load(1, XDATA, add(CFA_XSP16, literal(-2)))
        CFI (cfiCond123) DPH0 load(1, XDATA, add(CFA_XSP16, literal(-1)))
        CFI (cfiCond123) CFA_SP SP+0
        CFI (cfiCond123) CFA_XSP16 add(XSP16, 24)
        CFI Block cfiCond124 Using cfiCommon0
        CFI (cfiCond124) NoFunction
        CFI (cfiCond124) Conditional ??CrossCallReturnLabel_65
        CFI (cfiCond124) R6 load(1, XDATA, add(CFA_XSP16, literal(-10)))
        CFI (cfiCond124) VB load(1, XDATA, add(CFA_XSP16, literal(-9)))
        CFI (cfiCond124) V0 load(1, XDATA, add(CFA_XSP16, literal(-8)))
        CFI (cfiCond124) V1 load(1, XDATA, add(CFA_XSP16, literal(-7)))
        CFI (cfiCond124) R7 load(1, XDATA, add(CFA_XSP16, literal(-6)))
        CFI (cfiCond124) ?RET_LOW load(1, XDATA, add(CFA_XSP16, literal(-5)))
        CFI (cfiCond124) ?RET_HIGH load(1, XDATA, add(CFA_XSP16, literal(-4)))
        CFI (cfiCond124) ?BRET_EXT load(1, XDATA, add(CFA_XSP16, literal(-3)))
        CFI (cfiCond124) DPL0 load(1, XDATA, add(CFA_XSP16, literal(-2)))
        CFI (cfiCond124) DPH0 load(1, XDATA, add(CFA_XSP16, literal(-1)))
        CFI (cfiCond124) CFA_SP SP+0
        CFI (cfiCond124) CFA_XSP16 add(XSP16, 24)
        CFI Block cfiCond125 Using cfiCommon0
        CFI (cfiCond125) NoFunction
        CFI (cfiCond125) Conditional ??CrossCallReturnLabel_66
        CFI (cfiCond125) R6 load(1, XDATA, add(CFA_XSP16, literal(-10)))
        CFI (cfiCond125) VB load(1, XDATA, add(CFA_XSP16, literal(-9)))
        CFI (cfiCond125) V0 load(1, XDATA, add(CFA_XSP16, literal(-8)))
        CFI (cfiCond125) V1 load(1, XDATA, add(CFA_XSP16, literal(-7)))
        CFI (cfiCond125) R7 load(1, XDATA, add(CFA_XSP16, literal(-6)))
        CFI (cfiCond125) ?RET_LOW load(1, XDATA, add(CFA_XSP16, literal(-5)))
        CFI (cfiCond125) ?RET_HIGH load(1, XDATA, add(CFA_XSP16, literal(-4)))
        CFI (cfiCond125) ?BRET_EXT load(1, XDATA, add(CFA_XSP16, literal(-3)))
        CFI (cfiCond125) DPL0 load(1, XDATA, add(CFA_XSP16, literal(-2)))
        CFI (cfiCond125) DPH0 load(1, XDATA, add(CFA_XSP16, literal(-1)))
        CFI (cfiCond125) CFA_SP SP+0
        CFI (cfiCond125) CFA_XSP16 add(XSP16, 24)
        CFI Block cfiCond126 Using cfiCommon0
        CFI (cfiCond126) NoFunction
        CFI (cfiCond126) Conditional ??CrossCallReturnLabel_67
        CFI (cfiCond126) R6 load(1, XDATA, add(CFA_XSP16, literal(-10)))
        CFI (cfiCond126) VB load(1, XDATA, add(CFA_XSP16, literal(-9)))
        CFI (cfiCond126) V0 load(1, XDATA, add(CFA_XSP16, literal(-8)))
        CFI (cfiCond126) V1 load(1, XDATA, add(CFA_XSP16, literal(-7)))
        CFI (cfiCond126) R7 load(1, XDATA, add(CFA_XSP16, literal(-6)))
        CFI (cfiCond126) ?RET_LOW load(1, XDATA, add(CFA_XSP16, literal(-5)))
        CFI (cfiCond126) ?RET_HIGH load(1, XDATA, add(CFA_XSP16, literal(-4)))
        CFI (cfiCond126) ?BRET_EXT load(1, XDATA, add(CFA_XSP16, literal(-3)))
        CFI (cfiCond126) DPL0 load(1, XDATA, add(CFA_XSP16, literal(-2)))
        CFI (cfiCond126) DPH0 load(1, XDATA, add(CFA_XSP16, literal(-1)))
        CFI (cfiCond126) CFA_SP SP+0
        CFI (cfiCond126) CFA_XSP16 add(XSP16, 24)
        CFI Block cfiCond127 Using cfiCommon0
        CFI (cfiCond127) NoFunction
        CFI (cfiCond127) Conditional ??CrossCallReturnLabel_68
        CFI (cfiCond127) R6 load(1, XDATA, add(CFA_XSP16, literal(-10)))
        CFI (cfiCond127) VB load(1, XDATA, add(CFA_XSP16, literal(-9)))
        CFI (cfiCond127) V0 load(1, XDATA, add(CFA_XSP16, literal(-8)))
        CFI (cfiCond127) V1 load(1, XDATA, add(CFA_XSP16, literal(-7)))
        CFI (cfiCond127) R7 load(1, XDATA, add(CFA_XSP16, literal(-6)))
        CFI (cfiCond127) ?RET_LOW load(1, XDATA, add(CFA_XSP16, literal(-5)))
        CFI (cfiCond127) ?RET_HIGH load(1, XDATA, add(CFA_XSP16, literal(-4)))
        CFI (cfiCond127) ?BRET_EXT load(1, XDATA, add(CFA_XSP16, literal(-3)))
        CFI (cfiCond127) DPL0 load(1, XDATA, add(CFA_XSP16, literal(-2)))
        CFI (cfiCond127) DPH0 load(1, XDATA, add(CFA_XSP16, literal(-1)))
        CFI (cfiCond127) CFA_SP SP+0
        CFI (cfiCond127) CFA_XSP16 add(XSP16, 24)
        CFI Block cfiCond128 Using cfiCommon0
        CFI (cfiCond128) NoFunction
        CFI (cfiCond128) Conditional ??CrossCallReturnLabel_69
        CFI (cfiCond128) R6 load(1, XDATA, add(CFA_XSP16, literal(-10)))
        CFI (cfiCond128) VB load(1, XDATA, add(CFA_XSP16, literal(-9)))
        CFI (cfiCond128) V0 load(1, XDATA, add(CFA_XSP16, literal(-8)))
        CFI (cfiCond128) V1 load(1, XDATA, add(CFA_XSP16, literal(-7)))
        CFI (cfiCond128) R7 load(1, XDATA, add(CFA_XSP16, literal(-6)))
        CFI (cfiCond128) ?RET_LOW load(1, XDATA, add(CFA_XSP16, literal(-5)))
        CFI (cfiCond128) ?RET_HIGH load(1, XDATA, add(CFA_XSP16, literal(-4)))
        CFI (cfiCond128) ?BRET_EXT load(1, XDATA, add(CFA_XSP16, literal(-3)))
        CFI (cfiCond128) DPL0 load(1, XDATA, add(CFA_XSP16, literal(-2)))
        CFI (cfiCond128) DPH0 load(1, XDATA, add(CFA_XSP16, literal(-1)))
        CFI (cfiCond128) CFA_SP SP+0
        CFI (cfiCond128) CFA_XSP16 add(XSP16, 24)
        CFI Block cfiCond129 Using cfiCommon0
        CFI (cfiCond129) NoFunction
        CFI (cfiCond129) Conditional ??CrossCallReturnLabel_70
        CFI (cfiCond129) R6 load(1, XDATA, add(CFA_XSP16, literal(-9)))
        CFI (cfiCond129) VB load(1, XDATA, add(CFA_XSP16, literal(-8)))
        CFI (cfiCond129) V0 load(1, XDATA, add(CFA_XSP16, literal(-7)))
        CFI (cfiCond129) R7 load(1, XDATA, add(CFA_XSP16, literal(-6)))
        CFI (cfiCond129) ?RET_LOW load(1, XDATA, add(CFA_XSP16, literal(-5)))
        CFI (cfiCond129) ?RET_HIGH load(1, XDATA, add(CFA_XSP16, literal(-4)))
        CFI (cfiCond129) ?BRET_EXT load(1, XDATA, add(CFA_XSP16, literal(-3)))
        CFI (cfiCond129) DPL0 load(1, XDATA, add(CFA_XSP16, literal(-2)))
        CFI (cfiCond129) DPH0 load(1, XDATA, add(CFA_XSP16, literal(-1)))
        CFI (cfiCond129) CFA_SP SP+0
        CFI (cfiCond129) CFA_XSP16 add(XSP16, 38)
        CFI Block cfiCond130 Using cfiCommon0
        CFI (cfiCond130) NoFunction
        CFI (cfiCond130) Conditional ??CrossCallReturnLabel_71
        CFI (cfiCond130) R6 load(1, XDATA, add(CFA_XSP16, literal(-9)))
        CFI (cfiCond130) VB load(1, XDATA, add(CFA_XSP16, literal(-8)))
        CFI (cfiCond130) V0 load(1, XDATA, add(CFA_XSP16, literal(-7)))
        CFI (cfiCond130) R7 load(1, XDATA, add(CFA_XSP16, literal(-6)))
        CFI (cfiCond130) ?RET_LOW load(1, XDATA, add(CFA_XSP16, literal(-5)))
        CFI (cfiCond130) ?RET_HIGH load(1, XDATA, add(CFA_XSP16, literal(-4)))
        CFI (cfiCond130) ?BRET_EXT load(1, XDATA, add(CFA_XSP16, literal(-3)))
        CFI (cfiCond130) DPL0 load(1, XDATA, add(CFA_XSP16, literal(-2)))
        CFI (cfiCond130) DPH0 load(1, XDATA, add(CFA_XSP16, literal(-1)))
        CFI (cfiCond130) CFA_SP SP+0
        CFI (cfiCond130) CFA_XSP16 add(XSP16, 38)
        CFI Block cfiPicker131 Using cfiCommon1
        CFI (cfiPicker131) NoFunction
        CFI (cfiPicker131) Picker
        MOVX    @DPTR,A
        INC     DPTR
        CLR     A
        MOVX    @DPTR,A
        RET
        CFI EndBlock cfiCond120
        CFI EndBlock cfiCond121
        CFI EndBlock cfiCond122
        CFI EndBlock cfiCond123
        CFI EndBlock cfiCond124
        CFI EndBlock cfiCond125
        CFI EndBlock cfiCond126
        CFI EndBlock cfiCond127
        CFI EndBlock cfiCond128
        CFI EndBlock cfiCond129
        CFI EndBlock cfiCond130
        CFI EndBlock cfiPicker131

        RSEG XDATA_I:XDATA:NOROOT(0)
??humit:
        DATA16
        DS 2
        REQUIRE `?<Initializer for humit>`
        REQUIRE __INIT_XDATA_I

        RSEG XDATA_I:XDATA:NOROOT(0)
??temper:
        DATA16
        DS 2
        REQUIRE `?<Initializer for temper>`
        REQUIRE __INIT_XDATA_I

        RSEG XDATA_Z:XDATA:NOROOT(0)
        DATA16
??SoundVb:
        DS 2
        REQUIRE __INIT_XDATA_Z

        RSEG XDATA_Z:XDATA:NOROOT(0)
        DATA8
??percent:
        DS 1
        REQUIRE __INIT_XDATA_Z

        RSEG XDATA_Z:XDATA:NOROOT(0)
        DATA16
??Light:
        DS 2
        REQUIRE __INIT_XDATA_Z

        RSEG XDATA_Z:XDATA:NOROOT(0)
        DATA8
??lightmp:
        DS 1
        REQUIRE __INIT_XDATA_Z

        RSEG XDATA_Z:XDATA:NOROOT(0)
        DATA16
??integer:
        DS 2
        REQUIRE __INIT_XDATA_Z

        RSEG XDATA_Z:XDATA:NOROOT(0)
        DATA16
??decimals:
        DS 2
        REQUIRE __INIT_XDATA_Z

        RSEG XDATA_Z:XDATA:NOROOT(0)
        DATA8
??percent_1:
        DS 1
        REQUIRE __INIT_XDATA_Z

        RSEG XDATA_Z:XDATA:NOROOT(0)
        DATA8
??kind:
        DS 1
        REQUIRE __INIT_XDATA_Z

        RSEG XDATA_Z:XDATA:NOROOT(0)
        DATA8
??tmp1:
        DS 1
        REQUIRE __INIT_XDATA_Z

        RSEG XDATA_Z:XDATA:NOROOT(0)
        DATA8
??tmp2:
        DS 1
        REQUIRE __INIT_XDATA_Z

        RSEG XDATA_Z:XDATA:NOROOT(0)
        DATA8
??tmp3:
        DS 1
        REQUIRE __INIT_XDATA_Z

        RSEG XDATA_Z:XDATA:NOROOT(0)
        DATA8
??tmp4:
        DS 1
        REQUIRE __INIT_XDATA_Z

        RSEG XDATA_Z:XDATA:NOROOT(0)
        DATA16
??Data1:
        DS 2
        REQUIRE __INIT_XDATA_Z

        RSEG XDATA_Z:XDATA:NOROOT(0)
        DATA16
??Data2:
        DS 2
        REQUIRE __INIT_XDATA_Z

        RSEG XDATA_Z:XDATA:NOROOT(0)
        DATA8
??percent_2:
        DS 1
        REQUIRE __INIT_XDATA_Z

        RSEG XDATA_Z:XDATA:NOROOT(0)
        DATA16
??GasF:
        DS 2
        REQUIRE __INIT_XDATA_Z

        RSEG XDATA_Z:XDATA:NOROOT(0)
        DATA16
??Infrared:
        DS 2
        REQUIRE __INIT_XDATA_Z

        RSEG XDATA_Z:XDATA:NOROOT(0)
        DATA8
??percent_3:
        DS 1
        REQUIRE __INIT_XDATA_Z

        RSEG XDATA_ID:CODE:NOROOT(0)
`?<Initializer for humit>`:
        DATA16
        DW 20

        RSEG XDATA_ID:CODE:NOROOT(0)
`?<Initializer for temper>`:
        DATA16
        DW 20

        RSEG BANK_RELAYS:CODE:REORDER:NOROOT(0)
??Smart_home_Init?relay:
        LCALL   ?BDISPATCH
        DATA
        DC24    Smart_home_Init

        RSEG BANK_RELAYS:CODE:REORDER:NOROOT(0)
??Smart_home_ProcessEvent?relay:
        LCALL   ?BDISPATCH
        DATA
        DC24    Smart_home_ProcessEvent

        RSEG BANK_RELAYS:CODE:REORDER:NOROOT(0)
??Smart_home_Motor_cmd?relay:
        LCALL   ?BDISPATCH
        DATA
        DC24    Smart_home_Motor_cmd

        RSEG BANK_RELAYS:CODE:REORDER:NOROOT(0)
??Smart_home_HandleKeys?relay:
        LCALL   ?BDISPATCH
        DATA
        DC24    Smart_home_HandleKeys

        RSEG BANK_RELAYS:CODE:REORDER:NOROOT(0)
??Smart_home_ProcessMSGCmd?relay:
        LCALL   ?BDISPATCH
        DATA
        DC24    Smart_home_ProcessMSGCmd

        RSEG BANK_RELAYS:CODE:REORDER:NOROOT(0)
??Smart_home_Relay_Ctl?relay:
        LCALL   ?BDISPATCH
        DATA
        DC24    Smart_home_Relay_Ctl

        RSEG BANK_RELAYS:CODE:REORDER:NOROOT(0)
??Smart_home_Display?relay:
        LCALL   ?BDISPATCH
        DATA
        DC24    Smart_home_Display

        RSEG XDATA_ROM_C:CONST:REORDER:NOROOT(0)
        DATA8
`?<Constant "Smart_home">`:
        DB "Smart_home"

        RSEG XDATA_ROM_C:CONST:REORDER:NOROOT(0)
        DATA8
`?<Constant "Motor max Speed">`:
        DB "Motor max Speed"

        RSEG XDATA_ROM_C:CONST:REORDER:NOROOT(0)
        DATA8
`?<Constant "Motor min Speed">`:
        DB "Motor min Speed"

        RSEG XDATA_ROM_C:CONST:REORDER:NOROOT(0)
        DATA8
`?<Constant "Allow networking">`:
        DB "Allow networking"

        RSEG XDATA_ROM_C:CONST:REORDER:NOROOT(0)
        DATA8
`?<Constant "Ban   networking">`:
        DB "Ban   networking"

        RSEG XDATA_ROM_C:CONST:REORDER:NOROOT(0)
        DATA8
`?<Constant "      Menu      ">`:
        DB "      Menu      "

        RSEG XDATA_ROM_C:CONST:REORDER:NOROOT(0)
        DATA16
`?<Constant " ">`:
        DB " "

        RSEG XDATA_ROM_C:CONST:REORDER:NOROOT(0)
        DATA8
`?<Constant "Hum:">`:
        DB "Hum:"

        RSEG XDATA_ROM_C:CONST:REORDER:NOROOT(0)
        DATA8
`?<Constant "% T_1:">`:
        DB "% T_1:"

        RSEG XDATA_ROM_C:CONST:REORDER:NOROOT(0)
        DATA8
`?<Constant "Sound: Voice">`:
        DB "Sound: Voice"

        RSEG XDATA_ROM_C:CONST:REORDER:NOROOT(0)
        DATA8
        DB "Sound: Vibration"

        RSEG XDATA_ROM_C:CONST:REORDER:NOROOT(0)
        DATA8
        DB "Sound: All"

        RSEG XDATA_ROM_C:CONST:REORDER:NOROOT(0)
        DATA8
`?<Constant "Sound: None">`:
        DB "Sound: None"

        RSEG XDATA_ROM_C:CONST:REORDER:NOROOT(0)
        DATA8
`?<Constant "">`:
        DB ""

        RSEG XDATA_ROM_C:CONST:REORDER:NOROOT(0)
        DATA8
`?<Constant "Temper_2:">`:
        DB "Temper_2:"

        RSEG XDATA_ROM_C:CONST:REORDER:NOROOT(0)
        DATA16
`?<Constant ".">`:
        DB "."

        RSEG XDATA_ROM_C:CONST:REORDER:NOROOT(0)
        DATA8
`?<Constant "Light:">`:
        DB "Light:"

        RSEG XDATA_ROM_C:CONST:REORDER:NOROOT(0)
        DATA8
`?<Constant "MFOne-S50">`:
        DB "MFOne-S50"

        RSEG XDATA_ROM_C:CONST:REORDER:NOROOT(0)
        DATA8
`?<Constant "MFOne-S70">`:
        DB "MFOne-S70"

        RSEG XDATA_ROM_C:CONST:REORDER:NOROOT(0)
        DATA8
`?<Constant "MF-UltraLight">`:
        DB "MF-UltraLight"

        RSEG XDATA_ROM_C:CONST:REORDER:NOROOT(0)
        DATA8
`?<Constant "MF-Pro">`:
        DB "MF-Pro"

        RSEG XDATA_ROM_C:CONST:REORDER:NOROOT(0)
        DATA8
`?<Constant "MF-DesFire">`:
        DB "MF-DesFire"

        RSEG XDATA_ROM_C:CONST:REORDER:NOROOT(0)
        DATA8
`?<Constant "No Card">`:
        DB "No Card"

        RSEG XDATA_ROM_C:CONST:REORDER:NOROOT(0)
        DATA8
`?<Constant "ID: ">`:
        DB "ID: "

        RSEG XDATA_ROM_C:CONST:REORDER:NOROOT(0)
        DATA16
`?<Constant "-">`:
        DB "-"

        RSEG XDATA_ROM_C:CONST:REORDER:NOROOT(0)
        DATA8
`?<Constant "GasFlame: Flame">`:
        DB "GasFlame: Flame"

        RSEG XDATA_ROM_C:CONST:REORDER:NOROOT(0)
        DATA8
        DB "GasFlame: Gas"

        RSEG XDATA_ROM_C:CONST:REORDER:NOROOT(0)
        DATA8
        DB "GasFlame: All"

        RSEG XDATA_ROM_C:CONST:REORDER:NOROOT(0)
        DATA8
`?<Constant "GasFlame: None">`:
        DB "GasFlame: None"

        RSEG XDATA_ROM_C:CONST:REORDER:NOROOT(0)
        DATA8
`?<Constant "Infrared: Human">`:
        DB "Infrared: Human"

        RSEG XDATA_ROM_C:CONST:REORDER:NOROOT(0)
        DATA8
`?<Constant "Infrared: NoHuman">`:
        DB "Infrared: NoHuman"

        RSEG XDATA_ROM_C:CONST:REORDER:NOROOT(0)
        DATA8
`?<Constant "Relay Contrling">`:
        DB "Relay Contrling"

        RSEG XDATA_ROM_C:CONST:REORDER:NOROOT(0)
        DATA8
`?<Constant "Relay Offline">`:
        DB "Relay Offline"

        RSEG XDATA_ROM_C:CONST:REORDER:NOROOT(0)
        DATA8
`?<Constant "Relay Online">`:
        DB "Relay Online"

        RSEG XDATA_ROM_C:CONST:REORDER:NOROOT(0)
        DATA8
`?<Constant "K1:ON">`:
        DB "K1:ON"

        RSEG XDATA_ROM_C:CONST:REORDER:NOROOT(0)
        DATA8
`?<Constant "K1:OFF">`:
        DB "K1:OFF"

        RSEG XDATA_ROM_C:CONST:REORDER:NOROOT(0)
        DATA8
`?<Constant "K2:ON">`:
        DB "K2:ON"

        RSEG XDATA_ROM_C:CONST:REORDER:NOROOT(0)
        DATA8
`?<Constant "K2:OFF">`:
        DB "K2:OFF"

        RSEG XDATA_ROM_C:CONST:REORDER:NOROOT(0)
        DATA8
`?<Constant "Motor Contrling">`:
        DB "Motor Contrling"

        RSEG XDATA_ROM_C:CONST:REORDER:NOROOT(0)
        DATA8
`?<Constant "Motor Offline">`:
        DB "Motor Offline"

        RSEG XDATA_ROM_C:CONST:REORDER:NOROOT(0)
        DATA8
`?<Constant "Motor Online">`:
        DB "Motor Online"

        RSEG XDATA_ROM_C:CONST:REORDER:NOROOT(0)
        DATA8
`?<Constant "Status: STOP">`:
        DB "Status: STOP"

        RSEG XDATA_ROM_C:CONST:REORDER:NOROOT(0)
        DATA8
`?<Constant "Status: FORWARD">`:
        DB "Status: FORWARD"

        RSEG XDATA_ROM_C:CONST:REORDER:NOROOT(0)
        DATA8
`?<Constant "Status: BACKWARD">`:
        DB "Status: BACKWARD"

        RSEG XDATA_ROM_C:CONST:REORDER:NOROOT(0)
        DATA8
`?<Constant "Speed:">`:
        DB "Speed:"

        END
// 1199 
// 1200 
// 
// 2 629 bytes in segment BANKED_CODE
//    42 bytes in segment BANK_RELAYS
//     4 bytes in segment XDATA_I
//     4 bytes in segment XDATA_ID
//   560 bytes in segment XDATA_ROM_C
//   237 bytes in segment XDATA_Z
// 
// 2 675 bytes of CODE  memory
//   560 bytes of CONST memory
//   241 bytes of XDATA memory
//
//Errors: none
//Warnings: 6
