///////////////////////////////////////////////////////////////////////////////
//                                                                            /
// IAR C/C++ Compiler V8.10.1.10194/W32 for 8051        24/Mar/2021  19:34:19 /
// Copyright 2004-2011 IAR Systems AB.                                        /
//                                                                            /
//    Core               =  plain                                             /
//    Code model         =  banked                                            /
//    Data model         =  large                                             /
//    Calling convention =  xdata reentrant                                   /
//    Constant location  =  data_rom                                          /
//    Dptr setup         =  1,16                                              /
//    Source file        =  D:\毕设\CC2530-smart_home\Projects\zstack\Utiliti /
//                          es\Smart_home\Source\Smart_home.c                 /
//    Command line       =  -f D:\毕设\CC2530-smart_home\Projects\zstack\Util /
//                          ities\Smart_home\CC2530DB\..\..\..\Tools\CC2530DB /
//                          \f8wCoord.cfg (-DCPU32MHZ -DROOT=__near_func      /
//                          -DMAC_CFG_APP_PENDING_QUEUE=TRUE                  /
//                          -DMAC_CFG_TX_DATA_MAX=5 -DMAC_CFG_TX_MAX=8        /
//                          -DMAC_CFG_RX_MAX=5 -DZDO_COORDINATOR -DRTR_NWK)   /
//                          -f D:\毕设\CC2530-smart_home\Projects\zstack\Util /
//                          ities\Smart_home\CC2530DB\..\..\..\Tools\CC2530DB /
//                          \f8wConfig.cfg (-DZIGBEEPRO -DSECURE=0            /
//                          -DZG_SECURE_DYNAMIC=0 -DREFLECTOR                 /
//                          -DDEFAULT_CHANLIST=0x02000000                     /
//                          -DZDAPP_CONFIG_PAN_ID=0x1001                      /
//                          -DNWK_START_DELAY=100 -DEXTENDED_JOINING_RANDOM_M /
//                          ASK=0x007F -DBEACON_REQUEST_DELAY=100             /
//                          -DBEACON_REQ_DELAY_MASK=0x00FF                    /
//                          -DLINK_STATUS_JITTER_MASK=0x007F                  /
//                          -DROUTE_EXPIRY_TIME=30 -DAPSC_ACK_WAIT_DURATION_P /
//                          OLLED=3000 -DNWK_INDIRECT_MSG_TIMEOUT=7           /
//                          -DMAX_RREQ_ENTRIES=8 -DAPSC_MAX_FRAME_RETRIES=3   /
//                          -DNWK_MAX_DATA_RETRIES=2                          /
//                          -DMAX_POLL_FAILURE_RETRIES=2 -DMAX_BCAST=9        /
//                          -DAPS_MAX_GROUPS=16 -DMAX_RTG_ENTRIES=40          /
//                          -DNWK_MAX_BINDING_ENTRIES=4                       /
//                          -DMAX_BINDING_CLUSTER_IDS=4                       /
//                          "-DDEFAULT_KEY={0x01, 0x03, 0x05, 0x07, 0x09,     /
//                          0x0B, 0x0D, 0x0F, 0x00, 0x02, 0x04, 0x06, 0x08,   /
//                          0x0A, 0x0C, 0x0D}" -DMAC_MAX_FRAME_SIZE=116       /
//                          -DZDNWKMGR_MIN_TRANSMISSIONS=20 "-DCONST=const    /
//                          __code" -DGENERIC=__generic                       /
//                          -DRFD_RCVC_ALWAYS_ON=FALSE -DPOLL_RATE=1000       /
//                          -DQUEUED_POLL_RATE=100 -DRESPONSE_POLL_RATE=100)  /
//                          -DREJOIN_POLL_RATE=440 D:\毕设\CC2530-smart_home\ /
//                          Projects\zstack\Utilities\Smart_home\Source\Smart /
//                          _home.c -D LCD_SUPPORTED -D ZDO_COORDINATOR -D    /
//                          xNV_RESTORE -D xNV_INIT -D xREFLECTOR -D          /
//                          xHAL_UART=TRUE -D xHAL_UART_TEST -lC              /
//                          D:\毕设\CC2530-smart_home\Projects\zstack\Utiliti /
//                          es\Smart_home\CC2530DB\CoordinatorMB\List\ -lA    /
//                          D:\毕设\CC2530-smart_home\Projects\zstack\Utiliti /
//                          es\Smart_home\CC2530DB\CoordinatorMB\List\        /
//                          --diag_suppress Pe001,Pa010 -o                    /
//                          D:\毕设\CC2530-smart_home\Projects\zstack\Utiliti /
//                          es\Smart_home\CC2530DB\CoordinatorMB\Obj\ -e      /
//                          --no_code_motion --debug --core=plain             /
//                          --dptr=16,1 --data_model=large                    /
//                          --code_model=banked --calling_convention=xdata_re /
//                          entrant --place_constants=data_rom                /
//                          --nr_virtual_regs 16 -I                           /
//                          D:\毕设\CC2530-smart_home\Projects\zstack\Utiliti /
//                          es\Smart_home\CC2530DB\ -I                        /
//                          D:\毕设\CC2530-smart_home\Projects\zstack\Utiliti /
//                          es\Smart_home\CC2530DB\..\Source\ -I              /
//                          D:\毕设\CC2530-smart_home\Projects\zstack\Utiliti /
//                          es\Smart_home\CC2530DB\..\..\..\ZMain\TI2530DB\   /
//                          -I D:\毕设\CC2530-smart_home\Projects\zstack\Util /
//                          ities\Smart_home\CC2530DB\..\..\..\..\..\Componen /
//                          ts\hal\include\ -I D:\毕设\CC2530-smart_home\Proj /
//                          ects\zstack\Utilities\Smart_home\CC2530DB\..\..\. /
//                          .\..\..\Components\hal\target\CC2530MB\ -I        /
//                          D:\毕设\CC2530-smart_home\Projects\zstack\Utiliti /
//                          es\Smart_home\CC2530DB\..\..\..\..\..\Components\ /
//                          mac\include\ -I D:\毕设\CC2530-smart_home\Project /
//                          s\zstack\Utilities\Smart_home\CC2530DB\..\..\..\. /
//                          .\..\Components\mac\high_level\ -I                /
//                          D:\毕设\CC2530-smart_home\Projects\zstack\Utiliti /
//                          es\Smart_home\CC2530DB\..\..\..\..\..\Components\ /
//                          mac\low_level\srf04\ -I                           /
//                          D:\毕设\CC2530-smart_home\Projects\zstack\Utiliti /
//                          es\Smart_home\CC2530DB\..\..\..\..\..\Components\ /
//                          mac\low_level\srf04\single_chip\ -I               /
//                          D:\毕设\CC2530-smart_home\Projects\zstack\Utiliti /
//                          es\Smart_home\CC2530DB\..\..\..\..\..\Components\ /
//                          mt\ -I D:\毕设\CC2530-smart_home\Projects\zstack\ /
//                          Utilities\Smart_home\CC2530DB\..\..\..\..\..\Comp /
//                          onents\osal\include\ -I                           /
//                          D:\毕设\CC2530-smart_home\Projects\zstack\Utiliti /
//                          es\Smart_home\CC2530DB\..\..\..\..\..\Components\ /
//                          services\saddr\ -I D:\毕设\CC2530-smart_home\Proj /
//                          ects\zstack\Utilities\Smart_home\CC2530DB\..\..\. /
//                          .\..\..\Components\services\sdata\ -I             /
//                          D:\毕设\CC2530-smart_home\Projects\zstack\Utiliti /
//                          es\Smart_home\CC2530DB\..\..\..\..\..\Components\ /
//                          stack\af\ -I D:\毕设\CC2530-smart_home\Projects\z /
//                          stack\Utilities\Smart_home\CC2530DB\..\..\..\..\. /
//                          .\Components\stack\nwk\ -I                        /
//                          D:\毕设\CC2530-smart_home\Projects\zstack\Utiliti /
//                          es\Smart_home\CC2530DB\..\..\..\..\..\Components\ /
//                          stack\sapi\ -I D:\毕设\CC2530-smart_home\Projects /
//                          \zstack\Utilities\Smart_home\CC2530DB\..\..\..\.. /
//                          \..\Components\stack\sec\ -I                      /
//                          D:\毕设\CC2530-smart_home\Projects\zstack\Utiliti /
//                          es\Smart_home\CC2530DB\..\..\..\..\..\Components\ /
//                          stack\sys\ -I D:\毕设\CC2530-smart_home\Projects\ /
//                          zstack\Utilities\Smart_home\CC2530DB\..\..\..\..\ /
//                          ..\Components\stack\zdo\ -I                       /
//                          D:\毕设\CC2530-smart_home\Projects\zstack\Utiliti /
//                          es\Smart_home\CC2530DB\..\..\..\..\..\Components\ /
//                          zmac\ -I D:\毕设\CC2530-smart_home\Projects\zstac /
//                          k\Utilities\Smart_home\CC2530DB\..\..\..\..\..\Co /
//                          mponents\zmac\f8w\ -Ohz                           /
//    List file          =  D:\毕设\CC2530-smart_home\Projects\zstack\Utiliti /
//                          es\Smart_home\CC2530DB\CoordinatorMB\List\Smart_h /
//                          ome.s51                                           /
//                                                                            /
//                                                                            /
///////////////////////////////////////////////////////////////////////////////

        NAME Smart_home

        RTMODEL "__SystemLibrary", "CLib"
        RTMODEL "__calling_convention", "xdata_reentrant"
        RTMODEL "__code_model", "banked"
        RTMODEL "__core", "plain"
        RTMODEL "__data_model", "large"
        RTMODEL "__dptr_size", "16"
        RTMODEL "__extended_stack", "disabled"
        RTMODEL "__location_for_constants", "data"
        RTMODEL "__number_of_dptrs", "1"
        RTMODEL "__rt_version", "1"

        RSEG DOVERLAY:DATA:NOROOT(0)
        RSEG IOVERLAY:IDATA:NOROOT(0)
        RSEG ISTACK:IDATA:NOROOT(0)
        RSEG PSTACK:XDATA:NOROOT(0)
        RSEG XSTACK:XDATA:NOROOT(0)

        EXTERN ?ALLOC_XSTACK8
        EXTERN ?BANKED_ENTER_XDATA
        EXTERN ?BANKED_LEAVE_XDATA
        EXTERN ?BDISPATCH
        EXTERN ?DEALLOC_XSTACK8
        EXTERN ?PUSH_XSTACK_I_ONE
        EXTERN ?PUSH_XSTACK_I_TWO
        EXTERN ?US_SWITCH_DENSE
        EXTERN ?US_SWITCH_SPARSE
        EXTERN ?V0
        EXTERN ?XSP
        EXTERN ?XSTACK_DISP0_8
        EXTERN __INIT_XDATA_Z

        FUNCTION ??Smart_home_Display?relay,0203H
        FUNCTION ??Smart_home_HandleKeys?relay,0203H
        PUBLIC ??Smart_home_Init?relay
        FUNCTION ??Smart_home_Init?relay,0203H
        PUBLIC ??Smart_home_ProcessEvent?relay
        FUNCTION ??Smart_home_ProcessEvent?relay,0203H
        FUNCTION ??Smart_home_ProcessMSGCmd?relay,0203H
        FUNCTION ??Smart_home_Relay_Ctl?relay,0203H
        PUBLIC Coordinator_Msg
        PUBLIC DeviceList
        PUBLIC Smart_home_ClusterList_IN
        PUBLIC Smart_home_ClusterList_OUT
        FUNCTION Smart_home_Display,021203H
        ARGFRAME XSTACK, 14, STACK
        ARGFRAME IOVERLAY, 0, STATIC
        ARGFRAME DOVERLAY, 0, STATIC
        LOCFRAME XSTACK, 9, STACK
        FUNCTION Smart_home_HandleKeys,021203H
        ARGFRAME XSTACK, 14, STACK
        ARGFRAME IOVERLAY, 0, STATIC
        ARGFRAME DOVERLAY, 0, STATIC
        LOCFRAME XSTACK, 9, STACK
        PUBLIC Smart_home_Init
        FUNCTION Smart_home_Init,021203H
        ARGFRAME XSTACK, 0, STACK
        LOCFRAME ISTACK, 1, STACK
        LOCFRAME XSTACK, 38, STACK
        PUBLIC Smart_home_ProcessEvent
        FUNCTION Smart_home_ProcessEvent,0a1203H
        ARGFRAME XSTACK, 0, STACK
        LOCFRAME ISTACK, 1, STACK
        LOCFRAME XSTACK, 14, STACK
        FUNCTION Smart_home_ProcessMSGCmd,080203H
        ARGFRAME XSTACK, 14, STACK
        ARGFRAME IOVERLAY, 0, STATIC
        ARGFRAME DOVERLAY, 0, STATIC
        LOCFRAME XSTACK, 10, STACK
        FUNCTION Smart_home_Relay_Ctl,021203H
        ARGFRAME XSTACK, 9, STACK
        ARGFRAME IOVERLAY, 0, STATIC
        ARGFRAME DOVERLAY, 0, STATIC
        LOCFRAME XSTACK, 19, STACK
        PUBLIC Smart_home_SimpleDesc
        PUBLIC Smart_home_TaskID
        PUBLIC Smart_home_epDesc
        
        CFI Names cfiNames0
        CFI StackFrame CFA_SP SP IDATA
        CFI StackFrame CFA_PSP16 PSP16 XDATA
        CFI StackFrame CFA_XSP16 XSP16 XDATA
        CFI StaticOverlayFrame CFA_IOVERLAY IOVERLAY
        CFI StaticOverlayFrame CFA_DOVERLAY DOVERLAY
        CFI Resource `PSW.CY`:1, `B.BR0`:1, `B.BR1`:1, `B.BR2`:1, `B.BR3`:1
        CFI Resource `B.BR4`:1, `B.BR5`:1, `B.BR6`:1, `B.BR7`:1, `VB.BR8`:1
        CFI Resource `VB.BR9`:1, `VB.BR10`:1, `VB.BR11`:1, `VB.BR12`:1
        CFI Resource `VB.BR13`:1, `VB.BR14`:1, `VB.BR15`:1, VB:8, B:8, A:8
        CFI Resource PSW:8, DPL0:8, DPH0:8, R0:8, R1:8, R2:8, R3:8, R4:8, R5:8
        CFI Resource R6:8, R7:8, V0:8, V1:8, V2:8, V3:8, V4:8, V5:8, V6:8, V7:8
        CFI Resource V8:8, V9:8, V10:8, V11:8, V12:8, V13:8, V14:8, V15:8, SP:8
        CFI Resource PSPH:8, PSPL:8, PSP16:16, XSPH:8, XSPL:8, XSP16:16
        CFI VirtualResource ?RET:24
        CFI Resource ?BRET_EXT:8
        CFI VirtualResource ?RET_HIGH:8, ?RET_LOW:8
        CFI ResourceParts PSP16 PSPH, PSPL
        CFI ResourceParts XSP16 XSPH, XSPL
        CFI ResourceParts ?RET ?BRET_EXT, ?RET_HIGH, ?RET_LOW
        CFI EndNames cfiNames0
        
        CFI Common cfiCommon0 Using cfiNames0
        CFI CodeAlign 1
        CFI DataAlign -1
        CFI ReturnAddress ?RET CODE
        CFI CFA_DOVERLAY Used
        CFI CFA_IOVERLAY Used
        CFI CFA_SP SP+-3
        CFI CFA_PSP16 PSP16+0
        CFI CFA_XSP16 XSP16+0
        CFI `PSW.CY` SameValue
        CFI `B.BR0` SameValue
        CFI `B.BR1` SameValue
        CFI `B.BR2` SameValue
        CFI `B.BR3` SameValue
        CFI `B.BR4` SameValue
        CFI `B.BR5` SameValue
        CFI `B.BR6` SameValue
        CFI `B.BR7` SameValue
        CFI `VB.BR8` SameValue
        CFI `VB.BR9` SameValue
        CFI `VB.BR10` SameValue
        CFI `VB.BR11` SameValue
        CFI `VB.BR12` SameValue
        CFI `VB.BR13` SameValue
        CFI `VB.BR14` SameValue
        CFI `VB.BR15` SameValue
        CFI VB SameValue
        CFI B Undefined
        CFI A Undefined
        CFI PSW SameValue
        CFI DPL0 SameValue
        CFI DPH0 SameValue
        CFI R0 Undefined
        CFI R1 Undefined
        CFI R2 Undefined
        CFI R3 Undefined
        CFI R4 Undefined
        CFI R5 Undefined
        CFI R6 SameValue
        CFI R7 SameValue
        CFI V0 SameValue
        CFI V1 SameValue
        CFI V2 SameValue
        CFI V3 SameValue
        CFI V4 SameValue
        CFI V5 SameValue
        CFI V6 SameValue
        CFI V7 SameValue
        CFI V8 SameValue
        CFI V9 SameValue
        CFI V10 SameValue
        CFI V11 SameValue
        CFI V12 SameValue
        CFI V13 SameValue
        CFI V14 SameValue
        CFI V15 SameValue
        CFI PSPH Undefined
        CFI PSPL Undefined
        CFI XSPH Undefined
        CFI XSPL Undefined
        CFI ?RET Concat
        CFI ?BRET_EXT Frame(CFA_SP, 3)
        CFI ?RET_HIGH Frame(CFA_SP, 2)
        CFI ?RET_LOW Frame(CFA_SP, 1)
        CFI EndCommon cfiCommon0
        
        
        CFI Common cfiCommon1 Using cfiNames0
        CFI CodeAlign 1
        CFI DataAlign -1
        CFI ReturnAddress ?RET CODE
        CFI CFA_DOVERLAY Used
        CFI CFA_IOVERLAY Used
        CFI CFA_SP SP+-2
        CFI CFA_PSP16 PSP16+0
        CFI CFA_XSP16 XSP16+0
        CFI `PSW.CY` SameValue
        CFI `B.BR0` SameValue
        CFI `B.BR1` SameValue
        CFI `B.BR2` SameValue
        CFI `B.BR3` SameValue
        CFI `B.BR4` SameValue
        CFI `B.BR5` SameValue
        CFI `B.BR6` SameValue
        CFI `B.BR7` SameValue
        CFI `VB.BR8` SameValue
        CFI `VB.BR9` SameValue
        CFI `VB.BR10` SameValue
        CFI `VB.BR11` SameValue
        CFI `VB.BR12` SameValue
        CFI `VB.BR13` SameValue
        CFI `VB.BR14` SameValue
        CFI `VB.BR15` SameValue
        CFI VB SameValue
        CFI B SameValue
        CFI A SameValue
        CFI PSW SameValue
        CFI DPL0 SameValue
        CFI DPH0 SameValue
        CFI R0 SameValue
        CFI R1 SameValue
        CFI R2 SameValue
        CFI R3 SameValue
        CFI R4 SameValue
        CFI R5 SameValue
        CFI R6 SameValue
        CFI R7 SameValue
        CFI V0 SameValue
        CFI V1 SameValue
        CFI V2 SameValue
        CFI V3 SameValue
        CFI V4 SameValue
        CFI V5 SameValue
        CFI V6 SameValue
        CFI V7 SameValue
        CFI V8 SameValue
        CFI V9 SameValue
        CFI V10 SameValue
        CFI V11 SameValue
        CFI V12 SameValue
        CFI V13 SameValue
        CFI V14 SameValue
        CFI V15 SameValue
        CFI PSPH Undefined
        CFI PSPL Undefined
        CFI XSPH Undefined
        CFI XSPL Undefined
        CFI ?RET Concat
        CFI ?BRET_EXT SameValue
        CFI ?RET_HIGH Frame(CFA_SP, 2)
        CFI ?RET_LOW Frame(CFA_SP, 1)
        CFI EndCommon cfiCommon1
        
afRegister          SYMBOL "afRegister"
RegisterForKeys     SYMBOL "RegisterForKeys"
HalUARTOpen         SYMBOL "HalUARTOpen"
HalLcdWriteString   SYMBOL "HalLcdWriteString"
ZDO_RegisterForZDOMsg SYMBOL "ZDO_RegisterForZDOMsg"
osal_start_timerEx  SYMBOL "osal_start_timerEx"
NLME_PermitJoiningRequest SYMBOL "NLME_PermitJoiningRequest"
HalLedSet           SYMBOL "HalLedSet"
osal_msg_deallocate SYMBOL "osal_msg_deallocate"
osal_msg_receive    SYMBOL "osal_msg_receive"
ZDO_ParseEPListRsp  SYMBOL "ZDO_ParseEPListRsp"
osal_mem_free       SYMBOL "osal_mem_free"
AF_DataRequest      SYMBOL "AF_DataRequest"
??AF_DataRequest?relay SYMBOL "?relay", AF_DataRequest
??HalLcdWriteString?relay SYMBOL "?relay", HalLcdWriteString
??HalLedSet?relay   SYMBOL "?relay", HalLedSet
??HalUARTOpen?relay SYMBOL "?relay", HalUARTOpen
??NLME_PermitJoiningRequest?relay SYMBOL "?relay", NLME_PermitJoiningRequest
??RegisterForKeys?relay SYMBOL "?relay", RegisterForKeys
??ZDO_ParseEPListRsp?relay SYMBOL "?relay", ZDO_ParseEPListRsp
??ZDO_RegisterForZDOMsg?relay SYMBOL "?relay", ZDO_RegisterForZDOMsg
??afRegister?relay  SYMBOL "?relay", afRegister
??osal_mem_free?relay SYMBOL "?relay", osal_mem_free
??osal_msg_deallocate?relay SYMBOL "?relay", osal_msg_deallocate
??osal_msg_receive?relay SYMBOL "?relay", osal_msg_receive
??osal_start_timerEx?relay SYMBOL "?relay", osal_start_timerEx
Smart_home_Init     SYMBOL "Smart_home_Init"
??Smart_home_Init?relay SYMBOL "?relay", Smart_home_Init
Smart_home_ProcessEvent SYMBOL "Smart_home_ProcessEvent"
??Smart_home_ProcessEvent?relay SYMBOL "?relay", Smart_home_ProcessEvent

        EXTERN afRegister
        FUNCTION afRegister,0202H
        ARGFRAME ISTACK, 0, STACK
        ARGFRAME PSTACK, 0, STACK
        ARGFRAME XSTACK, 38, STACK
        ARGFRAME IOVERLAY, 0, STATIC
        ARGFRAME DOVERLAY, 0, STATIC
        EXTERN RegisterForKeys
        FUNCTION RegisterForKeys,0202H
        ARGFRAME ISTACK, 0, STACK
        ARGFRAME PSTACK, 0, STACK
        ARGFRAME XSTACK, 38, STACK
        ARGFRAME IOVERLAY, 0, STATIC
        ARGFRAME DOVERLAY, 0, STATIC
        EXTERN HalUARTOpen
        FUNCTION HalUARTOpen,0202H
        ARGFRAME ISTACK, 0, STACK
        ARGFRAME PSTACK, 0, STACK
        ARGFRAME XSTACK, 38, STACK
        ARGFRAME IOVERLAY, 0, STATIC
        ARGFRAME DOVERLAY, 0, STATIC
        EXTERN HalLcdWriteString
        FUNCTION HalLcdWriteString,0202H
        ARGFRAME ISTACK, 0, STACK
        ARGFRAME PSTACK, 0, STACK
        ARGFRAME XSTACK, 38, STACK
        ARGFRAME IOVERLAY, 0, STATIC
        ARGFRAME DOVERLAY, 0, STATIC
        EXTERN ZDO_RegisterForZDOMsg
        FUNCTION ZDO_RegisterForZDOMsg,0202H
        ARGFRAME ISTACK, 0, STACK
        ARGFRAME PSTACK, 0, STACK
        ARGFRAME XSTACK, 38, STACK
        ARGFRAME IOVERLAY, 0, STATIC
        ARGFRAME DOVERLAY, 0, STATIC
        EXTERN osal_start_timerEx
        FUNCTION osal_start_timerEx,0202H
        ARGFRAME ISTACK, 0, STACK
        ARGFRAME PSTACK, 0, STACK
        ARGFRAME XSTACK, 38, STACK
        ARGFRAME IOVERLAY, 0, STATIC
        ARGFRAME DOVERLAY, 0, STATIC
        EXTERN NLME_PermitJoiningRequest
        FUNCTION NLME_PermitJoiningRequest,0202H
        ARGFRAME ISTACK, 0, STACK
        ARGFRAME PSTACK, 0, STACK
        ARGFRAME XSTACK, 38, STACK
        ARGFRAME IOVERLAY, 0, STATIC
        ARGFRAME DOVERLAY, 0, STATIC
        EXTERN HalLedSet
        FUNCTION HalLedSet,0202H
        ARGFRAME ISTACK, 0, STACK
        ARGFRAME PSTACK, 0, STACK
        ARGFRAME XSTACK, 38, STACK
        ARGFRAME IOVERLAY, 0, STATIC
        ARGFRAME DOVERLAY, 0, STATIC
        EXTERN osal_msg_deallocate
        FUNCTION osal_msg_deallocate,0202H
        ARGFRAME ISTACK, 0, STACK
        ARGFRAME PSTACK, 0, STACK
        ARGFRAME XSTACK, 14, STACK
        ARGFRAME IOVERLAY, 0, STATIC
        ARGFRAME DOVERLAY, 0, STATIC
        EXTERN osal_msg_receive
        FUNCTION osal_msg_receive,0202H
        ARGFRAME ISTACK, 0, STACK
        ARGFRAME PSTACK, 0, STACK
        ARGFRAME XSTACK, 14, STACK
        ARGFRAME IOVERLAY, 0, STATIC
        ARGFRAME DOVERLAY, 0, STATIC
        EXTERN ZDO_ParseEPListRsp
        FUNCTION ZDO_ParseEPListRsp,0202H
        ARGFRAME ISTACK, 0, STACK
        ARGFRAME PSTACK, 0, STACK
        ARGFRAME XSTACK, 14, STACK
        ARGFRAME IOVERLAY, 0, STATIC
        ARGFRAME DOVERLAY, 0, STATIC
        EXTERN osal_mem_free
        FUNCTION osal_mem_free,0202H
        ARGFRAME ISTACK, 0, STACK
        ARGFRAME PSTACK, 0, STACK
        ARGFRAME XSTACK, 14, STACK
        ARGFRAME IOVERLAY, 0, STATIC
        ARGFRAME DOVERLAY, 0, STATIC
        EXTERN AF_DataRequest
        FUNCTION AF_DataRequest,0202H
        ARGFRAME ISTACK, 0, STACK
        ARGFRAME PSTACK, 0, STACK
        ARGFRAME XSTACK, 19, STACK
        ARGFRAME IOVERLAY, 0, STATIC
        ARGFRAME DOVERLAY, 0, STATIC
        EXTERN ??AF_DataRequest?relay
        FUNCTION ??AF_DataRequest?relay,00H
        EXTERN ??HalLcdWriteString?relay
        FUNCTION ??HalLcdWriteString?relay,00H
        EXTERN ??HalLedSet?relay
        FUNCTION ??HalLedSet?relay,00H
        EXTERN ??HalUARTOpen?relay
        FUNCTION ??HalUARTOpen?relay,00H
        EXTERN ??NLME_PermitJoiningRequest?relay
        FUNCTION ??NLME_PermitJoiningRequest?relay,00H
        EXTERN ??RegisterForKeys?relay
        FUNCTION ??RegisterForKeys?relay,00H
        EXTERN ??ZDO_ParseEPListRsp?relay
        FUNCTION ??ZDO_ParseEPListRsp?relay,00H
        EXTERN ??ZDO_RegisterForZDOMsg?relay
        FUNCTION ??ZDO_RegisterForZDOMsg?relay,00H
        EXTERN ??afRegister?relay
        FUNCTION ??afRegister?relay,00H
        EXTERN ??osal_mem_free?relay
        FUNCTION ??osal_mem_free?relay,00H
        EXTERN ??osal_msg_deallocate?relay
        FUNCTION ??osal_msg_deallocate?relay,00H
        EXTERN ??osal_msg_receive?relay
        FUNCTION ??osal_msg_receive?relay,00H
        EXTERN ??osal_start_timerEx?relay
        FUNCTION ??osal_start_timerEx?relay,00H

// D:\毕设\CC2530-smart_home\Projects\zstack\Utilities\Smart_home\Source\Smart_home.c
//    1 /**************************************************************************************************
//    2   文件名：Smart_home.c
//    3   作 者： 柳成林
//    4   功 能： 作为网关节点，实现传感器信息的采集，并可以通过其控制一些节点
//    5           终端设备主要分为8个，分别为
//    6      1、温度与光照度传感器；2、烟雾与火焰传感器；3、继电器；4、温湿度传感器；
//    7      5、声音与震动传感器；  6、人体红外检测传感器；7、电机；8、RFID检测器。
//    8   更新日志(2021)
//    9   3.13
//   10   + 新增 8种传感器的Project并设置好编译情况
//   11   + 修改 Smart_home_ProcessEvent() （增加各种处理器的事件）
//   12          Smart_home_Init()         （初始化内容修改，添加设备默认离线）
//   13   3.14
//   14   + 修改 Smart_home_ProcessMSGCmd()（添加终端节点类型判断，具体处理留空）
//   15   + 新增 Hal层各种传感器驱动(头文件)
//   16          ClusterList (添加8个终端，分开出与入)
//   17   3.17
//   18   + 修改 Smart_home_ProcessMSGCmd() （完成接收后对于各终端处理）
//   19   + 添加 Smart_home_HandleKeys()     (修改原来函数增添概念，未补全)
//   20   + 删除 static void Smart_home_Send(void);
//   21          static void Smart_home_Resp(void);
//   22          两个函数
//   23   3.19
//   24   + 检查 出现的warning并做标识
//   25   + 修改 Smart_home_HandleKeys() （补全设计函数）
//   26   + 新增 Smart_home_Device_check() (设备是否在线检查)
//   27 
//   28   3.21
//   29   + 新增 DeviceList以方便初始化和设备在线检查（本地变量部分）
//   30          Smart_home_Display()    （屏幕显示，未补全）
//   31          Smart_home_Key_add()     (控制按键，附加项)
//   32   + 修改 Smart_home_Device_check()
//   33          Smart_home_Init()
//   34          Smart_home_ProcessMSGCmd()
//   35          调整有关DeviceList（设备列表）部分的修改
//   36          直接使用数组位置号作为设备编号
//   37          按键控制方式，用按键情况控制
//   38   3.22
//   39   + 修改 Smart_home_Display()    （屏幕显示，补全）
//   40          Smart_home_Key_add()     (屏幕显示中的电机与继电器部分加入这里)
//   41          重写别名方式减少内存损耗
//   42          出现无法初始化的问题，需要项目重构
//   43   3.23
//   44   + Warn 代码初始化后会产生直接进入key的情况,需debug
//   45          OK键问题无法修复，放弃使用OK键，修改为Cencel组网 禁止组网
//   46   3.23 正式完成网关节点部分，（显示函数部分除外）
//   47   3.24 
//   48   + 修改 Smart_home_Key_add()与display函数整合
//   49   + bug:在每十秒一次调用的周期检查函数中会导致显示屏将近一秒时间不显示
//   50     已解决： 在状态0的时候作为在线即可
//   51    
//   52   经调试程序无bug，可以接收各个传感器消息。//3.22
//   53   当我没说。。好像出了内存问题//3.22
//   54   项目重构啦！，现在又只有一个小问题了/3.23
//   55 *********************************************************************/
//   56 
//   57 /*********************************************************************
//   58  * INCLUDES
//   59  */
//   60 
//   61 #include "OSAL.h"
//   62 #include "AF.h"
//   63 #include "ZDObject.h"
//   64 #include "ZDProfile.h"
//   65 #include "nwk_util.h"
//   66 
//   67 #include "Smart_home.h"
//   68 #include "OnBoard.h"
//   69 
//   70 #include "DebugTrace.h"
//   71 #include "string.h"
//   72 
//   73 /* HAL */
//   74 #include "hal_lcd.h"
//   75 #include "hal_led.h"
//   76 #include "hal_key.h"
//   77 #include "hal_uart.h"
//   78 
//   79 /*********************************************************************
//   80  * MACROS
//   81  */
//   82 /*设备链接相关设置*/
//   83 /*判断设备是否在线的最大次数*/
//   84 #define DEVICE_HEART_BEAT    3
//   85 #define DEVICE_CHECK_DELAY   10000
//   86 
//   87 /*LCD相关设置*/
//   88 /*单屏显示时常   MS*/
//   89 #define LCD_DISPLAY_LENGTH   10000
//   90 #define LCD_DISPLAY_TIMER    1000  //多久更新一次 
//   91 
//   92 /*********************************************************************
//   93  * CONSTANTS
//   94  */
//   95 
//   96 #if !defined( SMART_HOME_PORT )
//   97 #define SMART_HOME_PORT  0
//   98 #endif
//   99 
//  100 #if !defined( SMART_HOME_BAUD )
//  101 #define SMART_HOME_BAUD  HAL_UART_BR_38400
//  102 //#define SMART_HOME_BAUD  HAL_UART_BR_115200
//  103 #endif
//  104 
//  105 // When the Rx buf space is less than this threshold, invoke the Rx callback.
//  106 #if !defined( SMART_HOME_THRESH )
//  107 #define SMART_HOME_THRESH  64
//  108 #endif
//  109 
//  110 #if !defined( SMART_HOME_RX_SZ )
//  111 #define SMART_HOME_RX_SZ  128
//  112 #endif
//  113 
//  114 #if !defined( SMART_HOME_TX_SZ )
//  115 #define SMART_HOME_TX_SZ  128
//  116 #endif
//  117 
//  118 // Millisecs of idle time after a byte is received before invoking Rx callback.
//  119 #if !defined( SMART_HOME_IDLE )
//  120 #define SMART_HOME_IDLE  6
//  121 #endif
//  122 
//  123 // Loopback Rx bytes to Tx for throughput testing.
//  124 #if !defined( SMART_HOME_LOOPBACK )
//  125 #define SMART_HOME_LOOPBACK  FALSE
//  126 #endif
//  127 
//  128 // This is the max byte count per OTA message.
//  129 #if !defined( SMART_HOME_TX_MAX )
//  130 #define SMART_HOME_TX_MAX  80
//  131 #endif
//  132 
//  133 #define SMART_HOME_RSP_CNT  4
//  134 
//  135 //3.14 This list should be filled with Application specific Cluster IDs.

        RSEG XDATA_ROM_C:CONST:REORDER:NOROOT(0)
        DATA8
//  136 const cId_t Smart_home_ClusterList_IN[Smart_home_MAX_INCLUSTERS ] =
Smart_home_ClusterList_IN:
        DATA16
        DW 1
        DW 2
        DW 3
        DW 4
        DW 5
        DW 6
        DW 7
        DW 8
        DW 0
//  137 {
//  138   Smart_home_CLUSTERID_HUMITMSG,              // 温湿度
//  139   Smart_home_CLUSTERID_TEMPLIGHTMSG,          // 温度光照
//  140   Smart_home_CLUSTERID_RFIDMSG,               // 射频卡
//  141   Smart_home_CLUSTERID_GASFLAMEMSG,           // 烟雾火焰
//  142   Smart_home_CLUSTERID_INFRAREDMSG,           // 人体红外
//  143   Smart_home_CLUSTERID_SOUNDVBMSG,            // 声音振动
//  144   Smart_home_CLUSTERID_MOTORSTATUSMSG,        // 直流电机状态信息
//  145   Smart_home_CLUSTERID_RELAYSTATUSMSG         // 继电器
//  146 };
//  147 

        RSEG XDATA_ROM_C:CONST:REORDER:NOROOT(0)
        DATA8
//  148 const cId_t Smart_home_ClusterList_OUT[Smart_home_MAX_INCLUSTERS ] =
Smart_home_ClusterList_OUT:
        DATA16
        DW 11
        DW 10
        DW 0
        DW 0
        DW 0
        DW 0
        DW 0
        DW 0
        DW 0
//  149 {
//  150   Smart_home_CLUSTERID_MOTORCTRL,             //直流电机控制
//  151   Smart_home_CLUSTERID_RELAYCTRL              //继电器控制
//  152 };
//  153 

        RSEG XDATA_ROM_C:CONST:REORDER:NOROOT(0)
        DATA8
//  154 const SimpleDescriptionFormat_t Smart_home_SimpleDesc =
Smart_home_SimpleDesc:
        DB 1
        DATA16
        DW 3845
        DW 1
        DATA8
        DB 0
        DB 9
        DATA16
        DW Smart_home_ClusterList_IN
        DATA8
        DB 3
        DATA16
        DW Smart_home_ClusterList_OUT
//  155 {
//  156   Smart_home_ENDPOINT,              //  int   Endpoint;
//  157   Smart_home_PROFID,                //  uint16 AppProfId[2];
//  158   Smart_home_DEVICEID,              //  uint16 AppDeviceId[2];
//  159   Smart_home_DEVICE_VERSION,        //  int   AppDevVer:4;
//  160   Smart_home_FLAGS,                 //  int   AppFlags:4;
//  161   Smart_home_MAX_INCLUSTERS,          //  byte  AppNumInClusters;
//  162   (cId_t *)Smart_home_ClusterList_IN,  //  byte *pAppInClusterList;
//  163   Smart_home_MAX_OUTCLUSTERS,          //  byte  AppNumOutClusters;
//  164   (cId_t *)Smart_home_ClusterList_OUT   //  byte *pAppOutClusterList;
//  165 };
//  166 

        RSEG XDATA_ROM_C:CONST:REORDER:NOROOT(0)
        DATA8
//  167 const endPointDesc_t Smart_home_epDesc =
Smart_home_epDesc:
        DB 1
        DATA16
        DW Smart_home_TaskID
        DW Smart_home_SimpleDesc
        DATA8
        DB 0
//  168 {
//  169   Smart_home_ENDPOINT,
//  170   &Smart_home_TaskID,
//  171   (SimpleDescriptionFormat_t *)&Smart_home_SimpleDesc,
//  172   noLatencyReqs
//  173 };
//  174 
//  175 /*********************************************************************
//  176  * TYPEDEFS
//  177  */
//  178 
//  179 /*********************************************************************
//  180  * GLOBAL VARIABLES
//  181  */
//  182 

        RSEG XDATA_Z:XDATA:NOROOT(0)
        DATA8
//  183 uint8 Smart_home_TaskID;    // Task ID for internal task/event processing.
Smart_home_TaskID:
        DS 1
        REQUIRE __INIT_XDATA_Z
//  184 
//  185 /*********************************************************************
//  186  * EXTERNAL VARIABLES
//  187  */
//  188 
//  189 /*********************************************************************
//  190  * EXTERNAL FUNCTIONS
//  191  */
//  192 
//  193 /*********************************************************************
//  194  * LOCAL VARIABLES
//  195  */
//  196 
//  197 /*3.18 终端节点的设备详细信息缓存*/

        RSEG XDATA_Z:XDATA:NOROOT(0)
        DATA8
//  198 static uint8 DeviceCnt[Smart_home_MAX_INCLUSTERS];
DeviceCnt:
        DS 9
        REQUIRE __INIT_XDATA_Z

        RSEG XDATA_Z:XDATA:NOROOT(0)
        DATA8
//  199 static int8 Ctrlcase = 0;    //0用来控制屏幕显示，1控制继电器，2控制电机
Ctrlcase:
        DS 1
        REQUIRE __INIT_XDATA_Z

        RSEG XDATA_Z:XDATA:NOROOT(0)
        DATA8
//  200 static int8 LCD_Page  =  0;  //终端状态显示
LCD_Page:
        DS 1
        REQUIRE __INIT_XDATA_Z

        RSEG XDATA_Z:XDATA:NOROOT(0)
        DATA8
//  201 DeviceInfo DeviceList[Smart_home_MAX_INCLUSTERS];                      //设备列表  
DeviceList:
        DS 63
        REQUIRE __INIT_XDATA_Z
//  202 /*********************************************************************************
//  203 //这些似乎会引起内存问题  3.22
//  204 DeviceInfo *Humit = DeviceList+Smart_home_CLUSTERID_HUMITMSG;          //温湿度缓存
//  205 DeviceInfo *TempLight = DeviceList+Smart_home_CLUSTERID_TEMPLIGHTMSG;  // 温度光照缓存
//  206 DeviceInfo *RfID = DeviceList+Smart_home_CLUSTERID_RFIDMSG;            // RFID 信息缓存
//  207 DeviceInfo *gasFlame = DeviceList+Smart_home_CLUSTERID_GASFLAMEMSG;    //气体火焰缓存
//  208 DeviceInfo *infrared = DeviceList+Smart_home_CLUSTERID_INFRAREDMSG;    //人体红外
//  209 DeviceInfo *motor = DeviceList+Smart_home_CLUSTERID_MOTORSTATUSMSG;     //电机状态
//  210 DeviceInfo *relay = DeviceList+Smart_home_CLUSTERID_RELAYSTATUSMSG;    //继电器状态
//  211 DeviceInfo *soundVb = DeviceList+Smart_home_CLUSTERID_SOUNDVBMSG;      //声音震动
//  212 修改如下
//  213 ***********************************************************************************/
//  214 #define Humit     1     //温湿度缓存
//  215 #define TempLight 2     // 温度光照缓存
//  216 #define RfID      3     // RFID 信息缓存
//  217 #define gasFlame  4     //气体火焰缓存
//  218 #define infrared  5     //人体红外
//  219 #define motor     6     //电机状态
//  220 #define relay     7     //继电器状态
//  221 #define soundVb   8     //声音震动
//  222 
//  223 /*3.14 消息发送部分*/
//  224 /*3.17短地址存储*/

        RSEG XDATA_Z:XDATA:NOROOT(0)
        DATA8
//  225 static afAddrType_t Relay_addr;
Relay_addr:
        DS 12
        REQUIRE __INIT_XDATA_Z

        RSEG XDATA_Z:XDATA:NOROOT(0)
        DATA8
//  226 static afAddrType_t Motor_addr;
Motor_addr:
        DS 12
        REQUIRE __INIT_XDATA_Z
//  227 
//  228 /*消息发送数组*/

        RSEG XDATA_Z:XDATA:NOROOT(0)
        DATA8
//  229 byte Coordinator_Msg[MSG_MAX_LEN];
Coordinator_Msg:
        DS 102
        REQUIRE __INIT_XDATA_Z
//  230 
//  231 
//  232 /*3.19 协议栈中有但暂时不知道要他们干嘛的东西*/
//  233 /*3.21 现在我会了！！！*/
//  234 /*3.22 那些没用！删掉了！*/
//  235 //static uint8 Smart_home_MsgID;

        RSEG XDATA_Z:XDATA:NOROOT(0)
        DATA8
//  236 static uint8 RelayTransID;  // This is the unique message ID (counter)
RelayTransID:
        DS 1
        REQUIRE __INIT_XDATA_Z

        RSEG XDATA_Z:XDATA:NOROOT(0)
        DATA8
//  237 static uint8 MotorTransID;  // This is the unique message ID (counter)
MotorTransID:
        DS 1
        REQUIRE __INIT_XDATA_Z
//  238 
//  239 /*********************************************************************
//  240  * LOCAL FUNCTIONS
//  241  */
//  242 
//  243 static void Smart_home_ProcessZDOMsgs( zdoIncomingMsg_t *inMsg );
//  244 //static void Smart_home_Key_add(uint8 Ctrlcase);
//  245 static void Smart_home_HandleKeys( byte shift, byte keys );
//  246 static void Smart_home_ProcessMSGCmd( afIncomingMSGPacket_t *pkt );
//  247 static void Smart_home_Device_check(void);
//  248 static void Smart_home_Relay_Ctl(uint8 cmd);
//  249 static void Smart_home_Motor_Ctl(uint8 cmd,uint8 speed);
//  250 static void Smart_home_Display(void);
//  251 
//  252 /*********************************************************************
//  253  * @fn      Smart_home_Init
//  254  *
//  255  * @brief   This is called during OSAL tasks' initialization.
//  256  *
//  257  * @param   task_id - the Task ID assigned by OSAL.
//  258  *
//  259  * @return  none
//  260  */

        RSEG BANKED_CODE:CODE:NOROOT(0)
//  261 void Smart_home_Init( uint8 task_id )
Smart_home_Init:
        CFI Block cfiBlock0 Using cfiCommon0
        CFI Function Smart_home_Init
        CODE
//  262 {
        FUNCALL Smart_home_Init, afRegister
        LOCFRAME ISTACK, 0, STACK
        LOCFRAME PSTACK, 0, STACK
        LOCFRAME XSTACK, 38, STACK
        LOCFRAME IOVERLAY, 0, STATIC
        LOCFRAME DOVERLAY, 0, STATIC
        ARGFRAME ISTACK, 0, STACK
        ARGFRAME PSTACK, 0, STACK
        ARGFRAME XSTACK, 38, STACK
        ARGFRAME IOVERLAY, 0, STATIC
        ARGFRAME DOVERLAY, 0, STATIC
        FUNCALL Smart_home_Init, RegisterForKeys
        LOCFRAME ISTACK, 0, STACK
        LOCFRAME PSTACK, 0, STACK
        LOCFRAME XSTACK, 38, STACK
        LOCFRAME IOVERLAY, 0, STATIC
        LOCFRAME DOVERLAY, 0, STATIC
        ARGFRAME ISTACK, 0, STACK
        ARGFRAME PSTACK, 0, STACK
        ARGFRAME XSTACK, 38, STACK
        ARGFRAME IOVERLAY, 0, STATIC
        ARGFRAME DOVERLAY, 0, STATIC
        FUNCALL Smart_home_Init, HalUARTOpen
        LOCFRAME ISTACK, 0, STACK
        LOCFRAME PSTACK, 0, STACK
        LOCFRAME XSTACK, 38, STACK
        LOCFRAME IOVERLAY, 0, STATIC
        LOCFRAME DOVERLAY, 0, STATIC
        ARGFRAME ISTACK, 0, STACK
        ARGFRAME PSTACK, 0, STACK
        ARGFRAME XSTACK, 38, STACK
        ARGFRAME IOVERLAY, 0, STATIC
        ARGFRAME DOVERLAY, 0, STATIC
        FUNCALL Smart_home_Init, HalLcdWriteString
        LOCFRAME ISTACK, 0, STACK
        LOCFRAME PSTACK, 0, STACK
        LOCFRAME XSTACK, 38, STACK
        LOCFRAME IOVERLAY, 0, STATIC
        LOCFRAME DOVERLAY, 0, STATIC
        ARGFRAME ISTACK, 0, STACK
        ARGFRAME PSTACK, 0, STACK
        ARGFRAME XSTACK, 38, STACK
        ARGFRAME IOVERLAY, 0, STATIC
        ARGFRAME DOVERLAY, 0, STATIC
        FUNCALL Smart_home_Init, ZDO_RegisterForZDOMsg
        LOCFRAME ISTACK, 0, STACK
        LOCFRAME PSTACK, 0, STACK
        LOCFRAME XSTACK, 38, STACK
        LOCFRAME IOVERLAY, 0, STATIC
        LOCFRAME DOVERLAY, 0, STATIC
        ARGFRAME ISTACK, 0, STACK
        ARGFRAME PSTACK, 0, STACK
        ARGFRAME XSTACK, 38, STACK
        ARGFRAME IOVERLAY, 0, STATIC
        ARGFRAME DOVERLAY, 0, STATIC
        FUNCALL Smart_home_Init, ZDO_RegisterForZDOMsg
        LOCFRAME ISTACK, 0, STACK
        LOCFRAME PSTACK, 0, STACK
        LOCFRAME XSTACK, 38, STACK
        LOCFRAME IOVERLAY, 0, STATIC
        LOCFRAME DOVERLAY, 0, STATIC
        ARGFRAME ISTACK, 0, STACK
        ARGFRAME PSTACK, 0, STACK
        ARGFRAME XSTACK, 38, STACK
        ARGFRAME IOVERLAY, 0, STATIC
        ARGFRAME DOVERLAY, 0, STATIC
        FUNCALL Smart_home_Init, osal_start_timerEx
        LOCFRAME ISTACK, 0, STACK
        LOCFRAME PSTACK, 0, STACK
        LOCFRAME XSTACK, 38, STACK
        LOCFRAME IOVERLAY, 0, STATIC
        LOCFRAME DOVERLAY, 0, STATIC
        ARGFRAME ISTACK, 0, STACK
        ARGFRAME PSTACK, 0, STACK
        ARGFRAME XSTACK, 38, STACK
        ARGFRAME IOVERLAY, 0, STATIC
        ARGFRAME DOVERLAY, 0, STATIC
        FUNCALL Smart_home_Init, osal_start_timerEx
        LOCFRAME ISTACK, 0, STACK
        LOCFRAME PSTACK, 0, STACK
        LOCFRAME XSTACK, 38, STACK
        LOCFRAME IOVERLAY, 0, STATIC
        LOCFRAME DOVERLAY, 0, STATIC
        ARGFRAME ISTACK, 0, STACK
        ARGFRAME PSTACK, 0, STACK
        ARGFRAME XSTACK, 38, STACK
        ARGFRAME IOVERLAY, 0, STATIC
        ARGFRAME DOVERLAY, 0, STATIC
        FUNCALL Smart_home_Init, NLME_PermitJoiningRequest
        LOCFRAME ISTACK, 0, STACK
        LOCFRAME PSTACK, 0, STACK
        LOCFRAME XSTACK, 38, STACK
        LOCFRAME IOVERLAY, 0, STATIC
        LOCFRAME DOVERLAY, 0, STATIC
        ARGFRAME ISTACK, 0, STACK
        ARGFRAME PSTACK, 0, STACK
        ARGFRAME XSTACK, 38, STACK
        ARGFRAME IOVERLAY, 0, STATIC
        ARGFRAME DOVERLAY, 0, STATIC
        FUNCALL Smart_home_Init, HalLedSet
        LOCFRAME ISTACK, 0, STACK
        LOCFRAME PSTACK, 0, STACK
        LOCFRAME XSTACK, 38, STACK
        LOCFRAME IOVERLAY, 0, STATIC
        LOCFRAME DOVERLAY, 0, STATIC
        ARGFRAME ISTACK, 0, STACK
        ARGFRAME PSTACK, 0, STACK
        ARGFRAME XSTACK, 38, STACK
        ARGFRAME IOVERLAY, 0, STATIC
        ARGFRAME DOVERLAY, 0, STATIC
        MOV     A,#-0x9
        LCALL   ?BANKED_ENTER_XDATA
        CFI DPH0 load(1, XDATA, add(CFA_XSP16, literal(-1)))
        CFI DPL0 load(1, XDATA, add(CFA_XSP16, literal(-2)))
        CFI ?BRET_EXT load(1, XDATA, add(CFA_XSP16, literal(-3)))
        CFI ?RET_HIGH load(1, XDATA, add(CFA_XSP16, literal(-4)))
        CFI ?RET_LOW load(1, XDATA, add(CFA_XSP16, literal(-5)))
        CFI R7 load(1, XDATA, add(CFA_XSP16, literal(-6)))
        CFI V0 load(1, XDATA, add(CFA_XSP16, literal(-7)))
        CFI VB load(1, XDATA, add(CFA_XSP16, literal(-8)))
        CFI R6 load(1, XDATA, add(CFA_XSP16, literal(-9)))
        CFI CFA_SP SP+0
        CFI CFA_XSP16 add(XSP16, 9)
        ; Saved register size: 9
        ; Auto size: 29
        MOV     A,#-0x1d
        LCALL   ?ALLOC_XSTACK8
        CFI CFA_XSP16 add(XSP16, 38)
        MOV     A,R1
        MOV     R6,A
//  263   halUARTCfg_t uartConfig;
//  264   uint8 DeviceNum;                                    //DeviceList初始化用变量
//  265 
//  266   Smart_home_TaskID = task_id;
        MOV     DPTR,#Smart_home_TaskID
        MOVX    @DPTR,A
//  267   MotorTransID = 0;
        MOV     DPTR,#MotorTransID
        CLR     A
        MOVX    @DPTR,A
//  268   RelayTransID = 0;
        MOV     DPTR,#RelayTransID
        MOVX    @DPTR,A
//  269 
//  270   afRegister( (endPointDesc_t *)&Smart_home_epDesc );
        ; Setup parameters for call to function afRegister
        MOV     R2,#Smart_home_epDesc & 0xff
        MOV     R3,#(Smart_home_epDesc >> 8) & 0xff
        LCALL   ??afRegister?relay
//  271 
//  272   RegisterForKeys( task_id );
        ; Setup parameters for call to function RegisterForKeys
        MOV     A,R6
        MOV     R1,A
        LCALL   ??RegisterForKeys?relay
//  273 
//  274   uartConfig.configured           = TRUE;              // 2x30 don't care - see uart driver.
        MOV     DPL,?XSP + 0
        MOV     DPH,?XSP + 1
        MOV     A,#0x1
        MOVX    @DPTR,A
//  275   uartConfig.baudRate             = SMART_HOME_BAUD;
        LCALL   ?XSTACK_DISP0_8
        MOV     A,#0x2
        MOVX    @DPTR,A
//  276   uartConfig.flowControl          = TRUE;
        LCALL   ?XSTACK_DISP0_8
        MOV     A,#0x1
        MOVX    @DPTR,A
//  277   uartConfig.flowControlThreshold = SMART_HOME_THRESH; // 2x30 don't care - see uart driver.
        MOV     A,#0x3
        LCALL   ?XSTACK_DISP0_8
        MOV     A,#0x40
        MOVX    @DPTR,A
        INC     DPTR
        CLR     A
        MOVX    @DPTR,A
//  278   uartConfig.rx.maxBufSize        = SMART_HOME_RX_SZ;  // 2x30 don't care - see uart driver.
        MOV     A,#0xa
        LCALL   ?XSTACK_DISP0_8
        MOV     A,#-0x80
        MOVX    @DPTR,A
        INC     DPTR
        CLR     A
        MOVX    @DPTR,A
//  279   uartConfig.tx.maxBufSize        = SMART_HOME_TX_SZ;  // 2x30 don't care - see uart driver.
        MOV     A,#0x12
        LCALL   ?XSTACK_DISP0_8
        MOV     A,#-0x80
        MOVX    @DPTR,A
        INC     DPTR
        CLR     A
        MOVX    @DPTR,A
//  280   uartConfig.idleTimeout          = SMART_HOME_IDLE;   // 2x30 don't care - see uart driver.
        MOV     A,#0x5
        LCALL   ?XSTACK_DISP0_8
        MOV     A,#0x6
        MOVX    @DPTR,A
//  281   uartConfig.intEnable            = TRUE;              // 2x30 don't care - see uart driver.
        MOV     A,#0x16
        LCALL   ?XSTACK_DISP0_8
        MOV     A,#0x1
        MOVX    @DPTR,A
//  282   //uartConfig.callBackFunc         = Smart_home_CallBack;
//  283   HalUARTOpen (SMART_HOME_PORT, &uartConfig);
        ; Setup parameters for call to function HalUARTOpen
        MOV     DPL,?XSP + 0
        MOV     DPH,?XSP + 1
        MOV     R2,DPL
        MOV     R3,DPH
        MOV     R1,#0x0
        LCALL   ??HalUARTOpen?relay
//  284 
//  285 #if defined ( LCD_SUPPORTED )
//  286   HalLcdWriteString( "Smart_home", HAL_LCD_LINE_2 );
        ; Setup parameters for call to function HalLcdWriteString
        MOV     R1,#0x2
        MOV     R2,#`?<Constant "Smart_home">` & 0xff
        MOV     R3,#(`?<Constant "Smart_home">` >> 8) & 0xff
        LCALL   ??HalLcdWriteString?relay
//  287 #endif
//  288   
//  289   ZDO_RegisterForZDOMsg( Smart_home_TaskID, End_Device_Bind_rsp );
        ; Setup parameters for call to function ZDO_RegisterForZDOMsg
        MOV     R2,#0x20
        MOV     R3,#-0x80
        MOV     DPTR,#Smart_home_TaskID
        MOVX    A,@DPTR
        MOV     R1,A
        LCALL   ??ZDO_RegisterForZDOMsg?relay
//  290   ZDO_RegisterForZDOMsg( Smart_home_TaskID, Match_Desc_rsp );
        ; Setup parameters for call to function ZDO_RegisterForZDOMsg
        MOV     R2,#0x6
        MOV     R3,#-0x80
        MOV     DPTR,#Smart_home_TaskID
        MOVX    A,@DPTR
        MOV     R1,A
        LCALL   ??ZDO_RegisterForZDOMsg?relay
//  291   
//  292   //3.22 显示延时
//  293   osal_start_timerEx( Smart_home_TaskID, SMART_HOME_DISPLAY_EVT, 
//  294                       SMART_HOME_DEVICE_DISPLAY_DELAY);
        ; Setup parameters for call to function osal_start_timerEx
        MOV     R4,#0x10
        MOV     R5,#0x27
        MOV     R2,#0x10
        LCALL   ??Subroutine25_0 & 0xFFFF
//  295   
//  296   
//  297   //3.14 打开设备在线检测，第一次开启检测延时较长时间
//  298   osal_start_timerEx( Smart_home_TaskID, SMART_HOME_DEVICE_CHECK_EVT, 
//  299                       SMART_HOME_DEVICE_CHECK_DELAY);
??CrossCallReturnLabel_55:
        ; Setup parameters for call to function osal_start_timerEx
        MOV     R4,#-0x78
        MOV     R5,#0x13
        LCALL   ?Subroutine12 & 0xFFFF
//  300  
//  301   //3.13 关闭LED灯(D4)，表示协调器默认不允许组网
//  302   NLME_PermitJoiningRequest(0x00);
??CrossCallReturnLabel_53:
        ; Setup parameters for call to function NLME_PermitJoiningRequest
        MOV     R1,#0x0
        LCALL   ?Subroutine16 & 0xFFFF
//  303   HalLedSet(HAL_LED_1, HAL_LED_MODE_OFF);
//  304   
//  305   //3.21 初始化页面为0 第一页
//  306   //LCD_Page=0;
//  307   
//  308   //3.13 设备离线状态检测初始化，初始化为离线
//  309   //3.21 修改为DeviceList方式，初始化DeviceCnt
//  310   for(DeviceNum=1;DeviceNum<Smart_home_MAX_INCLUSTERS;DeviceNum++) //只初始化终端
??CrossCallReturnLabel_34:
        MOV     R5,#0x1
//  311   {
//  312     DeviceList[DeviceNum].deviceid = DeviceNum;
??Smart_home_Init_0:
        MOV     DPL,R5
        MOV     R0,DPL
        MOV     A,R0
        MOV     B,#0x7
        MUL     AB
        MOV     R2,A
        MOV     R3,B
        MOV     A,#DeviceList & 0xff
        ADD     A,R2
        MOV     DPL,A
        MOV     A,#(DeviceList >> 8) & 0xff
        ADDC    A,R3
        MOV     DPH,A
        MOV     A,R5
        MOVX    @DPTR,A
//  313     DeviceList[DeviceNum].deviceStatus = DEVICE_OFFLINE;
        INC     DPTR
        MOV     A,#0x2
        MOVX    @DPTR,A
//  314     DeviceCnt[DeviceNum]=0;
        MOV     A,#DeviceCnt & 0xff
        ADD     A,R0
        MOV     DPL,A
        MOV     A,#(DeviceCnt >> 8) & 0xff
        ADDC    A,#0x0
        MOV     DPH,A
        CLR     A
        MOVX    @DPTR,A
//  315   }
        INC     R5
        MOV     A,R5
        CLR     C
        SUBB    A,#0x9
        JC      ??Smart_home_Init_0
//  316 }
        MOV     A,#0x1d
        LCALL   ?DEALLOC_XSTACK8
        CFI EndBlock cfiBlock0
        REQUIRE ?Subroutine0
        ; // Fall through to label ?Subroutine0

        RSEG BANKED_CODE:CODE:NOROOT(0)
?Subroutine0:
        CFI Block cfiBlock1 Using cfiCommon0
        CFI NoFunction
        CFI CFA_SP SP+0
        CFI CFA_XSP16 add(XSP16, 9)
        CFI VB load(1, XDATA, add(CFA_XSP16, literal(-8)))
        CFI DPL0 load(1, XDATA, add(CFA_XSP16, literal(-2)))
        CFI DPH0 load(1, XDATA, add(CFA_XSP16, literal(-1)))
        CFI R6 load(1, XDATA, add(CFA_XSP16, literal(-9)))
        CFI R7 load(1, XDATA, add(CFA_XSP16, literal(-6)))
        CFI V0 load(1, XDATA, add(CFA_XSP16, literal(-7)))
        CFI ?BRET_EXT load(1, XDATA, add(CFA_XSP16, literal(-3)))
        CFI ?RET_HIGH load(1, XDATA, add(CFA_XSP16, literal(-4)))
        CFI ?RET_LOW load(1, XDATA, add(CFA_XSP16, literal(-5)))
        MOV     R7,#0x1
        LJMP    ?BANKED_LEAVE_XDATA
        CFI EndBlock cfiBlock1
//  317 
//  318 /*********************************************************************
//  319  * @fn      Smart_home_ProcessEvent
//  320  *
//  321  * @brief   Generic Application Task event processor.
//  322  *
//  323  * @param   task_id  - The OSAL assigned task ID.
//  324  * @param   events   - Bit map of events to process.
//  325  *
//  326  * @return  Event flags of all unprocessed events.
//  327  */

        RSEG BANKED_CODE:CODE:NOROOT(0)
//  328 UINT16 Smart_home_ProcessEvent( uint8 task_id, UINT16 events )
Smart_home_ProcessEvent:
        CFI Block cfiBlock2 Using cfiCommon0
        CFI Function Smart_home_ProcessEvent
        CODE
//  329 {
        FUNCALL Smart_home_ProcessEvent, Smart_home_ProcessMSGCmd
        LOCFRAME ISTACK, 0, STACK
        LOCFRAME PSTACK, 0, STACK
        LOCFRAME XSTACK, 14, STACK
        LOCFRAME IOVERLAY, 0, STATIC
        LOCFRAME DOVERLAY, 0, STATIC
        ARGFRAME ISTACK, 0, STACK
        ARGFRAME PSTACK, 0, STACK
        ARGFRAME XSTACK, 14, STACK
        ARGFRAME IOVERLAY, 0, STATIC
        ARGFRAME DOVERLAY, 0, STATIC
        FUNCALL Smart_home_ProcessEvent, osal_msg_deallocate
        LOCFRAME ISTACK, 0, STACK
        LOCFRAME PSTACK, 0, STACK
        LOCFRAME XSTACK, 14, STACK
        LOCFRAME IOVERLAY, 0, STATIC
        LOCFRAME DOVERLAY, 0, STATIC
        ARGFRAME ISTACK, 0, STACK
        ARGFRAME PSTACK, 0, STACK
        ARGFRAME XSTACK, 14, STACK
        ARGFRAME IOVERLAY, 0, STATIC
        ARGFRAME DOVERLAY, 0, STATIC
        FUNCALL Smart_home_ProcessEvent, osal_msg_receive
        LOCFRAME ISTACK, 0, STACK
        LOCFRAME PSTACK, 0, STACK
        LOCFRAME XSTACK, 14, STACK
        LOCFRAME IOVERLAY, 0, STATIC
        LOCFRAME DOVERLAY, 0, STATIC
        ARGFRAME ISTACK, 0, STACK
        ARGFRAME PSTACK, 0, STACK
        ARGFRAME XSTACK, 14, STACK
        ARGFRAME IOVERLAY, 0, STATIC
        ARGFRAME DOVERLAY, 0, STATIC
        FUNCALL Smart_home_ProcessEvent, osal_msg_receive
        LOCFRAME ISTACK, 0, STACK
        LOCFRAME PSTACK, 0, STACK
        LOCFRAME XSTACK, 14, STACK
        LOCFRAME IOVERLAY, 0, STATIC
        LOCFRAME DOVERLAY, 0, STATIC
        ARGFRAME ISTACK, 0, STACK
        ARGFRAME PSTACK, 0, STACK
        ARGFRAME XSTACK, 14, STACK
        ARGFRAME IOVERLAY, 0, STATIC
        ARGFRAME DOVERLAY, 0, STATIC
        FUNCALL Smart_home_ProcessEvent, ZDO_ParseEPListRsp
        LOCFRAME ISTACK, 0, STACK
        LOCFRAME PSTACK, 0, STACK
        LOCFRAME XSTACK, 14, STACK
        LOCFRAME IOVERLAY, 0, STATIC
        LOCFRAME DOVERLAY, 0, STATIC
        ARGFRAME ISTACK, 0, STACK
        ARGFRAME PSTACK, 0, STACK
        ARGFRAME XSTACK, 14, STACK
        ARGFRAME IOVERLAY, 0, STATIC
        ARGFRAME DOVERLAY, 0, STATIC
        FUNCALL Smart_home_ProcessEvent, HalLedSet
        LOCFRAME ISTACK, 0, STACK
        LOCFRAME PSTACK, 0, STACK
        LOCFRAME XSTACK, 14, STACK
        LOCFRAME IOVERLAY, 0, STATIC
        LOCFRAME DOVERLAY, 0, STATIC
        ARGFRAME ISTACK, 0, STACK
        ARGFRAME PSTACK, 0, STACK
        ARGFRAME XSTACK, 14, STACK
        ARGFRAME IOVERLAY, 0, STATIC
        ARGFRAME DOVERLAY, 0, STATIC
        FUNCALL Smart_home_ProcessEvent, osal_mem_free
        LOCFRAME ISTACK, 0, STACK
        LOCFRAME PSTACK, 0, STACK
        LOCFRAME XSTACK, 14, STACK
        LOCFRAME IOVERLAY, 0, STATIC
        LOCFRAME DOVERLAY, 0, STATIC
        ARGFRAME ISTACK, 0, STACK
        ARGFRAME PSTACK, 0, STACK
        ARGFRAME XSTACK, 14, STACK
        ARGFRAME IOVERLAY, 0, STATIC
        ARGFRAME DOVERLAY, 0, STATIC
        FUNCALL Smart_home_ProcessEvent, HalLedSet
        LOCFRAME ISTACK, 0, STACK
        LOCFRAME PSTACK, 0, STACK
        LOCFRAME XSTACK, 14, STACK
        LOCFRAME IOVERLAY, 0, STATIC
        LOCFRAME DOVERLAY, 0, STATIC
        ARGFRAME ISTACK, 0, STACK
        ARGFRAME PSTACK, 0, STACK
        ARGFRAME XSTACK, 14, STACK
        ARGFRAME IOVERLAY, 0, STATIC
        ARGFRAME DOVERLAY, 0, STATIC
        FUNCALL Smart_home_ProcessEvent, HalLedSet
        LOCFRAME ISTACK, 0, STACK
        LOCFRAME PSTACK, 0, STACK
        LOCFRAME XSTACK, 14, STACK
        LOCFRAME IOVERLAY, 0, STATIC
        LOCFRAME DOVERLAY, 0, STATIC
        ARGFRAME ISTACK, 0, STACK
        ARGFRAME PSTACK, 0, STACK
        ARGFRAME XSTACK, 14, STACK
        ARGFRAME IOVERLAY, 0, STATIC
        ARGFRAME DOVERLAY, 0, STATIC
        FUNCALL Smart_home_ProcessEvent, Smart_home_HandleKeys
        LOCFRAME ISTACK, 0, STACK
        LOCFRAME PSTACK, 0, STACK
        LOCFRAME XSTACK, 14, STACK
        LOCFRAME IOVERLAY, 0, STATIC
        LOCFRAME DOVERLAY, 0, STATIC
        ARGFRAME ISTACK, 0, STACK
        ARGFRAME PSTACK, 0, STACK
        ARGFRAME XSTACK, 14, STACK
        ARGFRAME IOVERLAY, 0, STATIC
        ARGFRAME DOVERLAY, 0, STATIC
        FUNCALL Smart_home_ProcessEvent, HalLedSet
        LOCFRAME ISTACK, 0, STACK
        LOCFRAME PSTACK, 0, STACK
        LOCFRAME XSTACK, 14, STACK
        LOCFRAME IOVERLAY, 0, STATIC
        LOCFRAME DOVERLAY, 0, STATIC
        ARGFRAME ISTACK, 0, STACK
        ARGFRAME PSTACK, 0, STACK
        ARGFRAME XSTACK, 14, STACK
        ARGFRAME IOVERLAY, 0, STATIC
        ARGFRAME DOVERLAY, 0, STATIC
        FUNCALL Smart_home_ProcessEvent, osal_start_timerEx
        LOCFRAME ISTACK, 0, STACK
        LOCFRAME PSTACK, 0, STACK
        LOCFRAME XSTACK, 14, STACK
        LOCFRAME IOVERLAY, 0, STATIC
        LOCFRAME DOVERLAY, 0, STATIC
        ARGFRAME ISTACK, 0, STACK
        ARGFRAME PSTACK, 0, STACK
        ARGFRAME XSTACK, 14, STACK
        ARGFRAME IOVERLAY, 0, STATIC
        ARGFRAME DOVERLAY, 0, STATIC
        FUNCALL Smart_home_ProcessEvent, Smart_home_Display
        LOCFRAME ISTACK, 0, STACK
        LOCFRAME PSTACK, 0, STACK
        LOCFRAME XSTACK, 14, STACK
        LOCFRAME IOVERLAY, 0, STATIC
        LOCFRAME DOVERLAY, 0, STATIC
        ARGFRAME ISTACK, 0, STACK
        ARGFRAME PSTACK, 0, STACK
        ARGFRAME XSTACK, 14, STACK
        ARGFRAME IOVERLAY, 0, STATIC
        ARGFRAME DOVERLAY, 0, STATIC
        FUNCALL Smart_home_ProcessEvent, osal_start_timerEx
        LOCFRAME ISTACK, 0, STACK
        LOCFRAME PSTACK, 0, STACK
        LOCFRAME XSTACK, 14, STACK
        LOCFRAME IOVERLAY, 0, STATIC
        LOCFRAME DOVERLAY, 0, STATIC
        ARGFRAME ISTACK, 0, STACK
        ARGFRAME PSTACK, 0, STACK
        ARGFRAME XSTACK, 14, STACK
        ARGFRAME IOVERLAY, 0, STATIC
        ARGFRAME DOVERLAY, 0, STATIC
        MOV     A,#-0xe
        LCALL   ?BANKED_ENTER_XDATA
        CFI DPH0 load(1, XDATA, add(CFA_XSP16, literal(-1)))
        CFI DPL0 load(1, XDATA, add(CFA_XSP16, literal(-2)))
        CFI ?BRET_EXT load(1, XDATA, add(CFA_XSP16, literal(-3)))
        CFI ?RET_HIGH load(1, XDATA, add(CFA_XSP16, literal(-4)))
        CFI ?RET_LOW load(1, XDATA, add(CFA_XSP16, literal(-5)))
        CFI R7 load(1, XDATA, add(CFA_XSP16, literal(-6)))
        CFI V5 load(1, XDATA, add(CFA_XSP16, literal(-7)))
        CFI V4 load(1, XDATA, add(CFA_XSP16, literal(-8)))
        CFI V3 load(1, XDATA, add(CFA_XSP16, literal(-9)))
        CFI V2 load(1, XDATA, add(CFA_XSP16, literal(-10)))
        CFI V1 load(1, XDATA, add(CFA_XSP16, literal(-11)))
        CFI V0 load(1, XDATA, add(CFA_XSP16, literal(-12)))
        CFI VB load(1, XDATA, add(CFA_XSP16, literal(-13)))
        CFI R6 load(1, XDATA, add(CFA_XSP16, literal(-14)))
        CFI CFA_SP SP+0
        CFI CFA_XSP16 add(XSP16, 14)
        ; Saved register size: 14
        ; Auto size: 0
        MOV     A,R2
        MOV     R6,A
        MOV     A,R3
        MOV     R7,A
//  330   (void)task_id;  // Intentionally unreferenced parameter
//  331   afDataConfirm_t *afDataConfirm;
//  332   
//  333   //3.13 数据确认消息字段
//  334   ZStatus_t sentStatus;
//  335   byte sentEP;
//  336   
//  337   if ( events & SYS_EVENT_MSG )   //3.13 系统消息事件
        ANL     A,#0x80
        JNZ     ??Smart_home_ProcessEvent_0
//  338   {
//  339     afIncomingMSGPacket_t *MSGpkt;
//  340 
//  341     while ( (MSGpkt = (afIncomingMSGPacket_t *)osal_msg_receive( Smart_home_TaskID )) )
//  342     {
//  343       switch ( MSGpkt->hdr.event )
//  344       {
//  345         case ZDO_CB_MSG:           //3.13 ZDO传入消息回调
//  346           Smart_home_ProcessZDOMsgs( (zdoIncomingMsg_t *)MSGpkt );
//  347           break;
//  348           
//  349         case KEY_CHANGE:           //3.13 按键事件
//  350           Smart_home_HandleKeys( ((keyChange_t *)MSGpkt)->state, ((keyChange_t *)MSGpkt)->keys );
//  351           break;
//  352          
//  353         case AF_DATA_CONFIRM_CMD:
//  354         //3.13 接收到此消息，作为对发送的数据包的确认。
//  355         //状态为ZStatus_t类型[在ZComDef.h中定义]
//  356         //消息字段在AF.h中定义
//  357           afDataConfirm = (afDataConfirm_t *)MSGpkt;
//  358           sentEP = afDataConfirm->endpoint;
//  359           sentStatus = afDataConfirm->hdr.status;
//  360  
//  361           if ( (ZSuccess == sentStatus) &&
//  362                (Smart_home_epDesc.endPoint == sentEP) )
//  363           {  
//  364             //3.13 在消息发送确认成功后绿灯闪烁一下
//  365             HalLedSet(HAL_LED_1, HAL_LED_MODE_BLINK);
//  366           }
//  367           else
//  368           {
//  369             //3.13 红灯闪烁一下  硬件还没实现
//  370             //HalLedSet(HAL_LED_2, HAL_LED_MODE_BLINK);
//  371           }
//  372           break;
//  373           
//  374         case AF_INCOMING_MSG_CMD:   //3.13 消息传入处理
//  375           //3.13 在消息接收确认成功后绿灯闪烁一下
//  376           Smart_home_ProcessMSGCmd( MSGpkt );
//  377           break;
//  378         default:
//  379           break;
//  380       }
//  381 
//  382       osal_msg_deallocate( (uint8 *)MSGpkt );
//  383       
//  384       // Next
//  385       MSGpkt = (afIncomingMSGPacket_t *)osal_msg_receive( Smart_home_TaskID );
//  386     }
//  387     
//  388     // Squash compiler warnings until values are used.
//  389     (void)sentStatus;
//  390     (void)sentEP;
//  391     
//  392     return ( events ^ SYS_EVENT_MSG );
//  393   }
//  394 
//  395   if ( events & SMART_HOME_SEND_MSG_EVT )
        MOV     A,R6
        MOV     C,0xE0 /* A   */.0
        JC      $+5
        LJMP    ??Smart_home_ProcessEvent_1 & 0xFFFF
//  396   {
//  397     //Smart_home_Send();
//  398     return ( events ^ SMART_HOME_SEND_MSG_EVT );
        XRL     A,#0x1
        MOV     R2,A
        LJMP    ??Smart_home_ProcessEvent_2 & 0xFFFF
//  399   }
??Smart_home_ProcessEvent_3:
        ; Setup parameters for call to function Smart_home_ProcessMSGCmd
        LCALL   ??Smart_home_ProcessMSGCmd?relay
??Smart_home_ProcessEvent_4:
        ; Setup parameters for call to function osal_msg_deallocate
        MOV     R2,?V0 + 0
        MOV     R3,?V0 + 1
        LCALL   ??osal_msg_deallocate?relay
        ; Setup parameters for call to function osal_msg_receive
        MOV     DPTR,#Smart_home_TaskID
        MOVX    A,@DPTR
        MOV     R1,A
        LCALL   ??osal_msg_receive?relay
??Smart_home_ProcessEvent_0:
        ; Setup parameters for call to function osal_msg_receive
        MOV     DPTR,#Smart_home_TaskID
        MOVX    A,@DPTR
        MOV     R1,A
        LCALL   ??osal_msg_receive?relay
        MOV     ?V0 + 0,R2
        MOV     ?V0 + 1,R3
        MOV     A,R2
        ORL     A,?V0 + 1
        JNZ     $+5
        LJMP    ??Smart_home_ProcessEvent_5 & 0xFFFF
        MOV     DPL,R2
        MOV     DPH,R3
        MOVX    A,@DPTR
        ADD     A,#-0x1a
        JZ      ??Smart_home_ProcessEvent_3
        ADD     A,#0x5a
        JZ      ??Smart_home_ProcessEvent_6
        ADD     A,#-0x13
        JZ      ??Smart_home_ProcessEvent_7
        ADD     A,#-0x2a
        JNZ     $+5
        LJMP    ??Smart_home_ProcessEvent_8 & 0xFFFF
        SJMP    ??Smart_home_ProcessEvent_4
??Smart_home_ProcessEvent_7:
        MOV     A,R2
        ADD     A,#0xc
        MOV     DPL,A
        MOV     A,R3
        ADDC    A,#0x0
        MOV     DPH,A
        MOVX    A,@DPTR
        MOV     ?V0 + 2,A
        INC     DPTR
        MOVX    A,@DPTR
        MOV     ?V0 + 3,A
        MOV     R0,#?V0 + 2
        LCALL   ?US_SWITCH_SPARSE
`?<Jumptable for Smart_home_ProcessEvent>_0`:
        DATA
        DATA16
        DATA
        DATA16
        DATA
        DATA16
        DW        0
        DATA
        DATA16
        DATA
        DATA16
        DATA
        DATA16
        DW        2
        DATA
        DATA16
        DATA
        DATA16
        DATA
        DATA16
        DW        32774
        DATA
        DATA16
        DATA
        DATA16
        DATA
        DATA16
        DW        ??Smart_home_ProcessEvent_9
        DATA
        DATA16
        DATA
        DATA16
        DATA
        DATA16
        DW        32800
        DATA
        DATA16
        DATA
        DATA16
        DATA
        DATA16
        DW        ??Smart_home_ProcessEvent_10
        DATA
        DATA16
        DATA
        DATA16
        DW        ??Smart_home_ProcessEvent_4
        CODE
??Smart_home_ProcessEvent_9:
        ; Setup parameters for call to function ZDO_ParseEPListRsp
        LCALL   ??ZDO_ParseEPListRsp?relay
        MOV     ?V0 + 2,R2
        MOV     ?V0 + 3,R3
        MOV     A,R2
        ORL     A,?V0 + 3
        JZ      ??Smart_home_ProcessEvent_4
        MOV     DPL,R2
        MOV     DPH,R3
        MOVX    A,@DPTR
        JNZ     ??Smart_home_ProcessEvent_11
        INC     DPTR
        INC     DPTR
        INC     DPTR
        MOVX    A,@DPTR
        JZ      ??Smart_home_ProcessEvent_11
        ; Setup parameters for call to function HalLedSet
        MOV     R2,#0x1
        MOV     R1,#0x8
        LCALL   ??HalLedSet?relay
??Smart_home_ProcessEvent_11:
        ; Setup parameters for call to function osal_mem_free
        MOV     R2,?V0 + 2
        MOV     R3,?V0 + 3
        LCALL   ??osal_mem_free?relay
        LJMP    ??Smart_home_ProcessEvent_4 & 0xFFFF
??Smart_home_ProcessEvent_10:
        MOV     A,R2
        ADD     A,#0x13
        MOV     DPL,A
        MOV     A,R3
        ADDC    A,#0x0
        MOV     DPH,A
        LCALL   ?Subroutine13 & 0xFFFF
??CrossCallReturnLabel_28:
        JNZ     ??Smart_home_ProcessEvent_12
        ; Setup parameters for call to function HalLedSet
        MOV     R2,#0x1
??Smart_home_ProcessEvent_13:
        MOV     R1,#0x8
??Smart_home_ProcessEvent_14:
        LCALL   ??HalLedSet?relay
        LJMP    ??Smart_home_ProcessEvent_4 & 0xFFFF
??Smart_home_ProcessEvent_12:
        ; Setup parameters for call to function HalLedSet
        MOV     R2,#0x4
        SJMP    ??Smart_home_ProcessEvent_13
??Smart_home_ProcessEvent_6:
        ; Setup parameters for call to function Smart_home_HandleKeys
        INC     DPTR
        INC     DPTR
        INC     DPTR
        MOVX    A,@DPTR
        MOV     R2,A
        MOV     DPL,?V0 + 0
        MOV     DPH,R3
        INC     DPTR
        INC     DPTR
        MOVX    A,@DPTR
        MOV     R1,A
        LCALL   ??Smart_home_HandleKeys?relay
        LJMP    ??Smart_home_ProcessEvent_4 & 0xFFFF
??Smart_home_ProcessEvent_8:
        INC     DPTR
        MOVX    A,@DPTR
        JZ      $+5
        LJMP    ??Smart_home_ProcessEvent_4 & 0xFFFF
        MOV     DPL,R2
        MOV     DPH,R3
        INC     DPTR
        INC     DPTR
        MOVX    A,@DPTR
        XRL     A,#0x1
        JZ      $+5
        LJMP    ??Smart_home_ProcessEvent_4 & 0xFFFF
        ; Setup parameters for call to function HalLedSet
        MOV     R2,#0x2
        MOV     R1,#0x1
        SJMP    ??Smart_home_ProcessEvent_14
??Smart_home_ProcessEvent_5:
        MOV     A,R6
        MOV     R2,A
        MOV     A,R7
        XRL     A,#0x80
??Smart_home_ProcessEvent_15:
        MOV     R3,A
        LJMP    ??Smart_home_ProcessEvent_2 & 0xFFFF
//  400   
//  401   if ( events & SMART_HOME_DEVICE_CHECK_EVT )  //终端设备检查事件
??Smart_home_ProcessEvent_1:
        ANL     A,#0x80
        JZ      ??Smart_home_ProcessEvent_16
//  402   {
//  403     Smart_home_Device_check();  //调用终端设备检查函数
        MOV     DPTR,#??DeviceID
        MOV     A,#0x1
        MOVX    @DPTR,A
??Smart_home_ProcessEvent_17:
        MOVX    A,@DPTR
        MOV     R2,A
        LCALL   ?Subroutine17 & 0xFFFF
??CrossCallReturnLabel_36:
        MOVX    A,@DPTR
        MOV     DPTR,#??Device_status
        MOVX    @DPTR,A
        MOV     A,#DeviceCnt & 0xff
        ADD     A,R2
        MOV     R0,A
        MOV     A,#(DeviceCnt >> 8) & 0xff
        ADDC    A,#0x0
        MOV     R1,A
        MOV     DPTR,#??counttmp
        MOV     A,R0
        MOVX    @DPTR,A
        INC     DPTR
        MOV     A,R1
        MOVX    @DPTR,A
        MOV     DPTR,#??Device_status
        MOVX    A,@DPTR
        XRL     A,#0x1
        MOV     DPTR,#??counttmp + 1
        JZ      ??Smart_home_ProcessEvent_18
        LCALL   ??Subroutine24_0 & 0xFFFF
??CrossCallReturnLabel_48:
        MOVX    A,@DPTR
        INC     A
        SJMP    ??Smart_home_ProcessEvent_19
??Smart_home_ProcessEvent_18:
        LCALL   ??Subroutine24_0 & 0xFFFF
??CrossCallReturnLabel_49:
        CLR     A
        MOVX    @DPTR,A
        MOV     DPTR,#??Device_status
??Smart_home_ProcessEvent_19:
        MOVX    @DPTR,A
        MOV     DPTR,#??counttmp
        LCALL   ?Subroutine13 & 0xFFFF
??CrossCallReturnLabel_29:
        CLR     C
        SUBB    A,#0x4
        JC      ??Smart_home_ProcessEvent_20
        MOV     DPTR,#??counttmp + 1
        LCALL   ??Subroutine24_0 & 0xFFFF
??CrossCallReturnLabel_50:
        MOV     A,#0x3
        MOVX    @DPTR,A
        MOV     DPTR,#??Device_status
        DEC     A
        MOVX    @DPTR,A
??Smart_home_ProcessEvent_20:
        MOV     DPTR,#??Device_status
        MOVX    A,@DPTR
        PUSH    A
        CFI CFA_SP SP+-1
        MOV     DPTR,#??DeviceID
        MOVX    A,@DPTR
        LCALL   ?Subroutine17 & 0xFFFF
??CrossCallReturnLabel_37:
        POP     A
        CFI CFA_SP SP+0
        MOVX    @DPTR,A
        MOV     DPTR,#??DeviceID
        MOVX    A,@DPTR
        INC     A
        MOVX    @DPTR,A
        CLR     C
        SUBB    A,#0x9
        JC      ??Smart_home_ProcessEvent_17
//  404     
//  405     osal_start_timerEx(Smart_home_TaskID,SMART_HOME_DEVICE_CHECK_EVT,
//  406                        DEVICE_CHECK_DELAY);
        ; Setup parameters for call to function osal_start_timerEx
        MOV     R4,#0x10
        MOV     R5,#0x27
        LCALL   ?Subroutine12 & 0xFFFF
//  407     return (events ^ SMART_HOME_DEVICE_CHECK_EVT);
??CrossCallReturnLabel_54:
        MOV     A,R6
        XRL     A,#0x80
??Smart_home_ProcessEvent_21:
        MOV     R2,A
        MOV     A,R7
        LJMP    ??Smart_home_ProcessEvent_15 & 0xFFFF
//  408   }
//  409   
//  410   
//  411   if( events & SMART_HOME_DISPLAY_EVT )
??Smart_home_ProcessEvent_16:
        MOV     A,R6
        ANL     A,#0x10
        JZ      ??Smart_home_ProcessEvent_22
//  412   {
//  413     Smart_home_Display();
        ; Setup parameters for call to function Smart_home_Display
        LCALL   ??Smart_home_Display?relay
//  414     //周期性刷新
//  415     osal_start_timerEx( Smart_home_TaskID,events & SMART_HOME_DISPLAY_EVT,LCD_DISPLAY_TIMER);
        ; Setup parameters for call to function osal_start_timerEx
        MOV     R4,#-0x18
        MOV     R5,#0x3
        MOV     A,R6
        ANL     A,#0x10
        MOV     R2,A
        LCALL   ??Subroutine25_0 & 0xFFFF
//  416     return (events ^ SMART_HOME_DISPLAY_EVT);
??CrossCallReturnLabel_56:
        MOV     A,R6
        XRL     A,#0x10
        SJMP    ??Smart_home_ProcessEvent_21
//  417   }
//  418 
//  419   return ( 0 );  // Discard unknown events.
??Smart_home_ProcessEvent_22:
        MOV     R2,#0x0
        MOV     R3,#0x0
??Smart_home_ProcessEvent_2:
        MOV     R7,#0x6
        LJMP    ?BANKED_LEAVE_XDATA
        CFI EndBlock cfiBlock2
//  420 }

        RSEG BANKED_CODE:CODE:NOROOT(0)
?Subroutine17:
        CFI Block cfiCond3 Using cfiCommon0
        CFI NoFunction
        CFI Conditional ??CrossCallReturnLabel_36
        CFI R6 load(1, XDATA, add(CFA_XSP16, literal(-14)))
        CFI VB load(1, XDATA, add(CFA_XSP16, literal(-13)))
        CFI V0 load(1, XDATA, add(CFA_XSP16, literal(-12)))
        CFI V1 load(1, XDATA, add(CFA_XSP16, literal(-11)))
        CFI V2 load(1, XDATA, add(CFA_XSP16, literal(-10)))
        CFI V3 load(1, XDATA, add(CFA_XSP16, literal(-9)))
        CFI V4 load(1, XDATA, add(CFA_XSP16, literal(-8)))
        CFI V5 load(1, XDATA, add(CFA_XSP16, literal(-7)))
        CFI R7 load(1, XDATA, add(CFA_XSP16, literal(-6)))
        CFI ?RET_LOW load(1, XDATA, add(CFA_XSP16, literal(-5)))
        CFI ?RET_HIGH load(1, XDATA, add(CFA_XSP16, literal(-4)))
        CFI ?BRET_EXT load(1, XDATA, add(CFA_XSP16, literal(-3)))
        CFI DPL0 load(1, XDATA, add(CFA_XSP16, literal(-2)))
        CFI DPH0 load(1, XDATA, add(CFA_XSP16, literal(-1)))
        CFI CFA_SP SP+0
        CFI CFA_XSP16 add(XSP16, 14)
        CFI Block cfiCond4 Using cfiCommon0
        CFI (cfiCond4) NoFunction
        CFI (cfiCond4) Conditional ??CrossCallReturnLabel_37
        CFI (cfiCond4) R6 load(1, XDATA, add(CFA_XSP16, literal(-14)))
        CFI (cfiCond4) VB load(1, XDATA, add(CFA_XSP16, literal(-13)))
        CFI (cfiCond4) V0 load(1, XDATA, add(CFA_XSP16, literal(-12)))
        CFI (cfiCond4) V1 load(1, XDATA, add(CFA_XSP16, literal(-11)))
        CFI (cfiCond4) V2 load(1, XDATA, add(CFA_XSP16, literal(-10)))
        CFI (cfiCond4) V3 load(1, XDATA, add(CFA_XSP16, literal(-9)))
        CFI (cfiCond4) V4 load(1, XDATA, add(CFA_XSP16, literal(-8)))
        CFI (cfiCond4) V5 load(1, XDATA, add(CFA_XSP16, literal(-7)))
        CFI (cfiCond4) R7 load(1, XDATA, add(CFA_XSP16, literal(-6)))
        CFI (cfiCond4) ?RET_LOW load(1, XDATA, add(CFA_XSP16, literal(-5)))
        CFI (cfiCond4) ?RET_HIGH load(1, XDATA, add(CFA_XSP16, literal(-4)))
        CFI (cfiCond4) ?BRET_EXT load(1, XDATA, add(CFA_XSP16, literal(-3)))
        CFI (cfiCond4) DPL0 load(1, XDATA, add(CFA_XSP16, literal(-2)))
        CFI (cfiCond4) DPH0 load(1, XDATA, add(CFA_XSP16, literal(-1)))
        CFI (cfiCond4) CFA_SP SP+-1
        CFI (cfiCond4) CFA_XSP16 add(XSP16, 14)
        CFI Block cfiPicker5 Using cfiCommon1
        CFI (cfiPicker5) NoFunction
        CFI (cfiPicker5) Picker
        MOV     B,#0x7
        MUL     AB
        MOV     R0,A
        MOV     R1,B
        MOV     A,#(DeviceList + 1) & 0xff
        ADD     A,R0
        MOV     DPL,A
        MOV     A,#((DeviceList + 1) >> 8) & 0xff
        ADDC    A,R1
        MOV     DPH,A
        RET
        CFI EndBlock cfiCond3
        CFI EndBlock cfiCond4
        CFI EndBlock cfiPicker5

        RSEG BANKED_CODE:CODE:NOROOT(0)
?Subroutine13:
        CFI Block cfiCond6 Using cfiCommon0
        CFI NoFunction
        CFI Conditional ??CrossCallReturnLabel_28
        CFI R6 load(1, XDATA, add(CFA_XSP16, literal(-14)))
        CFI VB load(1, XDATA, add(CFA_XSP16, literal(-13)))
        CFI V0 load(1, XDATA, add(CFA_XSP16, literal(-12)))
        CFI V1 load(1, XDATA, add(CFA_XSP16, literal(-11)))
        CFI V2 load(1, XDATA, add(CFA_XSP16, literal(-10)))
        CFI V3 load(1, XDATA, add(CFA_XSP16, literal(-9)))
        CFI V4 load(1, XDATA, add(CFA_XSP16, literal(-8)))
        CFI V5 load(1, XDATA, add(CFA_XSP16, literal(-7)))
        CFI R7 load(1, XDATA, add(CFA_XSP16, literal(-6)))
        CFI ?RET_LOW load(1, XDATA, add(CFA_XSP16, literal(-5)))
        CFI ?RET_HIGH load(1, XDATA, add(CFA_XSP16, literal(-4)))
        CFI ?BRET_EXT load(1, XDATA, add(CFA_XSP16, literal(-3)))
        CFI DPL0 load(1, XDATA, add(CFA_XSP16, literal(-2)))
        CFI DPH0 load(1, XDATA, add(CFA_XSP16, literal(-1)))
        CFI CFA_SP SP+0
        CFI CFA_XSP16 add(XSP16, 14)
        CFI Block cfiCond7 Using cfiCommon0
        CFI (cfiCond7) NoFunction
        CFI (cfiCond7) Conditional ??CrossCallReturnLabel_29
        CFI (cfiCond7) R6 load(1, XDATA, add(CFA_XSP16, literal(-14)))
        CFI (cfiCond7) VB load(1, XDATA, add(CFA_XSP16, literal(-13)))
        CFI (cfiCond7) V0 load(1, XDATA, add(CFA_XSP16, literal(-12)))
        CFI (cfiCond7) V1 load(1, XDATA, add(CFA_XSP16, literal(-11)))
        CFI (cfiCond7) V2 load(1, XDATA, add(CFA_XSP16, literal(-10)))
        CFI (cfiCond7) V3 load(1, XDATA, add(CFA_XSP16, literal(-9)))
        CFI (cfiCond7) V4 load(1, XDATA, add(CFA_XSP16, literal(-8)))
        CFI (cfiCond7) V5 load(1, XDATA, add(CFA_XSP16, literal(-7)))
        CFI (cfiCond7) R7 load(1, XDATA, add(CFA_XSP16, literal(-6)))
        CFI (cfiCond7) ?RET_LOW load(1, XDATA, add(CFA_XSP16, literal(-5)))
        CFI (cfiCond7) ?RET_HIGH load(1, XDATA, add(CFA_XSP16, literal(-4)))
        CFI (cfiCond7) ?BRET_EXT load(1, XDATA, add(CFA_XSP16, literal(-3)))
        CFI (cfiCond7) DPL0 load(1, XDATA, add(CFA_XSP16, literal(-2)))
        CFI (cfiCond7) DPH0 load(1, XDATA, add(CFA_XSP16, literal(-1)))
        CFI (cfiCond7) CFA_SP SP+0
        CFI (cfiCond7) CFA_XSP16 add(XSP16, 14)
        CFI Block cfiPicker8 Using cfiCommon1
        CFI (cfiPicker8) NoFunction
        CFI (cfiPicker8) Picker
        LCALL   ?Subroutine22 & 0xFFFF
??CrossCallReturnLabel_52:
        MOVX    A,@DPTR
        RET
        CFI EndBlock cfiCond6
        CFI EndBlock cfiCond7
        CFI EndBlock cfiPicker8

        RSEG BANKED_CODE:CODE:NOROOT(0)
?Subroutine22:
        CFI Block cfiCond9 Using cfiCommon0
        CFI NoFunction
        CFI Conditional ??CrossCallReturnLabel_52, ??CrossCallReturnLabel_28
        CFI R6 load(1, XDATA, add(CFA_XSP16, literal(-14)))
        CFI VB load(1, XDATA, add(CFA_XSP16, literal(-13)))
        CFI V0 load(1, XDATA, add(CFA_XSP16, literal(-12)))
        CFI V1 load(1, XDATA, add(CFA_XSP16, literal(-11)))
        CFI V2 load(1, XDATA, add(CFA_XSP16, literal(-10)))
        CFI V3 load(1, XDATA, add(CFA_XSP16, literal(-9)))
        CFI V4 load(1, XDATA, add(CFA_XSP16, literal(-8)))
        CFI V5 load(1, XDATA, add(CFA_XSP16, literal(-7)))
        CFI R7 load(1, XDATA, add(CFA_XSP16, literal(-6)))
        CFI ?RET_LOW load(1, XDATA, add(CFA_XSP16, literal(-5)))
        CFI ?RET_HIGH load(1, XDATA, add(CFA_XSP16, literal(-4)))
        CFI ?BRET_EXT load(1, XDATA, add(CFA_XSP16, literal(-3)))
        CFI DPL0 load(1, XDATA, add(CFA_XSP16, literal(-2)))
        CFI DPH0 load(1, XDATA, add(CFA_XSP16, literal(-1)))
        CFI CFA_SP SP+0
        CFI CFA_XSP16 add(XSP16, 14)
        CFI Block cfiCond10 Using cfiCommon0
        CFI (cfiCond10) NoFunction
        CFI (cfiCond10) Conditional ??CrossCallReturnLabel_52, ??CrossCallReturnLabel_29
        CFI (cfiCond10) R6 load(1, XDATA, add(CFA_XSP16, literal(-14)))
        CFI (cfiCond10) VB load(1, XDATA, add(CFA_XSP16, literal(-13)))
        CFI (cfiCond10) V0 load(1, XDATA, add(CFA_XSP16, literal(-12)))
        CFI (cfiCond10) V1 load(1, XDATA, add(CFA_XSP16, literal(-11)))
        CFI (cfiCond10) V2 load(1, XDATA, add(CFA_XSP16, literal(-10)))
        CFI (cfiCond10) V3 load(1, XDATA, add(CFA_XSP16, literal(-9)))
        CFI (cfiCond10) V4 load(1, XDATA, add(CFA_XSP16, literal(-8)))
        CFI (cfiCond10) V5 load(1, XDATA, add(CFA_XSP16, literal(-7)))
        CFI (cfiCond10) R7 load(1, XDATA, add(CFA_XSP16, literal(-6)))
        CFI (cfiCond10) ?RET_LOW load(1, XDATA, add(CFA_XSP16, literal(-5)))
        CFI (cfiCond10) ?RET_HIGH load(1, XDATA, add(CFA_XSP16, literal(-4)))
        CFI (cfiCond10) ?BRET_EXT load(1, XDATA, add(CFA_XSP16, literal(-3)))
        CFI (cfiCond10) DPL0 load(1, XDATA, add(CFA_XSP16, literal(-2)))
        CFI (cfiCond10) DPH0 load(1, XDATA, add(CFA_XSP16, literal(-1)))
        CFI (cfiCond10) CFA_SP SP+0
        CFI (cfiCond10) CFA_XSP16 add(XSP16, 14)
        CFI Block cfiCond11 Using cfiCommon0
        CFI (cfiCond11) NoFunction
        CFI (cfiCond11) Conditional ??CrossCallReturnLabel_51, ??CrossCallReturnLabel_4
        CFI (cfiCond11) R6 load(1, XDATA, add(CFA_XSP16, literal(-10)))
        CFI (cfiCond11) VB load(1, XDATA, add(CFA_XSP16, literal(-9)))
        CFI (cfiCond11) V0 load(1, XDATA, add(CFA_XSP16, literal(-8)))
        CFI (cfiCond11) V1 load(1, XDATA, add(CFA_XSP16, literal(-7)))
        CFI (cfiCond11) R7 load(1, XDATA, add(CFA_XSP16, literal(-6)))
        CFI (cfiCond11) ?RET_LOW load(1, XDATA, add(CFA_XSP16, literal(-5)))
        CFI (cfiCond11) ?RET_HIGH load(1, XDATA, add(CFA_XSP16, literal(-4)))
        CFI (cfiCond11) ?BRET_EXT load(1, XDATA, add(CFA_XSP16, literal(-3)))
        CFI (cfiCond11) DPL0 load(1, XDATA, add(CFA_XSP16, literal(-2)))
        CFI (cfiCond11) DPH0 load(1, XDATA, add(CFA_XSP16, literal(-1)))
        CFI (cfiCond11) CFA_SP SP+0
        CFI (cfiCond11) CFA_XSP16 add(XSP16, 10)
        CFI Block cfiCond12 Using cfiCommon0
        CFI (cfiCond12) NoFunction
        CFI (cfiCond12) Conditional ??CrossCallReturnLabel_51, ??CrossCallReturnLabel_5
        CFI (cfiCond12) R6 load(1, XDATA, add(CFA_XSP16, literal(-10)))
        CFI (cfiCond12) VB load(1, XDATA, add(CFA_XSP16, literal(-9)))
        CFI (cfiCond12) V0 load(1, XDATA, add(CFA_XSP16, literal(-8)))
        CFI (cfiCond12) V1 load(1, XDATA, add(CFA_XSP16, literal(-7)))
        CFI (cfiCond12) R7 load(1, XDATA, add(CFA_XSP16, literal(-6)))
        CFI (cfiCond12) ?RET_LOW load(1, XDATA, add(CFA_XSP16, literal(-5)))
        CFI (cfiCond12) ?RET_HIGH load(1, XDATA, add(CFA_XSP16, literal(-4)))
        CFI (cfiCond12) ?BRET_EXT load(1, XDATA, add(CFA_XSP16, literal(-3)))
        CFI (cfiCond12) DPL0 load(1, XDATA, add(CFA_XSP16, literal(-2)))
        CFI (cfiCond12) DPH0 load(1, XDATA, add(CFA_XSP16, literal(-1)))
        CFI (cfiCond12) CFA_SP SP+0
        CFI (cfiCond12) CFA_XSP16 add(XSP16, 10)
        CFI Block cfiCond13 Using cfiCommon0
        CFI (cfiCond13) NoFunction
        CFI (cfiCond13) Conditional ??CrossCallReturnLabel_51, ??CrossCallReturnLabel_6
        CFI (cfiCond13) R6 load(1, XDATA, add(CFA_XSP16, literal(-10)))
        CFI (cfiCond13) VB load(1, XDATA, add(CFA_XSP16, literal(-9)))
        CFI (cfiCond13) V0 load(1, XDATA, add(CFA_XSP16, literal(-8)))
        CFI (cfiCond13) V1 load(1, XDATA, add(CFA_XSP16, literal(-7)))
        CFI (cfiCond13) R7 load(1, XDATA, add(CFA_XSP16, literal(-6)))
        CFI (cfiCond13) ?RET_LOW load(1, XDATA, add(CFA_XSP16, literal(-5)))
        CFI (cfiCond13) ?RET_HIGH load(1, XDATA, add(CFA_XSP16, literal(-4)))
        CFI (cfiCond13) ?BRET_EXT load(1, XDATA, add(CFA_XSP16, literal(-3)))
        CFI (cfiCond13) DPL0 load(1, XDATA, add(CFA_XSP16, literal(-2)))
        CFI (cfiCond13) DPH0 load(1, XDATA, add(CFA_XSP16, literal(-1)))
        CFI (cfiCond13) CFA_SP SP+0
        CFI (cfiCond13) CFA_XSP16 add(XSP16, 10)
        CFI Block cfiCond14 Using cfiCommon0
        CFI (cfiCond14) NoFunction
        CFI (cfiCond14) Conditional ??CrossCallReturnLabel_51, ??CrossCallReturnLabel_7
        CFI (cfiCond14) R6 load(1, XDATA, add(CFA_XSP16, literal(-10)))
        CFI (cfiCond14) VB load(1, XDATA, add(CFA_XSP16, literal(-9)))
        CFI (cfiCond14) V0 load(1, XDATA, add(CFA_XSP16, literal(-8)))
        CFI (cfiCond14) V1 load(1, XDATA, add(CFA_XSP16, literal(-7)))
        CFI (cfiCond14) R7 load(1, XDATA, add(CFA_XSP16, literal(-6)))
        CFI (cfiCond14) ?RET_LOW load(1, XDATA, add(CFA_XSP16, literal(-5)))
        CFI (cfiCond14) ?RET_HIGH load(1, XDATA, add(CFA_XSP16, literal(-4)))
        CFI (cfiCond14) ?BRET_EXT load(1, XDATA, add(CFA_XSP16, literal(-3)))
        CFI (cfiCond14) DPL0 load(1, XDATA, add(CFA_XSP16, literal(-2)))
        CFI (cfiCond14) DPH0 load(1, XDATA, add(CFA_XSP16, literal(-1)))
        CFI (cfiCond14) CFA_SP SP+0
        CFI (cfiCond14) CFA_XSP16 add(XSP16, 10)
        CFI Block cfiPicker15 Using cfiCommon1
        CFI (cfiPicker15) NoFunction
        CFI (cfiPicker15) Picker
        MOVX    A,@DPTR
        MOV     R0,A
        INC     DPTR
        CFI EndBlock cfiCond9
        CFI EndBlock cfiCond10
        CFI EndBlock cfiCond11
        CFI EndBlock cfiCond12
        CFI EndBlock cfiCond13
        CFI EndBlock cfiCond14
        CFI EndBlock cfiPicker15
        REQUIRE ??Subroutine24_0
        ; // Fall through to label ??Subroutine24_0

        RSEG BANKED_CODE:CODE:NOROOT(0)
??Subroutine24_0:
        CFI Block cfiCond16 Using cfiCommon0
        CFI NoFunction
        CFI Conditional ??CrossCallReturnLabel_48
        CFI R6 load(1, XDATA, add(CFA_XSP16, literal(-14)))
        CFI VB load(1, XDATA, add(CFA_XSP16, literal(-13)))
        CFI V0 load(1, XDATA, add(CFA_XSP16, literal(-12)))
        CFI V1 load(1, XDATA, add(CFA_XSP16, literal(-11)))
        CFI V2 load(1, XDATA, add(CFA_XSP16, literal(-10)))
        CFI V3 load(1, XDATA, add(CFA_XSP16, literal(-9)))
        CFI V4 load(1, XDATA, add(CFA_XSP16, literal(-8)))
        CFI V5 load(1, XDATA, add(CFA_XSP16, literal(-7)))
        CFI R7 load(1, XDATA, add(CFA_XSP16, literal(-6)))
        CFI ?RET_LOW load(1, XDATA, add(CFA_XSP16, literal(-5)))
        CFI ?RET_HIGH load(1, XDATA, add(CFA_XSP16, literal(-4)))
        CFI ?BRET_EXT load(1, XDATA, add(CFA_XSP16, literal(-3)))
        CFI DPL0 load(1, XDATA, add(CFA_XSP16, literal(-2)))
        CFI DPH0 load(1, XDATA, add(CFA_XSP16, literal(-1)))
        CFI CFA_SP SP+0
        CFI CFA_XSP16 add(XSP16, 14)
        CFI Block cfiCond17 Using cfiCommon0
        CFI (cfiCond17) NoFunction
        CFI (cfiCond17) Conditional ??CrossCallReturnLabel_49
        CFI (cfiCond17) R6 load(1, XDATA, add(CFA_XSP16, literal(-14)))
        CFI (cfiCond17) VB load(1, XDATA, add(CFA_XSP16, literal(-13)))
        CFI (cfiCond17) V0 load(1, XDATA, add(CFA_XSP16, literal(-12)))
        CFI (cfiCond17) V1 load(1, XDATA, add(CFA_XSP16, literal(-11)))
        CFI (cfiCond17) V2 load(1, XDATA, add(CFA_XSP16, literal(-10)))
        CFI (cfiCond17) V3 load(1, XDATA, add(CFA_XSP16, literal(-9)))
        CFI (cfiCond17) V4 load(1, XDATA, add(CFA_XSP16, literal(-8)))
        CFI (cfiCond17) V5 load(1, XDATA, add(CFA_XSP16, literal(-7)))
        CFI (cfiCond17) R7 load(1, XDATA, add(CFA_XSP16, literal(-6)))
        CFI (cfiCond17) ?RET_LOW load(1, XDATA, add(CFA_XSP16, literal(-5)))
        CFI (cfiCond17) ?RET_HIGH load(1, XDATA, add(CFA_XSP16, literal(-4)))
        CFI (cfiCond17) ?BRET_EXT load(1, XDATA, add(CFA_XSP16, literal(-3)))
        CFI (cfiCond17) DPL0 load(1, XDATA, add(CFA_XSP16, literal(-2)))
        CFI (cfiCond17) DPH0 load(1, XDATA, add(CFA_XSP16, literal(-1)))
        CFI (cfiCond17) CFA_SP SP+0
        CFI (cfiCond17) CFA_XSP16 add(XSP16, 14)
        CFI Block cfiCond18 Using cfiCommon0
        CFI (cfiCond18) NoFunction
        CFI (cfiCond18) Conditional ??CrossCallReturnLabel_50
        CFI (cfiCond18) R6 load(1, XDATA, add(CFA_XSP16, literal(-14)))
        CFI (cfiCond18) VB load(1, XDATA, add(CFA_XSP16, literal(-13)))
        CFI (cfiCond18) V0 load(1, XDATA, add(CFA_XSP16, literal(-12)))
        CFI (cfiCond18) V1 load(1, XDATA, add(CFA_XSP16, literal(-11)))
        CFI (cfiCond18) V2 load(1, XDATA, add(CFA_XSP16, literal(-10)))
        CFI (cfiCond18) V3 load(1, XDATA, add(CFA_XSP16, literal(-9)))
        CFI (cfiCond18) V4 load(1, XDATA, add(CFA_XSP16, literal(-8)))
        CFI (cfiCond18) V5 load(1, XDATA, add(CFA_XSP16, literal(-7)))
        CFI (cfiCond18) R7 load(1, XDATA, add(CFA_XSP16, literal(-6)))
        CFI (cfiCond18) ?RET_LOW load(1, XDATA, add(CFA_XSP16, literal(-5)))
        CFI (cfiCond18) ?RET_HIGH load(1, XDATA, add(CFA_XSP16, literal(-4)))
        CFI (cfiCond18) ?BRET_EXT load(1, XDATA, add(CFA_XSP16, literal(-3)))
        CFI (cfiCond18) DPL0 load(1, XDATA, add(CFA_XSP16, literal(-2)))
        CFI (cfiCond18) DPH0 load(1, XDATA, add(CFA_XSP16, literal(-1)))
        CFI (cfiCond18) CFA_SP SP+0
        CFI (cfiCond18) CFA_XSP16 add(XSP16, 14)
        CFI Block cfiCond19 Using cfiCommon0
        CFI (cfiCond19) NoFunction
        CFI (cfiCond19) Conditional ??CrossCallReturnLabel_52, ??CrossCallReturnLabel_28
        CFI (cfiCond19) R6 load(1, XDATA, add(CFA_XSP16, literal(-14)))
        CFI (cfiCond19) VB load(1, XDATA, add(CFA_XSP16, literal(-13)))
        CFI (cfiCond19) V0 load(1, XDATA, add(CFA_XSP16, literal(-12)))
        CFI (cfiCond19) V1 load(1, XDATA, add(CFA_XSP16, literal(-11)))
        CFI (cfiCond19) V2 load(1, XDATA, add(CFA_XSP16, literal(-10)))
        CFI (cfiCond19) V3 load(1, XDATA, add(CFA_XSP16, literal(-9)))
        CFI (cfiCond19) V4 load(1, XDATA, add(CFA_XSP16, literal(-8)))
        CFI (cfiCond19) V5 load(1, XDATA, add(CFA_XSP16, literal(-7)))
        CFI (cfiCond19) R7 load(1, XDATA, add(CFA_XSP16, literal(-6)))
        CFI (cfiCond19) ?RET_LOW load(1, XDATA, add(CFA_XSP16, literal(-5)))
        CFI (cfiCond19) ?RET_HIGH load(1, XDATA, add(CFA_XSP16, literal(-4)))
        CFI (cfiCond19) ?BRET_EXT load(1, XDATA, add(CFA_XSP16, literal(-3)))
        CFI (cfiCond19) DPL0 load(1, XDATA, add(CFA_XSP16, literal(-2)))
        CFI (cfiCond19) DPH0 load(1, XDATA, add(CFA_XSP16, literal(-1)))
        CFI (cfiCond19) CFA_SP SP+0
        CFI (cfiCond19) CFA_XSP16 add(XSP16, 14)
        CFI Block cfiCond20 Using cfiCommon0
        CFI (cfiCond20) NoFunction
        CFI (cfiCond20) Conditional ??CrossCallReturnLabel_52, ??CrossCallReturnLabel_29
        CFI (cfiCond20) R6 load(1, XDATA, add(CFA_XSP16, literal(-14)))
        CFI (cfiCond20) VB load(1, XDATA, add(CFA_XSP16, literal(-13)))
        CFI (cfiCond20) V0 load(1, XDATA, add(CFA_XSP16, literal(-12)))
        CFI (cfiCond20) V1 load(1, XDATA, add(CFA_XSP16, literal(-11)))
        CFI (cfiCond20) V2 load(1, XDATA, add(CFA_XSP16, literal(-10)))
        CFI (cfiCond20) V3 load(1, XDATA, add(CFA_XSP16, literal(-9)))
        CFI (cfiCond20) V4 load(1, XDATA, add(CFA_XSP16, literal(-8)))
        CFI (cfiCond20) V5 load(1, XDATA, add(CFA_XSP16, literal(-7)))
        CFI (cfiCond20) R7 load(1, XDATA, add(CFA_XSP16, literal(-6)))
        CFI (cfiCond20) ?RET_LOW load(1, XDATA, add(CFA_XSP16, literal(-5)))
        CFI (cfiCond20) ?RET_HIGH load(1, XDATA, add(CFA_XSP16, literal(-4)))
        CFI (cfiCond20) ?BRET_EXT load(1, XDATA, add(CFA_XSP16, literal(-3)))
        CFI (cfiCond20) DPL0 load(1, XDATA, add(CFA_XSP16, literal(-2)))
        CFI (cfiCond20) DPH0 load(1, XDATA, add(CFA_XSP16, literal(-1)))
        CFI (cfiCond20) CFA_SP SP+0
        CFI (cfiCond20) CFA_XSP16 add(XSP16, 14)
        CFI Block cfiCond21 Using cfiCommon0
        CFI (cfiCond21) NoFunction
        CFI (cfiCond21) Conditional ??CrossCallReturnLabel_51, ??CrossCallReturnLabel_4
        CFI (cfiCond21) R6 load(1, XDATA, add(CFA_XSP16, literal(-10)))
        CFI (cfiCond21) VB load(1, XDATA, add(CFA_XSP16, literal(-9)))
        CFI (cfiCond21) V0 load(1, XDATA, add(CFA_XSP16, literal(-8)))
        CFI (cfiCond21) V1 load(1, XDATA, add(CFA_XSP16, literal(-7)))
        CFI (cfiCond21) R7 load(1, XDATA, add(CFA_XSP16, literal(-6)))
        CFI (cfiCond21) ?RET_LOW load(1, XDATA, add(CFA_XSP16, literal(-5)))
        CFI (cfiCond21) ?RET_HIGH load(1, XDATA, add(CFA_XSP16, literal(-4)))
        CFI (cfiCond21) ?BRET_EXT load(1, XDATA, add(CFA_XSP16, literal(-3)))
        CFI (cfiCond21) DPL0 load(1, XDATA, add(CFA_XSP16, literal(-2)))
        CFI (cfiCond21) DPH0 load(1, XDATA, add(CFA_XSP16, literal(-1)))
        CFI (cfiCond21) CFA_SP SP+0
        CFI (cfiCond21) CFA_XSP16 add(XSP16, 10)
        CFI Block cfiCond22 Using cfiCommon0
        CFI (cfiCond22) NoFunction
        CFI (cfiCond22) Conditional ??CrossCallReturnLabel_51, ??CrossCallReturnLabel_5
        CFI (cfiCond22) R6 load(1, XDATA, add(CFA_XSP16, literal(-10)))
        CFI (cfiCond22) VB load(1, XDATA, add(CFA_XSP16, literal(-9)))
        CFI (cfiCond22) V0 load(1, XDATA, add(CFA_XSP16, literal(-8)))
        CFI (cfiCond22) V1 load(1, XDATA, add(CFA_XSP16, literal(-7)))
        CFI (cfiCond22) R7 load(1, XDATA, add(CFA_XSP16, literal(-6)))
        CFI (cfiCond22) ?RET_LOW load(1, XDATA, add(CFA_XSP16, literal(-5)))
        CFI (cfiCond22) ?RET_HIGH load(1, XDATA, add(CFA_XSP16, literal(-4)))
        CFI (cfiCond22) ?BRET_EXT load(1, XDATA, add(CFA_XSP16, literal(-3)))
        CFI (cfiCond22) DPL0 load(1, XDATA, add(CFA_XSP16, literal(-2)))
        CFI (cfiCond22) DPH0 load(1, XDATA, add(CFA_XSP16, literal(-1)))
        CFI (cfiCond22) CFA_SP SP+0
        CFI (cfiCond22) CFA_XSP16 add(XSP16, 10)
        CFI Block cfiCond23 Using cfiCommon0
        CFI (cfiCond23) NoFunction
        CFI (cfiCond23) Conditional ??CrossCallReturnLabel_51, ??CrossCallReturnLabel_6
        CFI (cfiCond23) R6 load(1, XDATA, add(CFA_XSP16, literal(-10)))
        CFI (cfiCond23) VB load(1, XDATA, add(CFA_XSP16, literal(-9)))
        CFI (cfiCond23) V0 load(1, XDATA, add(CFA_XSP16, literal(-8)))
        CFI (cfiCond23) V1 load(1, XDATA, add(CFA_XSP16, literal(-7)))
        CFI (cfiCond23) R7 load(1, XDATA, add(CFA_XSP16, literal(-6)))
        CFI (cfiCond23) ?RET_LOW load(1, XDATA, add(CFA_XSP16, literal(-5)))
        CFI (cfiCond23) ?RET_HIGH load(1, XDATA, add(CFA_XSP16, literal(-4)))
        CFI (cfiCond23) ?BRET_EXT load(1, XDATA, add(CFA_XSP16, literal(-3)))
        CFI (cfiCond23) DPL0 load(1, XDATA, add(CFA_XSP16, literal(-2)))
        CFI (cfiCond23) DPH0 load(1, XDATA, add(CFA_XSP16, literal(-1)))
        CFI (cfiCond23) CFA_SP SP+0
        CFI (cfiCond23) CFA_XSP16 add(XSP16, 10)
        CFI Block cfiCond24 Using cfiCommon0
        CFI (cfiCond24) NoFunction
        CFI (cfiCond24) Conditional ??CrossCallReturnLabel_51, ??CrossCallReturnLabel_7
        CFI (cfiCond24) R6 load(1, XDATA, add(CFA_XSP16, literal(-10)))
        CFI (cfiCond24) VB load(1, XDATA, add(CFA_XSP16, literal(-9)))
        CFI (cfiCond24) V0 load(1, XDATA, add(CFA_XSP16, literal(-8)))
        CFI (cfiCond24) V1 load(1, XDATA, add(CFA_XSP16, literal(-7)))
        CFI (cfiCond24) R7 load(1, XDATA, add(CFA_XSP16, literal(-6)))
        CFI (cfiCond24) ?RET_LOW load(1, XDATA, add(CFA_XSP16, literal(-5)))
        CFI (cfiCond24) ?RET_HIGH load(1, XDATA, add(CFA_XSP16, literal(-4)))
        CFI (cfiCond24) ?BRET_EXT load(1, XDATA, add(CFA_XSP16, literal(-3)))
        CFI (cfiCond24) DPL0 load(1, XDATA, add(CFA_XSP16, literal(-2)))
        CFI (cfiCond24) DPH0 load(1, XDATA, add(CFA_XSP16, literal(-1)))
        CFI (cfiCond24) CFA_SP SP+0
        CFI (cfiCond24) CFA_XSP16 add(XSP16, 10)
        CFI Block cfiPicker25 Using cfiCommon1
        CFI (cfiPicker25) NoFunction
        CFI (cfiPicker25) Picker
        MOVX    A,@DPTR
        MOV     DPH,A
        MOV     DPL,R0
        RET
        CFI EndBlock cfiCond16
        CFI EndBlock cfiCond17
        CFI EndBlock cfiCond18
        CFI EndBlock cfiCond19
        CFI EndBlock cfiCond20
        CFI EndBlock cfiCond21
        CFI EndBlock cfiCond22
        CFI EndBlock cfiCond23
        CFI EndBlock cfiCond24
        CFI EndBlock cfiPicker25

        RSEG BANKED_CODE:CODE:NOROOT(0)
?Subroutine12:
        CFI Block cfiCond26 Using cfiCommon0
        CFI NoFunction
        CFI Conditional ??CrossCallReturnLabel_53
        CFI R6 load(1, XDATA, add(CFA_XSP16, literal(-9)))
        CFI VB load(1, XDATA, add(CFA_XSP16, literal(-8)))
        CFI V0 load(1, XDATA, add(CFA_XSP16, literal(-7)))
        CFI R7 load(1, XDATA, add(CFA_XSP16, literal(-6)))
        CFI ?RET_LOW load(1, XDATA, add(CFA_XSP16, literal(-5)))
        CFI ?RET_HIGH load(1, XDATA, add(CFA_XSP16, literal(-4)))
        CFI ?BRET_EXT load(1, XDATA, add(CFA_XSP16, literal(-3)))
        CFI DPL0 load(1, XDATA, add(CFA_XSP16, literal(-2)))
        CFI DPH0 load(1, XDATA, add(CFA_XSP16, literal(-1)))
        CFI CFA_SP SP+0
        CFI CFA_XSP16 add(XSP16, 38)
        CFI Block cfiCond27 Using cfiCommon0
        CFI (cfiCond27) NoFunction
        CFI (cfiCond27) Conditional ??CrossCallReturnLabel_54
        CFI (cfiCond27) R6 load(1, XDATA, add(CFA_XSP16, literal(-14)))
        CFI (cfiCond27) VB load(1, XDATA, add(CFA_XSP16, literal(-13)))
        CFI (cfiCond27) V0 load(1, XDATA, add(CFA_XSP16, literal(-12)))
        CFI (cfiCond27) V1 load(1, XDATA, add(CFA_XSP16, literal(-11)))
        CFI (cfiCond27) V2 load(1, XDATA, add(CFA_XSP16, literal(-10)))
        CFI (cfiCond27) V3 load(1, XDATA, add(CFA_XSP16, literal(-9)))
        CFI (cfiCond27) V4 load(1, XDATA, add(CFA_XSP16, literal(-8)))
        CFI (cfiCond27) V5 load(1, XDATA, add(CFA_XSP16, literal(-7)))
        CFI (cfiCond27) R7 load(1, XDATA, add(CFA_XSP16, literal(-6)))
        CFI (cfiCond27) ?RET_LOW load(1, XDATA, add(CFA_XSP16, literal(-5)))
        CFI (cfiCond27) ?RET_HIGH load(1, XDATA, add(CFA_XSP16, literal(-4)))
        CFI (cfiCond27) ?BRET_EXT load(1, XDATA, add(CFA_XSP16, literal(-3)))
        CFI (cfiCond27) DPL0 load(1, XDATA, add(CFA_XSP16, literal(-2)))
        CFI (cfiCond27) DPH0 load(1, XDATA, add(CFA_XSP16, literal(-1)))
        CFI (cfiCond27) CFA_SP SP+0
        CFI (cfiCond27) CFA_XSP16 add(XSP16, 14)
        CFI Block cfiPicker28 Using cfiCommon1
        CFI (cfiPicker28) NoFunction
        CFI (cfiPicker28) Picker
        MOV     R2,#-0x80
        CFI EndBlock cfiCond26
        CFI EndBlock cfiCond27
        CFI EndBlock cfiPicker28
        REQUIRE ??Subroutine25_0
        ; // Fall through to label ??Subroutine25_0

        RSEG BANKED_CODE:CODE:NOROOT(0)
??Subroutine25_0:
        CFI Block cfiCond29 Using cfiCommon0
        CFI NoFunction
        CFI Conditional ??CrossCallReturnLabel_55
        CFI R6 load(1, XDATA, add(CFA_XSP16, literal(-9)))
        CFI VB load(1, XDATA, add(CFA_XSP16, literal(-8)))
        CFI V0 load(1, XDATA, add(CFA_XSP16, literal(-7)))
        CFI R7 load(1, XDATA, add(CFA_XSP16, literal(-6)))
        CFI ?RET_LOW load(1, XDATA, add(CFA_XSP16, literal(-5)))
        CFI ?RET_HIGH load(1, XDATA, add(CFA_XSP16, literal(-4)))
        CFI ?BRET_EXT load(1, XDATA, add(CFA_XSP16, literal(-3)))
        CFI DPL0 load(1, XDATA, add(CFA_XSP16, literal(-2)))
        CFI DPH0 load(1, XDATA, add(CFA_XSP16, literal(-1)))
        CFI CFA_SP SP+0
        CFI CFA_XSP16 add(XSP16, 38)
        CFI Block cfiCond30 Using cfiCommon0
        CFI (cfiCond30) NoFunction
        CFI (cfiCond30) Conditional ??CrossCallReturnLabel_56
        CFI (cfiCond30) R6 load(1, XDATA, add(CFA_XSP16, literal(-14)))
        CFI (cfiCond30) VB load(1, XDATA, add(CFA_XSP16, literal(-13)))
        CFI (cfiCond30) V0 load(1, XDATA, add(CFA_XSP16, literal(-12)))
        CFI (cfiCond30) V1 load(1, XDATA, add(CFA_XSP16, literal(-11)))
        CFI (cfiCond30) V2 load(1, XDATA, add(CFA_XSP16, literal(-10)))
        CFI (cfiCond30) V3 load(1, XDATA, add(CFA_XSP16, literal(-9)))
        CFI (cfiCond30) V4 load(1, XDATA, add(CFA_XSP16, literal(-8)))
        CFI (cfiCond30) V5 load(1, XDATA, add(CFA_XSP16, literal(-7)))
        CFI (cfiCond30) R7 load(1, XDATA, add(CFA_XSP16, literal(-6)))
        CFI (cfiCond30) ?RET_LOW load(1, XDATA, add(CFA_XSP16, literal(-5)))
        CFI (cfiCond30) ?RET_HIGH load(1, XDATA, add(CFA_XSP16, literal(-4)))
        CFI (cfiCond30) ?BRET_EXT load(1, XDATA, add(CFA_XSP16, literal(-3)))
        CFI (cfiCond30) DPL0 load(1, XDATA, add(CFA_XSP16, literal(-2)))
        CFI (cfiCond30) DPH0 load(1, XDATA, add(CFA_XSP16, literal(-1)))
        CFI (cfiCond30) CFA_SP SP+0
        CFI (cfiCond30) CFA_XSP16 add(XSP16, 14)
        CFI Block cfiCond31 Using cfiCommon0
        CFI (cfiCond31) NoFunction
        CFI (cfiCond31) Conditional ??CrossCallReturnLabel_53
        CFI (cfiCond31) R6 load(1, XDATA, add(CFA_XSP16, literal(-9)))
        CFI (cfiCond31) VB load(1, XDATA, add(CFA_XSP16, literal(-8)))
        CFI (cfiCond31) V0 load(1, XDATA, add(CFA_XSP16, literal(-7)))
        CFI (cfiCond31) R7 load(1, XDATA, add(CFA_XSP16, literal(-6)))
        CFI (cfiCond31) ?RET_LOW load(1, XDATA, add(CFA_XSP16, literal(-5)))
        CFI (cfiCond31) ?RET_HIGH load(1, XDATA, add(CFA_XSP16, literal(-4)))
        CFI (cfiCond31) ?BRET_EXT load(1, XDATA, add(CFA_XSP16, literal(-3)))
        CFI (cfiCond31) DPL0 load(1, XDATA, add(CFA_XSP16, literal(-2)))
        CFI (cfiCond31) DPH0 load(1, XDATA, add(CFA_XSP16, literal(-1)))
        CFI (cfiCond31) CFA_SP SP+0
        CFI (cfiCond31) CFA_XSP16 add(XSP16, 38)
        CFI Block cfiCond32 Using cfiCommon0
        CFI (cfiCond32) NoFunction
        CFI (cfiCond32) Conditional ??CrossCallReturnLabel_54
        CFI (cfiCond32) R6 load(1, XDATA, add(CFA_XSP16, literal(-14)))
        CFI (cfiCond32) VB load(1, XDATA, add(CFA_XSP16, literal(-13)))
        CFI (cfiCond32) V0 load(1, XDATA, add(CFA_XSP16, literal(-12)))
        CFI (cfiCond32) V1 load(1, XDATA, add(CFA_XSP16, literal(-11)))
        CFI (cfiCond32) V2 load(1, XDATA, add(CFA_XSP16, literal(-10)))
        CFI (cfiCond32) V3 load(1, XDATA, add(CFA_XSP16, literal(-9)))
        CFI (cfiCond32) V4 load(1, XDATA, add(CFA_XSP16, literal(-8)))
        CFI (cfiCond32) V5 load(1, XDATA, add(CFA_XSP16, literal(-7)))
        CFI (cfiCond32) R7 load(1, XDATA, add(CFA_XSP16, literal(-6)))
        CFI (cfiCond32) ?RET_LOW load(1, XDATA, add(CFA_XSP16, literal(-5)))
        CFI (cfiCond32) ?RET_HIGH load(1, XDATA, add(CFA_XSP16, literal(-4)))
        CFI (cfiCond32) ?BRET_EXT load(1, XDATA, add(CFA_XSP16, literal(-3)))
        CFI (cfiCond32) DPL0 load(1, XDATA, add(CFA_XSP16, literal(-2)))
        CFI (cfiCond32) DPH0 load(1, XDATA, add(CFA_XSP16, literal(-1)))
        CFI (cfiCond32) CFA_SP SP+0
        CFI (cfiCond32) CFA_XSP16 add(XSP16, 14)
        CFI Block cfiPicker33 Using cfiCommon1
        CFI (cfiPicker33) NoFunction
        CFI (cfiPicker33) Picker
        MOV     R3,#0x0
        MOV     DPTR,#Smart_home_TaskID
        MOVX    A,@DPTR
        MOV     R1,A
        LCALL   ??osal_start_timerEx?relay
        RET
        CFI EndBlock cfiCond29
        CFI EndBlock cfiCond30
        CFI EndBlock cfiCond31
        CFI EndBlock cfiCond32
        CFI EndBlock cfiPicker33
//  421 
//  422 /*********************************************************************
//  423  * @fn      Smart_home_ProcessZDOMsgs()
//  424  *
//  425  * @brief   Process response messages
//  426  *
//  427  * @param   none
//  428  *
//  429  * @return  none
//  430  */
//  431 static void Smart_home_ProcessZDOMsgs( zdoIncomingMsg_t *inMsg )
//  432 {
//  433   switch ( inMsg->clusterID )
//  434   {
//  435     case End_Device_Bind_rsp:
//  436       if ( ZDO_ParseBindRsp( inMsg ) == ZSuccess )
//  437       {
//  438         // Light LED
//  439         HalLedSet( HAL_LED_4, HAL_LED_MODE_ON );
//  440       }
//  441 #if defined(BLINK_LEDS)
//  442       else
//  443       {
//  444         // Flash LED to show failure
//  445         HalLedSet ( HAL_LED_4, HAL_LED_MODE_FLASH );
//  446       }
//  447 #endif
//  448       break;
//  449       
//  450     case Match_Desc_rsp:
//  451       {
//  452         ZDO_ActiveEndpointRsp_t *pRsp = ZDO_ParseEPListRsp( inMsg );
//  453         if ( pRsp )
//  454         {
//  455           if ( pRsp->status == ZSuccess && pRsp->cnt )
//  456           {
//  457             /*
//  458             Smart_home_TxAddr.addrMode = (afAddrMode_t)Addr16Bit;
//  459             Smart_home_TxAddr.addr.shortAddr = pRsp->nwkAddr;
//  460             // Take the first endpoint, Can be changed to search through endpoints
//  461             Smart_home_TxAddr.endPoint = pRsp->epList[0];
//  462             */
//  463             
//  464             // Light LED
//  465             HalLedSet( HAL_LED_4, HAL_LED_MODE_ON );
//  466           }
//  467           osal_mem_free( pRsp );
//  468         }
//  469       }
//  470       break;
//  471   }
//  472 }
//  473 
//  474 /*********************************************************************
//  475  * @fn      Smart_home_Key_add
//  476  *
//  477  * @brief   3.21新增，用来标识目前处于的控制状态，是附加项
//  478  *          0 控制屏幕 1 控制继电器 2 控制电机
//  479  *            
//  480  *
//  481  * @param   Ctrlcase 目前的控制号
//  482  *
//  483  * @return  屏幕回显
//  484  *
//  485 static void Smart_home_Key_add(uint8 Ctrlcase)
//  486 {
//  487 #if defined ( LCD_SUPPORTED )
//  488   switch(Ctrlcase)
//  489   {
//  490     default:    
//  491     case 0:
//  492       HalLcdWriteString( "Flip use UP/DOWN", HAL_LCD_LINE_4 ); 
//  493       //清除屏幕显示
//  494       HalLcdWriteString( " ", HAL_LCD_LINE_2 ); 
//  495       HalLcdWriteString( " ", HAL_LCD_LINE_3 );
//  496       break;
//  497     
//  498     case 1:
//  499       HalLcdWriteString( "Relay Contrling", HAL_LCD_LINE_4 ); 
//  500       //清除屏幕显示
//  501       HalLcdWriteString( " ", HAL_LCD_LINE_2 ); 
//  502       HalLcdWriteString( " ", HAL_LCD_LINE_3 );
//  503       if(DeviceList[relay].deviceStatus == DEVICE_ONLINE)  //设备在线回显
//  504       {
//  505         HalLcdWriteString( "Relay Online", HAL_LCD_LINE_1 ); 
//  506       }
//  507       if(DeviceList[relay].deviceStatus != DEVICE_ONLINE)
//  508       {
//  509         HalLcdWriteString( "Relay Offline", HAL_LCD_LINE_1 );      
//  510       }
//  511       break;
//  512     
//  513     case 2:
//  514       HalLcdWriteString( "Motor Contrling", HAL_LCD_LINE_4 );
//  515       //清除屏幕显示
//  516       HalLcdWriteString( " ", HAL_LCD_LINE_2 ); 
//  517       HalLcdWriteString( " ", HAL_LCD_LINE_3 );
//  518       if(DeviceList[motor].deviceStatus == DEVICE_ONLINE)  //设备在线回显
//  519       {
//  520         HalLcdWriteString( "Motor Online", HAL_LCD_LINE_1 );
//  521       }
//  522       if(DeviceList[motor].deviceStatus != DEVICE_ONLINE)
//  523       {
//  524         HalLcdWriteString( "Motor Offline", HAL_LCD_LINE_1 );      
//  525       }      
//  526       break;
//  527 #endif     
//  528   }
//  529 }
//  530 */
//  531 /*********************************************************************
//  532  * @fn      Smart_home_HandleKeys
//  533  *
//  534  * @brief   设置按键事件
//  535  *          目前事件设置    3.19
//  536  *
//  537  *          HAL_KEY_SW_1--UP     (上翻一页)
//  538  *          HAL_KEY_SW_2--RIGHT  (选项向右)
//  539  *          HAL_KEY_SW_3--DOWN   (下翻一页)
//  540  *          HAL_KEY_SW_4--LEFT   (选项向左)
//  541  *          HAL_KEY_SW_5--OK     (组网开)
//  542  *          HAL_KEY_SW_7--CANCEL (组网关) 
//  543  * + 3.21 新增  选项总共有3种，控制屏幕显示，控制继电器和控制电机
//  544  *              控制继电器时 UP控制1，DOWN控制2
//  545  *              控制电机时   UP加速， DOWN减速
//  546  *
//  547  * @param   shift - true if in shift/alt.
//  548  * @param   keys  - bit field for key events.
//  549  *
//  550  * @return  none
//  551  */

        RSEG BANKED_CODE:CODE:NOROOT(0)
//  552 void Smart_home_HandleKeys( byte shift, byte keys )
Smart_home_HandleKeys:
        CFI Block cfiBlock34 Using cfiCommon0
        CFI Function Smart_home_HandleKeys
        CODE
//  553 {
        FUNCALL Smart_home_HandleKeys, Smart_home_Relay_Ctl
        LOCFRAME ISTACK, 0, STACK
        LOCFRAME PSTACK, 0, STACK
        LOCFRAME XSTACK, 9, STACK
        LOCFRAME IOVERLAY, 0, STATIC
        LOCFRAME DOVERLAY, 0, STATIC
        ARGFRAME ISTACK, 0, STACK
        ARGFRAME PSTACK, 0, STACK
        ARGFRAME XSTACK, 9, STACK
        ARGFRAME IOVERLAY, 0, STATIC
        ARGFRAME DOVERLAY, 0, STATIC
        FUNCALL Smart_home_HandleKeys, HalLcdWriteString
        LOCFRAME ISTACK, 0, STACK
        LOCFRAME PSTACK, 0, STACK
        LOCFRAME XSTACK, 9, STACK
        LOCFRAME IOVERLAY, 0, STATIC
        LOCFRAME DOVERLAY, 0, STATIC
        ARGFRAME ISTACK, 0, STACK
        ARGFRAME PSTACK, 0, STACK
        ARGFRAME XSTACK, 9, STACK
        ARGFRAME IOVERLAY, 0, STATIC
        ARGFRAME DOVERLAY, 0, STATIC
        FUNCALL Smart_home_HandleKeys, Smart_home_Relay_Ctl
        LOCFRAME ISTACK, 0, STACK
        LOCFRAME PSTACK, 0, STACK
        LOCFRAME XSTACK, 9, STACK
        LOCFRAME IOVERLAY, 0, STATIC
        LOCFRAME DOVERLAY, 0, STATIC
        ARGFRAME ISTACK, 0, STACK
        ARGFRAME PSTACK, 0, STACK
        ARGFRAME XSTACK, 9, STACK
        ARGFRAME IOVERLAY, 0, STATIC
        ARGFRAME DOVERLAY, 0, STATIC
        FUNCALL Smart_home_HandleKeys, HalLcdWriteString
        LOCFRAME ISTACK, 0, STACK
        LOCFRAME PSTACK, 0, STACK
        LOCFRAME XSTACK, 9, STACK
        LOCFRAME IOVERLAY, 0, STATIC
        LOCFRAME DOVERLAY, 0, STATIC
        ARGFRAME ISTACK, 0, STACK
        ARGFRAME PSTACK, 0, STACK
        ARGFRAME XSTACK, 9, STACK
        ARGFRAME IOVERLAY, 0, STATIC
        ARGFRAME DOVERLAY, 0, STATIC
        FUNCALL Smart_home_HandleKeys, NLME_PermitJoiningRequest
        LOCFRAME ISTACK, 0, STACK
        LOCFRAME PSTACK, 0, STACK
        LOCFRAME XSTACK, 9, STACK
        LOCFRAME IOVERLAY, 0, STATIC
        LOCFRAME DOVERLAY, 0, STATIC
        ARGFRAME ISTACK, 0, STACK
        ARGFRAME PSTACK, 0, STACK
        ARGFRAME XSTACK, 9, STACK
        ARGFRAME IOVERLAY, 0, STATIC
        ARGFRAME DOVERLAY, 0, STATIC
        FUNCALL Smart_home_HandleKeys, HalLedSet
        LOCFRAME ISTACK, 0, STACK
        LOCFRAME PSTACK, 0, STACK
        LOCFRAME XSTACK, 9, STACK
        LOCFRAME IOVERLAY, 0, STATIC
        LOCFRAME DOVERLAY, 0, STATIC
        ARGFRAME ISTACK, 0, STACK
        ARGFRAME PSTACK, 0, STACK
        ARGFRAME XSTACK, 9, STACK
        ARGFRAME IOVERLAY, 0, STATIC
        ARGFRAME DOVERLAY, 0, STATIC
        FUNCALL Smart_home_HandleKeys, HalLcdWriteString
        LOCFRAME ISTACK, 0, STACK
        LOCFRAME PSTACK, 0, STACK
        LOCFRAME XSTACK, 9, STACK
        LOCFRAME IOVERLAY, 0, STATIC
        LOCFRAME DOVERLAY, 0, STATIC
        ARGFRAME ISTACK, 0, STACK
        ARGFRAME PSTACK, 0, STACK
        ARGFRAME XSTACK, 9, STACK
        ARGFRAME IOVERLAY, 0, STATIC
        ARGFRAME DOVERLAY, 0, STATIC
        FUNCALL Smart_home_HandleKeys, NLME_PermitJoiningRequest
        LOCFRAME ISTACK, 0, STACK
        LOCFRAME PSTACK, 0, STACK
        LOCFRAME XSTACK, 9, STACK
        LOCFRAME IOVERLAY, 0, STATIC
        LOCFRAME DOVERLAY, 0, STATIC
        ARGFRAME ISTACK, 0, STACK
        ARGFRAME PSTACK, 0, STACK
        ARGFRAME XSTACK, 9, STACK
        ARGFRAME IOVERLAY, 0, STATIC
        ARGFRAME DOVERLAY, 0, STATIC
        FUNCALL Smart_home_HandleKeys, HalLedSet
        LOCFRAME ISTACK, 0, STACK
        LOCFRAME PSTACK, 0, STACK
        LOCFRAME XSTACK, 9, STACK
        LOCFRAME IOVERLAY, 0, STATIC
        LOCFRAME DOVERLAY, 0, STATIC
        ARGFRAME ISTACK, 0, STACK
        ARGFRAME PSTACK, 0, STACK
        ARGFRAME XSTACK, 9, STACK
        ARGFRAME IOVERLAY, 0, STATIC
        ARGFRAME DOVERLAY, 0, STATIC
        FUNCALL Smart_home_HandleKeys, HalLcdWriteString
        LOCFRAME ISTACK, 0, STACK
        LOCFRAME PSTACK, 0, STACK
        LOCFRAME XSTACK, 9, STACK
        LOCFRAME IOVERLAY, 0, STATIC
        LOCFRAME DOVERLAY, 0, STATIC
        ARGFRAME ISTACK, 0, STACK
        ARGFRAME PSTACK, 0, STACK
        ARGFRAME XSTACK, 9, STACK
        ARGFRAME IOVERLAY, 0, STATIC
        ARGFRAME DOVERLAY, 0, STATIC
        MOV     A,#-0x9
        LCALL   ?BANKED_ENTER_XDATA
        CFI DPH0 load(1, XDATA, add(CFA_XSP16, literal(-1)))
        CFI DPL0 load(1, XDATA, add(CFA_XSP16, literal(-2)))
        CFI ?BRET_EXT load(1, XDATA, add(CFA_XSP16, literal(-3)))
        CFI ?RET_HIGH load(1, XDATA, add(CFA_XSP16, literal(-4)))
        CFI ?RET_LOW load(1, XDATA, add(CFA_XSP16, literal(-5)))
        CFI R7 load(1, XDATA, add(CFA_XSP16, literal(-6)))
        CFI V0 load(1, XDATA, add(CFA_XSP16, literal(-7)))
        CFI VB load(1, XDATA, add(CFA_XSP16, literal(-8)))
        CFI R6 load(1, XDATA, add(CFA_XSP16, literal(-9)))
        CFI CFA_SP SP+0
        CFI CFA_XSP16 add(XSP16, 9)
        ; Saved register size: 9
        ; Auto size: 0
        MOV     A,R2
        MOV     R6,A
//  554   //zAddrType_t txAddr;
//  555   static int8 MotorSpeed = 0;
//  556   static uint8 NetWorkAllow = 0;
//  557   /*这里这么设置似乎会出现内存问题
//  558   static uint8 Relay1_on = 0x02;  //两个默认都是关闭
//  559   static uint8 Relay2_on = 0x10;
//  560   */
//  561   /*3.21 LCD 显示*/
//  562   static uint8 Relay1_on = 0;  //两个默认都是关闭
//  563   static uint8 Relay2_on = 0;
//  564   
//  565   
//  566   if ( keys & HAL_KEY_SW_1 )  //UP
        MOV     C,0xE0 /* A   */.0
        JNC     ??Smart_home_HandleKeys_0
//  567   {
//  568     switch(Ctrlcase)
        MOV     DPTR,#Ctrlcase
        MOVX    A,@DPTR
        DEC     A
        JZ      ??Smart_home_HandleKeys_1
        DEC     A
        JZ      ??Smart_home_HandleKeys_2
//  569     {
//  570       default:    
//  571       case 0:
//  572       {
//  573         if(LCD_Page < 3)       {LCD_Page++;}
        MOV     DPTR,#LCD_Page
        LCALL   ?Subroutine10 & 0xFFFF
??CrossCallReturnLabel_20:
        JNC     ??Smart_home_HandleKeys_3
        MOVX    A,@DPTR
        INC     A
        MOVX    @DPTR,A
//  574         if(LCD_Page > 2)       {LCD_Page=0;}
??Smart_home_HandleKeys_3:
        LCALL   ?Subroutine10 & 0xFFFF
??CrossCallReturnLabel_21:
        JC      ??Smart_home_HandleKeys_0
        CLR     A
        SJMP    ??Smart_home_HandleKeys_4
//  575         break;
//  576       }
//  577       case 1:
//  578       {  
//  579         uint8 switch1;
//  580         if(Relay1_on == 0)  {Relay1_on = 1 ; switch1 = 0x02;}
??Smart_home_HandleKeys_1:
        MOV     DPTR,#??Relay1_on
        MOVX    A,@DPTR
        JNZ     ??Smart_home_HandleKeys_5
        MOV     A,#0x1
        MOVX    @DPTR,A
        MOV     R1,#0x2
        SJMP    ??Smart_home_HandleKeys_6
//  581         else if(Relay1_on == 1)  {Relay1_on = 0; switch1 = 0x01;}
??Smart_home_HandleKeys_5:
        CLR     A
        MOVX    @DPTR,A
        MOV     R1,#0x1
//  582         else  {Relay1_on = 0; switch1 = 0x01;}       
//  583         Smart_home_Relay_Ctl(switch1);  
??Smart_home_HandleKeys_6:
        ; Setup parameters for call to function Smart_home_Relay_Ctl
        LCALL   ??Smart_home_Relay_Ctl?relay
//  584         break;
        SJMP    ??Smart_home_HandleKeys_0
//  585       } 
//  586       case 2:
//  587       {
//  588         if(MotorSpeed < 80)     {MotorSpeed += 10;}
??Smart_home_HandleKeys_2:
        MOV     DPTR,#??MotorSpeed
        LCALL   ?Subroutine14 & 0xFFFF
??CrossCallReturnLabel_30:
        JNC     ??Smart_home_HandleKeys_7
        MOVX    A,@DPTR
        ADD     A,#0xa
        MOVX    @DPTR,A
//  589         if(MotorSpeed >= 80)     
??Smart_home_HandleKeys_7:
        LCALL   ?Subroutine14 & 0xFFFF
??CrossCallReturnLabel_31:
        JC      ??Smart_home_HandleKeys_0
//  590         {
//  591 #if defined ( LCD_SUPPORTED )
//  592            HalLcdWriteString( "Motor max Speed", HAL_LCD_LINE_4 );
        ; Setup parameters for call to function HalLcdWriteString
        MOV     R1,#0x4
        MOV     R2,#`?<Constant "Motor max Speed">` & 0xff
        MOV     R3,#(`?<Constant "Motor max Speed">` >> 8) & 0xff
        LCALL   ??HalLcdWriteString?relay
//  593 #endif 
//  594            MotorSpeed = 80;
        MOV     DPTR,#??MotorSpeed
        MOV     A,#0x50
??Smart_home_HandleKeys_4:
        MOVX    @DPTR,A
//  595         }
//  596         break;
//  597       }
//  598          
//  599     }    
//  600   }
//  601   
//  602   if ( keys & HAL_KEY_SW_3 )  //DOWN
??Smart_home_HandleKeys_0:
        MOV     A,R6
        MOV     C,0xE0 /* A   */.4
        JNC     ??Smart_home_HandleKeys_8
//  603   {
//  604     switch(Ctrlcase)
        MOV     DPTR,#Ctrlcase
        MOVX    A,@DPTR
        DEC     A
        JZ      ??Smart_home_HandleKeys_9
        DEC     A
        JZ      ??Smart_home_HandleKeys_10
//  605     {
//  606       default:    
//  607       case 0:
//  608       {
//  609         if(LCD_Page >= 0)       {LCD_Page--;}
        MOV     DPTR,#LCD_Page
        LCALL   ?Subroutine11 & 0xFFFF
??CrossCallReturnLabel_24:
        JC      ??Smart_home_HandleKeys_11
        MOVX    A,@DPTR
        DEC     A
        MOVX    @DPTR,A
//  610         if(LCD_Page < 0)        {LCD_Page=2;}
??Smart_home_HandleKeys_11:
        LCALL   ?Subroutine11 & 0xFFFF
??CrossCallReturnLabel_25:
        JNC     ??Smart_home_HandleKeys_8
        MOV     A,#0x2
        SJMP    ??Smart_home_HandleKeys_12
//  611         break;
//  612       }
//  613       case 1:  
//  614       {
//  615         uint8 switch2;
//  616         if(Relay2_on == 0)  {Relay2_on = 1 ; switch2 = 0x20;}
??Smart_home_HandleKeys_9:
        MOV     DPTR,#??Relay2_on
        MOVX    A,@DPTR
        JNZ     ??Smart_home_HandleKeys_13
        MOV     A,#0x1
        MOVX    @DPTR,A
        MOV     R1,#0x20
        SJMP    ??Smart_home_HandleKeys_14
//  617         else if(Relay2_on == 1)  {Relay2_on = 0; switch2 = 0x10;}
??Smart_home_HandleKeys_13:
        XRL     A,#0x1
        JNZ     ??Smart_home_HandleKeys_15
        CLR     A
        MOVX    @DPTR,A
        MOV     R1,#0x10
        SJMP    ??Smart_home_HandleKeys_14
//  618         else  {Relay2_on = 0; switch2 = 0x01;}       
??Smart_home_HandleKeys_15:
        CLR     A
        MOVX    @DPTR,A
        MOV     R1,#0x1
//  619         Smart_home_Relay_Ctl(switch2);       
??Smart_home_HandleKeys_14:
        ; Setup parameters for call to function Smart_home_Relay_Ctl
        LCALL   ??Smart_home_Relay_Ctl?relay
//  620         break;
        SJMP    ??Smart_home_HandleKeys_8
//  621       } 
//  622       case 2:
//  623       {
//  624         if(MotorSpeed > -80)     {MotorSpeed -= 10;}
??Smart_home_HandleKeys_10:
        MOV     DPTR,#??MotorSpeed
        LCALL   ?Subroutine15 & 0xFFFF
??CrossCallReturnLabel_32:
        JC      ??Smart_home_HandleKeys_16
        MOVX    A,@DPTR
        ADD     A,#-0xa
        MOVX    @DPTR,A
//  625         if(MotorSpeed <= -80)     
??Smart_home_HandleKeys_16:
        LCALL   ?Subroutine15 & 0xFFFF
??CrossCallReturnLabel_33:
        JNC     ??Smart_home_HandleKeys_8
//  626         {
//  627 #if defined ( LCD_SUPPORTED )
//  628            HalLcdWriteString( "Motor min Speed", HAL_LCD_LINE_4 );
        ; Setup parameters for call to function HalLcdWriteString
        MOV     R1,#0x4
        MOV     R2,#`?<Constant "Motor min Speed">` & 0xff
        MOV     R3,#(`?<Constant "Motor min Speed">` >> 8) & 0xff
        LCALL   ??HalLcdWriteString?relay
//  629 #endif 
//  630            MotorSpeed = -80;
        MOV     DPTR,#??MotorSpeed
        MOV     A,#-0x50
??Smart_home_HandleKeys_12:
        MOVX    @DPTR,A
//  631         }
//  632         break; 
//  633       }
//  634     }
//  635   }
//  636   
//  637   if ( keys & HAL_KEY_SW_2 )  //RIGHT  
??Smart_home_HandleKeys_8:
        MOV     A,R6
        MOV     C,0xE0 /* A   */.1
        JNC     ??Smart_home_HandleKeys_17
//  638   /*3.22 这里在调试时出现问题，具体问题为 点击up时会出现屏幕变为禁止组网
//  639     控制方面变为控制电机，问题在于汇编中的key值会出现  keys & HAL_KEY_SW_2 = 2
//  640     的情况，暂时禁止，需要等待研究  还有key_7*/
//  641   {
//  642      if(Ctrlcase < 3)   { Ctrlcase++;}
        MOV     DPTR,#Ctrlcase
        LCALL   ?Subroutine10 & 0xFFFF
??CrossCallReturnLabel_22:
        JNC     ??Smart_home_HandleKeys_18
        MOVX    A,@DPTR
        INC     A
        MOVX    @DPTR,A
//  643      if(Ctrlcase > 2)   { Ctrlcase=0;}
??Smart_home_HandleKeys_18:
        LCALL   ?Subroutine10 & 0xFFFF
??CrossCallReturnLabel_23:
        JC      ??Smart_home_HandleKeys_17
        CLR     A
        MOVX    @DPTR,A
//  644      //Smart_home_Key_add(Ctrlcase);
//  645   }
//  646   
//  647   if ( keys & HAL_KEY_SW_4 )  //LEFT
??Smart_home_HandleKeys_17:
        MOV     A,R6
        MOV     C,0xE0 /* A   */.3
        JNC     ??Smart_home_HandleKeys_19
//  648   {
//  649      if(Ctrlcase > -1)   { Ctrlcase--;}
        MOV     DPTR,#Ctrlcase
        LCALL   ?Subroutine11 & 0xFFFF
??CrossCallReturnLabel_26:
        JC      ??Smart_home_HandleKeys_20
        MOVX    A,@DPTR
        DEC     A
        MOVX    @DPTR,A
//  650      if(Ctrlcase < 0)    { Ctrlcase=2;}
??Smart_home_HandleKeys_20:
        LCALL   ?Subroutine11 & 0xFFFF
??CrossCallReturnLabel_27:
        JNC     ??Smart_home_HandleKeys_19
        MOV     A,#0x2
        MOVX    @DPTR,A
//  651      //Smart_home_Key_add(Ctrlcase);    
//  652   }
//  653   
//  654   if ( keys & HAL_KEY_SW_5 )  //OK
//  655   {
//  656 
//  657   }
//  658   
//  659   if ( keys & HAL_KEY_SW_7 )  //CENCEL
??Smart_home_HandleKeys_19:
        MOV     A,R6
        MOV     C,0xE0 /* A   */.6
        JNC     ??Smart_home_HandleKeys_21
//  660   {
//  661      if(NetWorkAllow == 0)
        MOV     DPTR,#??NetWorkAllow
        MOVX    A,@DPTR
        JNZ     ??Smart_home_HandleKeys_22
//  662      {
//  663        NetWorkAllow = 1;
        MOV     A,#0x1
        MOVX    @DPTR,A
//  664        NLME_PermitJoiningRequest(0xFF); // 组网，允许随时加入
        ; Setup parameters for call to function NLME_PermitJoiningRequest
        MOV     R1,#-0x1
        LCALL   ??NLME_PermitJoiningRequest?relay
//  665        HalLedSet(HAL_LED_1, HAL_LED_MODE_ON);
        ; Setup parameters for call to function HalLedSet
        MOV     R2,#0x1
        MOV     R1,#0x1
        LCALL   ??HalLedSet?relay
//  666 #if defined ( LCD_SUPPORTED )
//  667        HalLcdWriteString( "Allow networking", HAL_LCD_LINE_4 );
        ; Setup parameters for call to function HalLcdWriteString
        MOV     R1,#0x4
        MOV     R2,#`?<Constant "Allow networking">` & 0xff
        MOV     R3,#(`?<Constant "Allow networking">` >> 8) & 0xff
        SJMP    ??Smart_home_HandleKeys_23
//  668 #endif
//  669      }
//  670      else
//  671      {
//  672        NetWorkAllow = 0;
??Smart_home_HandleKeys_22:
        CLR     A
        MOVX    @DPTR,A
//  673        NLME_PermitJoiningRequest(0x00); // 不允许组网
        ; Setup parameters for call to function NLME_PermitJoiningRequest
        MOV     R1,A
        LCALL   ?Subroutine16 & 0xFFFF
//  674        HalLedSet(HAL_LED_1, HAL_LED_MODE_OFF);  
//  675 #if defined ( LCD_SUPPORTED )
//  676        HalLcdWriteString( "Ban   networking", HAL_LCD_LINE_4 );
??CrossCallReturnLabel_35:
        ; Setup parameters for call to function HalLcdWriteString
        MOV     R1,#0x4
        MOV     R2,#`?<Constant "Ban   networking">` & 0xff
        MOV     R3,#(`?<Constant "Ban   networking">` >> 8) & 0xff
??Smart_home_HandleKeys_23:
        LCALL   ??HalLcdWriteString?relay
//  677 #endif        
//  678      }
//  679   }
//  680 }
??Smart_home_HandleKeys_21:
        LJMP    ?Subroutine0 & 0xFFFF
        CFI EndBlock cfiBlock34

        RSEG BANKED_CODE:CODE:NOROOT(0)
?Subroutine16:
        CFI Block cfiCond35 Using cfiCommon0
        CFI NoFunction
        CFI Conditional ??CrossCallReturnLabel_34
        CFI R6 load(1, XDATA, add(CFA_XSP16, literal(-9)))
        CFI VB load(1, XDATA, add(CFA_XSP16, literal(-8)))
        CFI V0 load(1, XDATA, add(CFA_XSP16, literal(-7)))
        CFI R7 load(1, XDATA, add(CFA_XSP16, literal(-6)))
        CFI ?RET_LOW load(1, XDATA, add(CFA_XSP16, literal(-5)))
        CFI ?RET_HIGH load(1, XDATA, add(CFA_XSP16, literal(-4)))
        CFI ?BRET_EXT load(1, XDATA, add(CFA_XSP16, literal(-3)))
        CFI DPL0 load(1, XDATA, add(CFA_XSP16, literal(-2)))
        CFI DPH0 load(1, XDATA, add(CFA_XSP16, literal(-1)))
        CFI CFA_SP SP+0
        CFI CFA_XSP16 add(XSP16, 38)
        CFI Block cfiCond36 Using cfiCommon0
        CFI (cfiCond36) NoFunction
        CFI (cfiCond36) Conditional ??CrossCallReturnLabel_35
        CFI (cfiCond36) R6 load(1, XDATA, add(CFA_XSP16, literal(-9)))
        CFI (cfiCond36) VB load(1, XDATA, add(CFA_XSP16, literal(-8)))
        CFI (cfiCond36) V0 load(1, XDATA, add(CFA_XSP16, literal(-7)))
        CFI (cfiCond36) R7 load(1, XDATA, add(CFA_XSP16, literal(-6)))
        CFI (cfiCond36) ?RET_LOW load(1, XDATA, add(CFA_XSP16, literal(-5)))
        CFI (cfiCond36) ?RET_HIGH load(1, XDATA, add(CFA_XSP16, literal(-4)))
        CFI (cfiCond36) ?BRET_EXT load(1, XDATA, add(CFA_XSP16, literal(-3)))
        CFI (cfiCond36) DPL0 load(1, XDATA, add(CFA_XSP16, literal(-2)))
        CFI (cfiCond36) DPH0 load(1, XDATA, add(CFA_XSP16, literal(-1)))
        CFI (cfiCond36) CFA_SP SP+0
        CFI (cfiCond36) CFA_XSP16 add(XSP16, 9)
        CFI Block cfiPicker37 Using cfiCommon1
        CFI (cfiPicker37) NoFunction
        CFI (cfiPicker37) Picker
        LCALL   ??NLME_PermitJoiningRequest?relay
        ; Setup parameters for call to function HalLedSet
        ; Setup parameters for call to function HalLedSet
        MOV     R2,#0x0
        MOV     R1,#0x1
        LCALL   ??HalLedSet?relay
        RET
        CFI EndBlock cfiCond35
        CFI EndBlock cfiCond36
        CFI EndBlock cfiPicker37

        RSEG BANKED_CODE:CODE:NOROOT(0)
?Subroutine15:
        CFI Block cfiCond38 Using cfiCommon0
        CFI NoFunction
        CFI Conditional ??CrossCallReturnLabel_32
        CFI R6 load(1, XDATA, add(CFA_XSP16, literal(-9)))
        CFI VB load(1, XDATA, add(CFA_XSP16, literal(-8)))
        CFI V0 load(1, XDATA, add(CFA_XSP16, literal(-7)))
        CFI R7 load(1, XDATA, add(CFA_XSP16, literal(-6)))
        CFI ?RET_LOW load(1, XDATA, add(CFA_XSP16, literal(-5)))
        CFI ?RET_HIGH load(1, XDATA, add(CFA_XSP16, literal(-4)))
        CFI ?BRET_EXT load(1, XDATA, add(CFA_XSP16, literal(-3)))
        CFI DPL0 load(1, XDATA, add(CFA_XSP16, literal(-2)))
        CFI DPH0 load(1, XDATA, add(CFA_XSP16, literal(-1)))
        CFI CFA_SP SP+0
        CFI CFA_XSP16 add(XSP16, 9)
        CFI Block cfiCond39 Using cfiCommon0
        CFI (cfiCond39) NoFunction
        CFI (cfiCond39) Conditional ??CrossCallReturnLabel_33
        CFI (cfiCond39) R6 load(1, XDATA, add(CFA_XSP16, literal(-9)))
        CFI (cfiCond39) VB load(1, XDATA, add(CFA_XSP16, literal(-8)))
        CFI (cfiCond39) V0 load(1, XDATA, add(CFA_XSP16, literal(-7)))
        CFI (cfiCond39) R7 load(1, XDATA, add(CFA_XSP16, literal(-6)))
        CFI (cfiCond39) ?RET_LOW load(1, XDATA, add(CFA_XSP16, literal(-5)))
        CFI (cfiCond39) ?RET_HIGH load(1, XDATA, add(CFA_XSP16, literal(-4)))
        CFI (cfiCond39) ?BRET_EXT load(1, XDATA, add(CFA_XSP16, literal(-3)))
        CFI (cfiCond39) DPL0 load(1, XDATA, add(CFA_XSP16, literal(-2)))
        CFI (cfiCond39) DPH0 load(1, XDATA, add(CFA_XSP16, literal(-1)))
        CFI (cfiCond39) CFA_SP SP+0
        CFI (cfiCond39) CFA_XSP16 add(XSP16, 9)
        CFI Block cfiPicker40 Using cfiCommon1
        CFI (cfiPicker40) NoFunction
        CFI (cfiPicker40) Picker
        MOVX    A,@DPTR
        CLR     C
        SUBB    A,#-0x4f
        MOV     C,0xD0 /* PSW */.2
        XRL     A,PSW
        RLC     A
        RET
        CFI EndBlock cfiCond38
        CFI EndBlock cfiCond39
        CFI EndBlock cfiPicker40

        RSEG BANKED_CODE:CODE:NOROOT(0)
?Subroutine14:
        CFI Block cfiCond41 Using cfiCommon0
        CFI NoFunction
        CFI Conditional ??CrossCallReturnLabel_30
        CFI R6 load(1, XDATA, add(CFA_XSP16, literal(-9)))
        CFI VB load(1, XDATA, add(CFA_XSP16, literal(-8)))
        CFI V0 load(1, XDATA, add(CFA_XSP16, literal(-7)))
        CFI R7 load(1, XDATA, add(CFA_XSP16, literal(-6)))
        CFI ?RET_LOW load(1, XDATA, add(CFA_XSP16, literal(-5)))
        CFI ?RET_HIGH load(1, XDATA, add(CFA_XSP16, literal(-4)))
        CFI ?BRET_EXT load(1, XDATA, add(CFA_XSP16, literal(-3)))
        CFI DPL0 load(1, XDATA, add(CFA_XSP16, literal(-2)))
        CFI DPH0 load(1, XDATA, add(CFA_XSP16, literal(-1)))
        CFI CFA_SP SP+0
        CFI CFA_XSP16 add(XSP16, 9)
        CFI Block cfiCond42 Using cfiCommon0
        CFI (cfiCond42) NoFunction
        CFI (cfiCond42) Conditional ??CrossCallReturnLabel_31
        CFI (cfiCond42) R6 load(1, XDATA, add(CFA_XSP16, literal(-9)))
        CFI (cfiCond42) VB load(1, XDATA, add(CFA_XSP16, literal(-8)))
        CFI (cfiCond42) V0 load(1, XDATA, add(CFA_XSP16, literal(-7)))
        CFI (cfiCond42) R7 load(1, XDATA, add(CFA_XSP16, literal(-6)))
        CFI (cfiCond42) ?RET_LOW load(1, XDATA, add(CFA_XSP16, literal(-5)))
        CFI (cfiCond42) ?RET_HIGH load(1, XDATA, add(CFA_XSP16, literal(-4)))
        CFI (cfiCond42) ?BRET_EXT load(1, XDATA, add(CFA_XSP16, literal(-3)))
        CFI (cfiCond42) DPL0 load(1, XDATA, add(CFA_XSP16, literal(-2)))
        CFI (cfiCond42) DPH0 load(1, XDATA, add(CFA_XSP16, literal(-1)))
        CFI (cfiCond42) CFA_SP SP+0
        CFI (cfiCond42) CFA_XSP16 add(XSP16, 9)
        CFI Block cfiPicker43 Using cfiCommon1
        CFI (cfiPicker43) NoFunction
        CFI (cfiPicker43) Picker
        MOVX    A,@DPTR
        CLR     C
        SUBB    A,#0x50
        MOV     C,0xD0 /* PSW */.2
        XRL     A,PSW
        RLC     A
        RET
        CFI EndBlock cfiCond41
        CFI EndBlock cfiCond42
        CFI EndBlock cfiPicker43

        RSEG BANKED_CODE:CODE:NOROOT(0)
?Subroutine11:
        CFI Block cfiCond44 Using cfiCommon0
        CFI NoFunction
        CFI Conditional ??CrossCallReturnLabel_24
        CFI R6 load(1, XDATA, add(CFA_XSP16, literal(-9)))
        CFI VB load(1, XDATA, add(CFA_XSP16, literal(-8)))
        CFI V0 load(1, XDATA, add(CFA_XSP16, literal(-7)))
        CFI R7 load(1, XDATA, add(CFA_XSP16, literal(-6)))
        CFI ?RET_LOW load(1, XDATA, add(CFA_XSP16, literal(-5)))
        CFI ?RET_HIGH load(1, XDATA, add(CFA_XSP16, literal(-4)))
        CFI ?BRET_EXT load(1, XDATA, add(CFA_XSP16, literal(-3)))
        CFI DPL0 load(1, XDATA, add(CFA_XSP16, literal(-2)))
        CFI DPH0 load(1, XDATA, add(CFA_XSP16, literal(-1)))
        CFI CFA_SP SP+0
        CFI CFA_XSP16 add(XSP16, 9)
        CFI Block cfiCond45 Using cfiCommon0
        CFI (cfiCond45) NoFunction
        CFI (cfiCond45) Conditional ??CrossCallReturnLabel_25
        CFI (cfiCond45) R6 load(1, XDATA, add(CFA_XSP16, literal(-9)))
        CFI (cfiCond45) VB load(1, XDATA, add(CFA_XSP16, literal(-8)))
        CFI (cfiCond45) V0 load(1, XDATA, add(CFA_XSP16, literal(-7)))
        CFI (cfiCond45) R7 load(1, XDATA, add(CFA_XSP16, literal(-6)))
        CFI (cfiCond45) ?RET_LOW load(1, XDATA, add(CFA_XSP16, literal(-5)))
        CFI (cfiCond45) ?RET_HIGH load(1, XDATA, add(CFA_XSP16, literal(-4)))
        CFI (cfiCond45) ?BRET_EXT load(1, XDATA, add(CFA_XSP16, literal(-3)))
        CFI (cfiCond45) DPL0 load(1, XDATA, add(CFA_XSP16, literal(-2)))
        CFI (cfiCond45) DPH0 load(1, XDATA, add(CFA_XSP16, literal(-1)))
        CFI (cfiCond45) CFA_SP SP+0
        CFI (cfiCond45) CFA_XSP16 add(XSP16, 9)
        CFI Block cfiCond46 Using cfiCommon0
        CFI (cfiCond46) NoFunction
        CFI (cfiCond46) Conditional ??CrossCallReturnLabel_26
        CFI (cfiCond46) R6 load(1, XDATA, add(CFA_XSP16, literal(-9)))
        CFI (cfiCond46) VB load(1, XDATA, add(CFA_XSP16, literal(-8)))
        CFI (cfiCond46) V0 load(1, XDATA, add(CFA_XSP16, literal(-7)))
        CFI (cfiCond46) R7 load(1, XDATA, add(CFA_XSP16, literal(-6)))
        CFI (cfiCond46) ?RET_LOW load(1, XDATA, add(CFA_XSP16, literal(-5)))
        CFI (cfiCond46) ?RET_HIGH load(1, XDATA, add(CFA_XSP16, literal(-4)))
        CFI (cfiCond46) ?BRET_EXT load(1, XDATA, add(CFA_XSP16, literal(-3)))
        CFI (cfiCond46) DPL0 load(1, XDATA, add(CFA_XSP16, literal(-2)))
        CFI (cfiCond46) DPH0 load(1, XDATA, add(CFA_XSP16, literal(-1)))
        CFI (cfiCond46) CFA_SP SP+0
        CFI (cfiCond46) CFA_XSP16 add(XSP16, 9)
        CFI Block cfiCond47 Using cfiCommon0
        CFI (cfiCond47) NoFunction
        CFI (cfiCond47) Conditional ??CrossCallReturnLabel_27
        CFI (cfiCond47) R6 load(1, XDATA, add(CFA_XSP16, literal(-9)))
        CFI (cfiCond47) VB load(1, XDATA, add(CFA_XSP16, literal(-8)))
        CFI (cfiCond47) V0 load(1, XDATA, add(CFA_XSP16, literal(-7)))
        CFI (cfiCond47) R7 load(1, XDATA, add(CFA_XSP16, literal(-6)))
        CFI (cfiCond47) ?RET_LOW load(1, XDATA, add(CFA_XSP16, literal(-5)))
        CFI (cfiCond47) ?RET_HIGH load(1, XDATA, add(CFA_XSP16, literal(-4)))
        CFI (cfiCond47) ?BRET_EXT load(1, XDATA, add(CFA_XSP16, literal(-3)))
        CFI (cfiCond47) DPL0 load(1, XDATA, add(CFA_XSP16, literal(-2)))
        CFI (cfiCond47) DPH0 load(1, XDATA, add(CFA_XSP16, literal(-1)))
        CFI (cfiCond47) CFA_SP SP+0
        CFI (cfiCond47) CFA_XSP16 add(XSP16, 9)
        CFI Block cfiPicker48 Using cfiCommon1
        CFI (cfiPicker48) NoFunction
        CFI (cfiPicker48) Picker
        MOVX    A,@DPTR
        CLR     C
        SUBB    A,#0x0
        MOV     C,0xD0 /* PSW */.2
        XRL     A,PSW
        RLC     A
        RET
        CFI EndBlock cfiCond44
        CFI EndBlock cfiCond45
        CFI EndBlock cfiCond46
        CFI EndBlock cfiCond47
        CFI EndBlock cfiPicker48

        RSEG BANKED_CODE:CODE:NOROOT(0)
?Subroutine10:
        CFI Block cfiCond49 Using cfiCommon0
        CFI NoFunction
        CFI Conditional ??CrossCallReturnLabel_20
        CFI R6 load(1, XDATA, add(CFA_XSP16, literal(-9)))
        CFI VB load(1, XDATA, add(CFA_XSP16, literal(-8)))
        CFI V0 load(1, XDATA, add(CFA_XSP16, literal(-7)))
        CFI R7 load(1, XDATA, add(CFA_XSP16, literal(-6)))
        CFI ?RET_LOW load(1, XDATA, add(CFA_XSP16, literal(-5)))
        CFI ?RET_HIGH load(1, XDATA, add(CFA_XSP16, literal(-4)))
        CFI ?BRET_EXT load(1, XDATA, add(CFA_XSP16, literal(-3)))
        CFI DPL0 load(1, XDATA, add(CFA_XSP16, literal(-2)))
        CFI DPH0 load(1, XDATA, add(CFA_XSP16, literal(-1)))
        CFI CFA_SP SP+0
        CFI CFA_XSP16 add(XSP16, 9)
        CFI Block cfiCond50 Using cfiCommon0
        CFI (cfiCond50) NoFunction
        CFI (cfiCond50) Conditional ??CrossCallReturnLabel_21
        CFI (cfiCond50) R6 load(1, XDATA, add(CFA_XSP16, literal(-9)))
        CFI (cfiCond50) VB load(1, XDATA, add(CFA_XSP16, literal(-8)))
        CFI (cfiCond50) V0 load(1, XDATA, add(CFA_XSP16, literal(-7)))
        CFI (cfiCond50) R7 load(1, XDATA, add(CFA_XSP16, literal(-6)))
        CFI (cfiCond50) ?RET_LOW load(1, XDATA, add(CFA_XSP16, literal(-5)))
        CFI (cfiCond50) ?RET_HIGH load(1, XDATA, add(CFA_XSP16, literal(-4)))
        CFI (cfiCond50) ?BRET_EXT load(1, XDATA, add(CFA_XSP16, literal(-3)))
        CFI (cfiCond50) DPL0 load(1, XDATA, add(CFA_XSP16, literal(-2)))
        CFI (cfiCond50) DPH0 load(1, XDATA, add(CFA_XSP16, literal(-1)))
        CFI (cfiCond50) CFA_SP SP+0
        CFI (cfiCond50) CFA_XSP16 add(XSP16, 9)
        CFI Block cfiCond51 Using cfiCommon0
        CFI (cfiCond51) NoFunction
        CFI (cfiCond51) Conditional ??CrossCallReturnLabel_22
        CFI (cfiCond51) R6 load(1, XDATA, add(CFA_XSP16, literal(-9)))
        CFI (cfiCond51) VB load(1, XDATA, add(CFA_XSP16, literal(-8)))
        CFI (cfiCond51) V0 load(1, XDATA, add(CFA_XSP16, literal(-7)))
        CFI (cfiCond51) R7 load(1, XDATA, add(CFA_XSP16, literal(-6)))
        CFI (cfiCond51) ?RET_LOW load(1, XDATA, add(CFA_XSP16, literal(-5)))
        CFI (cfiCond51) ?RET_HIGH load(1, XDATA, add(CFA_XSP16, literal(-4)))
        CFI (cfiCond51) ?BRET_EXT load(1, XDATA, add(CFA_XSP16, literal(-3)))
        CFI (cfiCond51) DPL0 load(1, XDATA, add(CFA_XSP16, literal(-2)))
        CFI (cfiCond51) DPH0 load(1, XDATA, add(CFA_XSP16, literal(-1)))
        CFI (cfiCond51) CFA_SP SP+0
        CFI (cfiCond51) CFA_XSP16 add(XSP16, 9)
        CFI Block cfiCond52 Using cfiCommon0
        CFI (cfiCond52) NoFunction
        CFI (cfiCond52) Conditional ??CrossCallReturnLabel_23
        CFI (cfiCond52) R6 load(1, XDATA, add(CFA_XSP16, literal(-9)))
        CFI (cfiCond52) VB load(1, XDATA, add(CFA_XSP16, literal(-8)))
        CFI (cfiCond52) V0 load(1, XDATA, add(CFA_XSP16, literal(-7)))
        CFI (cfiCond52) R7 load(1, XDATA, add(CFA_XSP16, literal(-6)))
        CFI (cfiCond52) ?RET_LOW load(1, XDATA, add(CFA_XSP16, literal(-5)))
        CFI (cfiCond52) ?RET_HIGH load(1, XDATA, add(CFA_XSP16, literal(-4)))
        CFI (cfiCond52) ?BRET_EXT load(1, XDATA, add(CFA_XSP16, literal(-3)))
        CFI (cfiCond52) DPL0 load(1, XDATA, add(CFA_XSP16, literal(-2)))
        CFI (cfiCond52) DPH0 load(1, XDATA, add(CFA_XSP16, literal(-1)))
        CFI (cfiCond52) CFA_SP SP+0
        CFI (cfiCond52) CFA_XSP16 add(XSP16, 9)
        CFI Block cfiPicker53 Using cfiCommon1
        CFI (cfiPicker53) NoFunction
        CFI (cfiPicker53) Picker
        MOVX    A,@DPTR
        CLR     C
        SUBB    A,#0x3
        MOV     C,0xD0 /* PSW */.2
        XRL     A,PSW
        RLC     A
        RET
        CFI EndBlock cfiCond49
        CFI EndBlock cfiCond50
        CFI EndBlock cfiCond51
        CFI EndBlock cfiCond52
        CFI EndBlock cfiPicker53

        RSEG XDATA_Z:XDATA:NOROOT(0)
        DATA8
??MotorSpeed:
        DS 1
        REQUIRE __INIT_XDATA_Z

        RSEG XDATA_Z:XDATA:NOROOT(0)
        DATA8
??NetWorkAllow:
        DS 1
        REQUIRE __INIT_XDATA_Z

        RSEG XDATA_Z:XDATA:NOROOT(0)
        DATA8
??Relay1_on:
        DS 1
        REQUIRE __INIT_XDATA_Z

        RSEG XDATA_Z:XDATA:NOROOT(0)
        DATA8
??Relay2_on:
        DS 1
        REQUIRE __INIT_XDATA_Z
//  681 
//  682 /*********************************************************************
//  683  * @fn      Smart_home_ProcessMSGCmd
//  684  *
//  685  * @brief   Data message processor callback. This function processes
//  686  *          any incoming data - probably from other devices. Based
//  687  *          on the cluster ID, perform the intended action.
//  688  *
//  689  * @param   pkt - pointer to the incoming message packet
//  690  *
//  691  * @return  TRUE if the 'pkt' parameter is being used and will be freed later,
//  692  *          FALSE otherwise.
//  693  */

        RSEG BANKED_CODE:CODE:NOROOT(0)
//  694 void Smart_home_ProcessMSGCmd( afIncomingMSGPacket_t *pkt )
Smart_home_ProcessMSGCmd:
        CFI Block cfiBlock54 Using cfiCommon0
        CFI Function Smart_home_ProcessMSGCmd
        CODE
//  695 {
        MOV     A,#-0xa
        LCALL   ?BANKED_ENTER_XDATA
        CFI DPH0 load(1, XDATA, add(CFA_XSP16, literal(-1)))
        CFI DPL0 load(1, XDATA, add(CFA_XSP16, literal(-2)))
        CFI ?BRET_EXT load(1, XDATA, add(CFA_XSP16, literal(-3)))
        CFI ?RET_HIGH load(1, XDATA, add(CFA_XSP16, literal(-4)))
        CFI ?RET_LOW load(1, XDATA, add(CFA_XSP16, literal(-5)))
        CFI R7 load(1, XDATA, add(CFA_XSP16, literal(-6)))
        CFI V1 load(1, XDATA, add(CFA_XSP16, literal(-7)))
        CFI V0 load(1, XDATA, add(CFA_XSP16, literal(-8)))
        CFI VB load(1, XDATA, add(CFA_XSP16, literal(-9)))
        CFI R6 load(1, XDATA, add(CFA_XSP16, literal(-10)))
        CFI CFA_SP SP+0
        CFI CFA_XSP16 add(XSP16, 10)
        ; Saved register size: 10
        ; Auto size: 0
//  696   switch ( pkt->clusterId )
        MOV     DPL,R2
        MOV     DPH,R3
        INC     DPTR
        INC     DPTR
        INC     DPTR
        INC     DPTR
        MOVX    A,@DPTR
        MOV     ?V0 + 0,A
        INC     DPTR
        MOVX    A,@DPTR
        MOV     ?V0 + 1,A
        MOV     R0,#?V0 + 0
        LCALL   ?US_SWITCH_DENSE
`?<Jumptable for Smart_home_ProcessMSGCmd>_0`:
        DATA
        DATA16
        DATA
        DATA16
        DW        1
        DATA
        DATA8
        DATA
        DATA8
        DB        7
        DATA
        DATA16
        DATA
        DATA16
        DW        ??Smart_home_ProcessMSGCmd_0
        DATA
        DATA16
        DATA
        DATA16
        DW        ??Smart_home_ProcessMSGCmd_1
        DATA
        DATA16
        DATA
        DATA16
        DW        ??Smart_home_ProcessMSGCmd_2
        DATA
        DATA16
        DATA
        DATA16
        DW        ??Smart_home_ProcessMSGCmd_3
        DATA
        DATA16
        DATA
        DATA16
        DW        ??Smart_home_ProcessMSGCmd_4
        DATA
        DATA16
        DATA
        DATA16
        DW        ??Smart_home_ProcessMSGCmd_5
        DATA
        DATA16
        DATA
        DATA16
        DW        ??Smart_home_ProcessMSGCmd_6
        DATA
        DATA16
        DATA
        DATA16
        DW        ??Smart_home_ProcessMSGCmd_7
        DATA
        DATA16
        DATA
        DATA16
        DW        ??Smart_home_ProcessMSGCmd_8
        CODE
//  697   {
//  698   /***********************************************************************
//  699     目前总共8种case
//  700    #define Smart_home_CLUSTERID_HUMITMSG            1  // 温湿度
//  701    #define Smart_home_CLUSTERID_TEMPLIGHTMSG        2  // 温度光照
//  702    #define Smart_home_CLUSTERID_RFIDMSG             3  // 射频卡
//  703    #define Smart_home_CLUSTERID_GASFLAMEMSG         4  // 烟雾火焰
//  704    #define Smart_home_CLUSTERID_INFRAREDMSG         5  // 人体红外
//  705    #define Smart_home_CLUSTERID_SOUNDVBMSG          6  // 声音振动
//  706    #define Smart_home_CLUSTERID_MOTORSTATUSMSG      7  // 直流电机状态信息
//  707    #define Smart_home_CLUSTERID_RELAYSTATUSMSG      8  // 继电器状态信息
//  708     
//  709    设备描述
//  710    typedef struct DeviceInfo
//  711    {
//  712      uint8 deviceID;
//  713      uint8 deviceStatus;
//  714      uint8 data[5];
//  715    } DeviceInfo; 
//  716    ************************************************************************/ 
//  717     //3.14 消息处理模块，共8个，行为类似 
//  718     //3.21 修改为指针方法（DeviceList相关）
//  719     case Smart_home_CLUSTERID_HUMITMSG:         // 温湿度
//  720       DeviceList[Humit].deviceStatus = DEVICE_ONLINE;       //收到消息设置为在线
??Smart_home_ProcessMSGCmd_1:
        MOV     DPTR,#DeviceList + 8
        LCALL   ?Subroutine2 & 0xFFFF
//  721       DeviceList[Humit].data[0] = pkt->cmd.Data[4]; // 湿度 
??CrossCallReturnLabel_0:
        MOV     DPTR,#DeviceList + 9
        LCALL   ?Subroutine7 & 0xFFFF
//  722       DeviceList[Humit].data[1] = pkt->cmd.Data[5]; // 温度
??CrossCallReturnLabel_14:
        MOV     DPTR,#DeviceList + 10
        LJMP    ??Smart_home_ProcessMSGCmd_9 & 0xFFFF
//  723       break;
//  724       
//  725     case Smart_home_CLUSTERID_TEMPLIGHTMSG:     // 温度光照
//  726       DeviceList[TempLight].deviceStatus = DEVICE_ONLINE;   //收到消息设置为在线
??Smart_home_ProcessMSGCmd_2:
        MOV     DPTR,#DeviceList + 15
        LCALL   ?Subroutine2 & 0xFFFF
//  727       DeviceList[TempLight].data[0] = pkt->cmd.Data[4]; // 温度整数
??CrossCallReturnLabel_1:
        MOV     DPTR,#DeviceList + 16
        LCALL   ?Subroutine8 & 0xFFFF
//  728       DeviceList[TempLight].data[1] = pkt->cmd.Data[5]; // 温度小数
??CrossCallReturnLabel_16:
        MOV     DPTR,#DeviceList + 17
        LCALL   ?Subroutine6 & 0xFFFF
//  729       DeviceList[TempLight].data[2] = pkt->cmd.Data[6]; // 光照
??CrossCallReturnLabel_12:
        MOV     DPTR,#DeviceList + 18
        LCALL   ?Subroutine5 & 0xFFFF
//  730       DeviceList[TempLight].data[3] = pkt->cmd.Data[7]; // 光照
??CrossCallReturnLabel_10:
        MOVX    A,@DPTR
        MOV     DPTR,#DeviceList + 19
        LJMP    ??Smart_home_ProcessMSGCmd_9 & 0xFFFF
//  731       break;
//  732       
//  733     case Smart_home_CLUSTERID_RFIDMSG:          // 射频卡
//  734       DeviceList[RfID].deviceStatus = DEVICE_ONLINE;        //收到消息设置为在线
??Smart_home_ProcessMSGCmd_3:
        MOV     DPTR,#DeviceList + 22
        LCALL   ?Subroutine2 & 0xFFFF
//  735       DeviceList[RfID].data[0] = pkt->cmd.Data[4]; // 射频卡类型
??CrossCallReturnLabel_2:
        MOV     DPTR,#DeviceList + 23
        LCALL   ?Subroutine8 & 0xFFFF
//  736       DeviceList[RfID].data[1] = pkt->cmd.Data[5]; // 4个字节的ID号
??CrossCallReturnLabel_17:
        MOV     DPTR,#DeviceList + 24
        LCALL   ?Subroutine6 & 0xFFFF
//  737       DeviceList[RfID].data[2] = pkt->cmd.Data[6]; //
??CrossCallReturnLabel_13:
        MOV     DPTR,#DeviceList + 25
        LCALL   ?Subroutine18 & 0xFFFF
//  738       DeviceList[RfID].data[3] = pkt->cmd.Data[7]; //
??CrossCallReturnLabel_38:
        INC     DPTR
        MOVX    A,@DPTR
        MOV     DPTR,#DeviceList + 26
        LCALL   ?Subroutine5 & 0xFFFF
//  739       DeviceList[RfID].data[4] = pkt->cmd.Data[8]; //  
??CrossCallReturnLabel_11:
        INC     DPTR
        MOVX    A,@DPTR
        MOV     DPTR,#DeviceList + 27
        SJMP    ??Smart_home_ProcessMSGCmd_9
//  740       break;
//  741       
//  742     case Smart_home_CLUSTERID_GASFLAMEMSG:      // 烟雾火焰
//  743       DeviceList[gasFlame].deviceStatus = DEVICE_ONLINE;    //收到消息设置为在线
??Smart_home_ProcessMSGCmd_4:
        MOV     DPTR,#DeviceList + 29
        LCALL   ?Subroutine3 & 0xFFFF
//  744       DeviceList[gasFlame].data[0] = pkt->cmd.Data[4]; // 烟雾与火焰报警信息
??CrossCallReturnLabel_4:
        MOV     DPTR,#DeviceList + 30
        SJMP    ??Smart_home_ProcessMSGCmd_9
//  745       break;
//  746       
//  747     case Smart_home_CLUSTERID_INFRAREDMSG:      // 人体红外
//  748       DeviceList[infrared].deviceStatus = DEVICE_ONLINE;    //收到消息设置为在线
??Smart_home_ProcessMSGCmd_5:
        MOV     DPTR,#DeviceList + 36
        LCALL   ?Subroutine3 & 0xFFFF
//  749       DeviceList[infrared].data[0] = pkt->cmd.Data[4]; // 人体红外 
??CrossCallReturnLabel_5:
        MOV     DPTR,#DeviceList + 37
        SJMP    ??Smart_home_ProcessMSGCmd_9
//  750       break;
//  751 
//  752     case Smart_home_CLUSTERID_SOUNDVBMSG:       // 声音振动
//  753       DeviceList[soundVb].deviceStatus = DEVICE_ONLINE;     //收到消息设置为在线
??Smart_home_ProcessMSGCmd_6:
        MOV     DPTR,#DeviceList + 57
        LCALL   ?Subroutine3 & 0xFFFF
//  754       DeviceList[soundVb].data[0] = pkt->cmd.Data[4]; // 声音震动信息
??CrossCallReturnLabel_6:
        MOV     DPTR,#DeviceList + 58
        SJMP    ??Smart_home_ProcessMSGCmd_9
//  755       break;
//  756       
//  757     case Smart_home_CLUSTERID_MOTORSTATUSMSG:   // 直流电机状态信息
//  758       DeviceList[motor].deviceStatus = DEVICE_ONLINE;       //收到消息设置为在线
??Smart_home_ProcessMSGCmd_7:
        MOV     DPTR,#DeviceList + 43
        MOV     A,#0x1
        MOVX    @DPTR,A
//  759       // 储存电机设备的网络地址，用于发送控制命令
//  760       Motor_addr.addrMode = (afAddrMode_t)Addr16Bit;
        MOV     DPTR,#Motor_addr + 8
        LCALL   ?Subroutine9 & 0xFFFF
//  761       Motor_addr.addr.shortAddr = pkt->srcAddr.addr.shortAddr;
??CrossCallReturnLabel_18:
        MOV     DPTR,#Motor_addr
        MOV     A,R0
        MOVX    @DPTR,A
        INC     DPTR
        MOV     A,R1
        MOVX    @DPTR,A
//  762       
//  763       Motor_addr.endPoint = 1;  // 目的节点的端口号
        MOV     DPTR,#Motor_addr + 9
        LCALL   ?Subroutine2 & 0xFFFF
//  764       //TransmitApp_DstMotorAddr->endPoint = TRANSMITAPP_ENDPOINT;
//  765      
//  766       DeviceList[motor].data[0] = pkt->cmd.Data[4]; // 电机转速
??CrossCallReturnLabel_3:
        MOV     DPTR,#DeviceList + 44
        LCALL   ?Subroutine7 & 0xFFFF
//  767       DeviceList[motor].data[1] = pkt->cmd.Data[5]; // 电机状态
??CrossCallReturnLabel_15:
        MOV     DPTR,#DeviceList + 45
        SJMP    ??Smart_home_ProcessMSGCmd_9
//  768       break;
//  769       
//  770     case Smart_home_CLUSTERID_RELAYSTATUSMSG:   // 继电器状态信息
//  771       DeviceList[relay].deviceStatus = DEVICE_ONLINE;       //收到消息设置为在线    
??Smart_home_ProcessMSGCmd_8:
        MOV     DPTR,#DeviceList + 50
        MOV     A,#0x1
        MOVX    @DPTR,A
//  772       
//  773       // 储存继电器设备的网络地址，用于发送控制命令
//  774       Relay_addr.addrMode = (afAddrMode_t)Addr16Bit;
        MOV     DPTR,#Relay_addr + 8
        LCALL   ?Subroutine9 & 0xFFFF
//  775       Relay_addr.addr.shortAddr = pkt->srcAddr.addr.shortAddr;    
??CrossCallReturnLabel_19:
        MOV     DPTR,#Relay_addr
        MOV     A,R0
        MOVX    @DPTR,A
        INC     DPTR
        MOV     A,R1
        MOVX    @DPTR,A
//  776       Relay_addr.endPoint = 1; // 目的节点的端口号
        MOV     DPTR,#Relay_addr + 9
        LCALL   ?Subroutine3 & 0xFFFF
//  777       DeviceList[relay].data[0] = pkt->cmd.Data[4]; 
??CrossCallReturnLabel_7:
        MOV     DPTR,#DeviceList + 51
??Smart_home_ProcessMSGCmd_9:
        MOVX    @DPTR,A
        CFI EndBlock cfiBlock54
//  778       break;
//  779       
//  780     default:
//  781       break;
//  782   }
//  783 }
??Smart_home_ProcessMSGCmd_0:
        REQUIRE ?Subroutine1
        ; // Fall through to label ?Subroutine1

        RSEG BANKED_CODE:CODE:NOROOT(0)
?Subroutine1:
        CFI Block cfiBlock55 Using cfiCommon0
        CFI NoFunction
        CFI CFA_SP SP+0
        CFI CFA_XSP16 add(XSP16, 10)
        CFI VB load(1, XDATA, add(CFA_XSP16, literal(-9)))
        CFI DPL0 load(1, XDATA, add(CFA_XSP16, literal(-2)))
        CFI DPH0 load(1, XDATA, add(CFA_XSP16, literal(-1)))
        CFI R6 load(1, XDATA, add(CFA_XSP16, literal(-10)))
        CFI R7 load(1, XDATA, add(CFA_XSP16, literal(-6)))
        CFI V0 load(1, XDATA, add(CFA_XSP16, literal(-8)))
        CFI V1 load(1, XDATA, add(CFA_XSP16, literal(-7)))
        CFI ?BRET_EXT load(1, XDATA, add(CFA_XSP16, literal(-3)))
        CFI ?RET_HIGH load(1, XDATA, add(CFA_XSP16, literal(-4)))
        CFI ?RET_LOW load(1, XDATA, add(CFA_XSP16, literal(-5)))
        MOV     R7,#0x2
        LJMP    ?BANKED_LEAVE_XDATA
        CFI EndBlock cfiBlock55

        RSEG BANKED_CODE:CODE:NOROOT(0)
?Subroutine9:
        CFI Block cfiCond56 Using cfiCommon0
        CFI NoFunction
        CFI Conditional ??CrossCallReturnLabel_18
        CFI R6 load(1, XDATA, add(CFA_XSP16, literal(-10)))
        CFI VB load(1, XDATA, add(CFA_XSP16, literal(-9)))
        CFI V0 load(1, XDATA, add(CFA_XSP16, literal(-8)))
        CFI V1 load(1, XDATA, add(CFA_XSP16, literal(-7)))
        CFI R7 load(1, XDATA, add(CFA_XSP16, literal(-6)))
        CFI ?RET_LOW load(1, XDATA, add(CFA_XSP16, literal(-5)))
        CFI ?RET_HIGH load(1, XDATA, add(CFA_XSP16, literal(-4)))
        CFI ?BRET_EXT load(1, XDATA, add(CFA_XSP16, literal(-3)))
        CFI DPL0 load(1, XDATA, add(CFA_XSP16, literal(-2)))
        CFI DPH0 load(1, XDATA, add(CFA_XSP16, literal(-1)))
        CFI CFA_SP SP+0
        CFI CFA_XSP16 add(XSP16, 10)
        CFI Block cfiCond57 Using cfiCommon0
        CFI (cfiCond57) NoFunction
        CFI (cfiCond57) Conditional ??CrossCallReturnLabel_19
        CFI (cfiCond57) R6 load(1, XDATA, add(CFA_XSP16, literal(-10)))
        CFI (cfiCond57) VB load(1, XDATA, add(CFA_XSP16, literal(-9)))
        CFI (cfiCond57) V0 load(1, XDATA, add(CFA_XSP16, literal(-8)))
        CFI (cfiCond57) V1 load(1, XDATA, add(CFA_XSP16, literal(-7)))
        CFI (cfiCond57) R7 load(1, XDATA, add(CFA_XSP16, literal(-6)))
        CFI (cfiCond57) ?RET_LOW load(1, XDATA, add(CFA_XSP16, literal(-5)))
        CFI (cfiCond57) ?RET_HIGH load(1, XDATA, add(CFA_XSP16, literal(-4)))
        CFI (cfiCond57) ?BRET_EXT load(1, XDATA, add(CFA_XSP16, literal(-3)))
        CFI (cfiCond57) DPL0 load(1, XDATA, add(CFA_XSP16, literal(-2)))
        CFI (cfiCond57) DPH0 load(1, XDATA, add(CFA_XSP16, literal(-1)))
        CFI (cfiCond57) CFA_SP SP+0
        CFI (cfiCond57) CFA_XSP16 add(XSP16, 10)
        CFI Block cfiPicker58 Using cfiCommon1
        CFI (cfiPicker58) NoFunction
        CFI (cfiPicker58) Picker
        INC     A
        MOVX    @DPTR,A
        MOV     DPL,R2
        MOV     DPH,R3
        INC     DPTR
        INC     DPTR
        INC     DPTR
        INC     DPTR
        INC     DPTR
        INC     DPTR
        MOVX    A,@DPTR
        MOV     R0,A
        INC     DPTR
        MOVX    A,@DPTR
        MOV     R1,A
        RET
        CFI EndBlock cfiCond56
        CFI EndBlock cfiCond57
        CFI EndBlock cfiPicker58

        RSEG BANKED_CODE:CODE:NOROOT(0)
?Subroutine8:
        CFI Block cfiCond59 Using cfiCommon0
        CFI NoFunction
        CFI Conditional ??CrossCallReturnLabel_16
        CFI R6 load(1, XDATA, add(CFA_XSP16, literal(-10)))
        CFI VB load(1, XDATA, add(CFA_XSP16, literal(-9)))
        CFI V0 load(1, XDATA, add(CFA_XSP16, literal(-8)))
        CFI V1 load(1, XDATA, add(CFA_XSP16, literal(-7)))
        CFI R7 load(1, XDATA, add(CFA_XSP16, literal(-6)))
        CFI ?RET_LOW load(1, XDATA, add(CFA_XSP16, literal(-5)))
        CFI ?RET_HIGH load(1, XDATA, add(CFA_XSP16, literal(-4)))
        CFI ?BRET_EXT load(1, XDATA, add(CFA_XSP16, literal(-3)))
        CFI DPL0 load(1, XDATA, add(CFA_XSP16, literal(-2)))
        CFI DPH0 load(1, XDATA, add(CFA_XSP16, literal(-1)))
        CFI CFA_SP SP+0
        CFI CFA_XSP16 add(XSP16, 10)
        CFI Block cfiCond60 Using cfiCommon0
        CFI (cfiCond60) NoFunction
        CFI (cfiCond60) Conditional ??CrossCallReturnLabel_17
        CFI (cfiCond60) R6 load(1, XDATA, add(CFA_XSP16, literal(-10)))
        CFI (cfiCond60) VB load(1, XDATA, add(CFA_XSP16, literal(-9)))
        CFI (cfiCond60) V0 load(1, XDATA, add(CFA_XSP16, literal(-8)))
        CFI (cfiCond60) V1 load(1, XDATA, add(CFA_XSP16, literal(-7)))
        CFI (cfiCond60) R7 load(1, XDATA, add(CFA_XSP16, literal(-6)))
        CFI (cfiCond60) ?RET_LOW load(1, XDATA, add(CFA_XSP16, literal(-5)))
        CFI (cfiCond60) ?RET_HIGH load(1, XDATA, add(CFA_XSP16, literal(-4)))
        CFI (cfiCond60) ?BRET_EXT load(1, XDATA, add(CFA_XSP16, literal(-3)))
        CFI (cfiCond60) DPL0 load(1, XDATA, add(CFA_XSP16, literal(-2)))
        CFI (cfiCond60) DPH0 load(1, XDATA, add(CFA_XSP16, literal(-1)))
        CFI (cfiCond60) CFA_SP SP+0
        CFI (cfiCond60) CFA_XSP16 add(XSP16, 10)
        CFI Block cfiPicker61 Using cfiCommon1
        CFI (cfiPicker61) NoFunction
        CFI (cfiPicker61) Picker
        MOVX    @DPTR,A
        LCALL   ?Subroutine21 & 0xFFFF
??CrossCallReturnLabel_45:
        INC     DPTR
        MOVX    A,@DPTR
        RET
        CFI EndBlock cfiCond59
        CFI EndBlock cfiCond60
        CFI EndBlock cfiPicker61

        RSEG BANKED_CODE:CODE:NOROOT(0)
?Subroutine7:
        CFI Block cfiCond62 Using cfiCommon0
        CFI NoFunction
        CFI Conditional ??CrossCallReturnLabel_14
        CFI R6 load(1, XDATA, add(CFA_XSP16, literal(-10)))
        CFI VB load(1, XDATA, add(CFA_XSP16, literal(-9)))
        CFI V0 load(1, XDATA, add(CFA_XSP16, literal(-8)))
        CFI V1 load(1, XDATA, add(CFA_XSP16, literal(-7)))
        CFI R7 load(1, XDATA, add(CFA_XSP16, literal(-6)))
        CFI ?RET_LOW load(1, XDATA, add(CFA_XSP16, literal(-5)))
        CFI ?RET_HIGH load(1, XDATA, add(CFA_XSP16, literal(-4)))
        CFI ?BRET_EXT load(1, XDATA, add(CFA_XSP16, literal(-3)))
        CFI DPL0 load(1, XDATA, add(CFA_XSP16, literal(-2)))
        CFI DPH0 load(1, XDATA, add(CFA_XSP16, literal(-1)))
        CFI CFA_SP SP+0
        CFI CFA_XSP16 add(XSP16, 10)
        CFI Block cfiCond63 Using cfiCommon0
        CFI (cfiCond63) NoFunction
        CFI (cfiCond63) Conditional ??CrossCallReturnLabel_15
        CFI (cfiCond63) R6 load(1, XDATA, add(CFA_XSP16, literal(-10)))
        CFI (cfiCond63) VB load(1, XDATA, add(CFA_XSP16, literal(-9)))
        CFI (cfiCond63) V0 load(1, XDATA, add(CFA_XSP16, literal(-8)))
        CFI (cfiCond63) V1 load(1, XDATA, add(CFA_XSP16, literal(-7)))
        CFI (cfiCond63) R7 load(1, XDATA, add(CFA_XSP16, literal(-6)))
        CFI (cfiCond63) ?RET_LOW load(1, XDATA, add(CFA_XSP16, literal(-5)))
        CFI (cfiCond63) ?RET_HIGH load(1, XDATA, add(CFA_XSP16, literal(-4)))
        CFI (cfiCond63) ?BRET_EXT load(1, XDATA, add(CFA_XSP16, literal(-3)))
        CFI (cfiCond63) DPL0 load(1, XDATA, add(CFA_XSP16, literal(-2)))
        CFI (cfiCond63) DPH0 load(1, XDATA, add(CFA_XSP16, literal(-1)))
        CFI (cfiCond63) CFA_SP SP+0
        CFI (cfiCond63) CFA_XSP16 add(XSP16, 10)
        CFI Block cfiPicker64 Using cfiCommon1
        CFI (cfiPicker64) NoFunction
        CFI (cfiPicker64) Picker
        LCALL   ?Subroutine19 & 0xFFFF
??CrossCallReturnLabel_40:
        MOVX    A,@DPTR
        RET
        CFI EndBlock cfiCond62
        CFI EndBlock cfiCond63
        CFI EndBlock cfiPicker64

        RSEG BANKED_CODE:CODE:NOROOT(0)
?Subroutine6:
        CFI Block cfiCond65 Using cfiCommon0
        CFI NoFunction
        CFI Conditional ??CrossCallReturnLabel_12
        CFI R6 load(1, XDATA, add(CFA_XSP16, literal(-10)))
        CFI VB load(1, XDATA, add(CFA_XSP16, literal(-9)))
        CFI V0 load(1, XDATA, add(CFA_XSP16, literal(-8)))
        CFI V1 load(1, XDATA, add(CFA_XSP16, literal(-7)))
        CFI R7 load(1, XDATA, add(CFA_XSP16, literal(-6)))
        CFI ?RET_LOW load(1, XDATA, add(CFA_XSP16, literal(-5)))
        CFI ?RET_HIGH load(1, XDATA, add(CFA_XSP16, literal(-4)))
        CFI ?BRET_EXT load(1, XDATA, add(CFA_XSP16, literal(-3)))
        CFI DPL0 load(1, XDATA, add(CFA_XSP16, literal(-2)))
        CFI DPH0 load(1, XDATA, add(CFA_XSP16, literal(-1)))
        CFI CFA_SP SP+0
        CFI CFA_XSP16 add(XSP16, 10)
        CFI Block cfiCond66 Using cfiCommon0
        CFI (cfiCond66) NoFunction
        CFI (cfiCond66) Conditional ??CrossCallReturnLabel_13
        CFI (cfiCond66) R6 load(1, XDATA, add(CFA_XSP16, literal(-10)))
        CFI (cfiCond66) VB load(1, XDATA, add(CFA_XSP16, literal(-9)))
        CFI (cfiCond66) V0 load(1, XDATA, add(CFA_XSP16, literal(-8)))
        CFI (cfiCond66) V1 load(1, XDATA, add(CFA_XSP16, literal(-7)))
        CFI (cfiCond66) R7 load(1, XDATA, add(CFA_XSP16, literal(-6)))
        CFI (cfiCond66) ?RET_LOW load(1, XDATA, add(CFA_XSP16, literal(-5)))
        CFI (cfiCond66) ?RET_HIGH load(1, XDATA, add(CFA_XSP16, literal(-4)))
        CFI (cfiCond66) ?BRET_EXT load(1, XDATA, add(CFA_XSP16, literal(-3)))
        CFI (cfiCond66) DPL0 load(1, XDATA, add(CFA_XSP16, literal(-2)))
        CFI (cfiCond66) DPH0 load(1, XDATA, add(CFA_XSP16, literal(-1)))
        CFI (cfiCond66) CFA_SP SP+0
        CFI (cfiCond66) CFA_XSP16 add(XSP16, 10)
        CFI Block cfiPicker67 Using cfiCommon1
        CFI (cfiPicker67) NoFunction
        CFI (cfiPicker67) Picker
        LCALL   ?Subroutine18 & 0xFFFF
??CrossCallReturnLabel_39:
        MOVX    A,@DPTR
        RET
        CFI EndBlock cfiCond65
        CFI EndBlock cfiCond66
        CFI EndBlock cfiPicker67

        RSEG BANKED_CODE:CODE:NOROOT(0)
?Subroutine18:
        CFI Block cfiCond68 Using cfiCommon0
        CFI NoFunction
        CFI Conditional ??CrossCallReturnLabel_38
        CFI R6 load(1, XDATA, add(CFA_XSP16, literal(-10)))
        CFI VB load(1, XDATA, add(CFA_XSP16, literal(-9)))
        CFI V0 load(1, XDATA, add(CFA_XSP16, literal(-8)))
        CFI V1 load(1, XDATA, add(CFA_XSP16, literal(-7)))
        CFI R7 load(1, XDATA, add(CFA_XSP16, literal(-6)))
        CFI ?RET_LOW load(1, XDATA, add(CFA_XSP16, literal(-5)))
        CFI ?RET_HIGH load(1, XDATA, add(CFA_XSP16, literal(-4)))
        CFI ?BRET_EXT load(1, XDATA, add(CFA_XSP16, literal(-3)))
        CFI DPL0 load(1, XDATA, add(CFA_XSP16, literal(-2)))
        CFI DPH0 load(1, XDATA, add(CFA_XSP16, literal(-1)))
        CFI CFA_SP SP+0
        CFI CFA_XSP16 add(XSP16, 10)
        CFI Block cfiCond69 Using cfiCommon0
        CFI (cfiCond69) NoFunction
        CFI (cfiCond69) Conditional ??CrossCallReturnLabel_39, ??CrossCallReturnLabel_12
        CFI (cfiCond69) R6 load(1, XDATA, add(CFA_XSP16, literal(-10)))
        CFI (cfiCond69) VB load(1, XDATA, add(CFA_XSP16, literal(-9)))
        CFI (cfiCond69) V0 load(1, XDATA, add(CFA_XSP16, literal(-8)))
        CFI (cfiCond69) V1 load(1, XDATA, add(CFA_XSP16, literal(-7)))
        CFI (cfiCond69) R7 load(1, XDATA, add(CFA_XSP16, literal(-6)))
        CFI (cfiCond69) ?RET_LOW load(1, XDATA, add(CFA_XSP16, literal(-5)))
        CFI (cfiCond69) ?RET_HIGH load(1, XDATA, add(CFA_XSP16, literal(-4)))
        CFI (cfiCond69) ?BRET_EXT load(1, XDATA, add(CFA_XSP16, literal(-3)))
        CFI (cfiCond69) DPL0 load(1, XDATA, add(CFA_XSP16, literal(-2)))
        CFI (cfiCond69) DPH0 load(1, XDATA, add(CFA_XSP16, literal(-1)))
        CFI (cfiCond69) CFA_SP SP+0
        CFI (cfiCond69) CFA_XSP16 add(XSP16, 10)
        CFI Block cfiCond70 Using cfiCommon0
        CFI (cfiCond70) NoFunction
        CFI (cfiCond70) Conditional ??CrossCallReturnLabel_39, ??CrossCallReturnLabel_13
        CFI (cfiCond70) R6 load(1, XDATA, add(CFA_XSP16, literal(-10)))
        CFI (cfiCond70) VB load(1, XDATA, add(CFA_XSP16, literal(-9)))
        CFI (cfiCond70) V0 load(1, XDATA, add(CFA_XSP16, literal(-8)))
        CFI (cfiCond70) V1 load(1, XDATA, add(CFA_XSP16, literal(-7)))
        CFI (cfiCond70) R7 load(1, XDATA, add(CFA_XSP16, literal(-6)))
        CFI (cfiCond70) ?RET_LOW load(1, XDATA, add(CFA_XSP16, literal(-5)))
        CFI (cfiCond70) ?RET_HIGH load(1, XDATA, add(CFA_XSP16, literal(-4)))
        CFI (cfiCond70) ?BRET_EXT load(1, XDATA, add(CFA_XSP16, literal(-3)))
        CFI (cfiCond70) DPL0 load(1, XDATA, add(CFA_XSP16, literal(-2)))
        CFI (cfiCond70) DPH0 load(1, XDATA, add(CFA_XSP16, literal(-1)))
        CFI (cfiCond70) CFA_SP SP+0
        CFI (cfiCond70) CFA_XSP16 add(XSP16, 10)
        CFI Block cfiPicker71 Using cfiCommon1
        CFI (cfiPicker71) NoFunction
        CFI (cfiPicker71) Picker
        MOVX    @DPTR,A
        LCALL   ?Subroutine23 & 0xFFFF
??CrossCallReturnLabel_46:
        INC     DPTR
        INC     DPTR
        RET
        CFI EndBlock cfiCond68
        CFI EndBlock cfiCond69
        CFI EndBlock cfiCond70
        CFI EndBlock cfiPicker71

        RSEG BANKED_CODE:CODE:NOROOT(0)
?Subroutine5:
        CFI Block cfiCond72 Using cfiCommon0
        CFI NoFunction
        CFI Conditional ??CrossCallReturnLabel_10
        CFI R6 load(1, XDATA, add(CFA_XSP16, literal(-10)))
        CFI VB load(1, XDATA, add(CFA_XSP16, literal(-9)))
        CFI V0 load(1, XDATA, add(CFA_XSP16, literal(-8)))
        CFI V1 load(1, XDATA, add(CFA_XSP16, literal(-7)))
        CFI R7 load(1, XDATA, add(CFA_XSP16, literal(-6)))
        CFI ?RET_LOW load(1, XDATA, add(CFA_XSP16, literal(-5)))
        CFI ?RET_HIGH load(1, XDATA, add(CFA_XSP16, literal(-4)))
        CFI ?BRET_EXT load(1, XDATA, add(CFA_XSP16, literal(-3)))
        CFI DPL0 load(1, XDATA, add(CFA_XSP16, literal(-2)))
        CFI DPH0 load(1, XDATA, add(CFA_XSP16, literal(-1)))
        CFI CFA_SP SP+0
        CFI CFA_XSP16 add(XSP16, 10)
        CFI Block cfiCond73 Using cfiCommon0
        CFI (cfiCond73) NoFunction
        CFI (cfiCond73) Conditional ??CrossCallReturnLabel_11
        CFI (cfiCond73) R6 load(1, XDATA, add(CFA_XSP16, literal(-10)))
        CFI (cfiCond73) VB load(1, XDATA, add(CFA_XSP16, literal(-9)))
        CFI (cfiCond73) V0 load(1, XDATA, add(CFA_XSP16, literal(-8)))
        CFI (cfiCond73) V1 load(1, XDATA, add(CFA_XSP16, literal(-7)))
        CFI (cfiCond73) R7 load(1, XDATA, add(CFA_XSP16, literal(-6)))
        CFI (cfiCond73) ?RET_LOW load(1, XDATA, add(CFA_XSP16, literal(-5)))
        CFI (cfiCond73) ?RET_HIGH load(1, XDATA, add(CFA_XSP16, literal(-4)))
        CFI (cfiCond73) ?BRET_EXT load(1, XDATA, add(CFA_XSP16, literal(-3)))
        CFI (cfiCond73) DPL0 load(1, XDATA, add(CFA_XSP16, literal(-2)))
        CFI (cfiCond73) DPH0 load(1, XDATA, add(CFA_XSP16, literal(-1)))
        CFI (cfiCond73) CFA_SP SP+0
        CFI (cfiCond73) CFA_XSP16 add(XSP16, 10)
        CFI Block cfiPicker74 Using cfiCommon1
        CFI (cfiPicker74) NoFunction
        CFI (cfiPicker74) Picker
        LCALL   ?Subroutine19 & 0xFFFF
??CrossCallReturnLabel_41:
        INC     DPTR
        INC     DPTR
        RET
        CFI EndBlock cfiCond72
        CFI EndBlock cfiCond73
        CFI EndBlock cfiPicker74

        RSEG BANKED_CODE:CODE:NOROOT(0)
?Subroutine19:
        CFI Block cfiCond75 Using cfiCommon0
        CFI NoFunction
        CFI Conditional ??CrossCallReturnLabel_40, ??CrossCallReturnLabel_14
        CFI R6 load(1, XDATA, add(CFA_XSP16, literal(-10)))
        CFI VB load(1, XDATA, add(CFA_XSP16, literal(-9)))
        CFI V0 load(1, XDATA, add(CFA_XSP16, literal(-8)))
        CFI V1 load(1, XDATA, add(CFA_XSP16, literal(-7)))
        CFI R7 load(1, XDATA, add(CFA_XSP16, literal(-6)))
        CFI ?RET_LOW load(1, XDATA, add(CFA_XSP16, literal(-5)))
        CFI ?RET_HIGH load(1, XDATA, add(CFA_XSP16, literal(-4)))
        CFI ?BRET_EXT load(1, XDATA, add(CFA_XSP16, literal(-3)))
        CFI DPL0 load(1, XDATA, add(CFA_XSP16, literal(-2)))
        CFI DPH0 load(1, XDATA, add(CFA_XSP16, literal(-1)))
        CFI CFA_SP SP+0
        CFI CFA_XSP16 add(XSP16, 10)
        CFI Block cfiCond76 Using cfiCommon0
        CFI (cfiCond76) NoFunction
        CFI (cfiCond76) Conditional ??CrossCallReturnLabel_40, ??CrossCallReturnLabel_15
        CFI (cfiCond76) R6 load(1, XDATA, add(CFA_XSP16, literal(-10)))
        CFI (cfiCond76) VB load(1, XDATA, add(CFA_XSP16, literal(-9)))
        CFI (cfiCond76) V0 load(1, XDATA, add(CFA_XSP16, literal(-8)))
        CFI (cfiCond76) V1 load(1, XDATA, add(CFA_XSP16, literal(-7)))
        CFI (cfiCond76) R7 load(1, XDATA, add(CFA_XSP16, literal(-6)))
        CFI (cfiCond76) ?RET_LOW load(1, XDATA, add(CFA_XSP16, literal(-5)))
        CFI (cfiCond76) ?RET_HIGH load(1, XDATA, add(CFA_XSP16, literal(-4)))
        CFI (cfiCond76) ?BRET_EXT load(1, XDATA, add(CFA_XSP16, literal(-3)))
        CFI (cfiCond76) DPL0 load(1, XDATA, add(CFA_XSP16, literal(-2)))
        CFI (cfiCond76) DPH0 load(1, XDATA, add(CFA_XSP16, literal(-1)))
        CFI (cfiCond76) CFA_SP SP+0
        CFI (cfiCond76) CFA_XSP16 add(XSP16, 10)
        CFI Block cfiCond77 Using cfiCommon0
        CFI (cfiCond77) NoFunction
        CFI (cfiCond77) Conditional ??CrossCallReturnLabel_41, ??CrossCallReturnLabel_10
        CFI (cfiCond77) R6 load(1, XDATA, add(CFA_XSP16, literal(-10)))
        CFI (cfiCond77) VB load(1, XDATA, add(CFA_XSP16, literal(-9)))
        CFI (cfiCond77) V0 load(1, XDATA, add(CFA_XSP16, literal(-8)))
        CFI (cfiCond77) V1 load(1, XDATA, add(CFA_XSP16, literal(-7)))
        CFI (cfiCond77) R7 load(1, XDATA, add(CFA_XSP16, literal(-6)))
        CFI (cfiCond77) ?RET_LOW load(1, XDATA, add(CFA_XSP16, literal(-5)))
        CFI (cfiCond77) ?RET_HIGH load(1, XDATA, add(CFA_XSP16, literal(-4)))
        CFI (cfiCond77) ?BRET_EXT load(1, XDATA, add(CFA_XSP16, literal(-3)))
        CFI (cfiCond77) DPL0 load(1, XDATA, add(CFA_XSP16, literal(-2)))
        CFI (cfiCond77) DPH0 load(1, XDATA, add(CFA_XSP16, literal(-1)))
        CFI (cfiCond77) CFA_SP SP+0
        CFI (cfiCond77) CFA_XSP16 add(XSP16, 10)
        CFI Block cfiCond78 Using cfiCommon0
        CFI (cfiCond78) NoFunction
        CFI (cfiCond78) Conditional ??CrossCallReturnLabel_41, ??CrossCallReturnLabel_11
        CFI (cfiCond78) R6 load(1, XDATA, add(CFA_XSP16, literal(-10)))
        CFI (cfiCond78) VB load(1, XDATA, add(CFA_XSP16, literal(-9)))
        CFI (cfiCond78) V0 load(1, XDATA, add(CFA_XSP16, literal(-8)))
        CFI (cfiCond78) V1 load(1, XDATA, add(CFA_XSP16, literal(-7)))
        CFI (cfiCond78) R7 load(1, XDATA, add(CFA_XSP16, literal(-6)))
        CFI (cfiCond78) ?RET_LOW load(1, XDATA, add(CFA_XSP16, literal(-5)))
        CFI (cfiCond78) ?RET_HIGH load(1, XDATA, add(CFA_XSP16, literal(-4)))
        CFI (cfiCond78) ?BRET_EXT load(1, XDATA, add(CFA_XSP16, literal(-3)))
        CFI (cfiCond78) DPL0 load(1, XDATA, add(CFA_XSP16, literal(-2)))
        CFI (cfiCond78) DPH0 load(1, XDATA, add(CFA_XSP16, literal(-1)))
        CFI (cfiCond78) CFA_SP SP+0
        CFI (cfiCond78) CFA_XSP16 add(XSP16, 10)
        CFI Block cfiPicker79 Using cfiCommon1
        CFI (cfiPicker79) NoFunction
        CFI (cfiPicker79) Picker
        MOVX    @DPTR,A
        MOV     DPL,R0
        MOV     DPH,R1
        MOVX    A,@DPTR
        MOV     R0,A
        INC     DPTR
        MOVX    A,@DPTR
        MOV     DPH,A
        MOV     DPL,R0
        INC     DPTR
        INC     DPTR
        INC     DPTR
        INC     DPTR
        INC     DPTR
        RET
        CFI EndBlock cfiCond75
        CFI EndBlock cfiCond76
        CFI EndBlock cfiCond77
        CFI EndBlock cfiCond78
        CFI EndBlock cfiPicker79

        RSEG BANKED_CODE:CODE:NOROOT(0)
?Subroutine3:
        CFI Block cfiCond80 Using cfiCommon0
        CFI NoFunction
        CFI Conditional ??CrossCallReturnLabel_4
        CFI R6 load(1, XDATA, add(CFA_XSP16, literal(-10)))
        CFI VB load(1, XDATA, add(CFA_XSP16, literal(-9)))
        CFI V0 load(1, XDATA, add(CFA_XSP16, literal(-8)))
        CFI V1 load(1, XDATA, add(CFA_XSP16, literal(-7)))
        CFI R7 load(1, XDATA, add(CFA_XSP16, literal(-6)))
        CFI ?RET_LOW load(1, XDATA, add(CFA_XSP16, literal(-5)))
        CFI ?RET_HIGH load(1, XDATA, add(CFA_XSP16, literal(-4)))
        CFI ?BRET_EXT load(1, XDATA, add(CFA_XSP16, literal(-3)))
        CFI DPL0 load(1, XDATA, add(CFA_XSP16, literal(-2)))
        CFI DPH0 load(1, XDATA, add(CFA_XSP16, literal(-1)))
        CFI CFA_SP SP+0
        CFI CFA_XSP16 add(XSP16, 10)
        CFI Block cfiCond81 Using cfiCommon0
        CFI (cfiCond81) NoFunction
        CFI (cfiCond81) Conditional ??CrossCallReturnLabel_5
        CFI (cfiCond81) R6 load(1, XDATA, add(CFA_XSP16, literal(-10)))
        CFI (cfiCond81) VB load(1, XDATA, add(CFA_XSP16, literal(-9)))
        CFI (cfiCond81) V0 load(1, XDATA, add(CFA_XSP16, literal(-8)))
        CFI (cfiCond81) V1 load(1, XDATA, add(CFA_XSP16, literal(-7)))
        CFI (cfiCond81) R7 load(1, XDATA, add(CFA_XSP16, literal(-6)))
        CFI (cfiCond81) ?RET_LOW load(1, XDATA, add(CFA_XSP16, literal(-5)))
        CFI (cfiCond81) ?RET_HIGH load(1, XDATA, add(CFA_XSP16, literal(-4)))
        CFI (cfiCond81) ?BRET_EXT load(1, XDATA, add(CFA_XSP16, literal(-3)))
        CFI (cfiCond81) DPL0 load(1, XDATA, add(CFA_XSP16, literal(-2)))
        CFI (cfiCond81) DPH0 load(1, XDATA, add(CFA_XSP16, literal(-1)))
        CFI (cfiCond81) CFA_SP SP+0
        CFI (cfiCond81) CFA_XSP16 add(XSP16, 10)
        CFI Block cfiCond82 Using cfiCommon0
        CFI (cfiCond82) NoFunction
        CFI (cfiCond82) Conditional ??CrossCallReturnLabel_6
        CFI (cfiCond82) R6 load(1, XDATA, add(CFA_XSP16, literal(-10)))
        CFI (cfiCond82) VB load(1, XDATA, add(CFA_XSP16, literal(-9)))
        CFI (cfiCond82) V0 load(1, XDATA, add(CFA_XSP16, literal(-8)))
        CFI (cfiCond82) V1 load(1, XDATA, add(CFA_XSP16, literal(-7)))
        CFI (cfiCond82) R7 load(1, XDATA, add(CFA_XSP16, literal(-6)))
        CFI (cfiCond82) ?RET_LOW load(1, XDATA, add(CFA_XSP16, literal(-5)))
        CFI (cfiCond82) ?RET_HIGH load(1, XDATA, add(CFA_XSP16, literal(-4)))
        CFI (cfiCond82) ?BRET_EXT load(1, XDATA, add(CFA_XSP16, literal(-3)))
        CFI (cfiCond82) DPL0 load(1, XDATA, add(CFA_XSP16, literal(-2)))
        CFI (cfiCond82) DPH0 load(1, XDATA, add(CFA_XSP16, literal(-1)))
        CFI (cfiCond82) CFA_SP SP+0
        CFI (cfiCond82) CFA_XSP16 add(XSP16, 10)
        CFI Block cfiCond83 Using cfiCommon0
        CFI (cfiCond83) NoFunction
        CFI (cfiCond83) Conditional ??CrossCallReturnLabel_7
        CFI (cfiCond83) R6 load(1, XDATA, add(CFA_XSP16, literal(-10)))
        CFI (cfiCond83) VB load(1, XDATA, add(CFA_XSP16, literal(-9)))
        CFI (cfiCond83) V0 load(1, XDATA, add(CFA_XSP16, literal(-8)))
        CFI (cfiCond83) V1 load(1, XDATA, add(CFA_XSP16, literal(-7)))
        CFI (cfiCond83) R7 load(1, XDATA, add(CFA_XSP16, literal(-6)))
        CFI (cfiCond83) ?RET_LOW load(1, XDATA, add(CFA_XSP16, literal(-5)))
        CFI (cfiCond83) ?RET_HIGH load(1, XDATA, add(CFA_XSP16, literal(-4)))
        CFI (cfiCond83) ?BRET_EXT load(1, XDATA, add(CFA_XSP16, literal(-3)))
        CFI (cfiCond83) DPL0 load(1, XDATA, add(CFA_XSP16, literal(-2)))
        CFI (cfiCond83) DPH0 load(1, XDATA, add(CFA_XSP16, literal(-1)))
        CFI (cfiCond83) CFA_SP SP+0
        CFI (cfiCond83) CFA_XSP16 add(XSP16, 10)
        CFI Block cfiPicker84 Using cfiCommon1
        CFI (cfiPicker84) NoFunction
        CFI (cfiPicker84) Picker
        MOV     A,#0x1
        MOVX    @DPTR,A
        MOV     A,R2
        ADD     A,#0x22
        MOV     DPL,A
        MOV     A,R3
        ADDC    A,#0x0
        MOV     DPH,A
        LCALL   ?Subroutine22 & 0xFFFF
??CrossCallReturnLabel_51:
        INC     DPTR
        INC     DPTR
        INC     DPTR
        INC     DPTR
        MOVX    A,@DPTR
        RET
        CFI EndBlock cfiCond80
        CFI EndBlock cfiCond81
        CFI EndBlock cfiCond82
        CFI EndBlock cfiCond83
        CFI EndBlock cfiPicker84

        RSEG BANKED_CODE:CODE:NOROOT(0)
?Subroutine2:
        CFI Block cfiCond85 Using cfiCommon0
        CFI NoFunction
        CFI Conditional ??CrossCallReturnLabel_0
        CFI R6 load(1, XDATA, add(CFA_XSP16, literal(-10)))
        CFI VB load(1, XDATA, add(CFA_XSP16, literal(-9)))
        CFI V0 load(1, XDATA, add(CFA_XSP16, literal(-8)))
        CFI V1 load(1, XDATA, add(CFA_XSP16, literal(-7)))
        CFI R7 load(1, XDATA, add(CFA_XSP16, literal(-6)))
        CFI ?RET_LOW load(1, XDATA, add(CFA_XSP16, literal(-5)))
        CFI ?RET_HIGH load(1, XDATA, add(CFA_XSP16, literal(-4)))
        CFI ?BRET_EXT load(1, XDATA, add(CFA_XSP16, literal(-3)))
        CFI DPL0 load(1, XDATA, add(CFA_XSP16, literal(-2)))
        CFI DPH0 load(1, XDATA, add(CFA_XSP16, literal(-1)))
        CFI CFA_SP SP+0
        CFI CFA_XSP16 add(XSP16, 10)
        CFI Block cfiCond86 Using cfiCommon0
        CFI (cfiCond86) NoFunction
        CFI (cfiCond86) Conditional ??CrossCallReturnLabel_1
        CFI (cfiCond86) R6 load(1, XDATA, add(CFA_XSP16, literal(-10)))
        CFI (cfiCond86) VB load(1, XDATA, add(CFA_XSP16, literal(-9)))
        CFI (cfiCond86) V0 load(1, XDATA, add(CFA_XSP16, literal(-8)))
        CFI (cfiCond86) V1 load(1, XDATA, add(CFA_XSP16, literal(-7)))
        CFI (cfiCond86) R7 load(1, XDATA, add(CFA_XSP16, literal(-6)))
        CFI (cfiCond86) ?RET_LOW load(1, XDATA, add(CFA_XSP16, literal(-5)))
        CFI (cfiCond86) ?RET_HIGH load(1, XDATA, add(CFA_XSP16, literal(-4)))
        CFI (cfiCond86) ?BRET_EXT load(1, XDATA, add(CFA_XSP16, literal(-3)))
        CFI (cfiCond86) DPL0 load(1, XDATA, add(CFA_XSP16, literal(-2)))
        CFI (cfiCond86) DPH0 load(1, XDATA, add(CFA_XSP16, literal(-1)))
        CFI (cfiCond86) CFA_SP SP+0
        CFI (cfiCond86) CFA_XSP16 add(XSP16, 10)
        CFI Block cfiCond87 Using cfiCommon0
        CFI (cfiCond87) NoFunction
        CFI (cfiCond87) Conditional ??CrossCallReturnLabel_2
        CFI (cfiCond87) R6 load(1, XDATA, add(CFA_XSP16, literal(-10)))
        CFI (cfiCond87) VB load(1, XDATA, add(CFA_XSP16, literal(-9)))
        CFI (cfiCond87) V0 load(1, XDATA, add(CFA_XSP16, literal(-8)))
        CFI (cfiCond87) V1 load(1, XDATA, add(CFA_XSP16, literal(-7)))
        CFI (cfiCond87) R7 load(1, XDATA, add(CFA_XSP16, literal(-6)))
        CFI (cfiCond87) ?RET_LOW load(1, XDATA, add(CFA_XSP16, literal(-5)))
        CFI (cfiCond87) ?RET_HIGH load(1, XDATA, add(CFA_XSP16, literal(-4)))
        CFI (cfiCond87) ?BRET_EXT load(1, XDATA, add(CFA_XSP16, literal(-3)))
        CFI (cfiCond87) DPL0 load(1, XDATA, add(CFA_XSP16, literal(-2)))
        CFI (cfiCond87) DPH0 load(1, XDATA, add(CFA_XSP16, literal(-1)))
        CFI (cfiCond87) CFA_SP SP+0
        CFI (cfiCond87) CFA_XSP16 add(XSP16, 10)
        CFI Block cfiCond88 Using cfiCommon0
        CFI (cfiCond88) NoFunction
        CFI (cfiCond88) Conditional ??CrossCallReturnLabel_3
        CFI (cfiCond88) R6 load(1, XDATA, add(CFA_XSP16, literal(-10)))
        CFI (cfiCond88) VB load(1, XDATA, add(CFA_XSP16, literal(-9)))
        CFI (cfiCond88) V0 load(1, XDATA, add(CFA_XSP16, literal(-8)))
        CFI (cfiCond88) V1 load(1, XDATA, add(CFA_XSP16, literal(-7)))
        CFI (cfiCond88) R7 load(1, XDATA, add(CFA_XSP16, literal(-6)))
        CFI (cfiCond88) ?RET_LOW load(1, XDATA, add(CFA_XSP16, literal(-5)))
        CFI (cfiCond88) ?RET_HIGH load(1, XDATA, add(CFA_XSP16, literal(-4)))
        CFI (cfiCond88) ?BRET_EXT load(1, XDATA, add(CFA_XSP16, literal(-3)))
        CFI (cfiCond88) DPL0 load(1, XDATA, add(CFA_XSP16, literal(-2)))
        CFI (cfiCond88) DPH0 load(1, XDATA, add(CFA_XSP16, literal(-1)))
        CFI (cfiCond88) CFA_SP SP+0
        CFI (cfiCond88) CFA_XSP16 add(XSP16, 10)
        CFI Block cfiPicker89 Using cfiCommon1
        CFI (cfiPicker89) NoFunction
        CFI (cfiPicker89) Picker
        MOV     A,#0x1
        MOVX    @DPTR,A
        MOV     A,R2
        ADD     A,#0x22
        MOV     R0,A
        MOV     A,R3
        ADDC    A,#0x0
        MOV     R1,A
        LCALL   ?Subroutine21 & 0xFFFF
??CrossCallReturnLabel_44:
        MOVX    A,@DPTR
        RET
        CFI EndBlock cfiCond85
        CFI EndBlock cfiCond86
        CFI EndBlock cfiCond87
        CFI EndBlock cfiCond88
        CFI EndBlock cfiPicker89

        RSEG BANKED_CODE:CODE:NOROOT(0)
?Subroutine21:
        CFI Block cfiCond90 Using cfiCommon0
        CFI NoFunction
        CFI Conditional ??CrossCallReturnLabel_45, ??CrossCallReturnLabel_16
        CFI R6 load(1, XDATA, add(CFA_XSP16, literal(-10)))
        CFI VB load(1, XDATA, add(CFA_XSP16, literal(-9)))
        CFI V0 load(1, XDATA, add(CFA_XSP16, literal(-8)))
        CFI V1 load(1, XDATA, add(CFA_XSP16, literal(-7)))
        CFI R7 load(1, XDATA, add(CFA_XSP16, literal(-6)))
        CFI ?RET_LOW load(1, XDATA, add(CFA_XSP16, literal(-5)))
        CFI ?RET_HIGH load(1, XDATA, add(CFA_XSP16, literal(-4)))
        CFI ?BRET_EXT load(1, XDATA, add(CFA_XSP16, literal(-3)))
        CFI DPL0 load(1, XDATA, add(CFA_XSP16, literal(-2)))
        CFI DPH0 load(1, XDATA, add(CFA_XSP16, literal(-1)))
        CFI CFA_SP SP+0
        CFI CFA_XSP16 add(XSP16, 10)
        CFI Block cfiCond91 Using cfiCommon0
        CFI (cfiCond91) NoFunction
        CFI (cfiCond91) Conditional ??CrossCallReturnLabel_45, ??CrossCallReturnLabel_17
        CFI (cfiCond91) R6 load(1, XDATA, add(CFA_XSP16, literal(-10)))
        CFI (cfiCond91) VB load(1, XDATA, add(CFA_XSP16, literal(-9)))
        CFI (cfiCond91) V0 load(1, XDATA, add(CFA_XSP16, literal(-8)))
        CFI (cfiCond91) V1 load(1, XDATA, add(CFA_XSP16, literal(-7)))
        CFI (cfiCond91) R7 load(1, XDATA, add(CFA_XSP16, literal(-6)))
        CFI (cfiCond91) ?RET_LOW load(1, XDATA, add(CFA_XSP16, literal(-5)))
        CFI (cfiCond91) ?RET_HIGH load(1, XDATA, add(CFA_XSP16, literal(-4)))
        CFI (cfiCond91) ?BRET_EXT load(1, XDATA, add(CFA_XSP16, literal(-3)))
        CFI (cfiCond91) DPL0 load(1, XDATA, add(CFA_XSP16, literal(-2)))
        CFI (cfiCond91) DPH0 load(1, XDATA, add(CFA_XSP16, literal(-1)))
        CFI (cfiCond91) CFA_SP SP+0
        CFI (cfiCond91) CFA_XSP16 add(XSP16, 10)
        CFI Block cfiCond92 Using cfiCommon0
        CFI (cfiCond92) NoFunction
        CFI (cfiCond92) Conditional ??CrossCallReturnLabel_44, ??CrossCallReturnLabel_0
        CFI (cfiCond92) R6 load(1, XDATA, add(CFA_XSP16, literal(-10)))
        CFI (cfiCond92) VB load(1, XDATA, add(CFA_XSP16, literal(-9)))
        CFI (cfiCond92) V0 load(1, XDATA, add(CFA_XSP16, literal(-8)))
        CFI (cfiCond92) V1 load(1, XDATA, add(CFA_XSP16, literal(-7)))
        CFI (cfiCond92) R7 load(1, XDATA, add(CFA_XSP16, literal(-6)))
        CFI (cfiCond92) ?RET_LOW load(1, XDATA, add(CFA_XSP16, literal(-5)))
        CFI (cfiCond92) ?RET_HIGH load(1, XDATA, add(CFA_XSP16, literal(-4)))
        CFI (cfiCond92) ?BRET_EXT load(1, XDATA, add(CFA_XSP16, literal(-3)))
        CFI (cfiCond92) DPL0 load(1, XDATA, add(CFA_XSP16, literal(-2)))
        CFI (cfiCond92) DPH0 load(1, XDATA, add(CFA_XSP16, literal(-1)))
        CFI (cfiCond92) CFA_SP SP+0
        CFI (cfiCond92) CFA_XSP16 add(XSP16, 10)
        CFI Block cfiCond93 Using cfiCommon0
        CFI (cfiCond93) NoFunction
        CFI (cfiCond93) Conditional ??CrossCallReturnLabel_44, ??CrossCallReturnLabel_1
        CFI (cfiCond93) R6 load(1, XDATA, add(CFA_XSP16, literal(-10)))
        CFI (cfiCond93) VB load(1, XDATA, add(CFA_XSP16, literal(-9)))
        CFI (cfiCond93) V0 load(1, XDATA, add(CFA_XSP16, literal(-8)))
        CFI (cfiCond93) V1 load(1, XDATA, add(CFA_XSP16, literal(-7)))
        CFI (cfiCond93) R7 load(1, XDATA, add(CFA_XSP16, literal(-6)))
        CFI (cfiCond93) ?RET_LOW load(1, XDATA, add(CFA_XSP16, literal(-5)))
        CFI (cfiCond93) ?RET_HIGH load(1, XDATA, add(CFA_XSP16, literal(-4)))
        CFI (cfiCond93) ?BRET_EXT load(1, XDATA, add(CFA_XSP16, literal(-3)))
        CFI (cfiCond93) DPL0 load(1, XDATA, add(CFA_XSP16, literal(-2)))
        CFI (cfiCond93) DPH0 load(1, XDATA, add(CFA_XSP16, literal(-1)))
        CFI (cfiCond93) CFA_SP SP+0
        CFI (cfiCond93) CFA_XSP16 add(XSP16, 10)
        CFI Block cfiCond94 Using cfiCommon0
        CFI (cfiCond94) NoFunction
        CFI (cfiCond94) Conditional ??CrossCallReturnLabel_44, ??CrossCallReturnLabel_2
        CFI (cfiCond94) R6 load(1, XDATA, add(CFA_XSP16, literal(-10)))
        CFI (cfiCond94) VB load(1, XDATA, add(CFA_XSP16, literal(-9)))
        CFI (cfiCond94) V0 load(1, XDATA, add(CFA_XSP16, literal(-8)))
        CFI (cfiCond94) V1 load(1, XDATA, add(CFA_XSP16, literal(-7)))
        CFI (cfiCond94) R7 load(1, XDATA, add(CFA_XSP16, literal(-6)))
        CFI (cfiCond94) ?RET_LOW load(1, XDATA, add(CFA_XSP16, literal(-5)))
        CFI (cfiCond94) ?RET_HIGH load(1, XDATA, add(CFA_XSP16, literal(-4)))
        CFI (cfiCond94) ?BRET_EXT load(1, XDATA, add(CFA_XSP16, literal(-3)))
        CFI (cfiCond94) DPL0 load(1, XDATA, add(CFA_XSP16, literal(-2)))
        CFI (cfiCond94) DPH0 load(1, XDATA, add(CFA_XSP16, literal(-1)))
        CFI (cfiCond94) CFA_SP SP+0
        CFI (cfiCond94) CFA_XSP16 add(XSP16, 10)
        CFI Block cfiCond95 Using cfiCommon0
        CFI (cfiCond95) NoFunction
        CFI (cfiCond95) Conditional ??CrossCallReturnLabel_44, ??CrossCallReturnLabel_3
        CFI (cfiCond95) R6 load(1, XDATA, add(CFA_XSP16, literal(-10)))
        CFI (cfiCond95) VB load(1, XDATA, add(CFA_XSP16, literal(-9)))
        CFI (cfiCond95) V0 load(1, XDATA, add(CFA_XSP16, literal(-8)))
        CFI (cfiCond95) V1 load(1, XDATA, add(CFA_XSP16, literal(-7)))
        CFI (cfiCond95) R7 load(1, XDATA, add(CFA_XSP16, literal(-6)))
        CFI (cfiCond95) ?RET_LOW load(1, XDATA, add(CFA_XSP16, literal(-5)))
        CFI (cfiCond95) ?RET_HIGH load(1, XDATA, add(CFA_XSP16, literal(-4)))
        CFI (cfiCond95) ?BRET_EXT load(1, XDATA, add(CFA_XSP16, literal(-3)))
        CFI (cfiCond95) DPL0 load(1, XDATA, add(CFA_XSP16, literal(-2)))
        CFI (cfiCond95) DPH0 load(1, XDATA, add(CFA_XSP16, literal(-1)))
        CFI (cfiCond95) CFA_SP SP+0
        CFI (cfiCond95) CFA_XSP16 add(XSP16, 10)
        CFI Block cfiPicker96 Using cfiCommon1
        CFI (cfiPicker96) NoFunction
        CFI (cfiPicker96) Picker
        LCALL   ?Subroutine23 & 0xFFFF
??CrossCallReturnLabel_47:
        RET
        CFI EndBlock cfiCond90
        CFI EndBlock cfiCond91
        CFI EndBlock cfiCond92
        CFI EndBlock cfiCond93
        CFI EndBlock cfiCond94
        CFI EndBlock cfiCond95
        CFI EndBlock cfiPicker96

        RSEG BANKED_CODE:CODE:NOROOT(0)
?Subroutine23:
        CFI Block cfiCond97 Using cfiCommon0
        CFI NoFunction
        CFI Conditional ??CrossCallReturnLabel_46, ??CrossCallReturnLabel_38
        CFI R6 load(1, XDATA, add(CFA_XSP16, literal(-10)))
        CFI VB load(1, XDATA, add(CFA_XSP16, literal(-9)))
        CFI V0 load(1, XDATA, add(CFA_XSP16, literal(-8)))
        CFI V1 load(1, XDATA, add(CFA_XSP16, literal(-7)))
        CFI R7 load(1, XDATA, add(CFA_XSP16, literal(-6)))
        CFI ?RET_LOW load(1, XDATA, add(CFA_XSP16, literal(-5)))
        CFI ?RET_HIGH load(1, XDATA, add(CFA_XSP16, literal(-4)))
        CFI ?BRET_EXT load(1, XDATA, add(CFA_XSP16, literal(-3)))
        CFI DPL0 load(1, XDATA, add(CFA_XSP16, literal(-2)))
        CFI DPH0 load(1, XDATA, add(CFA_XSP16, literal(-1)))
        CFI CFA_SP SP+0
        CFI CFA_XSP16 add(XSP16, 10)
        CFI Block cfiCond98 Using cfiCommon0
        CFI (cfiCond98) NoFunction
        CFI (cfiCond98) Conditional ??CrossCallReturnLabel_46, ??CrossCallReturnLabel_39, ??CrossCallReturnLabel_12
        CFI (cfiCond98) R6 load(1, XDATA, add(CFA_XSP16, literal(-10)))
        CFI (cfiCond98) VB load(1, XDATA, add(CFA_XSP16, literal(-9)))
        CFI (cfiCond98) V0 load(1, XDATA, add(CFA_XSP16, literal(-8)))
        CFI (cfiCond98) V1 load(1, XDATA, add(CFA_XSP16, literal(-7)))
        CFI (cfiCond98) R7 load(1, XDATA, add(CFA_XSP16, literal(-6)))
        CFI (cfiCond98) ?RET_LOW load(1, XDATA, add(CFA_XSP16, literal(-5)))
        CFI (cfiCond98) ?RET_HIGH load(1, XDATA, add(CFA_XSP16, literal(-4)))
        CFI (cfiCond98) ?BRET_EXT load(1, XDATA, add(CFA_XSP16, literal(-3)))
        CFI (cfiCond98) DPL0 load(1, XDATA, add(CFA_XSP16, literal(-2)))
        CFI (cfiCond98) DPH0 load(1, XDATA, add(CFA_XSP16, literal(-1)))
        CFI (cfiCond98) CFA_SP SP+0
        CFI (cfiCond98) CFA_XSP16 add(XSP16, 10)
        CFI Block cfiCond99 Using cfiCommon0
        CFI (cfiCond99) NoFunction
        CFI (cfiCond99) Conditional ??CrossCallReturnLabel_46, ??CrossCallReturnLabel_39, ??CrossCallReturnLabel_13
        CFI (cfiCond99) R6 load(1, XDATA, add(CFA_XSP16, literal(-10)))
        CFI (cfiCond99) VB load(1, XDATA, add(CFA_XSP16, literal(-9)))
        CFI (cfiCond99) V0 load(1, XDATA, add(CFA_XSP16, literal(-8)))
        CFI (cfiCond99) V1 load(1, XDATA, add(CFA_XSP16, literal(-7)))
        CFI (cfiCond99) R7 load(1, XDATA, add(CFA_XSP16, literal(-6)))
        CFI (cfiCond99) ?RET_LOW load(1, XDATA, add(CFA_XSP16, literal(-5)))
        CFI (cfiCond99) ?RET_HIGH load(1, XDATA, add(CFA_XSP16, literal(-4)))
        CFI (cfiCond99) ?BRET_EXT load(1, XDATA, add(CFA_XSP16, literal(-3)))
        CFI (cfiCond99) DPL0 load(1, XDATA, add(CFA_XSP16, literal(-2)))
        CFI (cfiCond99) DPH0 load(1, XDATA, add(CFA_XSP16, literal(-1)))
        CFI (cfiCond99) CFA_SP SP+0
        CFI (cfiCond99) CFA_XSP16 add(XSP16, 10)
        CFI Block cfiCond100 Using cfiCommon0
        CFI (cfiCond100) NoFunction
        CFI (cfiCond100) Conditional ??CrossCallReturnLabel_47, ??CrossCallReturnLabel_45, ??CrossCallReturnLabel_16
        CFI (cfiCond100) R6 load(1, XDATA, add(CFA_XSP16, literal(-10)))
        CFI (cfiCond100) VB load(1, XDATA, add(CFA_XSP16, literal(-9)))
        CFI (cfiCond100) V0 load(1, XDATA, add(CFA_XSP16, literal(-8)))
        CFI (cfiCond100) V1 load(1, XDATA, add(CFA_XSP16, literal(-7)))
        CFI (cfiCond100) R7 load(1, XDATA, add(CFA_XSP16, literal(-6)))
        CFI (cfiCond100) ?RET_LOW load(1, XDATA, add(CFA_XSP16, literal(-5)))
        CFI (cfiCond100) ?RET_HIGH load(1, XDATA, add(CFA_XSP16, literal(-4)))
        CFI (cfiCond100) ?BRET_EXT load(1, XDATA, add(CFA_XSP16, literal(-3)))
        CFI (cfiCond100) DPL0 load(1, XDATA, add(CFA_XSP16, literal(-2)))
        CFI (cfiCond100) DPH0 load(1, XDATA, add(CFA_XSP16, literal(-1)))
        CFI (cfiCond100) CFA_SP SP+0
        CFI (cfiCond100) CFA_XSP16 add(XSP16, 10)
        CFI Block cfiCond101 Using cfiCommon0
        CFI (cfiCond101) NoFunction
        CFI (cfiCond101) Conditional ??CrossCallReturnLabel_47, ??CrossCallReturnLabel_45, ??CrossCallReturnLabel_17
        CFI (cfiCond101) R6 load(1, XDATA, add(CFA_XSP16, literal(-10)))
        CFI (cfiCond101) VB load(1, XDATA, add(CFA_XSP16, literal(-9)))
        CFI (cfiCond101) V0 load(1, XDATA, add(CFA_XSP16, literal(-8)))
        CFI (cfiCond101) V1 load(1, XDATA, add(CFA_XSP16, literal(-7)))
        CFI (cfiCond101) R7 load(1, XDATA, add(CFA_XSP16, literal(-6)))
        CFI (cfiCond101) ?RET_LOW load(1, XDATA, add(CFA_XSP16, literal(-5)))
        CFI (cfiCond101) ?RET_HIGH load(1, XDATA, add(CFA_XSP16, literal(-4)))
        CFI (cfiCond101) ?BRET_EXT load(1, XDATA, add(CFA_XSP16, literal(-3)))
        CFI (cfiCond101) DPL0 load(1, XDATA, add(CFA_XSP16, literal(-2)))
        CFI (cfiCond101) DPH0 load(1, XDATA, add(CFA_XSP16, literal(-1)))
        CFI (cfiCond101) CFA_SP SP+0
        CFI (cfiCond101) CFA_XSP16 add(XSP16, 10)
        CFI Block cfiCond102 Using cfiCommon0
        CFI (cfiCond102) NoFunction
        CFI (cfiCond102) Conditional ??CrossCallReturnLabel_47, ??CrossCallReturnLabel_44, ??CrossCallReturnLabel_0
        CFI (cfiCond102) R6 load(1, XDATA, add(CFA_XSP16, literal(-10)))
        CFI (cfiCond102) VB load(1, XDATA, add(CFA_XSP16, literal(-9)))
        CFI (cfiCond102) V0 load(1, XDATA, add(CFA_XSP16, literal(-8)))
        CFI (cfiCond102) V1 load(1, XDATA, add(CFA_XSP16, literal(-7)))
        CFI (cfiCond102) R7 load(1, XDATA, add(CFA_XSP16, literal(-6)))
        CFI (cfiCond102) ?RET_LOW load(1, XDATA, add(CFA_XSP16, literal(-5)))
        CFI (cfiCond102) ?RET_HIGH load(1, XDATA, add(CFA_XSP16, literal(-4)))
        CFI (cfiCond102) ?BRET_EXT load(1, XDATA, add(CFA_XSP16, literal(-3)))
        CFI (cfiCond102) DPL0 load(1, XDATA, add(CFA_XSP16, literal(-2)))
        CFI (cfiCond102) DPH0 load(1, XDATA, add(CFA_XSP16, literal(-1)))
        CFI (cfiCond102) CFA_SP SP+0
        CFI (cfiCond102) CFA_XSP16 add(XSP16, 10)
        CFI Block cfiCond103 Using cfiCommon0
        CFI (cfiCond103) NoFunction
        CFI (cfiCond103) Conditional ??CrossCallReturnLabel_47, ??CrossCallReturnLabel_44, ??CrossCallReturnLabel_1
        CFI (cfiCond103) R6 load(1, XDATA, add(CFA_XSP16, literal(-10)))
        CFI (cfiCond103) VB load(1, XDATA, add(CFA_XSP16, literal(-9)))
        CFI (cfiCond103) V0 load(1, XDATA, add(CFA_XSP16, literal(-8)))
        CFI (cfiCond103) V1 load(1, XDATA, add(CFA_XSP16, literal(-7)))
        CFI (cfiCond103) R7 load(1, XDATA, add(CFA_XSP16, literal(-6)))
        CFI (cfiCond103) ?RET_LOW load(1, XDATA, add(CFA_XSP16, literal(-5)))
        CFI (cfiCond103) ?RET_HIGH load(1, XDATA, add(CFA_XSP16, literal(-4)))
        CFI (cfiCond103) ?BRET_EXT load(1, XDATA, add(CFA_XSP16, literal(-3)))
        CFI (cfiCond103) DPL0 load(1, XDATA, add(CFA_XSP16, literal(-2)))
        CFI (cfiCond103) DPH0 load(1, XDATA, add(CFA_XSP16, literal(-1)))
        CFI (cfiCond103) CFA_SP SP+0
        CFI (cfiCond103) CFA_XSP16 add(XSP16, 10)
        CFI Block cfiCond104 Using cfiCommon0
        CFI (cfiCond104) NoFunction
        CFI (cfiCond104) Conditional ??CrossCallReturnLabel_47, ??CrossCallReturnLabel_44, ??CrossCallReturnLabel_2
        CFI (cfiCond104) R6 load(1, XDATA, add(CFA_XSP16, literal(-10)))
        CFI (cfiCond104) VB load(1, XDATA, add(CFA_XSP16, literal(-9)))
        CFI (cfiCond104) V0 load(1, XDATA, add(CFA_XSP16, literal(-8)))
        CFI (cfiCond104) V1 load(1, XDATA, add(CFA_XSP16, literal(-7)))
        CFI (cfiCond104) R7 load(1, XDATA, add(CFA_XSP16, literal(-6)))
        CFI (cfiCond104) ?RET_LOW load(1, XDATA, add(CFA_XSP16, literal(-5)))
        CFI (cfiCond104) ?RET_HIGH load(1, XDATA, add(CFA_XSP16, literal(-4)))
        CFI (cfiCond104) ?BRET_EXT load(1, XDATA, add(CFA_XSP16, literal(-3)))
        CFI (cfiCond104) DPL0 load(1, XDATA, add(CFA_XSP16, literal(-2)))
        CFI (cfiCond104) DPH0 load(1, XDATA, add(CFA_XSP16, literal(-1)))
        CFI (cfiCond104) CFA_SP SP+0
        CFI (cfiCond104) CFA_XSP16 add(XSP16, 10)
        CFI Block cfiCond105 Using cfiCommon0
        CFI (cfiCond105) NoFunction
        CFI (cfiCond105) Conditional ??CrossCallReturnLabel_47, ??CrossCallReturnLabel_44, ??CrossCallReturnLabel_3
        CFI (cfiCond105) R6 load(1, XDATA, add(CFA_XSP16, literal(-10)))
        CFI (cfiCond105) VB load(1, XDATA, add(CFA_XSP16, literal(-9)))
        CFI (cfiCond105) V0 load(1, XDATA, add(CFA_XSP16, literal(-8)))
        CFI (cfiCond105) V1 load(1, XDATA, add(CFA_XSP16, literal(-7)))
        CFI (cfiCond105) R7 load(1, XDATA, add(CFA_XSP16, literal(-6)))
        CFI (cfiCond105) ?RET_LOW load(1, XDATA, add(CFA_XSP16, literal(-5)))
        CFI (cfiCond105) ?RET_HIGH load(1, XDATA, add(CFA_XSP16, literal(-4)))
        CFI (cfiCond105) ?BRET_EXT load(1, XDATA, add(CFA_XSP16, literal(-3)))
        CFI (cfiCond105) DPL0 load(1, XDATA, add(CFA_XSP16, literal(-2)))
        CFI (cfiCond105) DPH0 load(1, XDATA, add(CFA_XSP16, literal(-1)))
        CFI (cfiCond105) CFA_SP SP+0
        CFI (cfiCond105) CFA_XSP16 add(XSP16, 10)
        CFI Block cfiPicker106 Using cfiCommon1
        CFI (cfiPicker106) NoFunction
        CFI (cfiPicker106) Picker
        MOV     DPL,R0
        MOV     DPH,R1
        MOVX    A,@DPTR
        MOV     R2,A
        INC     DPTR
        MOVX    A,@DPTR
        MOV     DPH,A
        MOV     DPL,R2
        INC     DPTR
        INC     DPTR
        INC     DPTR
        INC     DPTR
        RET
        CFI EndBlock cfiCond97
        CFI EndBlock cfiCond98
        CFI EndBlock cfiCond99
        CFI EndBlock cfiCond100
        CFI EndBlock cfiCond101
        CFI EndBlock cfiCond102
        CFI EndBlock cfiCond103
        CFI EndBlock cfiCond104
        CFI EndBlock cfiCond105
        CFI EndBlock cfiPicker106
//  784 
//  785 /*********************************************************************
//  786  * @fn     Smart_home_Device_check
//  787  *
//  788  * @brief   设备计数器，用来检查设备在开始组网后多久在线.
//  789  *          目前搜索为4次HeartBeat  (DEVICE_HEART_BEAT 3)
//  790  *          3.21
//  791  * @param   none
//  792  *
//  793  * @return  none
//  794  */
//  795 /*3.24 这里的检测时常有点长 改为变量外提的方式加快处理速度*/
//  796 static void Smart_home_Device_check(void)
//  797 {

        RSEG XDATA_Z:XDATA:NOROOT(0)
        DATA8
//  798   static uint8 DeviceID;
??DeviceID:
        DS 1
        REQUIRE __INIT_XDATA_Z

        RSEG XDATA_Z:XDATA:NOROOT(0)
        DATA8
//  799   static uint8 Device_status =  0;
??Device_status:
        DS 1
        REQUIRE __INIT_XDATA_Z

        RSEG XDATA_Z:XDATA:NOROOT(0)
        DATA16
//  800   static uint8* counttmp;
??counttmp:
        DS 2
        REQUIRE __INIT_XDATA_Z
//  801   for(DeviceID=1;DeviceID<Smart_home_MAX_INCLUSTERS;DeviceID++)
//  802   {  
//  803     Device_status = DeviceList[DeviceID].deviceStatus;
//  804     counttmp = & DeviceCnt[DeviceID];
//  805     if(Device_status != DEVICE_ONLINE)    //设备离线
//  806     {
//  807       (*counttmp)++;
//  808     }
//  809     if(Device_status == DEVICE_ONLINE)    //设备在线
//  810     {
//  811       *counttmp = 0;
//  812       Device_status = 0;
//  813     }
//  814     if((*counttmp) > DEVICE_HEART_BEAT)
//  815     {
//  816       *counttmp = DEVICE_HEART_BEAT;
//  817       Device_status = DEVICE_OFFLINE;
//  818     }
//  819     DeviceList[DeviceID].deviceStatus = Device_status;
//  820   }
//  821   /*温湿度缓存 温度光照缓存 RFID 信息缓存 气体火焰缓存 
//  822   人体红外 电机状态 继电器状态 声音震动*/
//  823 }
//  824 
//  825 
//  826 /*********************************************************************
//  827  * @fn      Smart_home_Relay_Ctl
//  828  *
//  829  * @brief   发送继电器控制消息
//  830  *
//  831  * @param   none
//  832  *
//  833  * @return  none
//  834  */

        RSEG BANKED_CODE:CODE:NOROOT(0)
//  835 static void Smart_home_Relay_Ctl(uint8 cmd)
Smart_home_Relay_Ctl:
        CFI Block cfiBlock107 Using cfiCommon0
        CFI Function Smart_home_Relay_Ctl
        CODE
//  836 {
        FUNCALL Smart_home_Relay_Ctl, AF_DataRequest
        LOCFRAME ISTACK, 0, STACK
        LOCFRAME PSTACK, 0, STACK
        LOCFRAME XSTACK, 19, STACK
        LOCFRAME IOVERLAY, 0, STATIC
        LOCFRAME DOVERLAY, 0, STATIC
        ARGFRAME ISTACK, 0, STACK
        ARGFRAME PSTACK, 0, STACK
        ARGFRAME XSTACK, 19, STACK
        ARGFRAME IOVERLAY, 0, STATIC
        ARGFRAME DOVERLAY, 0, STATIC
        MOV     A,#-0xa
        LCALL   ?BANKED_ENTER_XDATA
        CFI DPH0 load(1, XDATA, add(CFA_XSP16, literal(-1)))
        CFI DPL0 load(1, XDATA, add(CFA_XSP16, literal(-2)))
        CFI ?BRET_EXT load(1, XDATA, add(CFA_XSP16, literal(-3)))
        CFI ?RET_HIGH load(1, XDATA, add(CFA_XSP16, literal(-4)))
        CFI ?RET_LOW load(1, XDATA, add(CFA_XSP16, literal(-5)))
        CFI R7 load(1, XDATA, add(CFA_XSP16, literal(-6)))
        CFI V1 load(1, XDATA, add(CFA_XSP16, literal(-7)))
        CFI V0 load(1, XDATA, add(CFA_XSP16, literal(-8)))
        CFI VB load(1, XDATA, add(CFA_XSP16, literal(-9)))
        CFI R6 load(1, XDATA, add(CFA_XSP16, literal(-10)))
        CFI CFA_SP SP+0
        CFI CFA_XSP16 add(XSP16, 10)
        ; Saved register size: 10
        ; Auto size: 0
        MOV     A,R1
        MOV     R6,A
//  837   uint8 tmp;
//  838   
//  839   // 只有设备在线时, 方发送控制命令
//  840   if (DeviceList[relay].deviceStatus != DEVICE_OFFLINE)
        MOV     DPTR,#DeviceList + 50
        MOVX    A,@DPTR
        XRL     A,#0x2
        JZ      ??Smart_home_Relay_Ctl_0
//  841   {
//  842     // put the sequence number in the message
//  843     tmp = HI_UINT8( RelayTransID );
        MOV     DPTR,#RelayTransID
        MOVX    A,@DPTR
        SWAP    A
        ANL     A,#0xf
        MOV     R2,A
//  844     tmp += (tmp <= 9) ? ('0') : ('A' - 0x0A);
        CLR     C
        SUBB    A,#0xa
        JNC     ??Smart_home_Relay_Ctl_1
        MOV     R0,#0x30
        SJMP    ??Smart_home_Relay_Ctl_2
??Smart_home_Relay_Ctl_1:
        MOV     R0,#0x37
//  845     Coordinator_Msg[2] = tmp;
??Smart_home_Relay_Ctl_2:
        MOV     A,R0
        ADD     A,R2
        MOV     DPTR,#Coordinator_Msg + 2
        MOVX    @DPTR,A
//  846     tmp = LO_UINT8( RelayTransID );
        MOV     DPTR,#RelayTransID
        MOVX    A,@DPTR
        ANL     A,#0xf
        MOV     R2,A
//  847     tmp += (tmp <= 9) ? ('0') : ('A' - 0x0A);
        CLR     C
        SUBB    A,#0xa
        JNC     ??Smart_home_Relay_Ctl_3
        MOV     R0,#0x30
        SJMP    ??Smart_home_Relay_Ctl_4
??Smart_home_Relay_Ctl_3:
        MOV     R0,#0x37
//  848     Coordinator_Msg[3] = tmp;
??Smart_home_Relay_Ctl_4:
        MOV     A,R0
        ADD     A,R2
        MOV     DPTR,#Coordinator_Msg + 3
        MOVX    @DPTR,A
//  849     
//  850     // 发送给继电器的控制命令 
//  851     Coordinator_Msg[4] = cmd;
        MOV     A,R6
        INC     DPTR
        MOVX    @DPTR,A
//  852     /********************************************
//  853     *   屏幕显示部分*
//  854 #if defined ( LCD_SUPPORTED )
//  855     if(cmd == 0x02) {HalLcdWriteString( "K1:ON", HAL_LCD_LINE_2 );}
//  856     if(cmd == 0x01) {HalLcdWriteString( "K1:OFF", HAL_LCD_LINE_2 );}
//  857     if(cmd == 0x20) {HalLcdWriteString( "K2:ON", HAL_LCD_LINE_3 );}
//  858     if(cmd == 0x10) {HalLcdWriteString( "K2:OFF", HAL_LCD_LINE_3 );}
//  859 #endif     
//  860     ********************************************/
//  861     tmp = AF_DataRequest( &Relay_addr,                         
//  862                           (endPointDesc_t *)&Smart_home_epDesc,                  
//  863                            Smart_home_CLUSTERID_RELAYCTRL,
//  864                            RELAYSTATUSMSG_LEN,                 
//  865                            Coordinator_Msg,                    
//  866                           &RelayTransID,                       
//  867                            AF_DISCV_ROUTE,                     
//  868                            AF_DEFAULT_RADIUS );
        ; Setup parameters for call to function AF_DataRequest
        MOV     ?V0 + 0,#0x1e
        MOV     R0,#?V0 + 0
        LCALL   ?PUSH_XSTACK_I_ONE
        CFI CFA_XSP16 add(XSP16, 11)
        MOV     ?V0 + 0,#RelayTransID & 0xff
        MOV     ?V0 + 1,#(RelayTransID >> 8) & 0xff
        MOV     R0,#?V0 + 0
        LCALL   ?PUSH_XSTACK_I_TWO
        CFI CFA_XSP16 add(XSP16, 13)
        MOV     ?V0 + 0,#Coordinator_Msg & 0xff
        MOV     ?V0 + 1,#(Coordinator_Msg >> 8) & 0xff
        MOV     R0,#?V0 + 0
        LCALL   ?PUSH_XSTACK_I_TWO
        CFI CFA_XSP16 add(XSP16, 15)
        MOV     ?V0 + 0,#0x5
        MOV     ?V0 + 1,#0x0
        MOV     R0,#?V0 + 0
        LCALL   ?PUSH_XSTACK_I_TWO
        CFI CFA_XSP16 add(XSP16, 17)
        MOV     ?V0 + 0,#0xa
        MOV     R0,#?V0 + 0
        LCALL   ?PUSH_XSTACK_I_TWO
        CFI CFA_XSP16 add(XSP16, 19)
        MOV     R1,#0x20
        MOV     R4,#Smart_home_epDesc & 0xff
        MOV     R5,#(Smart_home_epDesc >> 8) & 0xff
        MOV     R2,#Relay_addr & 0xff
        MOV     R3,#(Relay_addr >> 8) & 0xff
        LCALL   ??AF_DataRequest?relay
        MOV     A,#0x9
        LCALL   ?DEALLOC_XSTACK8
        CFI CFA_XSP16 add(XSP16, 10)
//  869   } 
//  870 }
??Smart_home_Relay_Ctl_0:
        LJMP    ?Subroutine1 & 0xFFFF
        CFI EndBlock cfiBlock107
//  871 
//  872 /*********************************************************************
//  873  * @fn      Smart_home_Motor_Ctl
//  874  *
//  875  * @brief   发送电机控制消息
//  876  *
//  877  * @param   none
//  878  *
//  879  * @return  none
//  880  */
//  881 static void Smart_home_Motor_Ctl(uint8 cmd,uint8 speed)
//  882 {
//  883   uint8 tmp;
//  884   
//  885   // 只有设备在线时, 方发送控制命令
//  886   if (DeviceList[motor].deviceStatus != DEVICE_OFFLINE)
//  887   {
//  888     // put the sequence number in the message
//  889     tmp = HI_UINT8( MotorTransID );
//  890     tmp += (tmp <= 9) ? ('0') : ('A' - 0x0A);
//  891     Coordinator_Msg[2] = tmp;
//  892     tmp = LO_UINT8( RelayTransID );
//  893     tmp += (tmp <= 9) ? ('0') : ('A' - 0x0A);
//  894     Coordinator_Msg[3] = tmp;
//  895     
//  896     // 发送给继电器的控制命令 
//  897     Coordinator_Msg[4] = speed;
//  898     Coordinator_Msg[5] = cmd;
//  899     
//  900     tmp = AF_DataRequest( &Motor_addr,                         
//  901                           (endPointDesc_t *)&Smart_home_epDesc,                  
//  902                            Smart_home_CLUSTERID_MOTORCTRL,
//  903                            MOTORSTATUSMSG_LEN,                 
//  904                            Coordinator_Msg,                    
//  905                           &MotorTransID,                       
//  906                            AF_DISCV_ROUTE,                     
//  907                            AF_DEFAULT_RADIUS );
//  908   }   
//  909 }
//  910 
//  911 
//  912 /*********************************************************************
//  913  * @fn      Smart_home_Display
//  914  *
//  915  * @brief   屏幕回显函数，定义了内容如何显示.
//  916  *
//  917  * @param   port - UART port.
//  918  * @param   event - the UART port event flag.
//  919  *
//  920  * @return  none
//  921  */

        RSEG BANKED_CODE:CODE:NOROOT(0)
//  922 static void Smart_home_Display(void)
Smart_home_Display:
        CFI Block cfiBlock108 Using cfiCommon0
        CFI Function Smart_home_Display
        CODE
//  923 {
        FUNCALL Smart_home_Display, HalLcdWriteString
        LOCFRAME ISTACK, 0, STACK
        LOCFRAME PSTACK, 0, STACK
        LOCFRAME XSTACK, 9, STACK
        LOCFRAME IOVERLAY, 0, STATIC
        LOCFRAME DOVERLAY, 0, STATIC
        ARGFRAME ISTACK, 0, STACK
        ARGFRAME PSTACK, 0, STACK
        ARGFRAME XSTACK, 9, STACK
        ARGFRAME IOVERLAY, 0, STATIC
        ARGFRAME DOVERLAY, 0, STATIC
        FUNCALL Smart_home_Display, HalLcdWriteString
        LOCFRAME ISTACK, 0, STACK
        LOCFRAME PSTACK, 0, STACK
        LOCFRAME XSTACK, 9, STACK
        LOCFRAME IOVERLAY, 0, STATIC
        LOCFRAME DOVERLAY, 0, STATIC
        ARGFRAME ISTACK, 0, STACK
        ARGFRAME PSTACK, 0, STACK
        ARGFRAME XSTACK, 9, STACK
        ARGFRAME IOVERLAY, 0, STATIC
        ARGFRAME DOVERLAY, 0, STATIC
        FUNCALL Smart_home_Display, HalLcdWriteString
        LOCFRAME ISTACK, 0, STACK
        LOCFRAME PSTACK, 0, STACK
        LOCFRAME XSTACK, 9, STACK
        LOCFRAME IOVERLAY, 0, STATIC
        LOCFRAME DOVERLAY, 0, STATIC
        ARGFRAME ISTACK, 0, STACK
        ARGFRAME PSTACK, 0, STACK
        ARGFRAME XSTACK, 9, STACK
        ARGFRAME IOVERLAY, 0, STATIC
        ARGFRAME DOVERLAY, 0, STATIC
        FUNCALL Smart_home_Display, HalLcdWriteString
        LOCFRAME ISTACK, 0, STACK
        LOCFRAME PSTACK, 0, STACK
        LOCFRAME XSTACK, 9, STACK
        LOCFRAME IOVERLAY, 0, STATIC
        LOCFRAME DOVERLAY, 0, STATIC
        ARGFRAME ISTACK, 0, STACK
        ARGFRAME PSTACK, 0, STACK
        ARGFRAME XSTACK, 9, STACK
        ARGFRAME IOVERLAY, 0, STATIC
        ARGFRAME DOVERLAY, 0, STATIC
        FUNCALL Smart_home_Display, HalLcdWriteString
        LOCFRAME ISTACK, 0, STACK
        LOCFRAME PSTACK, 0, STACK
        LOCFRAME XSTACK, 9, STACK
        LOCFRAME IOVERLAY, 0, STATIC
        LOCFRAME DOVERLAY, 0, STATIC
        ARGFRAME ISTACK, 0, STACK
        ARGFRAME PSTACK, 0, STACK
        ARGFRAME XSTACK, 9, STACK
        ARGFRAME IOVERLAY, 0, STATIC
        ARGFRAME DOVERLAY, 0, STATIC
        FUNCALL Smart_home_Display, HalLcdWriteString
        LOCFRAME ISTACK, 0, STACK
        LOCFRAME PSTACK, 0, STACK
        LOCFRAME XSTACK, 9, STACK
        LOCFRAME IOVERLAY, 0, STATIC
        LOCFRAME DOVERLAY, 0, STATIC
        ARGFRAME ISTACK, 0, STACK
        ARGFRAME PSTACK, 0, STACK
        ARGFRAME XSTACK, 9, STACK
        ARGFRAME IOVERLAY, 0, STATIC
        ARGFRAME DOVERLAY, 0, STATIC
        FUNCALL Smart_home_Display, HalLcdWriteString
        LOCFRAME ISTACK, 0, STACK
        LOCFRAME PSTACK, 0, STACK
        LOCFRAME XSTACK, 9, STACK
        LOCFRAME IOVERLAY, 0, STATIC
        LOCFRAME DOVERLAY, 0, STATIC
        ARGFRAME ISTACK, 0, STACK
        ARGFRAME PSTACK, 0, STACK
        ARGFRAME XSTACK, 9, STACK
        ARGFRAME IOVERLAY, 0, STATIC
        ARGFRAME DOVERLAY, 0, STATIC
        FUNCALL Smart_home_Display, HalLcdWriteString
        LOCFRAME ISTACK, 0, STACK
        LOCFRAME PSTACK, 0, STACK
        LOCFRAME XSTACK, 9, STACK
        LOCFRAME IOVERLAY, 0, STATIC
        LOCFRAME DOVERLAY, 0, STATIC
        ARGFRAME ISTACK, 0, STACK
        ARGFRAME PSTACK, 0, STACK
        ARGFRAME XSTACK, 9, STACK
        ARGFRAME IOVERLAY, 0, STATIC
        ARGFRAME DOVERLAY, 0, STATIC
        FUNCALL Smart_home_Display, HalLcdWriteString
        LOCFRAME ISTACK, 0, STACK
        LOCFRAME PSTACK, 0, STACK
        LOCFRAME XSTACK, 9, STACK
        LOCFRAME IOVERLAY, 0, STATIC
        LOCFRAME DOVERLAY, 0, STATIC
        ARGFRAME ISTACK, 0, STACK
        ARGFRAME PSTACK, 0, STACK
        ARGFRAME XSTACK, 9, STACK
        ARGFRAME IOVERLAY, 0, STATIC
        ARGFRAME DOVERLAY, 0, STATIC
        FUNCALL Smart_home_Display, HalLcdWriteString
        LOCFRAME ISTACK, 0, STACK
        LOCFRAME PSTACK, 0, STACK
        LOCFRAME XSTACK, 9, STACK
        LOCFRAME IOVERLAY, 0, STATIC
        LOCFRAME DOVERLAY, 0, STATIC
        ARGFRAME ISTACK, 0, STACK
        ARGFRAME PSTACK, 0, STACK
        ARGFRAME XSTACK, 9, STACK
        ARGFRAME IOVERLAY, 0, STATIC
        ARGFRAME DOVERLAY, 0, STATIC
        FUNCALL Smart_home_Display, HalLcdWriteString
        LOCFRAME ISTACK, 0, STACK
        LOCFRAME PSTACK, 0, STACK
        LOCFRAME XSTACK, 9, STACK
        LOCFRAME IOVERLAY, 0, STATIC
        LOCFRAME DOVERLAY, 0, STATIC
        ARGFRAME ISTACK, 0, STACK
        ARGFRAME PSTACK, 0, STACK
        ARGFRAME XSTACK, 9, STACK
        ARGFRAME IOVERLAY, 0, STATIC
        ARGFRAME DOVERLAY, 0, STATIC
        FUNCALL Smart_home_Display, HalLcdWriteString
        LOCFRAME ISTACK, 0, STACK
        LOCFRAME PSTACK, 0, STACK
        LOCFRAME XSTACK, 9, STACK
        LOCFRAME IOVERLAY, 0, STATIC
        LOCFRAME DOVERLAY, 0, STATIC
        ARGFRAME ISTACK, 0, STACK
        ARGFRAME PSTACK, 0, STACK
        ARGFRAME XSTACK, 9, STACK
        ARGFRAME IOVERLAY, 0, STATIC
        ARGFRAME DOVERLAY, 0, STATIC
        FUNCALL Smart_home_Display, HalLcdWriteString
        LOCFRAME ISTACK, 0, STACK
        LOCFRAME PSTACK, 0, STACK
        LOCFRAME XSTACK, 9, STACK
        LOCFRAME IOVERLAY, 0, STATIC
        LOCFRAME DOVERLAY, 0, STATIC
        ARGFRAME ISTACK, 0, STACK
        ARGFRAME PSTACK, 0, STACK
        ARGFRAME XSTACK, 9, STACK
        ARGFRAME IOVERLAY, 0, STATIC
        ARGFRAME DOVERLAY, 0, STATIC
        FUNCALL Smart_home_Display, HalLcdWriteString
        LOCFRAME ISTACK, 0, STACK
        LOCFRAME PSTACK, 0, STACK
        LOCFRAME XSTACK, 9, STACK
        LOCFRAME IOVERLAY, 0, STATIC
        LOCFRAME DOVERLAY, 0, STATIC
        ARGFRAME ISTACK, 0, STACK
        ARGFRAME PSTACK, 0, STACK
        ARGFRAME XSTACK, 9, STACK
        ARGFRAME IOVERLAY, 0, STATIC
        ARGFRAME DOVERLAY, 0, STATIC
        FUNCALL Smart_home_Display, HalLcdWriteString
        LOCFRAME ISTACK, 0, STACK
        LOCFRAME PSTACK, 0, STACK
        LOCFRAME XSTACK, 9, STACK
        LOCFRAME IOVERLAY, 0, STATIC
        LOCFRAME DOVERLAY, 0, STATIC
        ARGFRAME ISTACK, 0, STACK
        ARGFRAME PSTACK, 0, STACK
        ARGFRAME XSTACK, 9, STACK
        ARGFRAME IOVERLAY, 0, STATIC
        ARGFRAME DOVERLAY, 0, STATIC
        FUNCALL Smart_home_Display, HalLcdWriteString
        LOCFRAME ISTACK, 0, STACK
        LOCFRAME PSTACK, 0, STACK
        LOCFRAME XSTACK, 9, STACK
        LOCFRAME IOVERLAY, 0, STATIC
        LOCFRAME DOVERLAY, 0, STATIC
        ARGFRAME ISTACK, 0, STACK
        ARGFRAME PSTACK, 0, STACK
        ARGFRAME XSTACK, 9, STACK
        ARGFRAME IOVERLAY, 0, STATIC
        ARGFRAME DOVERLAY, 0, STATIC
        FUNCALL Smart_home_Display, HalLcdWriteString
        LOCFRAME ISTACK, 0, STACK
        LOCFRAME PSTACK, 0, STACK
        LOCFRAME XSTACK, 9, STACK
        LOCFRAME IOVERLAY, 0, STATIC
        LOCFRAME DOVERLAY, 0, STATIC
        ARGFRAME ISTACK, 0, STACK
        ARGFRAME PSTACK, 0, STACK
        ARGFRAME XSTACK, 9, STACK
        ARGFRAME IOVERLAY, 0, STATIC
        ARGFRAME DOVERLAY, 0, STATIC
        MOV     A,#-0x9
        LCALL   ?BANKED_ENTER_XDATA
        CFI DPH0 load(1, XDATA, add(CFA_XSP16, literal(-1)))
        CFI DPL0 load(1, XDATA, add(CFA_XSP16, literal(-2)))
        CFI ?BRET_EXT load(1, XDATA, add(CFA_XSP16, literal(-3)))
        CFI ?RET_HIGH load(1, XDATA, add(CFA_XSP16, literal(-4)))
        CFI ?RET_LOW load(1, XDATA, add(CFA_XSP16, literal(-5)))
        CFI R7 load(1, XDATA, add(CFA_XSP16, literal(-6)))
        CFI V0 load(1, XDATA, add(CFA_XSP16, literal(-7)))
        CFI VB load(1, XDATA, add(CFA_XSP16, literal(-8)))
        CFI R6 load(1, XDATA, add(CFA_XSP16, literal(-9)))
        CFI CFA_SP SP+0
        CFI CFA_XSP16 add(XSP16, 9)
        ; Saved register size: 9
        ; Auto size: 0
//  924 #if defined LCD_SUPPORTED
//  925   switch(Ctrlcase)
        MOV     DPTR,#Ctrlcase
        MOVX    A,@DPTR
        DEC     A
        JZ      ??Smart_home_Display_0
        DEC     A
        MOV     R1,#0x4
        JZ      ??Smart_home_Display_1
//  926   {
//  927     default:    
//  928     case 0:
//  929       HalLcdWriteString( "Flip use UP/DOWN", HAL_LCD_LINE_4 ); 
        ; Setup parameters for call to function HalLcdWriteString
        MOV     R2,#`?<Constant "Flip use UP/DOWN">` & 0xff
        MOV     R3,#(`?<Constant "Flip use UP/DOWN">` >> 8) & 0xff
        LCALL   ?Subroutine20 & 0xFFFF
//  930       //清除屏幕显示
//  931       HalLcdWriteString( " ", HAL_LCD_LINE_2 ); 
//  932       HalLcdWriteString( " ", HAL_LCD_LINE_3 );
??CrossCallReturnLabel_42:
        LJMP    ??Smart_home_Display_2 & 0xFFFF
//  933       break;
//  934     
//  935     case 1:
//  936       HalLcdWriteString( "Relay Contrling", HAL_LCD_LINE_4 ); 
??Smart_home_Display_0:
        ; Setup parameters for call to function HalLcdWriteString
        MOV     R1,#0x4
        MOV     R2,#`?<Constant "Relay Contrling">` & 0xff
        MOV     R3,#(`?<Constant "Relay Contrling">` >> 8) & 0xff
        LCALL   ?Subroutine4 & 0xFFFF
//  937       //清除屏幕显示
//  938       HalLcdWriteString( " ", HAL_LCD_LINE_2 ); 
//  939       HalLcdWriteString( " ", HAL_LCD_LINE_3 );
//  940       //这里的deviceStatus 可能是0x00,所以会出现bug 这个0在Device检查时被设置 2.24
//  941       if(DeviceList[relay].deviceStatus == DEVICE_OFFLINE)
??CrossCallReturnLabel_8:
        MOV     DPTR,#DeviceList + 50
        MOVX    A,@DPTR
        XRL     A,#0x2
        MOV     R1,#0x1
        JNZ     ??Smart_home_Display_3
//  942       {
//  943         HalLcdWriteString( "Relay Offline", HAL_LCD_LINE_1 );      
        ; Setup parameters for call to function HalLcdWriteString
        MOV     R2,#`?<Constant "Relay Offline">` & 0xff
        MOV     R3,#(`?<Constant "Relay Offline">` >> 8) & 0xff
        SJMP    ??Smart_home_Display_2
//  944       }
//  945       else  //设备在线回显  设备在线可能是 0/1
//  946       {
//  947         HalLcdWriteString( "Relay Online", HAL_LCD_LINE_1 ); 
??Smart_home_Display_3:
        ; Setup parameters for call to function HalLcdWriteString
        MOV     R2,#`?<Constant "Relay Online">` & 0xff
        MOV     R3,#(`?<Constant "Relay Online">` >> 8) & 0xff
        LCALL   ??HalLcdWriteString?relay
//  948       //继电器控制界面
//  949         if(Ctrlcase == 1)
        MOV     DPTR,#Ctrlcase
        MOVX    A,@DPTR
        XRL     A,#0x1
        JNZ     ??Smart_home_Display_4
//  950         {
//  951           const uint8 cmd =  DeviceList[relay].data[0];
        MOV     DPTR,#DeviceList + 51
        MOVX    A,@DPTR
        MOV     R6,A
//  952           //消除抖动
//  953           if((cmd & 0x02) == 0x02) {HalLcdWriteString( "K1:ON", HAL_LCD_LINE_2 );}
        MOV     C,0xE0 /* A   */.1
        JNC     ??Smart_home_Display_5
        ; Setup parameters for call to function HalLcdWriteString
        MOV     R1,#0x2
        MOV     R2,#`?<Constant "K1:ON">` & 0xff
        MOV     R3,#(`?<Constant "K1:ON">` >> 8) & 0xff
        LCALL   ??HalLcdWriteString?relay
//  954           if((cmd & 0x01) == 0x01) {HalLcdWriteString( "K1:OFF", HAL_LCD_LINE_2 );}
??Smart_home_Display_5:
        MOV     A,R6
        MOV     C,0xE0 /* A   */.0
        JNC     ??Smart_home_Display_6
        ; Setup parameters for call to function HalLcdWriteString
        MOV     R1,#0x2
        MOV     R2,#`?<Constant "K1:OFF">` & 0xff
        MOV     R3,#(`?<Constant "K1:OFF">` >> 8) & 0xff
        LCALL   ??HalLcdWriteString?relay
//  955           if((cmd & 0x20) == 0x20) {HalLcdWriteString( "K2:ON", HAL_LCD_LINE_3 );}
??Smart_home_Display_6:
        MOV     A,R6
        MOV     C,0xE0 /* A   */.5
        JNC     ??Smart_home_Display_7
        ; Setup parameters for call to function HalLcdWriteString
        MOV     R1,#0x3
        MOV     R2,#`?<Constant "K2:ON">` & 0xff
        MOV     R3,#(`?<Constant "K2:ON">` >> 8) & 0xff
        LCALL   ??HalLcdWriteString?relay
//  956           if((cmd & 0x10) == 0x10) {HalLcdWriteString( "K2:OFF", HAL_LCD_LINE_3 );}      
??Smart_home_Display_7:
        MOV     A,R6
        MOV     C,0xE0 /* A   */.4
        JNC     ??Smart_home_Display_4
        ; Setup parameters for call to function HalLcdWriteString
        MOV     R1,#0x3
        MOV     R2,#`?<Constant "K2:OFF">` & 0xff
        MOV     R3,#(`?<Constant "K2:OFF">` >> 8) & 0xff
        SJMP    ??Smart_home_Display_2
//  957         } 
//  958       }
//  959 
//  960       break;
//  961     
//  962     case 2:
//  963       HalLcdWriteString( "Motor Contrling", HAL_LCD_LINE_4 );
??Smart_home_Display_1:
        ; Setup parameters for call to function HalLcdWriteString
        MOV     R2,#`?<Constant "Motor Contrling">` & 0xff
        MOV     R3,#(`?<Constant "Motor Contrling">` >> 8) & 0xff
        LCALL   ?Subroutine4 & 0xFFFF
//  964       //清除屏幕显示
//  965       HalLcdWriteString( " ", HAL_LCD_LINE_2 ); 
//  966       HalLcdWriteString( " ", HAL_LCD_LINE_3 );
//  967       if(DeviceList[motor].deviceStatus == DEVICE_ONLINE)  //设备在线回显
??CrossCallReturnLabel_9:
        MOV     DPTR,#DeviceList + 43
        MOVX    A,@DPTR
        XRL     A,#0x1
        JNZ     ??Smart_home_Display_8
//  968       {
//  969         HalLcdWriteString( "Motor Online", HAL_LCD_LINE_1 );
        ; Setup parameters for call to function HalLcdWriteString
        MOV     R1,#0x1
        MOV     R2,#`?<Constant "Motor Online">` & 0xff
        MOV     R3,#(`?<Constant "Motor Online">` >> 8) & 0xff
        LCALL   ??HalLcdWriteString?relay
//  970       }
//  971       if(DeviceList[motor].deviceStatus != DEVICE_ONLINE)
??Smart_home_Display_8:
        MOV     DPTR,#DeviceList + 43
        MOVX    A,@DPTR
        XRL     A,#0x1
        JZ      ??Smart_home_Display_4
//  972       {
//  973         HalLcdWriteString( "Motor Offline", HAL_LCD_LINE_1 );      
        ; Setup parameters for call to function HalLcdWriteString
        MOV     R1,#0x1
        MOV     R2,#`?<Constant "Motor Offline">` & 0xff
        MOV     R3,#(`?<Constant "Motor Offline">` >> 8) & 0xff
??Smart_home_Display_2:
        LCALL   ??HalLcdWriteString?relay
//  974       }      
//  975       break;
//  976   }
//  977   
//  978 #endif // LCD_SUPPORTED  
//  979 }
??Smart_home_Display_4:
        LJMP    ?Subroutine0 & 0xFFFF
        CFI EndBlock cfiBlock108

        RSEG BANKED_CODE:CODE:NOROOT(0)
?Subroutine4:
        CFI Block cfiCond109 Using cfiCommon0
        CFI NoFunction
        CFI Conditional ??CrossCallReturnLabel_8
        CFI R6 load(1, XDATA, add(CFA_XSP16, literal(-9)))
        CFI VB load(1, XDATA, add(CFA_XSP16, literal(-8)))
        CFI V0 load(1, XDATA, add(CFA_XSP16, literal(-7)))
        CFI R7 load(1, XDATA, add(CFA_XSP16, literal(-6)))
        CFI ?RET_LOW load(1, XDATA, add(CFA_XSP16, literal(-5)))
        CFI ?RET_HIGH load(1, XDATA, add(CFA_XSP16, literal(-4)))
        CFI ?BRET_EXT load(1, XDATA, add(CFA_XSP16, literal(-3)))
        CFI DPL0 load(1, XDATA, add(CFA_XSP16, literal(-2)))
        CFI DPH0 load(1, XDATA, add(CFA_XSP16, literal(-1)))
        CFI CFA_SP SP+0
        CFI CFA_XSP16 add(XSP16, 9)
        CFI Block cfiCond110 Using cfiCommon0
        CFI (cfiCond110) NoFunction
        CFI (cfiCond110) Conditional ??CrossCallReturnLabel_9
        CFI (cfiCond110) R6 load(1, XDATA, add(CFA_XSP16, literal(-9)))
        CFI (cfiCond110) VB load(1, XDATA, add(CFA_XSP16, literal(-8)))
        CFI (cfiCond110) V0 load(1, XDATA, add(CFA_XSP16, literal(-7)))
        CFI (cfiCond110) R7 load(1, XDATA, add(CFA_XSP16, literal(-6)))
        CFI (cfiCond110) ?RET_LOW load(1, XDATA, add(CFA_XSP16, literal(-5)))
        CFI (cfiCond110) ?RET_HIGH load(1, XDATA, add(CFA_XSP16, literal(-4)))
        CFI (cfiCond110) ?BRET_EXT load(1, XDATA, add(CFA_XSP16, literal(-3)))
        CFI (cfiCond110) DPL0 load(1, XDATA, add(CFA_XSP16, literal(-2)))
        CFI (cfiCond110) DPH0 load(1, XDATA, add(CFA_XSP16, literal(-1)))
        CFI (cfiCond110) CFA_SP SP+0
        CFI (cfiCond110) CFA_XSP16 add(XSP16, 9)
        CFI Block cfiPicker111 Using cfiCommon1
        CFI (cfiPicker111) NoFunction
        CFI (cfiPicker111) Picker
        LCALL   ?Subroutine20 & 0xFFFF
??CrossCallReturnLabel_43:
        LCALL   ??HalLcdWriteString?relay
        RET
        CFI EndBlock cfiCond109
        CFI EndBlock cfiCond110
        CFI EndBlock cfiPicker111

        RSEG BANKED_CODE:CODE:NOROOT(0)
?Subroutine20:
        CFI Block cfiCond112 Using cfiCommon0
        CFI NoFunction
        CFI Conditional ??CrossCallReturnLabel_42
        CFI R6 load(1, XDATA, add(CFA_XSP16, literal(-9)))
        CFI VB load(1, XDATA, add(CFA_XSP16, literal(-8)))
        CFI V0 load(1, XDATA, add(CFA_XSP16, literal(-7)))
        CFI R7 load(1, XDATA, add(CFA_XSP16, literal(-6)))
        CFI ?RET_LOW load(1, XDATA, add(CFA_XSP16, literal(-5)))
        CFI ?RET_HIGH load(1, XDATA, add(CFA_XSP16, literal(-4)))
        CFI ?BRET_EXT load(1, XDATA, add(CFA_XSP16, literal(-3)))
        CFI DPL0 load(1, XDATA, add(CFA_XSP16, literal(-2)))
        CFI DPH0 load(1, XDATA, add(CFA_XSP16, literal(-1)))
        CFI CFA_SP SP+0
        CFI CFA_XSP16 add(XSP16, 9)
        CFI Block cfiCond113 Using cfiCommon0
        CFI (cfiCond113) NoFunction
        CFI (cfiCond113) Conditional ??CrossCallReturnLabel_43, ??CrossCallReturnLabel_8
        CFI (cfiCond113) R6 load(1, XDATA, add(CFA_XSP16, literal(-9)))
        CFI (cfiCond113) VB load(1, XDATA, add(CFA_XSP16, literal(-8)))
        CFI (cfiCond113) V0 load(1, XDATA, add(CFA_XSP16, literal(-7)))
        CFI (cfiCond113) R7 load(1, XDATA, add(CFA_XSP16, literal(-6)))
        CFI (cfiCond113) ?RET_LOW load(1, XDATA, add(CFA_XSP16, literal(-5)))
        CFI (cfiCond113) ?RET_HIGH load(1, XDATA, add(CFA_XSP16, literal(-4)))
        CFI (cfiCond113) ?BRET_EXT load(1, XDATA, add(CFA_XSP16, literal(-3)))
        CFI (cfiCond113) DPL0 load(1, XDATA, add(CFA_XSP16, literal(-2)))
        CFI (cfiCond113) DPH0 load(1, XDATA, add(CFA_XSP16, literal(-1)))
        CFI (cfiCond113) CFA_SP SP+0
        CFI (cfiCond113) CFA_XSP16 add(XSP16, 9)
        CFI Block cfiCond114 Using cfiCommon0
        CFI (cfiCond114) NoFunction
        CFI (cfiCond114) Conditional ??CrossCallReturnLabel_43, ??CrossCallReturnLabel_9
        CFI (cfiCond114) R6 load(1, XDATA, add(CFA_XSP16, literal(-9)))
        CFI (cfiCond114) VB load(1, XDATA, add(CFA_XSP16, literal(-8)))
        CFI (cfiCond114) V0 load(1, XDATA, add(CFA_XSP16, literal(-7)))
        CFI (cfiCond114) R7 load(1, XDATA, add(CFA_XSP16, literal(-6)))
        CFI (cfiCond114) ?RET_LOW load(1, XDATA, add(CFA_XSP16, literal(-5)))
        CFI (cfiCond114) ?RET_HIGH load(1, XDATA, add(CFA_XSP16, literal(-4)))
        CFI (cfiCond114) ?BRET_EXT load(1, XDATA, add(CFA_XSP16, literal(-3)))
        CFI (cfiCond114) DPL0 load(1, XDATA, add(CFA_XSP16, literal(-2)))
        CFI (cfiCond114) DPH0 load(1, XDATA, add(CFA_XSP16, literal(-1)))
        CFI (cfiCond114) CFA_SP SP+0
        CFI (cfiCond114) CFA_XSP16 add(XSP16, 9)
        CFI Block cfiPicker115 Using cfiCommon1
        CFI (cfiPicker115) NoFunction
        CFI (cfiPicker115) Picker
        LCALL   ??HalLcdWriteString?relay
        ; Setup parameters for call to function HalLcdWriteString
        ; Setup parameters for call to function HalLcdWriteString
        ; Setup parameters for call to function HalLcdWriteString
        MOV     R1,#0x2
        MOV     R2,#`?<Constant " ">` & 0xff
        MOV     R3,#(`?<Constant " ">` >> 8) & 0xff
        LCALL   ??HalLcdWriteString?relay
        ; Setup parameters for call to function HalLcdWriteString
        ; Setup parameters for call to function HalLcdWriteString
        ; Setup parameters for call to function HalLcdWriteString
        MOV     R1,#0x3
        MOV     R2,#`?<Constant " ">` & 0xff
        MOV     R3,#(`?<Constant " ">` >> 8) & 0xff
        RET
        CFI EndBlock cfiCond112
        CFI EndBlock cfiCond113
        CFI EndBlock cfiCond114
        CFI EndBlock cfiPicker115

        RSEG BANK_RELAYS:CODE:REORDER:NOROOT(0)
??Smart_home_Init?relay:
        LCALL   ?BDISPATCH
        DATA
        DC24    Smart_home_Init

        RSEG BANK_RELAYS:CODE:REORDER:NOROOT(0)
??Smart_home_ProcessEvent?relay:
        LCALL   ?BDISPATCH
        DATA
        DC24    Smart_home_ProcessEvent

        RSEG BANK_RELAYS:CODE:REORDER:NOROOT(0)
??Smart_home_HandleKeys?relay:
        LCALL   ?BDISPATCH
        DATA
        DC24    Smart_home_HandleKeys

        RSEG BANK_RELAYS:CODE:REORDER:NOROOT(0)
??Smart_home_ProcessMSGCmd?relay:
        LCALL   ?BDISPATCH
        DATA
        DC24    Smart_home_ProcessMSGCmd

        RSEG BANK_RELAYS:CODE:REORDER:NOROOT(0)
??Smart_home_Relay_Ctl?relay:
        LCALL   ?BDISPATCH
        DATA
        DC24    Smart_home_Relay_Ctl

        RSEG BANK_RELAYS:CODE:REORDER:NOROOT(0)
??Smart_home_Display?relay:
        LCALL   ?BDISPATCH
        DATA
        DC24    Smart_home_Display

        RSEG XDATA_ROM_C:CONST:REORDER:NOROOT(0)
        DATA8
`?<Constant "Smart_home">`:
        DB "Smart_home"

        RSEG XDATA_ROM_C:CONST:REORDER:NOROOT(0)
        DATA8
`?<Constant "Motor max Speed">`:
        DB "Motor max Speed"

        RSEG XDATA_ROM_C:CONST:REORDER:NOROOT(0)
        DATA8
`?<Constant "Motor min Speed">`:
        DB "Motor min Speed"

        RSEG XDATA_ROM_C:CONST:REORDER:NOROOT(0)
        DATA8
`?<Constant "Allow networking">`:
        DB "Allow networking"

        RSEG XDATA_ROM_C:CONST:REORDER:NOROOT(0)
        DATA8
`?<Constant "Ban   networking">`:
        DB "Ban   networking"

        RSEG XDATA_ROM_C:CONST:REORDER:NOROOT(0)
        DATA8
`?<Constant "Flip use UP/DOWN">`:
        DB "Flip use UP/DOWN"

        RSEG XDATA_ROM_C:CONST:REORDER:NOROOT(0)
        DATA16
`?<Constant " ">`:
        DB " "

        RSEG XDATA_ROM_C:CONST:REORDER:NOROOT(0)
        DATA8
`?<Constant "Relay Contrling">`:
        DB "Relay Contrling"

        RSEG XDATA_ROM_C:CONST:REORDER:NOROOT(0)
        DATA8
`?<Constant "Relay Offline">`:
        DB "Relay Offline"

        RSEG XDATA_ROM_C:CONST:REORDER:NOROOT(0)
        DATA8
`?<Constant "Relay Online">`:
        DB "Relay Online"

        RSEG XDATA_ROM_C:CONST:REORDER:NOROOT(0)
        DATA8
`?<Constant "K1:ON">`:
        DB "K1:ON"

        RSEG XDATA_ROM_C:CONST:REORDER:NOROOT(0)
        DATA8
`?<Constant "K1:OFF">`:
        DB "K1:OFF"

        RSEG XDATA_ROM_C:CONST:REORDER:NOROOT(0)
        DATA8
`?<Constant "K2:ON">`:
        DB "K2:ON"

        RSEG XDATA_ROM_C:CONST:REORDER:NOROOT(0)
        DATA8
`?<Constant "K2:OFF">`:
        DB "K2:OFF"

        RSEG XDATA_ROM_C:CONST:REORDER:NOROOT(0)
        DATA8
`?<Constant "Motor Contrling">`:
        DB "Motor Contrling"

        RSEG XDATA_ROM_C:CONST:REORDER:NOROOT(0)
        DATA8
`?<Constant "Motor Online">`:
        DB "Motor Online"

        RSEG XDATA_ROM_C:CONST:REORDER:NOROOT(0)
        DATA8
`?<Constant "Motor Offline">`:
        DB "Motor Offline"

        END
//  980 
//  981 
// 
// 1 740 bytes in segment BANKED_CODE
//    36 bytes in segment BANK_RELAYS
//   262 bytes in segment XDATA_ROM_C
//   211 bytes in segment XDATA_Z
// 
// 1 776 bytes of CODE  memory
//   262 bytes of CONST memory
//   211 bytes of XDATA memory
//
//Errors: none
//Warnings: 1
