///////////////////////////////////////////////////////////////////////////////
//                                                                            /
// IAR C/C++ Compiler V8.10.1.10194/W32 for 8051        25/Mar/2021  01:51:26 /
// Copyright 2004-2011 IAR Systems AB.                                        /
//                                                                            /
//    Core               =  plain                                             /
//    Code model         =  banked                                            /
//    Data model         =  large                                             /
//    Calling convention =  xdata reentrant                                   /
//    Constant location  =  data_rom                                          /
//    Dptr setup         =  1,16                                              /
//    Source file        =  D:\毕设\CC2530-smart_home\Projects\zstack\Utiliti /
//                          es\Smart_home\Source\Smart_homeSound.c            /
//    Command line       =  -f D:\毕设\CC2530-smart_home\Projects\zstack\Util /
//                          ities\Smart_home\CC2530DB\..\..\..\Tools\CC2530DB /
//                          \f8wEndev.cfg (-DCPU32MHZ -DROOT=__near_func      /
//                          -DMAC_CFG_TX_DATA_MAX=3 -DMAC_CFG_TX_MAX=6        /
//                          -DMAC_CFG_RX_MAX=3) -f D:\毕设\CC2530-smart_home\ /
//                          Projects\zstack\Utilities\Smart_home\CC2530DB\..\ /
//                          ..\..\Tools\CC2530DB\f8wConfig.cfg (-DZIGBEEPRO   /
//                          -DSECURE=0 -DZG_SECURE_DYNAMIC=0 -DREFLECTOR      /
//                          -DDEFAULT_CHANLIST=0x02000000                     /
//                          -DZDAPP_CONFIG_PAN_ID=0x1001                      /
//                          -DNWK_START_DELAY=100 -DEXTENDED_JOINING_RANDOM_M /
//                          ASK=0x007F -DBEACON_REQUEST_DELAY=100             /
//                          -DBEACON_REQ_DELAY_MASK=0x00FF                    /
//                          -DLINK_STATUS_JITTER_MASK=0x007F                  /
//                          -DROUTE_EXPIRY_TIME=30 -DAPSC_ACK_WAIT_DURATION_P /
//                          OLLED=3000 -DNWK_INDIRECT_MSG_TIMEOUT=7           /
//                          -DMAX_RREQ_ENTRIES=8 -DAPSC_MAX_FRAME_RETRIES=3   /
//                          -DNWK_MAX_DATA_RETRIES=2                          /
//                          -DMAX_POLL_FAILURE_RETRIES=2 -DMAX_BCAST=9        /
//                          -DAPS_MAX_GROUPS=16 -DMAX_RTG_ENTRIES=40          /
//                          -DNWK_MAX_BINDING_ENTRIES=4                       /
//                          -DMAX_BINDING_CLUSTER_IDS=4                       /
//                          "-DDEFAULT_KEY={0x01, 0x03, 0x05, 0x07, 0x09,     /
//                          0x0B, 0x0D, 0x0F, 0x00, 0x02, 0x04, 0x06, 0x08,   /
//                          0x0A, 0x0C, 0x0D}" -DMAC_MAX_FRAME_SIZE=116       /
//                          -DZDNWKMGR_MIN_TRANSMISSIONS=20 "-DCONST=const    /
//                          __code" -DGENERIC=__generic                       /
//                          -DRFD_RCVC_ALWAYS_ON=FALSE -DPOLL_RATE=1000       /
//                          -DQUEUED_POLL_RATE=100 -DRESPONSE_POLL_RATE=100)  /
//                          -DREJOIN_POLL_RATE=440 D:\毕设\CC2530-smart_home\ /
//                          Projects\zstack\Utilities\Smart_home\Source\Smart /
//                          _homeSound.c -D HAL_UART=TRUE -D HAL_UART_TEST    /
//                          -D xPOWER_SAVING -lC D:\毕设\CC2530-smart_home\Pr /
//                          ojects\zstack\Utilities\Smart_home\CC2530DB\EndDe /
//                          viceSBSoundVb\List\ -lA                           /
//                          D:\毕设\CC2530-smart_home\Projects\zstack\Utiliti /
//                          es\Smart_home\CC2530DB\EndDeviceSBSoundVb\List\   /
//                          --diag_suppress Pe001,Pa010 -o                    /
//                          D:\毕设\CC2530-smart_home\Projects\zstack\Utiliti /
//                          es\Smart_home\CC2530DB\EndDeviceSBSoundVb\Obj\    /
//                          -e --no_code_motion --debug --core=plain          /
//                          --dptr=16,1 --data_model=large                    /
//                          --code_model=banked --calling_convention=xdata_re /
//                          entrant --place_constants=data_rom                /
//                          --nr_virtual_regs 16 -I                           /
//                          D:\毕设\CC2530-smart_home\Projects\zstack\Utiliti /
//                          es\Smart_home\CC2530DB\ -I                        /
//                          D:\毕设\CC2530-smart_home\Projects\zstack\Utiliti /
//                          es\Smart_home\CC2530DB\..\Source\ -I              /
//                          D:\毕设\CC2530-smart_home\Projects\zstack\Utiliti /
//                          es\Smart_home\CC2530DB\..\..\..\ZMain\TI2530DB\   /
//                          -I D:\毕设\CC2530-smart_home\Projects\zstack\Util /
//                          ities\Smart_home\CC2530DB\..\..\..\..\..\Componen /
//                          ts\hal\include\ -I D:\毕设\CC2530-smart_home\Proj /
//                          ects\zstack\Utilities\Smart_home\CC2530DB\..\..\. /
//                          .\..\..\Components\hal\target\CC2530SB\ -I        /
//                          D:\毕设\CC2530-smart_home\Projects\zstack\Utiliti /
//                          es\Smart_home\CC2530DB\..\..\..\..\..\Components\ /
//                          mac\include\ -I D:\毕设\CC2530-smart_home\Project /
//                          s\zstack\Utilities\Smart_home\CC2530DB\..\..\..\. /
//                          .\..\Components\mac\high_level\ -I                /
//                          D:\毕设\CC2530-smart_home\Projects\zstack\Utiliti /
//                          es\Smart_home\CC2530DB\..\..\..\..\..\Components\ /
//                          mac\low_level\srf04\ -I                           /
//                          D:\毕设\CC2530-smart_home\Projects\zstack\Utiliti /
//                          es\Smart_home\CC2530DB\..\..\..\..\..\Components\ /
//                          mac\low_level\srf04\single_chip\ -I               /
//                          D:\毕设\CC2530-smart_home\Projects\zstack\Utiliti /
//                          es\Smart_home\CC2530DB\..\..\..\..\..\Components\ /
//                          mt\ -I D:\毕设\CC2530-smart_home\Projects\zstack\ /
//                          Utilities\Smart_home\CC2530DB\..\..\..\..\..\Comp /
//                          onents\osal\include\ -I                           /
//                          D:\毕设\CC2530-smart_home\Projects\zstack\Utiliti /
//                          es\Smart_home\CC2530DB\..\..\..\..\..\Components\ /
//                          services\saddr\ -I D:\毕设\CC2530-smart_home\Proj /
//                          ects\zstack\Utilities\Smart_home\CC2530DB\..\..\. /
//                          .\..\..\Components\services\sdata\ -I             /
//                          D:\毕设\CC2530-smart_home\Projects\zstack\Utiliti /
//                          es\Smart_home\CC2530DB\..\..\..\..\..\Components\ /
//                          stack\af\ -I D:\毕设\CC2530-smart_home\Projects\z /
//                          stack\Utilities\Smart_home\CC2530DB\..\..\..\..\. /
//                          .\Components\stack\nwk\ -I                        /
//                          D:\毕设\CC2530-smart_home\Projects\zstack\Utiliti /
//                          es\Smart_home\CC2530DB\..\..\..\..\..\Components\ /
//                          stack\sapi\ -I D:\毕设\CC2530-smart_home\Projects /
//                          \zstack\Utilities\Smart_home\CC2530DB\..\..\..\.. /
//                          \..\Components\stack\sec\ -I                      /
//                          D:\毕设\CC2530-smart_home\Projects\zstack\Utiliti /
//                          es\Smart_home\CC2530DB\..\..\..\..\..\Components\ /
//                          stack\sys\ -I D:\毕设\CC2530-smart_home\Projects\ /
//                          zstack\Utilities\Smart_home\CC2530DB\..\..\..\..\ /
//                          ..\Components\stack\zdo\ -I                       /
//                          D:\毕设\CC2530-smart_home\Projects\zstack\Utiliti /
//                          es\Smart_home\CC2530DB\..\..\..\..\..\Components\ /
//                          zmac\ -I D:\毕设\CC2530-smart_home\Projects\zstac /
//                          k\Utilities\Smart_home\CC2530DB\..\..\..\..\..\Co /
//                          mponents\zmac\f8w\ -Ohz                           /
//    List file          =  D:\毕设\CC2530-smart_home\Projects\zstack\Utiliti /
//                          es\Smart_home\CC2530DB\EndDeviceSBSoundVb\List\Sm /
//                          art_homeSound.s51                                 /
//                                                                            /
//                                                                            /
///////////////////////////////////////////////////////////////////////////////

        NAME Smart_homeSound

        RTMODEL "__SystemLibrary", "CLib"
        RTMODEL "__calling_convention", "xdata_reentrant"
        RTMODEL "__code_model", "banked"
        RTMODEL "__core", "plain"
        RTMODEL "__data_model", "large"
        RTMODEL "__dptr_size", "16"
        RTMODEL "__extended_stack", "disabled"
        RTMODEL "__location_for_constants", "data"
        RTMODEL "__number_of_dptrs", "1"
        RTMODEL "__rt_version", "1"

        RSEG DOVERLAY:DATA:NOROOT(0)
        RSEG IOVERLAY:IDATA:NOROOT(0)
        RSEG ISTACK:IDATA:NOROOT(0)
        RSEG PSTACK:XDATA:NOROOT(0)
        RSEG XSTACK:XDATA:NOROOT(0)

        EXTERN ?ALLOC_XSTACK8
        EXTERN ?BANKED_ENTER_XDATA
        EXTERN ?BANKED_LEAVE_XDATA
        EXTERN ?BDISPATCH
        EXTERN ?BRET
        EXTERN ?DEALLOC_XSTACK8
        EXTERN ?PUSH_XSTACK_I_ONE
        EXTERN ?PUSH_XSTACK_I_TWO
        EXTERN ?US_SWITCH_SPARSE
        EXTERN ?V0
        EXTERN ?XSP
        EXTERN ?XSTACK_DISP0_8
        EXTERN __INIT_XDATA_Z

        FUNCTION ??Smart_home_CallBack?relay,0203H
        PUBLIC ??Smart_home_Init?relay
        FUNCTION ??Smart_home_Init?relay,0203H
        PUBLIC ??Smart_home_ProcessEvent?relay
        FUNCTION ??Smart_home_ProcessEvent?relay,0203H
        FUNCTION ??Smart_home_ProcessZDOMsgs?relay,0203H
        PUBLIC Coordinator_DstAddr
        PUBLIC Coordinator_Msg
        FUNCTION Smart_home_CallBack,0603H
        ARGFRAME XSTACK, 0, STACK
        PUBLIC Smart_home_ClusterList_IN
        PUBLIC Smart_home_ClusterList_OUT
        PUBLIC Smart_home_Init
        FUNCTION Smart_home_Init,021203H
        ARGFRAME XSTACK, 0, STACK
        LOCFRAME XSTACK, 38, STACK
        PUBLIC Smart_home_ProcessEvent
        FUNCTION Smart_home_ProcessEvent,021203H
        ARGFRAME XSTACK, 0, STACK
        LOCFRAME ISTACK, 2, STACK
        LOCFRAME XSTACK, 30, STACK
        FUNCTION Smart_home_ProcessZDOMsgs,0a1203H
        ARGFRAME XSTACK, 21, STACK
        ARGFRAME IOVERLAY, 0, STATIC
        ARGFRAME DOVERLAY, 0, STATIC
        LOCFRAME XSTACK, 12, STACK
        PUBLIC Smart_home_SimpleDesc
        PUBLIC Smart_home_TaskID
        PUBLIC Smart_home_epDesc
        
        CFI Names cfiNames0
        CFI StackFrame CFA_SP SP IDATA
        CFI StackFrame CFA_PSP16 PSP16 XDATA
        CFI StackFrame CFA_XSP16 XSP16 XDATA
        CFI StaticOverlayFrame CFA_IOVERLAY IOVERLAY
        CFI StaticOverlayFrame CFA_DOVERLAY DOVERLAY
        CFI Resource `PSW.CY`:1, `B.BR0`:1, `B.BR1`:1, `B.BR2`:1, `B.BR3`:1
        CFI Resource `B.BR4`:1, `B.BR5`:1, `B.BR6`:1, `B.BR7`:1, `VB.BR8`:1
        CFI Resource `VB.BR9`:1, `VB.BR10`:1, `VB.BR11`:1, `VB.BR12`:1
        CFI Resource `VB.BR13`:1, `VB.BR14`:1, `VB.BR15`:1, VB:8, B:8, A:8
        CFI Resource PSW:8, DPL0:8, DPH0:8, R0:8, R1:8, R2:8, R3:8, R4:8, R5:8
        CFI Resource R6:8, R7:8, V0:8, V1:8, V2:8, V3:8, V4:8, V5:8, V6:8, V7:8
        CFI Resource V8:8, V9:8, V10:8, V11:8, V12:8, V13:8, V14:8, V15:8, SP:8
        CFI Resource PSPH:8, PSPL:8, PSP16:16, XSPH:8, XSPL:8, XSP16:16
        CFI VirtualResource ?RET:24
        CFI Resource ?BRET_EXT:8
        CFI VirtualResource ?RET_HIGH:8, ?RET_LOW:8
        CFI ResourceParts PSP16 PSPH, PSPL
        CFI ResourceParts XSP16 XSPH, XSPL
        CFI ResourceParts ?RET ?BRET_EXT, ?RET_HIGH, ?RET_LOW
        CFI EndNames cfiNames0
        
        CFI Common cfiCommon0 Using cfiNames0
        CFI CodeAlign 1
        CFI DataAlign -1
        CFI ReturnAddress ?RET CODE
        CFI CFA_DOVERLAY Used
        CFI CFA_IOVERLAY Used
        CFI CFA_SP SP+-3
        CFI CFA_PSP16 PSP16+0
        CFI CFA_XSP16 XSP16+0
        CFI `PSW.CY` SameValue
        CFI `B.BR0` SameValue
        CFI `B.BR1` SameValue
        CFI `B.BR2` SameValue
        CFI `B.BR3` SameValue
        CFI `B.BR4` SameValue
        CFI `B.BR5` SameValue
        CFI `B.BR6` SameValue
        CFI `B.BR7` SameValue
        CFI `VB.BR8` SameValue
        CFI `VB.BR9` SameValue
        CFI `VB.BR10` SameValue
        CFI `VB.BR11` SameValue
        CFI `VB.BR12` SameValue
        CFI `VB.BR13` SameValue
        CFI `VB.BR14` SameValue
        CFI `VB.BR15` SameValue
        CFI VB SameValue
        CFI B Undefined
        CFI A Undefined
        CFI PSW SameValue
        CFI DPL0 SameValue
        CFI DPH0 SameValue
        CFI R0 Undefined
        CFI R1 Undefined
        CFI R2 Undefined
        CFI R3 Undefined
        CFI R4 Undefined
        CFI R5 Undefined
        CFI R6 SameValue
        CFI R7 SameValue
        CFI V0 SameValue
        CFI V1 SameValue
        CFI V2 SameValue
        CFI V3 SameValue
        CFI V4 SameValue
        CFI V5 SameValue
        CFI V6 SameValue
        CFI V7 SameValue
        CFI V8 SameValue
        CFI V9 SameValue
        CFI V10 SameValue
        CFI V11 SameValue
        CFI V12 SameValue
        CFI V13 SameValue
        CFI V14 SameValue
        CFI V15 SameValue
        CFI PSPH Undefined
        CFI PSPL Undefined
        CFI XSPH Undefined
        CFI XSPL Undefined
        CFI ?RET Concat
        CFI ?BRET_EXT Frame(CFA_SP, 3)
        CFI ?RET_HIGH Frame(CFA_SP, 2)
        CFI ?RET_LOW Frame(CFA_SP, 1)
        CFI EndCommon cfiCommon0
        
afRegister          SYMBOL "afRegister"
RegisterForKeys     SYMBOL "RegisterForKeys"
HalUARTOpen         SYMBOL "HalUARTOpen"
HalSoundVbInit      SYMBOL "HalSoundVbInit"
ZDO_RegisterForZDOMsg SYMBOL "ZDO_RegisterForZDOMsg"
osal_start_reload_timer SYMBOL "osal_start_reload_timer"
ZDP_MatchDescReq    SYMBOL "ZDP_MatchDescReq"
osal_msg_deallocate SYMBOL "osal_msg_deallocate"
osal_msg_receive    SYMBOL "osal_msg_receive"
AF_DataRequest      SYMBOL "AF_DataRequest"
strlen              SYMBOL "strlen"
HalUARTWrite        SYMBOL "HalUARTWrite"
ZDO_ParseEPListRsp  SYMBOL "ZDO_ParseEPListRsp"
osal_stop_timerEx   SYMBOL "osal_stop_timerEx"
osal_mem_free       SYMBOL "osal_mem_free"
??AF_DataRequest?relay SYMBOL "?relay", AF_DataRequest
??HalSoundVbInit?relay SYMBOL "?relay", HalSoundVbInit
??HalUARTOpen?relay SYMBOL "?relay", HalUARTOpen
??HalUARTWrite?relay SYMBOL "?relay", HalUARTWrite
??RegisterForKeys?relay SYMBOL "?relay", RegisterForKeys
??ZDO_ParseEPListRsp?relay SYMBOL "?relay", ZDO_ParseEPListRsp
??ZDO_RegisterForZDOMsg?relay SYMBOL "?relay", ZDO_RegisterForZDOMsg
??ZDP_MatchDescReq?relay SYMBOL "?relay", ZDP_MatchDescReq
??afRegister?relay  SYMBOL "?relay", afRegister
??osal_mem_free?relay SYMBOL "?relay", osal_mem_free
??osal_msg_deallocate?relay SYMBOL "?relay", osal_msg_deallocate
??osal_msg_receive?relay SYMBOL "?relay", osal_msg_receive
??osal_start_reload_timer?relay SYMBOL "?relay", osal_start_reload_timer
??osal_stop_timerEx?relay SYMBOL "?relay", osal_stop_timerEx
??strlen?relay      SYMBOL "?relay", strlen
Smart_home_Init     SYMBOL "Smart_home_Init"
??Smart_home_Init?relay SYMBOL "?relay", Smart_home_Init
Smart_home_ProcessEvent SYMBOL "Smart_home_ProcessEvent"
??Smart_home_ProcessEvent?relay SYMBOL "?relay", Smart_home_ProcessEvent

        EXTERN afRegister
        FUNCTION afRegister,0202H
        ARGFRAME ISTACK, 0, STACK
        ARGFRAME PSTACK, 0, STACK
        ARGFRAME XSTACK, 38, STACK
        ARGFRAME IOVERLAY, 0, STATIC
        ARGFRAME DOVERLAY, 0, STATIC
        EXTERN RegisterForKeys
        FUNCTION RegisterForKeys,0202H
        ARGFRAME ISTACK, 0, STACK
        ARGFRAME PSTACK, 0, STACK
        ARGFRAME XSTACK, 38, STACK
        ARGFRAME IOVERLAY, 0, STATIC
        ARGFRAME DOVERLAY, 0, STATIC
        EXTERN HalUARTOpen
        FUNCTION HalUARTOpen,0202H
        ARGFRAME ISTACK, 0, STACK
        ARGFRAME PSTACK, 0, STACK
        ARGFRAME XSTACK, 38, STACK
        ARGFRAME IOVERLAY, 0, STATIC
        ARGFRAME DOVERLAY, 0, STATIC
        EXTERN HalSoundVbInit
        FUNCTION HalSoundVbInit,0200H
        ARGFRAME ISTACK, 0, STACK
        ARGFRAME PSTACK, 0, STACK
        ARGFRAME XSTACK, 38, STACK
        ARGFRAME IOVERLAY, 0, STATIC
        ARGFRAME DOVERLAY, 0, STATIC
        EXTERN ZDO_RegisterForZDOMsg
        FUNCTION ZDO_RegisterForZDOMsg,0202H
        ARGFRAME ISTACK, 0, STACK
        ARGFRAME PSTACK, 0, STACK
        ARGFRAME XSTACK, 38, STACK
        ARGFRAME IOVERLAY, 0, STATIC
        ARGFRAME DOVERLAY, 0, STATIC
        EXTERN osal_start_reload_timer
        FUNCTION osal_start_reload_timer,0202H
        ARGFRAME ISTACK, 0, STACK
        ARGFRAME PSTACK, 0, STACK
        ARGFRAME XSTACK, 38, STACK
        ARGFRAME IOVERLAY, 0, STATIC
        ARGFRAME DOVERLAY, 0, STATIC
        EXTERN ZDP_MatchDescReq
        FUNCTION ZDP_MatchDescReq,0202H
        ARGFRAME ISTACK, 0, STACK
        ARGFRAME PSTACK, 0, STACK
        ARGFRAME XSTACK, 29, STACK
        ARGFRAME IOVERLAY, 0, STATIC
        ARGFRAME DOVERLAY, 0, STATIC
        EXTERN osal_msg_deallocate
        FUNCTION osal_msg_deallocate,0202H
        ARGFRAME ISTACK, 0, STACK
        ARGFRAME PSTACK, 0, STACK
        ARGFRAME XSTACK, 21, STACK
        ARGFRAME IOVERLAY, 0, STATIC
        ARGFRAME DOVERLAY, 0, STATIC
        EXTERN osal_msg_receive
        FUNCTION osal_msg_receive,0202H
        ARGFRAME ISTACK, 0, STACK
        ARGFRAME PSTACK, 0, STACK
        ARGFRAME XSTACK, 21, STACK
        ARGFRAME IOVERLAY, 0, STATIC
        ARGFRAME DOVERLAY, 0, STATIC
        EXTERN AF_DataRequest
        FUNCTION AF_DataRequest,0202H
        ARGFRAME ISTACK, 0, STACK
        ARGFRAME PSTACK, 0, STACK
        ARGFRAME XSTACK, 30, STACK
        ARGFRAME IOVERLAY, 0, STATIC
        ARGFRAME DOVERLAY, 0, STATIC
        EXTERN strlen
        FUNCTION strlen,0200H
        ARGFRAME ISTACK, 0, STACK
        ARGFRAME PSTACK, 0, STACK
        ARGFRAME XSTACK, 12, STACK
        ARGFRAME IOVERLAY, 0, STATIC
        ARGFRAME DOVERLAY, 0, STATIC
        EXTERN HalUARTWrite
        FUNCTION HalUARTWrite,0202H
        ARGFRAME ISTACK, 0, STACK
        ARGFRAME PSTACK, 0, STACK
        ARGFRAME XSTACK, 12, STACK
        ARGFRAME IOVERLAY, 0, STATIC
        ARGFRAME DOVERLAY, 0, STATIC
        EXTERN ZDO_ParseEPListRsp
        FUNCTION ZDO_ParseEPListRsp,0202H
        ARGFRAME ISTACK, 0, STACK
        ARGFRAME PSTACK, 0, STACK
        ARGFRAME XSTACK, 12, STACK
        ARGFRAME IOVERLAY, 0, STATIC
        ARGFRAME DOVERLAY, 0, STATIC
        EXTERN osal_stop_timerEx
        FUNCTION osal_stop_timerEx,0202H
        ARGFRAME ISTACK, 0, STACK
        ARGFRAME PSTACK, 0, STACK
        ARGFRAME XSTACK, 12, STACK
        ARGFRAME IOVERLAY, 0, STATIC
        ARGFRAME DOVERLAY, 0, STATIC
        EXTERN osal_mem_free
        FUNCTION osal_mem_free,0202H
        ARGFRAME ISTACK, 0, STACK
        ARGFRAME PSTACK, 0, STACK
        ARGFRAME XSTACK, 12, STACK
        ARGFRAME IOVERLAY, 0, STATIC
        ARGFRAME DOVERLAY, 0, STATIC
        EXTERN ??AF_DataRequest?relay
        FUNCTION ??AF_DataRequest?relay,00H
        EXTERN ??HalSoundVbInit?relay
        FUNCTION ??HalSoundVbInit?relay,00H
        EXTERN ??HalUARTOpen?relay
        FUNCTION ??HalUARTOpen?relay,00H
        EXTERN ??HalUARTWrite?relay
        FUNCTION ??HalUARTWrite?relay,00H
        EXTERN ??RegisterForKeys?relay
        FUNCTION ??RegisterForKeys?relay,00H
        EXTERN ??ZDO_ParseEPListRsp?relay
        FUNCTION ??ZDO_ParseEPListRsp?relay,00H
        EXTERN ??ZDO_RegisterForZDOMsg?relay
        FUNCTION ??ZDO_RegisterForZDOMsg?relay,00H
        EXTERN ??ZDP_MatchDescReq?relay
        FUNCTION ??ZDP_MatchDescReq?relay,00H
        EXTERN ??afRegister?relay
        FUNCTION ??afRegister?relay,00H
        EXTERN ??osal_mem_free?relay
        FUNCTION ??osal_mem_free?relay,00H
        EXTERN ??osal_msg_deallocate?relay
        FUNCTION ??osal_msg_deallocate?relay,00H
        EXTERN ??osal_msg_receive?relay
        FUNCTION ??osal_msg_receive?relay,00H
        EXTERN ??osal_start_reload_timer?relay
        FUNCTION ??osal_start_reload_timer?relay,00H
        EXTERN ??osal_stop_timerEx?relay
        FUNCTION ??osal_stop_timerEx?relay,00H
        EXTERN ??strlen?relay
        FUNCTION ??strlen?relay,00H

// D:\毕设\CC2530-smart_home\Projects\zstack\Utilities\Smart_home\Source\Smart_homeSound.c
//    1 /*******************************************************************
//    2   文件名：Smart_homeTempLight.c
//    3   作 者： 柳成林
//    4   功 能： 声音检测功能节点，实现对声音响度的检测，收集声音震动信
//    5           息并发送给传感器
//    6   更新日志(2021)
//    7   3.22
//    8   + 新增 设置输入输出簇
//    9          Smart_home_HandleKeys()      //按键控制
//   10          Smart_home_ProcessMSGCmd();  //输入控制函数 
//   11   + 修改 Smart_home_ProcessEvt()      //事件处理函数
//   12          Smart_home_Init()            //初始化函数
//   13          Smart_home_Send()            //信息发送函数
//   14 
//   15 
//   16 使用事件 
//   17      SMART_HOME_SEND_MSG_EVT(发送数据)
//   18      SMART_HOME_MATCHRSP_EVT(描述符匹配)
//   19    
//   20 *********************************************************************/
//   21 /*********************************************************************
//   22  * INCLUDES
//   23  */
//   24 
//   25 #include "AF.h"
//   26 #include "OnBoard.h"
//   27 #include "OSAL_Tasks.h"
//   28 #include "Smart_home.h"
//   29 #include "ZDApp.h"
//   30 #include "ZDObject.h"
//   31 #include "ZDProfile.h"
//   32 
//   33 #include "hal_drivers.h"
//   34 #include "hal_key.h"
//   35 
//   36 #include "hal_led.h"
//   37 #include "hal_uart.h"
//   38 #include "hal_relay.h"
//   39 
//   40 /*********************************************************************
//   41  * MACROS
//   42  */
//   43 //3.23  屏幕显示的小bug
//   44 #define SMART_HOME_SEND_DELAY   500
//   45 #define SMART_HOME_MATCH_DELAY  1000
//   46 /*********************************************************************
//   47  * CONSTANTS
//   48  */
//   49 
//   50 #if !defined( SERIAL_APP_PORT )
//   51 #define SERIAL_APP_PORT  0
//   52 #endif
//   53 
//   54 #if !defined( SERIAL_APP_BAUD )
//   55 #define SERIAL_APP_BAUD  HAL_UART_BR_38400
//   56 //#define SERIAL_APP_BAUD  HAL_UART_BR_115200
//   57 #endif
//   58 
//   59 // When the Rx buf space is less than this threshold, invoke the Rx callback.
//   60 #if !defined( SERIAL_APP_THRESH )
//   61 #define SERIAL_APP_THRESH  64
//   62 #endif
//   63 
//   64 #if !defined( SERIAL_APP_RX_SZ )
//   65 #define SERIAL_APP_RX_SZ  128
//   66 #endif
//   67 
//   68 #if !defined( SERIAL_APP_TX_SZ )
//   69 #define SERIAL_APP_TX_SZ  128
//   70 #endif
//   71 
//   72 // Millisecs of idle time after a byte is received before invoking Rx callback.
//   73 #if !defined( SERIAL_APP_IDLE )
//   74 #define SERIAL_APP_IDLE  6
//   75 #endif
//   76 
//   77 // Loopback Rx bytes to Tx for throughput testing.
//   78 #if !defined( SERIAL_APP_LOOPBACK )
//   79 #define SERIAL_APP_LOOPBACK  FALSE
//   80 #endif
//   81 
//   82 // This is the max byte count per OTA message.
//   83 #if !defined( SERIAL_APP_TX_MAX )
//   84 #define SERIAL_APP_TX_MAX  80
//   85 #endif
//   86 
//   87 #define SERIAL_APP_RSP_CNT  4
//   88 
//   89 //3.21 设置输入输出簇
//   90 // This list should be filled with Application specific Cluster IDs.

        RSEG XDATA_ROM_C:CONST:REORDER:NOROOT(0)
        DATA16
//   91 const cId_t Smart_home_ClusterList_IN[1] =
Smart_home_ClusterList_IN:
        DW 6
//   92 {
//   93   Smart_home_CLUSTERID_SOUNDVBMSG         //继电器接收的消息控制命令
//   94 };
//   95 

        RSEG XDATA_ROM_C:CONST:REORDER:NOROOT(0)
        DATA16
//   96 const cId_t Smart_home_ClusterList_OUT[1] =
Smart_home_ClusterList_OUT:
        DW 6
//   97 {
//   98   Smart_home_CLUSTERID_SOUNDVBMSG         //继电器发送的状态信息
//   99 };
//  100 

        RSEG XDATA_ROM_C:CONST:REORDER:NOROOT(0)
        DATA8
//  101 const SimpleDescriptionFormat_t Smart_home_SimpleDesc =
Smart_home_SimpleDesc:
        DB 1
        DATA16
        DW 3845
        DW 1
        DATA8
        DB 0
        DB 9
        DATA16
        DW Smart_home_ClusterList_IN
        DATA8
        DB 3
        DATA16
        DW Smart_home_ClusterList_OUT
//  102 {
//  103   Smart_home_ENDPOINT,              //  int   Endpoint;
//  104   Smart_home_PROFID,                //  uint16 AppProfId[2];
//  105   Smart_home_DEVICEID,              //  uint16 AppDeviceId[2];
//  106   Smart_home_DEVICE_VERSION,        //  int   AppDevVer:4;
//  107   Smart_home_FLAGS,                 //  int   AppFlags:4;
//  108   Smart_home_MAX_INCLUSTERS,          //  byte  AppNumInClusters;
//  109   (cId_t *)Smart_home_ClusterList_IN,  //  byte *pAppInClusterList;
//  110   Smart_home_MAX_OUTCLUSTERS ,          //  byte  AppNumOutClusters;
//  111   (cId_t *)Smart_home_ClusterList_OUT   //  byte *pAppOutClusterList;
//  112 };
//  113 

        RSEG XDATA_ROM_C:CONST:REORDER:NOROOT(0)
        DATA8
//  114 const endPointDesc_t Smart_home_epDesc =
Smart_home_epDesc:
        DB 1
        DATA16
        DW Smart_home_TaskID
        DW Smart_home_SimpleDesc
        DATA8
        DB 0
//  115 {
//  116   Smart_home_ENDPOINT,
//  117  &Smart_home_TaskID,
//  118   (SimpleDescriptionFormat_t *)&Smart_home_SimpleDesc,
//  119   noLatencyReqs
//  120 };
//  121 

        RSEG XDATA_Z:XDATA:NOROOT(0)
        DATA8
//  122 afAddrType_t Coordinator_DstAddr;
Coordinator_DstAddr:
        DS 12
        REQUIRE __INIT_XDATA_Z
//  123 
//  124 /*********************************************************************
//  125  * TYPEDEFS
//  126  */
//  127 
//  128 /*********************************************************************
//  129  * GLOBAL VARIABLES
//  130  */
//  131 

        RSEG XDATA_Z:XDATA:NOROOT(0)
        DATA8
//  132 uint8 Smart_home_TaskID;    // Task ID for internal task/event processing.
Smart_home_TaskID:
        DS 1
        REQUIRE __INIT_XDATA_Z

        RSEG XDATA_Z:XDATA:NOROOT(0)
        DATA8
//  133 byte Coordinator_Msg[SOUNDVBMSG_LEN];
Coordinator_Msg:
        DS 5
        REQUIRE __INIT_XDATA_Z
//  134 
//  135 /*********************************************************************
//  136  * EXTERNAL VARIABLES
//  137  */
//  138 
//  139 /*********************************************************************
//  140  * EXTERNAL FUNCTIONS
//  141  */
//  142 
//  143 /*********************************************************************
//  144  * LOCAL VARIABLES
//  145  */
//  146 

        RSEG XDATA_Z:XDATA:NOROOT(0)
        DATA8
//  147 static byte Smart_home_MsgID;  // This is the unique message ID (counter)
Smart_home_MsgID:
        DS 1
        REQUIRE __INIT_XDATA_Z
//  148 
//  149 // 声音振动报警标志, soundVbBuf[0]:声音报警；soundVbBuf[1]:振动报警；

        RSEG XDATA_Z:XDATA:NOROOT(0)
        DATA16
//  150 static uint8 soundVbBuf[2];
soundVbBuf:
        DS 2
        REQUIRE __INIT_XDATA_Z
//  151 
//  152 
//  153 /*********************************************************************
//  154  * LOCAL FUNCTIONS
//  155  */
//  156 
//  157 static void Smart_home_ProcessZDOMsgs( zdoIncomingMsg_t *inMsg );
//  158 static void Smart_home_HandleKeys( uint8 shift, uint8 keys );
//  159 static void Smart_home_ProcessMSGCmd( afIncomingMSGPacket_t *pkt );
//  160 static void Smart_home_Send(void);
//  161 static void Smart_home_Resp(void);
//  162 static void Smart_home_CallBack(uint8 port, uint8 event);
//  163 
//  164 /*********************************************************************
//  165  * @fn      Smart_home_Init
//  166  *
//  167  * @brief   This is called during OSAL tasks' initialization.
//  168  *
//  169  * @param   task_id - the Task ID assigned by OSAL.
//  170  *
//  171  * @return  none
//  172  */

        RSEG BANKED_CODE:CODE:NOROOT(0)
//  173 void Smart_home_Init( uint8 task_id )
Smart_home_Init:
        CFI Block cfiBlock0 Using cfiCommon0
        CFI Function Smart_home_Init
        CODE
//  174 {
        FUNCALL Smart_home_Init, afRegister
        LOCFRAME ISTACK, 0, STACK
        LOCFRAME PSTACK, 0, STACK
        LOCFRAME XSTACK, 38, STACK
        LOCFRAME IOVERLAY, 0, STATIC
        LOCFRAME DOVERLAY, 0, STATIC
        ARGFRAME ISTACK, 0, STACK
        ARGFRAME PSTACK, 0, STACK
        ARGFRAME XSTACK, 38, STACK
        ARGFRAME IOVERLAY, 0, STATIC
        ARGFRAME DOVERLAY, 0, STATIC
        FUNCALL Smart_home_Init, RegisterForKeys
        LOCFRAME ISTACK, 0, STACK
        LOCFRAME PSTACK, 0, STACK
        LOCFRAME XSTACK, 38, STACK
        LOCFRAME IOVERLAY, 0, STATIC
        LOCFRAME DOVERLAY, 0, STATIC
        ARGFRAME ISTACK, 0, STACK
        ARGFRAME PSTACK, 0, STACK
        ARGFRAME XSTACK, 38, STACK
        ARGFRAME IOVERLAY, 0, STATIC
        ARGFRAME DOVERLAY, 0, STATIC
        FUNCALL Smart_home_Init, HalUARTOpen
        LOCFRAME ISTACK, 0, STACK
        LOCFRAME PSTACK, 0, STACK
        LOCFRAME XSTACK, 38, STACK
        LOCFRAME IOVERLAY, 0, STATIC
        LOCFRAME DOVERLAY, 0, STATIC
        ARGFRAME ISTACK, 0, STACK
        ARGFRAME PSTACK, 0, STACK
        ARGFRAME XSTACK, 38, STACK
        ARGFRAME IOVERLAY, 0, STATIC
        ARGFRAME DOVERLAY, 0, STATIC
        FUNCALL Smart_home_Init, HalSoundVbInit
        LOCFRAME ISTACK, 0, STACK
        LOCFRAME PSTACK, 0, STACK
        LOCFRAME XSTACK, 38, STACK
        LOCFRAME IOVERLAY, 0, STATIC
        LOCFRAME DOVERLAY, 0, STATIC
        ARGFRAME ISTACK, 0, STACK
        ARGFRAME PSTACK, 0, STACK
        ARGFRAME XSTACK, 38, STACK
        ARGFRAME IOVERLAY, 0, STATIC
        ARGFRAME DOVERLAY, 0, STATIC
        FUNCALL Smart_home_Init, ZDO_RegisterForZDOMsg
        LOCFRAME ISTACK, 0, STACK
        LOCFRAME PSTACK, 0, STACK
        LOCFRAME XSTACK, 38, STACK
        LOCFRAME IOVERLAY, 0, STATIC
        LOCFRAME DOVERLAY, 0, STATIC
        ARGFRAME ISTACK, 0, STACK
        ARGFRAME PSTACK, 0, STACK
        ARGFRAME XSTACK, 38, STACK
        ARGFRAME IOVERLAY, 0, STATIC
        ARGFRAME DOVERLAY, 0, STATIC
        FUNCALL Smart_home_Init, ZDO_RegisterForZDOMsg
        LOCFRAME ISTACK, 0, STACK
        LOCFRAME PSTACK, 0, STACK
        LOCFRAME XSTACK, 38, STACK
        LOCFRAME IOVERLAY, 0, STATIC
        LOCFRAME DOVERLAY, 0, STATIC
        ARGFRAME ISTACK, 0, STACK
        ARGFRAME PSTACK, 0, STACK
        ARGFRAME XSTACK, 38, STACK
        ARGFRAME IOVERLAY, 0, STATIC
        ARGFRAME DOVERLAY, 0, STATIC
        FUNCALL Smart_home_Init, osal_start_reload_timer
        LOCFRAME ISTACK, 0, STACK
        LOCFRAME PSTACK, 0, STACK
        LOCFRAME XSTACK, 38, STACK
        LOCFRAME IOVERLAY, 0, STATIC
        LOCFRAME DOVERLAY, 0, STATIC
        ARGFRAME ISTACK, 0, STACK
        ARGFRAME PSTACK, 0, STACK
        ARGFRAME XSTACK, 38, STACK
        ARGFRAME IOVERLAY, 0, STATIC
        ARGFRAME DOVERLAY, 0, STATIC
        MOV     A,#-0x9
        LCALL   ?BANKED_ENTER_XDATA
        CFI DPH0 load(1, XDATA, add(CFA_XSP16, literal(-1)))
        CFI DPL0 load(1, XDATA, add(CFA_XSP16, literal(-2)))
        CFI ?BRET_EXT load(1, XDATA, add(CFA_XSP16, literal(-3)))
        CFI ?RET_HIGH load(1, XDATA, add(CFA_XSP16, literal(-4)))
        CFI ?RET_LOW load(1, XDATA, add(CFA_XSP16, literal(-5)))
        CFI R7 load(1, XDATA, add(CFA_XSP16, literal(-6)))
        CFI V0 load(1, XDATA, add(CFA_XSP16, literal(-7)))
        CFI VB load(1, XDATA, add(CFA_XSP16, literal(-8)))
        CFI R6 load(1, XDATA, add(CFA_XSP16, literal(-9)))
        CFI CFA_SP SP+0
        CFI CFA_XSP16 add(XSP16, 9)
        ; Saved register size: 9
        ; Auto size: 29
        MOV     A,#-0x1d
        LCALL   ?ALLOC_XSTACK8
        CFI CFA_XSP16 add(XSP16, 38)
        MOV     A,R1
        MOV     R6,A
//  175   halUARTCfg_t uartConfig;
//  176 
//  177   Smart_home_TaskID = task_id;
        MOV     DPTR,#Smart_home_TaskID
        MOVX    @DPTR,A
//  178   Smart_home_MsgID = 0;
        MOV     DPTR,#Smart_home_MsgID
        CLR     A
        MOVX    @DPTR,A
//  179 
//  180   // Register the endpoint/interface description with the AF
//  181   afRegister( (endPointDesc_t *)&Smart_home_epDesc );
        ; Setup parameters for call to function afRegister
        MOV     R2,#Smart_home_epDesc & 0xff
        MOV     R3,#(Smart_home_epDesc >> 8) & 0xff
        LCALL   ??afRegister?relay
//  182 
//  183   // Register for all key events - This app will handle all key events
//  184   RegisterForKeys( task_id );
        ; Setup parameters for call to function RegisterForKeys
        MOV     A,R6
        MOV     R1,A
        LCALL   ??RegisterForKeys?relay
//  185   
//  186   //串口配置
//  187   uartConfig.configured           = TRUE;              // 2x30 don't care - see uart driver.
        MOV     DPL,?XSP + 0
        MOV     DPH,?XSP + 1
        MOV     A,#0x1
        MOVX    @DPTR,A
//  188   uartConfig.baudRate             = SERIAL_APP_BAUD;
        LCALL   ?XSTACK_DISP0_8
        MOV     A,#0x2
        MOVX    @DPTR,A
//  189   uartConfig.flowControl          = TRUE;
        LCALL   ?XSTACK_DISP0_8
        MOV     A,#0x1
        MOVX    @DPTR,A
//  190   uartConfig.flowControlThreshold = SERIAL_APP_THRESH; // 2x30 don't care - see uart driver.
        MOV     A,#0x3
        LCALL   ?XSTACK_DISP0_8
        MOV     A,#0x40
        MOVX    @DPTR,A
        INC     DPTR
        CLR     A
        MOVX    @DPTR,A
//  191   uartConfig.rx.maxBufSize        = SERIAL_APP_RX_SZ;  // 2x30 don't care - see uart driver.
        MOV     A,#0xa
        LCALL   ?XSTACK_DISP0_8
        MOV     A,#-0x80
        MOVX    @DPTR,A
        INC     DPTR
        CLR     A
        MOVX    @DPTR,A
//  192   uartConfig.tx.maxBufSize        = SERIAL_APP_TX_SZ;  // 2x30 don't care - see uart driver.
        MOV     A,#0x12
        LCALL   ?XSTACK_DISP0_8
        MOV     A,#-0x80
        MOVX    @DPTR,A
        INC     DPTR
        CLR     A
        MOVX    @DPTR,A
//  193   uartConfig.idleTimeout          = SERIAL_APP_IDLE;   // 2x30 don't care - see uart driver.
        MOV     A,#0x5
        LCALL   ?XSTACK_DISP0_8
        MOV     A,#0x6
        MOVX    @DPTR,A
//  194   uartConfig.intEnable            = TRUE;              // 2x30 don't care - see uart driver.
        MOV     A,#0x16
        LCALL   ?XSTACK_DISP0_8
        MOV     A,#0x1
        MOVX    @DPTR,A
//  195   uartConfig.callBackFunc         = Smart_home_CallBack;
        MOV     A,#0x1b
        LCALL   ?XSTACK_DISP0_8
        MOV     A,#??Smart_home_CallBack?relay & 0xff
        MOVX    @DPTR,A
        INC     DPTR
        MOV     A,#(??Smart_home_CallBack?relay >> 8) & 0xff
        MOVX    @DPTR,A
//  196   HalUARTOpen (SERIAL_APP_PORT, &uartConfig);
        ; Setup parameters for call to function HalUARTOpen
        MOV     DPL,?XSP + 0
        MOV     DPH,?XSP + 1
        MOV     R2,DPL
        MOV     R3,DPH
        MOV     R1,#0x0
        LCALL   ??HalUARTOpen?relay
//  197 
//  198   //初始化向协调器发送的地址
//  199   Coordinator_DstAddr.addrMode = (afAddrMode_t)AddrNotPresent;
        MOV     DPTR,#Coordinator_DstAddr + 8
        CLR     A
        MOVX    @DPTR,A
//  200   Coordinator_DstAddr.endPoint = 0;
        INC     DPTR
        MOVX    @DPTR,A
//  201   Coordinator_DstAddr.addr.shortAddr = 0;
        MOV     DPTR,#Coordinator_DstAddr
        MOVX    @DPTR,A
        INC     DPTR
        MOVX    @DPTR,A
//  202   
//  203   //传感器初始化
//  204   HalSoundVbInit();
        ; Setup parameters for call to function HalSoundVbInit
        LCALL   ??HalSoundVbInit?relay
//  205   
//  206   ZDO_RegisterForZDOMsg( Smart_home_TaskID, End_Device_Bind_rsp );
        ; Setup parameters for call to function ZDO_RegisterForZDOMsg
        MOV     R2,#0x20
        MOV     R3,#-0x80
        MOV     DPTR,#Smart_home_TaskID
        MOVX    A,@DPTR
        MOV     R1,A
        LCALL   ??ZDO_RegisterForZDOMsg?relay
//  207   ZDO_RegisterForZDOMsg( Smart_home_TaskID, Match_Desc_rsp );
        ; Setup parameters for call to function ZDO_RegisterForZDOMsg
        MOV     R2,#0x6
        MOV     R3,#-0x80
        MOV     DPTR,#Smart_home_TaskID
        MOVX    A,@DPTR
        MOV     R1,A
        LCALL   ??ZDO_RegisterForZDOMsg?relay
//  208   
//  209   // 打开定时器，描述符匹配事件
//  210   osal_start_reload_timer( Smart_home_TaskID, SMART_HOME_MATCHRSP_EVT, 
//  211                                                SMART_HOME_SEND_DELAY );
        ; Setup parameters for call to function osal_start_reload_timer
        MOV     R4,#-0xc
        MOV     R5,#0x1
        MOV     R2,#0x8
        MOV     R3,#0x0
        MOV     DPTR,#Smart_home_TaskID
        MOVX    A,@DPTR
        MOV     R1,A
        LCALL   ??osal_start_reload_timer?relay
//  212 }
        MOV     A,#0x1d
        LCALL   ?DEALLOC_XSTACK8
        CFI CFA_XSP16 add(XSP16, 9)
        MOV     R7,#0x1
        LJMP    ?BANKED_LEAVE_XDATA
        CFI EndBlock cfiBlock0
//  213 
//  214 /*********************************************************************
//  215  * @fn      Smart_home_ProcessEvent
//  216  *
//  217  * @brief   Generic Application Task event processor.
//  218  *
//  219  * @param   task_id  - The OSAL assigned task ID.
//  220  * @param   events   - Bit map of events to process.
//  221  *
//  222  * @return  Event flags of all unprocessed events.
//  223  */

        RSEG BANKED_CODE:CODE:NOROOT(0)
//  224 UINT16 Smart_home_ProcessEvent( uint8 task_id, UINT16 events )
Smart_home_ProcessEvent:
        CFI Block cfiBlock1 Using cfiCommon0
        CFI Function Smart_home_ProcessEvent
        CODE
//  225 {
        FUNCALL Smart_home_ProcessEvent, ZDP_MatchDescReq
        LOCFRAME ISTACK, 0, STACK
        LOCFRAME PSTACK, 0, STACK
        LOCFRAME XSTACK, 29, STACK
        LOCFRAME IOVERLAY, 0, STATIC
        LOCFRAME DOVERLAY, 0, STATIC
        ARGFRAME ISTACK, 0, STACK
        ARGFRAME PSTACK, 0, STACK
        ARGFRAME XSTACK, 29, STACK
        ARGFRAME IOVERLAY, 0, STATIC
        ARGFRAME DOVERLAY, 0, STATIC
        FUNCALL Smart_home_ProcessEvent, Smart_home_ProcessZDOMsgs
        LOCFRAME ISTACK, 0, STACK
        LOCFRAME PSTACK, 0, STACK
        LOCFRAME XSTACK, 21, STACK
        LOCFRAME IOVERLAY, 0, STATIC
        LOCFRAME DOVERLAY, 0, STATIC
        ARGFRAME ISTACK, 0, STACK
        ARGFRAME PSTACK, 0, STACK
        ARGFRAME XSTACK, 21, STACK
        ARGFRAME IOVERLAY, 0, STATIC
        ARGFRAME DOVERLAY, 0, STATIC
        FUNCALL Smart_home_ProcessEvent, osal_msg_deallocate
        LOCFRAME ISTACK, 0, STACK
        LOCFRAME PSTACK, 0, STACK
        LOCFRAME XSTACK, 21, STACK
        LOCFRAME IOVERLAY, 0, STATIC
        LOCFRAME DOVERLAY, 0, STATIC
        ARGFRAME ISTACK, 0, STACK
        ARGFRAME PSTACK, 0, STACK
        ARGFRAME XSTACK, 21, STACK
        ARGFRAME IOVERLAY, 0, STATIC
        ARGFRAME DOVERLAY, 0, STATIC
        FUNCALL Smart_home_ProcessEvent, osal_msg_receive
        LOCFRAME ISTACK, 0, STACK
        LOCFRAME PSTACK, 0, STACK
        LOCFRAME XSTACK, 21, STACK
        LOCFRAME IOVERLAY, 0, STATIC
        LOCFRAME DOVERLAY, 0, STATIC
        ARGFRAME ISTACK, 0, STACK
        ARGFRAME PSTACK, 0, STACK
        ARGFRAME XSTACK, 21, STACK
        ARGFRAME IOVERLAY, 0, STATIC
        ARGFRAME DOVERLAY, 0, STATIC
        FUNCALL Smart_home_ProcessEvent, AF_DataRequest
        LOCFRAME ISTACK, 0, STACK
        LOCFRAME PSTACK, 0, STACK
        LOCFRAME XSTACK, 30, STACK
        LOCFRAME IOVERLAY, 0, STATIC
        LOCFRAME DOVERLAY, 0, STATIC
        ARGFRAME ISTACK, 0, STACK
        ARGFRAME PSTACK, 0, STACK
        ARGFRAME XSTACK, 30, STACK
        ARGFRAME IOVERLAY, 0, STATIC
        ARGFRAME DOVERLAY, 0, STATIC
        MOV     A,#-0xc
        LCALL   ?BANKED_ENTER_XDATA
        CFI DPH0 load(1, XDATA, add(CFA_XSP16, literal(-1)))
        CFI DPL0 load(1, XDATA, add(CFA_XSP16, literal(-2)))
        CFI ?BRET_EXT load(1, XDATA, add(CFA_XSP16, literal(-3)))
        CFI ?RET_HIGH load(1, XDATA, add(CFA_XSP16, literal(-4)))
        CFI ?RET_LOW load(1, XDATA, add(CFA_XSP16, literal(-5)))
        CFI R7 load(1, XDATA, add(CFA_XSP16, literal(-6)))
        CFI V3 load(1, XDATA, add(CFA_XSP16, literal(-7)))
        CFI V2 load(1, XDATA, add(CFA_XSP16, literal(-8)))
        CFI V1 load(1, XDATA, add(CFA_XSP16, literal(-9)))
        CFI V0 load(1, XDATA, add(CFA_XSP16, literal(-10)))
        CFI VB load(1, XDATA, add(CFA_XSP16, literal(-11)))
        CFI R6 load(1, XDATA, add(CFA_XSP16, literal(-12)))
        CFI CFA_SP SP+0
        CFI CFA_XSP16 add(XSP16, 12)
        ; Saved register size: 12
        ; Auto size: 9
        MOV     A,#-0x9
        LCALL   ?ALLOC_XSTACK8
        CFI CFA_XSP16 add(XSP16, 21)
        MOV     A,R2
        MOV     R6,A
        MOV     A,R3
        MOV     R7,A
//  226   (void)task_id;  // Intentionally unreferenced parameter
//  227   
//  228   if ( events & SYS_EVENT_MSG )
        ANL     A,#0x80
        JNZ     ??Smart_home_ProcessEvent_0
//  229   {
//  230     afIncomingMSGPacket_t *MSGpkt;
//  231 
//  232     while ( (MSGpkt = (afIncomingMSGPacket_t *)osal_msg_receive( Smart_home_TaskID )) )
//  233     {
//  234       switch ( MSGpkt->hdr.event )
//  235       {
//  236       case ZDO_CB_MSG:
//  237         Smart_home_ProcessZDOMsgs( (zdoIncomingMsg_t *)MSGpkt );
//  238         break;
//  239           
//  240       case KEY_CHANGE:
//  241         Smart_home_HandleKeys( ((keyChange_t *)MSGpkt)->state, ((keyChange_t *)MSGpkt)->keys );
//  242         break;
//  243 
//  244       case AF_INCOMING_MSG_CMD:
//  245         Smart_home_ProcessMSGCmd( MSGpkt );
//  246         break;
//  247 
//  248       default:
//  249         break;
//  250       }
//  251 
//  252       osal_msg_deallocate( (uint8 *)MSGpkt );
//  253     }
//  254 
//  255     return ( events ^ SYS_EVENT_MSG );
//  256   }
//  257   
//  258   // 描述匹配事件
//  259   if ( events & SMART_HOME_MATCHRSP_EVT )
        MOV     A,R6
        ANL     A,#0x8
        JNZ     $+5
        LJMP    ??Smart_home_ProcessEvent_1 & 0xFFFF
//  260   {
//  261      zAddrType_t dstAddr;
//  262      dstAddr.addrMode = AddrBroadcast;
        MOV     A,#0x8
        LCALL   ?XSTACK_DISP0_8
        MOV     A,#0xf
        MOVX    @DPTR,A
//  263      dstAddr.addr.shortAddr = NWK_BROADCAST_SHORTADDR;
        MOV     DPL,?XSP + 0
        MOV     DPH,?XSP + 1
        MOV     A,#-0x1
        MOVX    @DPTR,A
        INC     DPTR
        MOVX    @DPTR,A
//  264      
//  265      ZDP_MatchDescReq( &dstAddr, 
//  266                         NWK_BROADCAST_SHORTADDR,
//  267                         Smart_home_PROFID,
//  268                         Smart_home_MAX_OUTCLUSTERS, 
//  269                         (cId_t *)Smart_home_ClusterList_IN,
//  270                         Smart_home_MAX_INCLUSTERS, 
//  271                         (cId_t *)Smart_home_ClusterList_OUT,
//  272                         FALSE );
        ; Setup parameters for call to function ZDP_MatchDescReq
        MOV     ?V0 + 0,#0x0
        MOV     R0,#?V0 + 0
        LCALL   ?PUSH_XSTACK_I_ONE
        CFI CFA_XSP16 add(XSP16, 22)
        MOV     ?V0 + 0,#Smart_home_ClusterList_OUT & 0xff
        MOV     ?V0 + 1,#(Smart_home_ClusterList_OUT >> 8) & 0xff
        MOV     R0,#?V0 + 0
        LCALL   ?PUSH_XSTACK_I_TWO
        CFI CFA_XSP16 add(XSP16, 24)
        MOV     ?V0 + 0,#0x9
        MOV     R0,#?V0 + 0
        LCALL   ?PUSH_XSTACK_I_ONE
        CFI CFA_XSP16 add(XSP16, 25)
        MOV     ?V0 + 0,#Smart_home_ClusterList_IN & 0xff
        MOV     ?V0 + 1,#(Smart_home_ClusterList_IN >> 8) & 0xff
        MOV     R0,#?V0 + 0
        LCALL   ?PUSH_XSTACK_I_TWO
        CFI CFA_XSP16 add(XSP16, 27)
        MOV     ?V0 + 0,#0x5
        MOV     ?V0 + 1,#0xf
        MOV     R0,#?V0 + 0
        LCALL   ?PUSH_XSTACK_I_TWO
        CFI CFA_XSP16 add(XSP16, 29)
        MOV     R1,#0x3
        MOV     R4,#-0x1
        MOV     R5,#-0x1
        MOV     A,#0x8
        LCALL   ?XSTACK_DISP0_8
        MOV     R2,DPL
        MOV     R3,DPH
        LCALL   ??ZDP_MatchDescReq?relay
        MOV     A,#0x8
        LCALL   ?DEALLOC_XSTACK8
        CFI CFA_XSP16 add(XSP16, 21)
//  273 
//  274     // Return unprocessed events
//  275     return (events ^ SMART_HOME_MATCHRSP_EVT);
        MOV     A,R6
        XRL     A,#0x8
        MOV     R2,A
        MOV     A,R7
??Smart_home_ProcessEvent_2:
        MOV     R3,A
        LJMP    ??Smart_home_ProcessEvent_3 & 0xFFFF
//  276   }
??Smart_home_ProcessEvent_4:
        MOV     DPL,R2
        MOV     DPH,R3
        MOVX    A,@DPTR
        XRL     A,#0xd3
        JNZ     ??Smart_home_ProcessEvent_5
        ; Setup parameters for call to function Smart_home_ProcessZDOMsgs
        LCALL   ??Smart_home_ProcessZDOMsgs?relay
??Smart_home_ProcessEvent_5:
        ; Setup parameters for call to function osal_msg_deallocate
        MOV     R2,?V0 + 0
        MOV     R3,?V0 + 1
        LCALL   ??osal_msg_deallocate?relay
??Smart_home_ProcessEvent_0:
        ; Setup parameters for call to function osal_msg_receive
        MOV     DPTR,#Smart_home_TaskID
        MOVX    A,@DPTR
        MOV     R1,A
        LCALL   ??osal_msg_receive?relay
        MOV     ?V0 + 0,R2
        MOV     ?V0 + 1,R3
        MOV     A,R2
        ORL     A,?V0 + 1
        JNZ     ??Smart_home_ProcessEvent_4
        MOV     A,R6
        MOV     R2,A
        MOV     A,R7
        XRL     A,#0x80
        SJMP    ??Smart_home_ProcessEvent_2
//  277 
//  278   if ( events & SMART_HOME_SEND_MSG_EVT )
??Smart_home_ProcessEvent_1:
        MOV     A,R6
        MOV     C,0xE0 /* A   */.0
        JC      $+5
        LJMP    ??Smart_home_ProcessEvent_6 & 0xFFFF
??Smart_home_ProcessEvent_7:
        MOV     DPTR,#Smart_home_MsgID
        MOVX    A,@DPTR
        SWAP    A
        ANL     A,#0xf
        MOV     R2,A
        CLR     C
        SUBB    A,#0xa
        JNC     ??Smart_home_ProcessEvent_8
        MOV     R0,#0x30
        SJMP    ??Smart_home_ProcessEvent_9
??Smart_home_ProcessEvent_8:
        MOV     R0,#0x37
??Smart_home_ProcessEvent_9:
        MOV     A,R0
        ADD     A,R2
        MOV     DPTR,#Coordinator_Msg + 2
        MOVX    @DPTR,A
        MOV     DPTR,#Smart_home_MsgID
        MOVX    A,@DPTR
        ANL     A,#0xf
        MOV     R2,A
        CLR     C
        SUBB    A,#0xa
        JNC     ??Smart_home_ProcessEvent_10
        MOV     R0,#0x30
        SJMP    ??Smart_home_ProcessEvent_11
??Smart_home_ProcessEvent_10:
        MOV     R0,#0x37
??Smart_home_ProcessEvent_11:
        MOV     A,R0
        ADD     A,R2
        MOV     DPTR,#Coordinator_Msg + 3
        MOVX    @DPTR,A
        MOV     DPTR,#soundVbBuf + 1
        MOVX    A,@DPTR
        CLR     C
        RLC     A
        MOV     DPH,#(soundVbBuf >> 8) & 0xff
        MOV     DPL,#soundVbBuf & 0xff
        MOV     R0,A
        MOVX    A,@DPTR
        ORL     A,R0
        MOV     DPTR,#Coordinator_Msg + 4
        MOVX    @DPTR,A
        ; Setup parameters for call to function AF_DataRequest
        MOV     ?V0 + 0,#0x1e
        MOV     R0,#?V0 + 0
        LCALL   ?PUSH_XSTACK_I_ONE
        CFI CFA_XSP16 add(XSP16, 22)
        MOV     ?V0 + 0,#Smart_home_MsgID & 0xff
        MOV     ?V0 + 1,#(Smart_home_MsgID >> 8) & 0xff
        MOV     R0,#?V0 + 0
        LCALL   ?PUSH_XSTACK_I_TWO
        CFI CFA_XSP16 add(XSP16, 24)
        MOV     ?V0 + 0,#Coordinator_Msg & 0xff
        MOV     ?V0 + 1,#(Coordinator_Msg >> 8) & 0xff
        MOV     R0,#?V0 + 0
        LCALL   ?PUSH_XSTACK_I_TWO
        CFI CFA_XSP16 add(XSP16, 26)
        MOV     ?V0 + 0,#0x5
        MOV     ?V0 + 1,#0x0
        MOV     R0,#?V0 + 0
        LCALL   ?PUSH_XSTACK_I_TWO
        CFI CFA_XSP16 add(XSP16, 28)
        MOV     ?V0 + 0,#0x6
        MOV     R0,#?V0 + 0
        LCALL   ?PUSH_XSTACK_I_TWO
        CFI CFA_XSP16 add(XSP16, 30)
        MOV     R1,#0x20
        MOV     R4,#Smart_home_epDesc & 0xff
        MOV     R5,#(Smart_home_epDesc >> 8) & 0xff
        MOV     R2,#Coordinator_DstAddr & 0xff
        MOV     R3,#(Coordinator_DstAddr >> 8) & 0xff
        LCALL   ??AF_DataRequest?relay
        MOV     A,#0x9
        LCALL   ?DEALLOC_XSTACK8
        CFI CFA_XSP16 add(XSP16, 21)
        MOV     A,R1
        JNZ     $+5
        LJMP    ??Smart_home_ProcessEvent_7 & 0xFFFF
        MOV     DPTR,#soundVbBuf
        CLR     A
        MOVX    @DPTR,A
        INC     DPTR
        MOVX    @DPTR,A
//  279   {
//  280     Smart_home_Send();
//  281     return ( events ^ SMART_HOME_SEND_MSG_EVT );
        MOV     A,R6
        XRL     A,#0x1
        MOV     R2,A
        MOV     A,R7
        MOV     R3,A
        SJMP    ??Smart_home_ProcessEvent_3
//  282   }
//  283 
//  284   if ( events & SMART_HOME_BINDRSP_EVT )
??Smart_home_ProcessEvent_6:
        ANL     A,#0x20
        JZ      ??Smart_home_ProcessEvent_12
//  285   {
//  286     Smart_home_Resp();
//  287     return ( events ^ SMART_HOME_BINDRSP_EVT );
        MOV     A,R6
        XRL     A,#0x20
        MOV     R2,A
        SJMP    ??Smart_home_ProcessEvent_3
//  288   }
//  289   
//  290   return ( 0 );  // Discard unknown events.
??Smart_home_ProcessEvent_12:
        MOV     R2,#0x0
        MOV     R3,#0x0
??Smart_home_ProcessEvent_3:
        MOV     A,#0x9
        LCALL   ?DEALLOC_XSTACK8
        CFI EndBlock cfiBlock1
        REQUIRE ?Subroutine0
        ; // Fall through to label ?Subroutine0
//  291 }

        RSEG BANKED_CODE:CODE:NOROOT(0)
?Subroutine0:
        CFI Block cfiBlock2 Using cfiCommon0
        CFI NoFunction
        CFI CFA_SP SP+0
        CFI CFA_XSP16 add(XSP16, 12)
        CFI VB load(1, XDATA, add(CFA_XSP16, literal(-11)))
        CFI DPL0 load(1, XDATA, add(CFA_XSP16, literal(-2)))
        CFI DPH0 load(1, XDATA, add(CFA_XSP16, literal(-1)))
        CFI R6 load(1, XDATA, add(CFA_XSP16, literal(-12)))
        CFI R7 load(1, XDATA, add(CFA_XSP16, literal(-6)))
        CFI V0 load(1, XDATA, add(CFA_XSP16, literal(-10)))
        CFI V1 load(1, XDATA, add(CFA_XSP16, literal(-9)))
        CFI V2 load(1, XDATA, add(CFA_XSP16, literal(-8)))
        CFI V3 load(1, XDATA, add(CFA_XSP16, literal(-7)))
        CFI ?BRET_EXT load(1, XDATA, add(CFA_XSP16, literal(-3)))
        CFI ?RET_HIGH load(1, XDATA, add(CFA_XSP16, literal(-4)))
        CFI ?RET_LOW load(1, XDATA, add(CFA_XSP16, literal(-5)))
        MOV     R7,#0x4
        LJMP    ?BANKED_LEAVE_XDATA
        CFI EndBlock cfiBlock2
//  292 
//  293 /*********************************************************************
//  294  * @fn      Smart_home_ProcessZDOMsgs()
//  295  *
//  296  * @brief   Process response messages
//  297  *
//  298  * @param   none
//  299  *
//  300  * @return  none
//  301  */

        RSEG BANKED_CODE:CODE:NOROOT(0)
//  302 static void Smart_home_ProcessZDOMsgs( zdoIncomingMsg_t *inMsg )
Smart_home_ProcessZDOMsgs:
        CFI Block cfiBlock3 Using cfiCommon0
        CFI Function Smart_home_ProcessZDOMsgs
        CODE
//  303 {
        FUNCALL Smart_home_ProcessZDOMsgs, strlen
        LOCFRAME ISTACK, 0, STACK
        LOCFRAME PSTACK, 0, STACK
        LOCFRAME XSTACK, 12, STACK
        LOCFRAME IOVERLAY, 0, STATIC
        LOCFRAME DOVERLAY, 0, STATIC
        ARGFRAME ISTACK, 0, STACK
        ARGFRAME PSTACK, 0, STACK
        ARGFRAME XSTACK, 12, STACK
        ARGFRAME IOVERLAY, 0, STATIC
        ARGFRAME DOVERLAY, 0, STATIC
        FUNCALL Smart_home_ProcessZDOMsgs, HalUARTWrite
        LOCFRAME ISTACK, 0, STACK
        LOCFRAME PSTACK, 0, STACK
        LOCFRAME XSTACK, 12, STACK
        LOCFRAME IOVERLAY, 0, STATIC
        LOCFRAME DOVERLAY, 0, STATIC
        ARGFRAME ISTACK, 0, STACK
        ARGFRAME PSTACK, 0, STACK
        ARGFRAME XSTACK, 12, STACK
        ARGFRAME IOVERLAY, 0, STATIC
        ARGFRAME DOVERLAY, 0, STATIC
        FUNCALL Smart_home_ProcessZDOMsgs, ZDO_ParseEPListRsp
        LOCFRAME ISTACK, 0, STACK
        LOCFRAME PSTACK, 0, STACK
        LOCFRAME XSTACK, 12, STACK
        LOCFRAME IOVERLAY, 0, STATIC
        LOCFRAME DOVERLAY, 0, STATIC
        ARGFRAME ISTACK, 0, STACK
        ARGFRAME PSTACK, 0, STACK
        ARGFRAME XSTACK, 12, STACK
        ARGFRAME IOVERLAY, 0, STATIC
        ARGFRAME DOVERLAY, 0, STATIC
        FUNCALL Smart_home_ProcessZDOMsgs, osal_stop_timerEx
        LOCFRAME ISTACK, 0, STACK
        LOCFRAME PSTACK, 0, STACK
        LOCFRAME XSTACK, 12, STACK
        LOCFRAME IOVERLAY, 0, STATIC
        LOCFRAME DOVERLAY, 0, STATIC
        ARGFRAME ISTACK, 0, STACK
        ARGFRAME PSTACK, 0, STACK
        ARGFRAME XSTACK, 12, STACK
        ARGFRAME IOVERLAY, 0, STATIC
        ARGFRAME DOVERLAY, 0, STATIC
        FUNCALL Smart_home_ProcessZDOMsgs, strlen
        LOCFRAME ISTACK, 0, STACK
        LOCFRAME PSTACK, 0, STACK
        LOCFRAME XSTACK, 12, STACK
        LOCFRAME IOVERLAY, 0, STATIC
        LOCFRAME DOVERLAY, 0, STATIC
        ARGFRAME ISTACK, 0, STACK
        ARGFRAME PSTACK, 0, STACK
        ARGFRAME XSTACK, 12, STACK
        ARGFRAME IOVERLAY, 0, STATIC
        ARGFRAME DOVERLAY, 0, STATIC
        FUNCALL Smart_home_ProcessZDOMsgs, HalUARTWrite
        LOCFRAME ISTACK, 0, STACK
        LOCFRAME PSTACK, 0, STACK
        LOCFRAME XSTACK, 12, STACK
        LOCFRAME IOVERLAY, 0, STATIC
        LOCFRAME DOVERLAY, 0, STATIC
        ARGFRAME ISTACK, 0, STACK
        ARGFRAME PSTACK, 0, STACK
        ARGFRAME XSTACK, 12, STACK
        ARGFRAME IOVERLAY, 0, STATIC
        ARGFRAME DOVERLAY, 0, STATIC
        FUNCALL Smart_home_ProcessZDOMsgs, osal_start_reload_timer
        LOCFRAME ISTACK, 0, STACK
        LOCFRAME PSTACK, 0, STACK
        LOCFRAME XSTACK, 12, STACK
        LOCFRAME IOVERLAY, 0, STATIC
        LOCFRAME DOVERLAY, 0, STATIC
        ARGFRAME ISTACK, 0, STACK
        ARGFRAME PSTACK, 0, STACK
        ARGFRAME XSTACK, 12, STACK
        ARGFRAME IOVERLAY, 0, STATIC
        ARGFRAME DOVERLAY, 0, STATIC
        FUNCALL Smart_home_ProcessZDOMsgs, osal_mem_free
        LOCFRAME ISTACK, 0, STACK
        LOCFRAME PSTACK, 0, STACK
        LOCFRAME XSTACK, 12, STACK
        LOCFRAME IOVERLAY, 0, STATIC
        LOCFRAME DOVERLAY, 0, STATIC
        ARGFRAME ISTACK, 0, STACK
        ARGFRAME PSTACK, 0, STACK
        ARGFRAME XSTACK, 12, STACK
        ARGFRAME IOVERLAY, 0, STATIC
        ARGFRAME DOVERLAY, 0, STATIC
        MOV     A,#-0xc
        LCALL   ?BANKED_ENTER_XDATA
        CFI DPH0 load(1, XDATA, add(CFA_XSP16, literal(-1)))
        CFI DPL0 load(1, XDATA, add(CFA_XSP16, literal(-2)))
        CFI ?BRET_EXT load(1, XDATA, add(CFA_XSP16, literal(-3)))
        CFI ?RET_HIGH load(1, XDATA, add(CFA_XSP16, literal(-4)))
        CFI ?RET_LOW load(1, XDATA, add(CFA_XSP16, literal(-5)))
        CFI R7 load(1, XDATA, add(CFA_XSP16, literal(-6)))
        CFI V3 load(1, XDATA, add(CFA_XSP16, literal(-7)))
        CFI V2 load(1, XDATA, add(CFA_XSP16, literal(-8)))
        CFI V1 load(1, XDATA, add(CFA_XSP16, literal(-9)))
        CFI V0 load(1, XDATA, add(CFA_XSP16, literal(-10)))
        CFI VB load(1, XDATA, add(CFA_XSP16, literal(-11)))
        CFI R6 load(1, XDATA, add(CFA_XSP16, literal(-12)))
        CFI CFA_SP SP+0
        CFI CFA_XSP16 add(XSP16, 12)
        ; Saved register size: 12
        ; Auto size: 0
//  304   switch ( inMsg->clusterID )
        MOV     A,R2
        ADD     A,#0xc
        MOV     DPL,A
        MOV     A,R3
        ADDC    A,#0x0
        MOV     DPH,A
        MOVX    A,@DPTR
        MOV     ?V0 + 0,A
        INC     DPTR
        MOVX    A,@DPTR
        MOV     ?V0 + 1,A
        MOV     R0,#?V0 + 0
        LCALL   ?US_SWITCH_SPARSE
`?<Jumptable for Smart_home_ProcessZDOMsgs>_0`:
        DATA
        DATA16
        DATA
        DATA16
        DATA
        DATA16
        DW        0
        DATA
        DATA16
        DATA
        DATA16
        DATA
        DATA16
        DW        2
        DATA
        DATA16
        DATA
        DATA16
        DATA
        DATA16
        DW        32774
        DATA
        DATA16
        DATA
        DATA16
        DATA
        DATA16
        DW        ??Smart_home_ProcessZDOMsgs_0
        DATA
        DATA16
        DATA
        DATA16
        DATA
        DATA16
        DW        32800
        DATA
        DATA16
        DATA
        DATA16
        DATA
        DATA16
        DW        ??Smart_home_ProcessZDOMsgs_1
        DATA
        DATA16
        DATA
        DATA16
        DW        ??Smart_home_ProcessZDOMsgs_2
        CODE
//  305   {
//  306     case End_Device_Bind_rsp:
//  307       if ( ZDO_ParseBindRsp( inMsg ) == ZSuccess )
??Smart_home_ProcessZDOMsgs_1:
        MOV     A,R2
        ADD     A,#0x13
        MOV     DPL,A
        MOV     A,R3
        ADDC    A,#0x0
        MOV     DPH,A
        MOVX    A,@DPTR
        MOV     R0,A
        INC     DPTR
        MOVX    A,@DPTR
        MOV     DPH,A
        MOV     DPL,R0
        MOVX    A,@DPTR
        JZ      $+5
        LJMP    ??Smart_home_ProcessZDOMsgs_2 & 0xFFFF
//  308       {
//  309 #if (HAL_UART == TRUE)
//  310         HalUARTWrite(HAL_UART_PORT_0, "Bind Success!\n",   strlen("Bind Success!\n"));
        ; Setup parameters for call to function HalUARTWrite
        ; Setup parameters for call to function strlen
        MOV     R2,#`?<Constant "Bind Success!\\n">` & 0xff
        MOV     R3,#(`?<Constant "Bind Success!\\n">` >> 8) & 0xff
        LCALL   ??strlen?relay
        MOV     A,R2
        MOV     R4,A
        MOV     A,R3
        MOV     R5,A
        MOV     R2,#`?<Constant "Bind Success!\\n">` & 0xff
        MOV     R3,#(`?<Constant "Bind Success!\\n">` >> 8) & 0xff
        MOV     R1,#0x0
        LCALL   ??HalUARTWrite?relay
        SJMP    ??Smart_home_ProcessZDOMsgs_2
//  311 #endif
//  312       }
//  313       break;
//  314     
//  315     case Match_Desc_rsp:
//  316       ZDO_ActiveEndpointRsp_t *pRsp = ZDO_ParseEPListRsp( inMsg );
??Smart_home_ProcessZDOMsgs_0:
        ; Setup parameters for call to function ZDO_ParseEPListRsp
        LCALL   ??ZDO_ParseEPListRsp?relay
        MOV     ?V0 + 0,R2
        MOV     ?V0 + 1,R3
//  317       if ( pRsp )
        MOV     A,R2
        ORL     A,?V0 + 1
        JZ      ??Smart_home_ProcessZDOMsgs_2
//  318       {
//  319         if ( pRsp->status == ZSuccess && pRsp->cnt )
        MOV     DPL,R2
        MOV     DPH,R3
        MOVX    A,@DPTR
        JNZ     ??Smart_home_ProcessZDOMsgs_3
        INC     DPTR
        INC     DPTR
        INC     DPTR
        MOVX    A,@DPTR
        JZ      ??Smart_home_ProcessZDOMsgs_3
//  320         {
//  321           // 此处存储绑定对方的地址信息用于发送
//  322           Coordinator_DstAddr.addrMode = (afAddrMode_t)Addr16Bit;
        MOV     DPTR,#Coordinator_DstAddr + 8
        MOV     A,#0x2
        MOVX    @DPTR,A
//  323           Coordinator_DstAddr.addr.shortAddr = pRsp->nwkAddr;
        MOV     DPL,R2
        MOV     DPH,R3
        INC     DPTR
        MOVX    A,@DPTR
        MOV     R0,A
        INC     DPTR
        MOVX    A,@DPTR
        MOV     R1,A
        MOV     DPTR,#Coordinator_DstAddr
        MOV     A,R0
        MOVX    @DPTR,A
        INC     DPTR
        MOV     A,R1
        MOVX    @DPTR,A
//  324           // Take the first endpoint, Can be changed to search through endpoints
//  325           Coordinator_DstAddr.endPoint = pRsp->epList[0];  // ok
        MOV     DPL,R2
        MOV     DPH,R3
        INC     DPTR
        INC     DPTR
        INC     DPTR
        INC     DPTR
        MOVX    A,@DPTR
        MOV     DPTR,#Coordinator_DstAddr + 9
        MOVX    @DPTR,A
//  326           // 匹配成功，关闭描述符匹配事件定时器
//  327           osal_stop_timerEx( Smart_home_TaskID, SMART_HOME_MATCHRSP_EVT );
        ; Setup parameters for call to function osal_stop_timerEx
        MOV     R2,#0x8
        MOV     R3,#0x0
        MOV     DPTR,#Smart_home_TaskID
        MOVX    A,@DPTR
        MOV     R1,A
        LCALL   ??osal_stop_timerEx?relay
//  328   
//  329 #if (HAL_UART == TRUE)
//  330           HalUARTWrite(HAL_UART_PORT_0, "Match Success!\n",   strlen("Match Success!\n"));
        ; Setup parameters for call to function HalUARTWrite
        ; Setup parameters for call to function strlen
        MOV     R2,#`?<Constant "Match Success!\\n">` & 0xff
        MOV     R3,#(`?<Constant "Match Success!\\n">` >> 8) & 0xff
        LCALL   ??strlen?relay
        MOV     A,R2
        MOV     R4,A
        MOV     A,R3
        MOV     R5,A
        MOV     R2,#`?<Constant "Match Success!\\n">` & 0xff
        MOV     R3,#(`?<Constant "Match Success!\\n">` >> 8) & 0xff
        MOV     R1,#0x0
        LCALL   ??HalUARTWrite?relay
//  331 #endif
//  332           // 开启定时发送数据给协调器的事件
//  333           osal_start_reload_timer( Smart_home_TaskID, SMART_HOME_SEND_MSG_EVT, 
//  334                                    SMART_HOME_SEND_DELAY );
        ; Setup parameters for call to function osal_start_reload_timer
        MOV     R4,#-0xc
        MOV     R5,#0x1
        MOV     R2,#0x1
        MOV     R3,#0x0
        MOV     DPTR,#Smart_home_TaskID
        MOVX    A,@DPTR
        MOV     R1,A
        LCALL   ??osal_start_reload_timer?relay
//  335         }
//  336     
//  337         osal_mem_free( pRsp );
??Smart_home_ProcessZDOMsgs_3:
        ; Setup parameters for call to function osal_mem_free
        MOV     R2,?V0 + 0
        MOV     R3,?V0 + 1
        LCALL   ??osal_mem_free?relay
//  338       }
//  339       break;
//  340       
//  341     default:
//  342       break;
//  343   }
//  344   
//  345 }
??Smart_home_ProcessZDOMsgs_2:
        LJMP    ?Subroutine0 & 0xFFFF
        CFI EndBlock cfiBlock3
//  346 
//  347 /*********************************************************************
//  348  * @fn      Smart_home_HandleKeys
//  349  *
//  350  * @brief   Handles all key events for this device.
//  351  *
//  352  * @param   shift - true if in shift/alt.
//  353  * @param   keys  - bit field for key events.
//  354  *
//  355  * @return  none
//  356  */
//  357 void Smart_home_HandleKeys( uint8 shift, uint8 keys )
//  358 {
//  359   
//  360   if ( keys & HAL_KEY_SW_5 )
//  361   {
//  362   }
//  363 
//  364 }
//  365 
//  366 /*********************************************************************
//  367  * @fn      Smart_home_ProcessMSGCmd
//  368  *
//  369  * @brief   Data message processor callback. This function processes
//  370  *          any incoming data - probably from other devices. Based
//  371  *          on the cluster ID, perform the intended action.
//  372  *
//  373  * @param   pkt - pointer to the incoming message packet
//  374  *
//  375  * @return  TRUE if the 'pkt' parameter is being used and will be freed later,
//  376  *          FALSE otherwise.
//  377  */
//  378 void Smart_home_ProcessMSGCmd( afIncomingMSGPacket_t *pkt )
//  379 {
//  380   uint8 mode;
//  381   
//  382   switch ( pkt->clusterId )
//  383   {
//  384     case Smart_home_CLUSTERID_TEMPLIGHTMSG:
//  385     {    
//  386       break;
//  387     } 
//  388     // Could receive control messages in the future.
//  389     default:
//  390       break;
//  391   }
//  392 }
//  393 
//  394 /*********************************************************************
//  395  * @fn      Smart_home_Send
//  396  *
//  397  * @brief   Send data OTA.
//  398  *
//  399  * @param   none
//  400  *
//  401  * @return  none
//  402  */
//  403 static void Smart_home_Send(void)
//  404 {
//  405   uint8 tmp; 
//  406   
//  407   do{
//  408     // put the sequence number in the message
//  409     tmp = HI_UINT8( Smart_home_MsgID );
//  410     tmp += (tmp <= 9) ? ('0') : ('A' - 0x0A);
//  411     Coordinator_Msg[2] = tmp;
//  412     tmp = LO_UINT8( Smart_home_MsgID );
//  413     tmp += (tmp <= 9) ? ('0') : ('A' - 0x0A);
//  414     Coordinator_Msg[3] = tmp;
//  415     
//  416     // 第0位存储声音报警信息，第1位存储振动报警信息
//  417     Coordinator_Msg[4] = soundVbBuf[1]<<1 | soundVbBuf[0];
//  418     
//  419     
//  420     tmp = AF_DataRequest( &Coordinator_DstAddr,                         
//  421                           (endPointDesc_t *)&Smart_home_epDesc,                  
//  422                            Smart_home_CLUSTERID_SOUNDVBMSG,
//  423                            SOUNDVBMSG_LEN,                 
//  424                            Coordinator_Msg,                    
//  425                           &Smart_home_MsgID,                       
//  426                            AF_DISCV_ROUTE,                     
//  427                            AF_DEFAULT_RADIUS );
//  428   }while (afStatus_SUCCESS == tmp);   
//  429   
//  430   // 清除报警信息
//  431   soundVbBuf[0] = 0;
//  432   soundVbBuf[1] = 0;
//  433 }
//  434 
//  435 /*********************************************************************
//  436  * @fn      Smart_home_Resp
//  437  *
//  438  * @brief   Send data OTA.
//  439  *
//  440  * @param   none
//  441  *
//  442  * @return  none
//  443  */
//  444 static void Smart_home_Resp(void)
//  445 {
//  446   /*
//  447   if (afStatus_SUCCESS != AF_DataRequest(&Smart_home_RxAddr,
//  448                                          (endPointDesc_t *)&Smart_home_epDesc,
//  449                                           Smart_home_CLUSTERID2,
//  450                                           SERIAL_APP_RSP_CNT, Smart_home_RspBuf,
//  451                                          &Smart_home_MsgID, 0, AF_DEFAULT_RADIUS))
//  452   {
//  453     osal_set_event(Smart_home_TaskID, SMART_HOME_BINDRSP_EVT);
//  454   }
//  455   */
//  456 }
//  457 
//  458 /*********************************************************************
//  459  * @fn      Smart_home_CallBack
//  460  *
//  461  * @brief   Send data OTA.
//  462  *
//  463  * @param   port - UART port.
//  464  * @param   event - the UART port event flag.
//  465  *
//  466  * @return  none
//  467  */

        RSEG BANKED_CODE:CODE:NOROOT(0)
//  468 static void Smart_home_CallBack(uint8 port, uint8 event)
Smart_home_CallBack:
        CFI Block cfiBlock4 Using cfiCommon0
        CFI Function Smart_home_CallBack
        CODE
//  469 {
        ; Saved register size: 0
        ; Auto size: 0
//  470 }
        LJMP    ?BRET
        CFI EndBlock cfiBlock4

        RSEG BANK_RELAYS:CODE:REORDER:NOROOT(0)
??Smart_home_Init?relay:
        LCALL   ?BDISPATCH
        DATA
        DC24    Smart_home_Init

        RSEG BANK_RELAYS:CODE:REORDER:NOROOT(0)
??Smart_home_ProcessEvent?relay:
        LCALL   ?BDISPATCH
        DATA
        DC24    Smart_home_ProcessEvent

        RSEG BANK_RELAYS:CODE:REORDER:NOROOT(0)
??Smart_home_ProcessZDOMsgs?relay:
        LCALL   ?BDISPATCH
        DATA
        DC24    Smart_home_ProcessZDOMsgs

        RSEG BANK_RELAYS:CODE:REORDER:NOROOT(0)
??Smart_home_CallBack?relay:
        LCALL   ?BDISPATCH
        DATA
        DC24    Smart_home_CallBack

        RSEG XDATA_ROM_C:CONST:REORDER:NOROOT(0)
        DATA8
`?<Constant "Bind Success!\\n">`:
        DB "Bind Success!\012"

        RSEG XDATA_ROM_C:CONST:REORDER:NOROOT(0)
        DATA8
`?<Constant "Match Success!\\n">`:
        DB "Match Success!\012"

        END
//  471 
//  472 /*********************************************************************
//  473 *********************************************************************/
// 
// 763 bytes in segment BANKED_CODE
//  24 bytes in segment BANK_RELAYS
//  53 bytes in segment XDATA_ROM_C
//  21 bytes in segment XDATA_Z
// 
// 787 bytes of CODE  memory
//  53 bytes of CONST memory
//  21 bytes of XDATA memory
//
//Errors: none
//Warnings: 6
